	.text
	.file	"read_gaussian_population.ll"
	.file	1 "/home/talgat/vlasiator/projects/read_gaussian_population.cpp"
	.weak	_ZN3MPI8DatatypeD1Ev    # -- Begin function _ZN3MPI8DatatypeD1Ev
	.p2align	4, 0x90
	.type	_ZN3MPI8DatatypeD1Ev,@function
_ZN3MPI8DatatypeD1Ev:                   # @_ZN3MPI8DatatypeD1Ev
.Lfunc_begin0:
	.file	2 "/usr/lib/x86_64-linux-gnu/openmpi/include/openmpi/ompi/mpi/cxx/datatype.h"
	.loc	2 70 0                  # /usr/lib/x86_64-linux-gnu/openmpi/include/openmpi/ompi/mpi/cxx/datatype.h:70:0
	.cfi_startproc
# %bb.0:                                # %L.entry
	#DEBUG_VALUE: ~Datatype: <- $rdi
	#DEBUG_VALUE: ~Datatype: <- $rdi
	pushq	%rbp
	.cfi_def_cfa_offset 16
	.cfi_offset %rbp, -16
	movq	%rsp, %rbp
	.cfi_def_cfa_register %rbp
.Ltmp0:
	#DEBUG_VALUE:  <- $rdi
	#DEBUG_VALUE:  <- $rdi
	.loc	2 70 1 prologue_end     # /usr/lib/x86_64-linux-gnu/openmpi/include/openmpi/ompi/mpi/cxx/datatype.h:70:1
	movq	$_ZTVN3MPI8DatatypeE+16, (%rdi)
	popq	%rbp
	.cfi_def_cfa %rsp, 8
	retq
.Ltmp1:
.Lfunc_end0:
	.size	_ZN3MPI8DatatypeD1Ev, .Lfunc_end0-_ZN3MPI8DatatypeD1Ev
	.cfi_endproc
                                        # -- End function
	.weak	_ZN3MPI8DatatypeD0Ev    # -- Begin function _ZN3MPI8DatatypeD0Ev
	.p2align	4, 0x90
	.type	_ZN3MPI8DatatypeD0Ev,@function
_ZN3MPI8DatatypeD0Ev:                   # @_ZN3MPI8DatatypeD0Ev
.Lfunc_begin1:
	.loc	1 0 0                   # projects/read_gaussian_population.cpp:0:0
	.cfi_startproc
# %bb.0:                                # %L.entry
	pushq	%rbp
	.cfi_def_cfa_offset 16
	.cfi_offset %rbp, -16
	movq	%rsp, %rbp
	.cfi_def_cfa_register %rbp
.Ltmp2:
	.loc	1 70 1 prologue_end     # projects/read_gaussian_population.cpp:70:1
	movl	$16, %esi
	popq	%rbp
	.cfi_def_cfa %rsp, 8
	jmp	_ZdlPvm                 # TAILCALL
.Ltmp3:
.Lfunc_end1:
	.size	_ZN3MPI8DatatypeD0Ev, .Lfunc_end1-_ZN3MPI8DatatypeD0Ev
	.cfi_endproc
                                        # -- End function
	.weak	_ZNK3MPI8Datatype17Create_contiguousEi # -- Begin function _ZNK3MPI8Datatype17Create_contiguousEi
	.p2align	4, 0x90
	.type	_ZNK3MPI8Datatype17Create_contiguousEi,@function
_ZNK3MPI8Datatype17Create_contiguousEi: # @_ZNK3MPI8Datatype17Create_contiguousEi
.Lfunc_begin2:
	.file	3 "/usr/lib/x86_64-linux-gnu/openmpi/include/openmpi/ompi/mpi/cxx/datatype_inln.h"
	.loc	3 30 0                  # /usr/lib/x86_64-linux-gnu/openmpi/include/openmpi/ompi/mpi/cxx/datatype_inln.h:30:0
	.cfi_startproc
# %bb.0:                                # %L.entry
	#DEBUG_VALUE: Create_contiguous: <- $rsi
	#DEBUG_VALUE: Create_contiguous:count <- $edx
	pushq	%rbp
	.cfi_def_cfa_offset 16
	.cfi_offset %rbp, -16
	movq	%rsp, %rbp
	.cfi_def_cfa_register %rbp
	pushq	%rbx
	pushq	%rax
	.cfi_offset %rbx, -24
	movl	%edx, %eax
	movq	%rdi, %rbx
.Ltmp4:
	#DEBUG_VALUE:  <- $rsi
	#DEBUG_VALUE: count <- $eax
	#DEBUG_VALUE: Create_contiguous:count <- $eax
	#DEBUG_VALUE: Create_contiguous: <- $rsi
	.loc	3 32 1 prologue_end     # /usr/lib/x86_64-linux-gnu/openmpi/include/openmpi/ompi/mpi/cxx/datatype_inln.h:32:1
	movq	8(%rsi), %rsi
.Ltmp5:
	#DEBUG_VALUE: newtype <- [DW_OP_constu 16, DW_OP_minus, DW_OP_deref] $rbp
	.loc	3 0 1 is_stmt 0         # /usr/lib/x86_64-linux-gnu/openmpi/include/openmpi/ompi/mpi/cxx/datatype_inln.h:0:1
	leaq	-16(%rbp), %rdx
	.loc	3 32 1                  # /usr/lib/x86_64-linux-gnu/openmpi/include/openmpi/ompi/mpi/cxx/datatype_inln.h:32:1
	movl	%eax, %edi
.Ltmp6:
	#DEBUG_VALUE: Create_contiguous:count <- $edi
	callq	MPI_Type_contiguous
.Ltmp7:
	.loc	3 33 1 is_stmt 1        # /usr/lib/x86_64-linux-gnu/openmpi/include/openmpi/ompi/mpi/cxx/datatype_inln.h:33:1
	movq	-16(%rbp), %rax
.Ltmp8:
	#DEBUG_VALUE: newtype <- undef
	movq	$_ZTVN3MPI8DatatypeE+16, (%rbx)
	.loc	3 72 1                  # /usr/lib/x86_64-linux-gnu/openmpi/include/openmpi/ompi/mpi/cxx/datatype_inln.h:72:1
	movq	%rax, 8(%rbx)
	.loc	3 34 1                  # /usr/lib/x86_64-linux-gnu/openmpi/include/openmpi/ompi/mpi/cxx/datatype_inln.h:34:1
	movq	%rbx, %rax
	addq	$8, %rsp
	popq	%rbx
	popq	%rbp
	.cfi_def_cfa %rsp, 8
	retq
.Ltmp9:
.Lfunc_end2:
	.size	_ZNK3MPI8Datatype17Create_contiguousEi, .Lfunc_end2-_ZNK3MPI8Datatype17Create_contiguousEi
	.cfi_endproc
                                        # -- End function
	.weak	_ZNK3MPI8Datatype13Create_vectorEiii # -- Begin function _ZNK3MPI8Datatype13Create_vectorEiii
	.p2align	4, 0x90
	.type	_ZNK3MPI8Datatype13Create_vectorEiii,@function
_ZNK3MPI8Datatype13Create_vectorEiii:   # @_ZNK3MPI8Datatype13Create_vectorEiii
.Lfunc_begin3:
	.loc	3 39 0                  # /usr/lib/x86_64-linux-gnu/openmpi/include/openmpi/ompi/mpi/cxx/datatype_inln.h:39:0
	.cfi_startproc
# %bb.0:                                # %L.entry
	#DEBUG_VALUE: Create_vector: <- $rsi
	#DEBUG_VALUE: Create_vector:count <- $edx
	#DEBUG_VALUE: Create_vector:blocklength <- $ecx
	#DEBUG_VALUE: Create_vector:stride <- $r8d
	pushq	%rbp
	.cfi_def_cfa_offset 16
	.cfi_offset %rbp, -16
	movq	%rsp, %rbp
	.cfi_def_cfa_register %rbp
	pushq	%rbx
	pushq	%rax
	.cfi_offset %rbx, -24
	movl	%r8d, %r9d
	movq	%rdi, %rbx
.Ltmp10:
	#DEBUG_VALUE:  <- $rsi
	#DEBUG_VALUE: stride <- $r9d
	#DEBUG_VALUE: blocklength <- $ecx
	#DEBUG_VALUE: count <- $edx
	#DEBUG_VALUE: Create_vector:stride <- $r9d
	#DEBUG_VALUE: Create_vector:blocklength <- $ecx
	#DEBUG_VALUE: Create_vector:count <- $edx
	#DEBUG_VALUE: Create_vector: <- $rsi
	.loc	3 41 1 prologue_end     # /usr/lib/x86_64-linux-gnu/openmpi/include/openmpi/ompi/mpi/cxx/datatype_inln.h:41:1
	movq	8(%rsi), %rax
.Ltmp11:
	#DEBUG_VALUE: newtype <- [DW_OP_constu 16, DW_OP_minus, DW_OP_deref] $rbp
	.loc	3 0 1 is_stmt 0         # /usr/lib/x86_64-linux-gnu/openmpi/include/openmpi/ompi/mpi/cxx/datatype_inln.h:0:1
	leaq	-16(%rbp), %r8
	.loc	3 41 1                  # /usr/lib/x86_64-linux-gnu/openmpi/include/openmpi/ompi/mpi/cxx/datatype_inln.h:41:1
	movl	%edx, %edi
.Ltmp12:
	#DEBUG_VALUE: Create_vector:count <- $edi
	movl	%ecx, %esi
.Ltmp13:
	#DEBUG_VALUE: Create_vector:blocklength <- $esi
	movl	%r9d, %edx
.Ltmp14:
	#DEBUG_VALUE: Create_vector:stride <- $edx
	movq	%rax, %rcx
.Ltmp15:
	callq	MPI_Type_vector
.Ltmp16:
	.loc	3 42 1 is_stmt 1        # /usr/lib/x86_64-linux-gnu/openmpi/include/openmpi/ompi/mpi/cxx/datatype_inln.h:42:1
	movq	-16(%rbp), %rax
.Ltmp17:
	#DEBUG_VALUE: newtype <- undef
	movq	$_ZTVN3MPI8DatatypeE+16, (%rbx)
	.loc	3 72 1                  # /usr/lib/x86_64-linux-gnu/openmpi/include/openmpi/ompi/mpi/cxx/datatype_inln.h:72:1
	movq	%rax, 8(%rbx)
	.loc	3 43 1                  # /usr/lib/x86_64-linux-gnu/openmpi/include/openmpi/ompi/mpi/cxx/datatype_inln.h:43:1
	movq	%rbx, %rax
	addq	$8, %rsp
	popq	%rbx
	popq	%rbp
	.cfi_def_cfa %rsp, 8
	retq
.Ltmp18:
.Lfunc_end3:
	.size	_ZNK3MPI8Datatype13Create_vectorEiii, .Lfunc_end3-_ZNK3MPI8Datatype13Create_vectorEiii
	.cfi_endproc
                                        # -- End function
	.weak	_ZNK3MPI8Datatype14Create_indexedEiPKiS2_ # -- Begin function _ZNK3MPI8Datatype14Create_indexedEiPKiS2_
	.p2align	4, 0x90
	.type	_ZNK3MPI8Datatype14Create_indexedEiPKiS2_,@function
_ZNK3MPI8Datatype14Create_indexedEiPKiS2_: # @_ZNK3MPI8Datatype14Create_indexedEiPKiS2_
.Lfunc_begin4:
	.loc	3 49 0                  # /usr/lib/x86_64-linux-gnu/openmpi/include/openmpi/ompi/mpi/cxx/datatype_inln.h:49:0
	.cfi_startproc
# %bb.0:                                # %L.entry
	#DEBUG_VALUE: Create_indexed: <- $rsi
	#DEBUG_VALUE: Create_indexed:count <- $edx
	#DEBUG_VALUE: Create_indexed:array_of_blocklengths <- $rcx
	#DEBUG_VALUE: Create_indexed:array_of_displacements <- $r8
	pushq	%rbp
	.cfi_def_cfa_offset 16
	.cfi_offset %rbp, -16
	movq	%rsp, %rbp
	.cfi_def_cfa_register %rbp
	pushq	%rbx
	pushq	%rax
	.cfi_offset %rbx, -24
	movq	%r8, %r9
	movq	%rdi, %rbx
.Ltmp19:
	#DEBUG_VALUE:  <- $rsi
	#DEBUG_VALUE: array_of_displacements <- $r9
	#DEBUG_VALUE: array_of_blocklengths <- $rcx
	#DEBUG_VALUE: count <- $edx
	#DEBUG_VALUE: Create_indexed:array_of_displacements <- $r9
	#DEBUG_VALUE: Create_indexed:array_of_blocklengths <- $rcx
	#DEBUG_VALUE: Create_indexed:count <- $edx
	#DEBUG_VALUE: Create_indexed: <- $rsi
	.loc	3 51 1 prologue_end     # /usr/lib/x86_64-linux-gnu/openmpi/include/openmpi/ompi/mpi/cxx/datatype_inln.h:51:1
	movq	8(%rsi), %rax
.Ltmp20:
	#DEBUG_VALUE: newtype <- [DW_OP_constu 16, DW_OP_minus, DW_OP_deref] $rbp
	.loc	3 0 1 is_stmt 0         # /usr/lib/x86_64-linux-gnu/openmpi/include/openmpi/ompi/mpi/cxx/datatype_inln.h:0:1
	leaq	-16(%rbp), %r8
	.loc	3 51 1                  # /usr/lib/x86_64-linux-gnu/openmpi/include/openmpi/ompi/mpi/cxx/datatype_inln.h:51:1
	movl	%edx, %edi
.Ltmp21:
	#DEBUG_VALUE: Create_indexed:count <- $edi
	movq	%rcx, %rsi
.Ltmp22:
	#DEBUG_VALUE: Create_indexed:array_of_blocklengths <- $rsi
	movq	%r9, %rdx
.Ltmp23:
	#DEBUG_VALUE: Create_indexed:array_of_displacements <- $rdx
	movq	%rax, %rcx
.Ltmp24:
	callq	MPI_Type_indexed
.Ltmp25:
	.loc	3 53 1 is_stmt 1        # /usr/lib/x86_64-linux-gnu/openmpi/include/openmpi/ompi/mpi/cxx/datatype_inln.h:53:1
	movq	-16(%rbp), %rax
.Ltmp26:
	#DEBUG_VALUE: newtype <- undef
	movq	$_ZTVN3MPI8DatatypeE+16, (%rbx)
	.loc	3 72 1                  # /usr/lib/x86_64-linux-gnu/openmpi/include/openmpi/ompi/mpi/cxx/datatype_inln.h:72:1
	movq	%rax, 8(%rbx)
	.loc	3 54 1                  # /usr/lib/x86_64-linux-gnu/openmpi/include/openmpi/ompi/mpi/cxx/datatype_inln.h:54:1
	movq	%rbx, %rax
	addq	$8, %rsp
	popq	%rbx
	popq	%rbp
	.cfi_def_cfa %rsp, 8
	retq
.Ltmp27:
.Lfunc_end4:
	.size	_ZNK3MPI8Datatype14Create_indexedEiPKiS2_, .Lfunc_end4-_ZNK3MPI8Datatype14Create_indexedEiPKiS2_
	.cfi_endproc
                                        # -- End function
	.weak	_ZNK3MPI8Datatype15Create_hindexedEiPKiPKl # -- Begin function _ZNK3MPI8Datatype15Create_hindexedEiPKiPKl
	.p2align	4, 0x90
	.type	_ZNK3MPI8Datatype15Create_hindexedEiPKiPKl,@function
_ZNK3MPI8Datatype15Create_hindexedEiPKiPKl: # @_ZNK3MPI8Datatype15Create_hindexedEiPKiPKl
.Lfunc_begin5:
	.loc	3 77 0                  # /usr/lib/x86_64-linux-gnu/openmpi/include/openmpi/ompi/mpi/cxx/datatype_inln.h:77:0
	.cfi_startproc
# %bb.0:                                # %L.entry
	#DEBUG_VALUE: Create_hindexed: <- $rsi
	#DEBUG_VALUE: Create_hindexed:count <- $edx
	#DEBUG_VALUE: Create_hindexed:array_of_blocklengths <- $rcx
	#DEBUG_VALUE: Create_hindexed:array_of_displacements <- $r8
	pushq	%rbp
	.cfi_def_cfa_offset 16
	.cfi_offset %rbp, -16
	movq	%rsp, %rbp
	.cfi_def_cfa_register %rbp
	pushq	%rbx
	pushq	%rax
	.cfi_offset %rbx, -24
	movq	%r8, %r9
	movq	%rdi, %rbx
.Ltmp28:
	#DEBUG_VALUE:  <- $rsi
	#DEBUG_VALUE: array_of_displacements <- $r9
	#DEBUG_VALUE: array_of_blocklengths <- $rcx
	#DEBUG_VALUE: count <- $edx
	#DEBUG_VALUE: Create_hindexed:array_of_displacements <- $r9
	#DEBUG_VALUE: Create_hindexed:array_of_blocklengths <- $rcx
	#DEBUG_VALUE: Create_hindexed:count <- $edx
	#DEBUG_VALUE: Create_hindexed: <- $rsi
	.loc	3 79 1 prologue_end     # /usr/lib/x86_64-linux-gnu/openmpi/include/openmpi/ompi/mpi/cxx/datatype_inln.h:79:1
	movq	8(%rsi), %rax
.Ltmp29:
	#DEBUG_VALUE: newtype <- [DW_OP_constu 16, DW_OP_minus, DW_OP_deref] $rbp
	.loc	3 0 1 is_stmt 0         # /usr/lib/x86_64-linux-gnu/openmpi/include/openmpi/ompi/mpi/cxx/datatype_inln.h:0:1
	leaq	-16(%rbp), %r8
	.loc	3 79 1                  # /usr/lib/x86_64-linux-gnu/openmpi/include/openmpi/ompi/mpi/cxx/datatype_inln.h:79:1
	movl	%edx, %edi
.Ltmp30:
	#DEBUG_VALUE: Create_hindexed:count <- $edi
	movq	%rcx, %rsi
.Ltmp31:
	#DEBUG_VALUE: Create_hindexed:array_of_blocklengths <- $rsi
	movq	%r9, %rdx
.Ltmp32:
	#DEBUG_VALUE: Create_hindexed:array_of_displacements <- $rdx
	movq	%rax, %rcx
.Ltmp33:
	callq	MPI_Type_create_hindexed
.Ltmp34:
	.loc	3 82 1 is_stmt 1        # /usr/lib/x86_64-linux-gnu/openmpi/include/openmpi/ompi/mpi/cxx/datatype_inln.h:82:1
	movq	-16(%rbp), %rax
.Ltmp35:
	#DEBUG_VALUE: newtype <- undef
	movq	$_ZTVN3MPI8DatatypeE+16, (%rbx)
	.loc	3 72 1                  # /usr/lib/x86_64-linux-gnu/openmpi/include/openmpi/ompi/mpi/cxx/datatype_inln.h:72:1
	movq	%rax, 8(%rbx)
	.loc	3 83 1                  # /usr/lib/x86_64-linux-gnu/openmpi/include/openmpi/ompi/mpi/cxx/datatype_inln.h:83:1
	movq	%rbx, %rax
	addq	$8, %rsp
	popq	%rbx
	popq	%rbp
	.cfi_def_cfa %rsp, 8
	retq
.Ltmp36:
.Lfunc_end5:
	.size	_ZNK3MPI8Datatype15Create_hindexedEiPKiPKl, .Lfunc_end5-_ZNK3MPI8Datatype15Create_hindexedEiPKiPKl
	.cfi_endproc
                                        # -- End function
	.weak	_ZNK3MPI8Datatype14Create_hvectorEiil # -- Begin function _ZNK3MPI8Datatype14Create_hvectorEiil
	.p2align	4, 0x90
	.type	_ZNK3MPI8Datatype14Create_hvectorEiil,@function
_ZNK3MPI8Datatype14Create_hvectorEiil:  # @_ZNK3MPI8Datatype14Create_hvectorEiil
.Lfunc_begin6:
	.loc	3 88 0                  # /usr/lib/x86_64-linux-gnu/openmpi/include/openmpi/ompi/mpi/cxx/datatype_inln.h:88:0
	.cfi_startproc
# %bb.0:                                # %L.entry
	#DEBUG_VALUE: Create_hvector: <- $rsi
	#DEBUG_VALUE: Create_hvector:count <- $edx
	#DEBUG_VALUE: Create_hvector:blocklength <- $ecx
	#DEBUG_VALUE: Create_hvector:stride <- $r8
	pushq	%rbp
	.cfi_def_cfa_offset 16
	.cfi_offset %rbp, -16
	movq	%rsp, %rbp
	.cfi_def_cfa_register %rbp
	pushq	%rbx
	pushq	%rax
	.cfi_offset %rbx, -24
	movq	%r8, %r9
	movq	%rdi, %rbx
.Ltmp37:
	#DEBUG_VALUE:  <- $rsi
	#DEBUG_VALUE: stride <- $r9
	#DEBUG_VALUE: blocklength <- $ecx
	#DEBUG_VALUE: count <- $edx
	#DEBUG_VALUE: Create_hvector:stride <- $r9
	#DEBUG_VALUE: Create_hvector:blocklength <- $ecx
	#DEBUG_VALUE: Create_hvector:count <- $edx
	#DEBUG_VALUE: Create_hvector: <- $rsi
	.loc	3 90 1 prologue_end     # /usr/lib/x86_64-linux-gnu/openmpi/include/openmpi/ompi/mpi/cxx/datatype_inln.h:90:1
	movq	8(%rsi), %rax
.Ltmp38:
	#DEBUG_VALUE: newtype <- [DW_OP_constu 16, DW_OP_minus, DW_OP_deref] $rbp
	.loc	3 0 1 is_stmt 0         # /usr/lib/x86_64-linux-gnu/openmpi/include/openmpi/ompi/mpi/cxx/datatype_inln.h:0:1
	leaq	-16(%rbp), %r8
	.loc	3 90 1                  # /usr/lib/x86_64-linux-gnu/openmpi/include/openmpi/ompi/mpi/cxx/datatype_inln.h:90:1
	movl	%edx, %edi
.Ltmp39:
	#DEBUG_VALUE: Create_hvector:count <- $edi
	movl	%ecx, %esi
.Ltmp40:
	#DEBUG_VALUE: Create_hvector:blocklength <- $esi
	movq	%r9, %rdx
.Ltmp41:
	#DEBUG_VALUE: Create_hvector:stride <- $rdx
	movq	%rax, %rcx
.Ltmp42:
	callq	MPI_Type_create_hvector
.Ltmp43:
	.loc	3 93 1 is_stmt 1        # /usr/lib/x86_64-linux-gnu/openmpi/include/openmpi/ompi/mpi/cxx/datatype_inln.h:93:1
	movq	-16(%rbp), %rax
.Ltmp44:
	#DEBUG_VALUE: newtype <- undef
	movq	$_ZTVN3MPI8DatatypeE+16, (%rbx)
	.loc	3 72 1                  # /usr/lib/x86_64-linux-gnu/openmpi/include/openmpi/ompi/mpi/cxx/datatype_inln.h:72:1
	movq	%rax, 8(%rbx)
	.loc	3 94 1                  # /usr/lib/x86_64-linux-gnu/openmpi/include/openmpi/ompi/mpi/cxx/datatype_inln.h:94:1
	movq	%rbx, %rax
	addq	$8, %rsp
	popq	%rbx
	popq	%rbp
	.cfi_def_cfa %rsp, 8
	retq
.Ltmp45:
.Lfunc_end6:
	.size	_ZNK3MPI8Datatype14Create_hvectorEiil, .Lfunc_end6-_ZNK3MPI8Datatype14Create_hvectorEiil
	.cfi_endproc
                                        # -- End function
	.weak	_ZNK3MPI8Datatype20Create_indexed_blockEiiPKi # -- Begin function _ZNK3MPI8Datatype20Create_indexed_blockEiiPKi
	.p2align	4, 0x90
	.type	_ZNK3MPI8Datatype20Create_indexed_blockEiiPKi,@function
_ZNK3MPI8Datatype20Create_indexed_blockEiiPKi: # @_ZNK3MPI8Datatype20Create_indexed_blockEiiPKi
.Lfunc_begin7:
	.loc	3 99 0                  # /usr/lib/x86_64-linux-gnu/openmpi/include/openmpi/ompi/mpi/cxx/datatype_inln.h:99:0
	.cfi_startproc
# %bb.0:                                # %L.entry
	#DEBUG_VALUE: Create_indexed_block: <- $rsi
	#DEBUG_VALUE: Create_indexed_block:count <- $edx
	#DEBUG_VALUE: Create_indexed_block:blocklength <- $ecx
	#DEBUG_VALUE: Create_indexed_block:array_of_displacements <- $r8
	pushq	%rbp
	.cfi_def_cfa_offset 16
	.cfi_offset %rbp, -16
	movq	%rsp, %rbp
	.cfi_def_cfa_register %rbp
	pushq	%rbx
	pushq	%rax
	.cfi_offset %rbx, -24
	movq	%r8, %r9
	movq	%rdi, %rbx
.Ltmp46:
	#DEBUG_VALUE:  <- $rsi
	#DEBUG_VALUE: array_of_displacements <- $r9
	#DEBUG_VALUE: blocklength <- $ecx
	#DEBUG_VALUE: count <- $edx
	#DEBUG_VALUE: Create_indexed_block:array_of_displacements <- $r9
	#DEBUG_VALUE: Create_indexed_block:blocklength <- $ecx
	#DEBUG_VALUE: Create_indexed_block:count <- $edx
	#DEBUG_VALUE: Create_indexed_block: <- $rsi
	.loc	3 101 1 prologue_end    # /usr/lib/x86_64-linux-gnu/openmpi/include/openmpi/ompi/mpi/cxx/datatype_inln.h:101:1
	movq	8(%rsi), %rax
.Ltmp47:
	#DEBUG_VALUE: newtype <- [DW_OP_constu 16, DW_OP_minus, DW_OP_deref] $rbp
	.loc	3 0 1 is_stmt 0         # /usr/lib/x86_64-linux-gnu/openmpi/include/openmpi/ompi/mpi/cxx/datatype_inln.h:0:1
	leaq	-16(%rbp), %r8
	.loc	3 101 1                 # /usr/lib/x86_64-linux-gnu/openmpi/include/openmpi/ompi/mpi/cxx/datatype_inln.h:101:1
	movl	%edx, %edi
.Ltmp48:
	#DEBUG_VALUE: Create_indexed_block:count <- $edi
	movl	%ecx, %esi
.Ltmp49:
	#DEBUG_VALUE: Create_indexed_block:blocklength <- $esi
	movq	%r9, %rdx
.Ltmp50:
	#DEBUG_VALUE: Create_indexed_block:array_of_displacements <- $rdx
	movq	%rax, %rcx
.Ltmp51:
	callq	MPI_Type_create_indexed_block
.Ltmp52:
	.loc	3 103 1 is_stmt 1       # /usr/lib/x86_64-linux-gnu/openmpi/include/openmpi/ompi/mpi/cxx/datatype_inln.h:103:1
	movq	-16(%rbp), %rax
.Ltmp53:
	#DEBUG_VALUE: newtype <- undef
	movq	$_ZTVN3MPI8DatatypeE+16, (%rbx)
	.loc	3 72 1                  # /usr/lib/x86_64-linux-gnu/openmpi/include/openmpi/ompi/mpi/cxx/datatype_inln.h:72:1
	movq	%rax, 8(%rbx)
	.loc	3 104 1                 # /usr/lib/x86_64-linux-gnu/openmpi/include/openmpi/ompi/mpi/cxx/datatype_inln.h:104:1
	movq	%rbx, %rax
	addq	$8, %rsp
	popq	%rbx
	popq	%rbp
	.cfi_def_cfa %rsp, 8
	retq
.Ltmp54:
.Lfunc_end7:
	.size	_ZNK3MPI8Datatype20Create_indexed_blockEiiPKi, .Lfunc_end7-_ZNK3MPI8Datatype20Create_indexed_blockEiiPKi
	.cfi_endproc
                                        # -- End function
	.weak	_ZNK3MPI8Datatype14Create_resizedEll # -- Begin function _ZNK3MPI8Datatype14Create_resizedEll
	.p2align	4, 0x90
	.type	_ZNK3MPI8Datatype14Create_resizedEll,@function
_ZNK3MPI8Datatype14Create_resizedEll:   # @_ZNK3MPI8Datatype14Create_resizedEll
.Lfunc_begin8:
	.loc	3 108 0                 # /usr/lib/x86_64-linux-gnu/openmpi/include/openmpi/ompi/mpi/cxx/datatype_inln.h:108:0
	.cfi_startproc
# %bb.0:                                # %L.entry
	#DEBUG_VALUE: Create_resized: <- $rsi
	#DEBUG_VALUE: Create_resized:lb <- $rdx
	#DEBUG_VALUE: Create_resized:extent <- $rcx
	pushq	%rbp
	.cfi_def_cfa_offset 16
	.cfi_offset %rbp, -16
	movq	%rsp, %rbp
	.cfi_def_cfa_register %rbp
	pushq	%rbx
	pushq	%rax
	.cfi_offset %rbx, -24
	movq	%rdi, %rbx
.Ltmp55:
	#DEBUG_VALUE:  <- $rsi
	#DEBUG_VALUE: extent <- $rcx
	#DEBUG_VALUE: lb <- $rdx
	#DEBUG_VALUE: Create_resized:extent <- $rcx
	#DEBUG_VALUE: Create_resized:lb <- $rdx
	#DEBUG_VALUE: Create_resized: <- $rsi
	.loc	3 111 1 prologue_end    # /usr/lib/x86_64-linux-gnu/openmpi/include/openmpi/ompi/mpi/cxx/datatype_inln.h:111:1
	movq	8(%rsi), %rdi
.Ltmp56:
	#DEBUG_VALUE: newtype <- [DW_OP_constu 16, DW_OP_minus, DW_OP_deref] $rbp
	.loc	3 0 1 is_stmt 0         # /usr/lib/x86_64-linux-gnu/openmpi/include/openmpi/ompi/mpi/cxx/datatype_inln.h:0:1
	leaq	-16(%rbp), %rax
	.loc	3 111 1                 # /usr/lib/x86_64-linux-gnu/openmpi/include/openmpi/ompi/mpi/cxx/datatype_inln.h:111:1
	movq	%rdx, %rsi
.Ltmp57:
	#DEBUG_VALUE: Create_resized:lb <- $rsi
	movq	%rcx, %rdx
.Ltmp58:
	#DEBUG_VALUE: Create_resized:extent <- $rdx
	movq	%rax, %rcx
.Ltmp59:
	callq	MPI_Type_create_resized
.Ltmp60:
	.loc	3 112 1 is_stmt 1       # /usr/lib/x86_64-linux-gnu/openmpi/include/openmpi/ompi/mpi/cxx/datatype_inln.h:112:1
	movq	-16(%rbp), %rax
.Ltmp61:
	#DEBUG_VALUE: newtype <- undef
	movq	$_ZTVN3MPI8DatatypeE+16, (%rbx)
	.loc	3 72 1                  # /usr/lib/x86_64-linux-gnu/openmpi/include/openmpi/ompi/mpi/cxx/datatype_inln.h:72:1
	movq	%rax, 8(%rbx)
	.loc	3 113 1                 # /usr/lib/x86_64-linux-gnu/openmpi/include/openmpi/ompi/mpi/cxx/datatype_inln.h:113:1
	movq	%rbx, %rax
	addq	$8, %rsp
	popq	%rbx
	popq	%rbp
	.cfi_def_cfa %rsp, 8
	retq
.Ltmp62:
.Lfunc_end8:
	.size	_ZNK3MPI8Datatype14Create_resizedEll, .Lfunc_end8-_ZNK3MPI8Datatype14Create_resizedEll
	.cfi_endproc
                                        # -- End function
	.weak	_ZNK3MPI8Datatype8Get_sizeEv # -- Begin function _ZNK3MPI8Datatype8Get_sizeEv
	.p2align	4, 0x90
	.type	_ZNK3MPI8Datatype8Get_sizeEv,@function
_ZNK3MPI8Datatype8Get_sizeEv:           # @_ZNK3MPI8Datatype8Get_sizeEv
.Lfunc_begin9:
	.loc	3 117 0                 # /usr/lib/x86_64-linux-gnu/openmpi/include/openmpi/ompi/mpi/cxx/datatype_inln.h:117:0
	.cfi_startproc
# %bb.0:                                # %L.entry
	#DEBUG_VALUE: Get_size: <- $rdi
	#DEBUG_VALUE: Get_size: <- $rdi
	pushq	%rbp
	.cfi_def_cfa_offset 16
	.cfi_offset %rbp, -16
	movq	%rsp, %rbp
	.cfi_def_cfa_register %rbp
	subq	$16, %rsp
.Ltmp63:
	#DEBUG_VALUE:  <- $rdi
	.loc	3 119 1 prologue_end    # /usr/lib/x86_64-linux-gnu/openmpi/include/openmpi/ompi/mpi/cxx/datatype_inln.h:119:1
	movq	8(%rdi), %rdi
.Ltmp64:
	#DEBUG_VALUE: size <- [DW_OP_constu 4, DW_OP_minus, DW_OP_deref] $rbp
	.loc	3 0 1 is_stmt 0         # /usr/lib/x86_64-linux-gnu/openmpi/include/openmpi/ompi/mpi/cxx/datatype_inln.h:0:1
	leaq	-4(%rbp), %rsi
	.loc	3 119 1                 # /usr/lib/x86_64-linux-gnu/openmpi/include/openmpi/ompi/mpi/cxx/datatype_inln.h:119:1
	callq	MPI_Type_size
	.loc	3 120 1 is_stmt 1       # /usr/lib/x86_64-linux-gnu/openmpi/include/openmpi/ompi/mpi/cxx/datatype_inln.h:120:1
	movl	-4(%rbp), %eax
.Ltmp65:
	#DEBUG_VALUE: size <- $eax
	addq	$16, %rsp
	popq	%rbp
	.cfi_def_cfa %rsp, 8
	retq
.Ltmp66:
.Lfunc_end9:
	.size	_ZNK3MPI8Datatype8Get_sizeEv, .Lfunc_end9-_ZNK3MPI8Datatype8Get_sizeEv
	.cfi_endproc
                                        # -- End function
	.weak	_ZNK3MPI8Datatype10Get_extentERlS1_ # -- Begin function _ZNK3MPI8Datatype10Get_extentERlS1_
	.p2align	4, 0x90
	.type	_ZNK3MPI8Datatype10Get_extentERlS1_,@function
_ZNK3MPI8Datatype10Get_extentERlS1_:    # @_ZNK3MPI8Datatype10Get_extentERlS1_
.Lfunc_begin10:
	.loc	3 125 0                 # /usr/lib/x86_64-linux-gnu/openmpi/include/openmpi/ompi/mpi/cxx/datatype_inln.h:125:0
	.cfi_startproc
# %bb.0:                                # %L.entry
	#DEBUG_VALUE: Get_extent: <- $rdi
	#DEBUG_VALUE: Get_extent: <- $rdi
	#DEBUG_VALUE: Get_extent:lb <- $rsi
	#DEBUG_VALUE: Get_extent:lb <- $rsi
	#DEBUG_VALUE: Get_extent:extent <- $rdx
	#DEBUG_VALUE: Get_extent:extent <- $rdx
	pushq	%rbp
	.cfi_def_cfa_offset 16
	.cfi_offset %rbp, -16
	movq	%rsp, %rbp
	.cfi_def_cfa_register %rbp
.Ltmp67:
	#DEBUG_VALUE:  <- $rdi
	#DEBUG_VALUE:  <- $rdi
	#DEBUG_VALUE: lb <- $rsi
	#DEBUG_VALUE: lb <- $rsi
	#DEBUG_VALUE: extent <- $rdx
	#DEBUG_VALUE: extent <- $rdx
	.loc	3 126 1 prologue_end    # /usr/lib/x86_64-linux-gnu/openmpi/include/openmpi/ompi/mpi/cxx/datatype_inln.h:126:1
	movq	8(%rdi), %rdi
.Ltmp68:
	#DEBUG_VALUE: extent <- $rdx
	#DEBUG_VALUE: Get_extent:extent <- $rdx
	#DEBUG_VALUE: lb <- $rsi
	#DEBUG_VALUE: Get_extent:lb <- $rsi
	popq	%rbp
	.cfi_def_cfa %rsp, 8
	jmp	MPI_Type_get_extent     # TAILCALL
.Ltmp69:
.Lfunc_end10:
	.size	_ZNK3MPI8Datatype10Get_extentERlS1_, .Lfunc_end10-_ZNK3MPI8Datatype10Get_extentERlS1_
	.cfi_endproc
                                        # -- End function
	.weak	_ZNK3MPI8Datatype15Get_true_extentERlS1_ # -- Begin function _ZNK3MPI8Datatype15Get_true_extentERlS1_
	.p2align	4, 0x90
	.type	_ZNK3MPI8Datatype15Get_true_extentERlS1_,@function
_ZNK3MPI8Datatype15Get_true_extentERlS1_: # @_ZNK3MPI8Datatype15Get_true_extentERlS1_
.Lfunc_begin11:
	.loc	3 131 0                 # /usr/lib/x86_64-linux-gnu/openmpi/include/openmpi/ompi/mpi/cxx/datatype_inln.h:131:0
	.cfi_startproc
# %bb.0:                                # %L.entry
	#DEBUG_VALUE: Get_true_extent: <- $rdi
	#DEBUG_VALUE: Get_true_extent: <- $rdi
	#DEBUG_VALUE: Get_true_extent:lb <- $rsi
	#DEBUG_VALUE: Get_true_extent:lb <- $rsi
	#DEBUG_VALUE: Get_true_extent:extent <- $rdx
	#DEBUG_VALUE: Get_true_extent:extent <- $rdx
	pushq	%rbp
	.cfi_def_cfa_offset 16
	.cfi_offset %rbp, -16
	movq	%rsp, %rbp
	.cfi_def_cfa_register %rbp
.Ltmp70:
	#DEBUG_VALUE:  <- $rdi
	#DEBUG_VALUE:  <- $rdi
	#DEBUG_VALUE: lb <- $rsi
	#DEBUG_VALUE: lb <- $rsi
	#DEBUG_VALUE: extent <- $rdx
	#DEBUG_VALUE: extent <- $rdx
	.loc	3 132 1 prologue_end    # /usr/lib/x86_64-linux-gnu/openmpi/include/openmpi/ompi/mpi/cxx/datatype_inln.h:132:1
	movq	8(%rdi), %rdi
.Ltmp71:
	#DEBUG_VALUE: extent <- $rdx
	#DEBUG_VALUE: Get_true_extent:extent <- $rdx
	#DEBUG_VALUE: lb <- $rsi
	#DEBUG_VALUE: Get_true_extent:lb <- $rsi
	popq	%rbp
	.cfi_def_cfa %rsp, 8
	jmp	MPI_Type_get_true_extent # TAILCALL
.Ltmp72:
.Lfunc_end11:
	.size	_ZNK3MPI8Datatype15Get_true_extentERlS1_, .Lfunc_end11-_ZNK3MPI8Datatype15Get_true_extentERlS1_
	.cfi_endproc
                                        # -- End function
	.weak	_ZN3MPI8Datatype6CommitEv # -- Begin function _ZN3MPI8Datatype6CommitEv
	.p2align	4, 0x90
	.type	_ZN3MPI8Datatype6CommitEv,@function
_ZN3MPI8Datatype6CommitEv:              # @_ZN3MPI8Datatype6CommitEv
.Lfunc_begin12:
	.loc	3 137 0                 # /usr/lib/x86_64-linux-gnu/openmpi/include/openmpi/ompi/mpi/cxx/datatype_inln.h:137:0
	.cfi_startproc
# %bb.0:                                # %L.entry
	#DEBUG_VALUE: Commit: <- $rdi
	#DEBUG_VALUE: Commit: <- $rdi
	pushq	%rbp
	.cfi_def_cfa_offset 16
	.cfi_offset %rbp, -16
	movq	%rsp, %rbp
	.cfi_def_cfa_register %rbp
.Ltmp73:
	#DEBUG_VALUE:  <- $rdi
	#DEBUG_VALUE:  <- $rdi
	.loc	3 138 1 prologue_end    # /usr/lib/x86_64-linux-gnu/openmpi/include/openmpi/ompi/mpi/cxx/datatype_inln.h:138:1
	addq	$8, %rdi
.Ltmp74:
	popq	%rbp
	.cfi_def_cfa %rsp, 8
	jmp	MPI_Type_commit         # TAILCALL
.Ltmp75:
.Lfunc_end12:
	.size	_ZN3MPI8Datatype6CommitEv, .Lfunc_end12-_ZN3MPI8Datatype6CommitEv
	.cfi_endproc
                                        # -- End function
	.weak	_ZNK3MPI8Datatype4PackEPKviPviRiRKNS_4CommE # -- Begin function _ZNK3MPI8Datatype4PackEPKviPviRiRKNS_4CommE
	.p2align	4, 0x90
	.type	_ZNK3MPI8Datatype4PackEPKviPviRiRKNS_4CommE,@function
_ZNK3MPI8Datatype4PackEPKviPviRiRKNS_4CommE: # @_ZNK3MPI8Datatype4PackEPKviPviRiRKNS_4CommE
.Lfunc_begin13:
	.loc	3 145 0                 # /usr/lib/x86_64-linux-gnu/openmpi/include/openmpi/ompi/mpi/cxx/datatype_inln.h:145:0
	.cfi_startproc
# %bb.0:                                # %L.entry
	#DEBUG_VALUE: Pack: <- $rdi
	#DEBUG_VALUE: Pack:inbuf <- $rsi
	#DEBUG_VALUE: Pack:incount <- $edx
	#DEBUG_VALUE: Pack:outbuf <- $rcx
	#DEBUG_VALUE: Pack:outsize <- $r8d
	#DEBUG_VALUE: Pack:position <- $r9
	pushq	%rbp
	.cfi_def_cfa_offset 16
	.cfi_offset %rbp, -16
	movq	%rsp, %rbp
	.cfi_def_cfa_register %rbp
	subq	$16, %rsp
.Ltmp76:
	#DEBUG_VALUE:  <- $rdi
	#DEBUG_VALUE: inbuf <- $rsi
	#DEBUG_VALUE: incount <- $edx
	#DEBUG_VALUE: outbuf <- $rcx
	#DEBUG_VALUE: outsize <- $r8d
	#DEBUG_VALUE: position <- $r9
	movq	16(%rbp), %r10
.Ltmp77:
	#DEBUG_VALUE: comm <- [DW_OP_plus_uconst 16] [$rbp+0]
	#DEBUG_VALUE: Pack:comm <- [DW_OP_plus_uconst 16] [$rbp+0]
	#DEBUG_VALUE: position <- $r9
	#DEBUG_VALUE: Pack:position <- $r9
	#DEBUG_VALUE: outsize <- $r8d
	#DEBUG_VALUE: Pack:outsize <- $r8d
	#DEBUG_VALUE: outbuf <- $rcx
	#DEBUG_VALUE: Pack:outbuf <- $rcx
	#DEBUG_VALUE: incount <- $edx
	#DEBUG_VALUE: Pack:incount <- $edx
	#DEBUG_VALUE: inbuf <- $rsi
	#DEBUG_VALUE: Pack:inbuf <- $rsi
	#DEBUG_VALUE:  <- $rdi
	#DEBUG_VALUE: Pack: <- $rdi
	.loc	3 80 1 prologue_end     # /usr/lib/x86_64-linux-gnu/openmpi/include/openmpi/ompi/mpi/cxx/datatype_inln.h:80:1
	movq	8(%rdi), %rax
	movq	8(%r10), %rdi
.Ltmp78:
	movq	%rdi, (%rsp)
	movq	%rsi, %rdi
.Ltmp79:
	#DEBUG_VALUE: inbuf <- $rdi
	#DEBUG_VALUE: Pack:inbuf <- $rdi
	movl	%edx, %esi
.Ltmp80:
	#DEBUG_VALUE: incount <- $esi
	#DEBUG_VALUE: Pack:incount <- $esi
	movq	%rax, %rdx
	#DEBUG_VALUE: position <- $r9
	#DEBUG_VALUE: Pack:position <- $r9
	#DEBUG_VALUE: outsize <- $r8d
	#DEBUG_VALUE: Pack:outsize <- $r8d
	#DEBUG_VALUE: outbuf <- $rcx
	#DEBUG_VALUE: Pack:outbuf <- $rcx
	callq	MPI_Pack
.Ltmp81:
	.loc	3 148 1                 # /usr/lib/x86_64-linux-gnu/openmpi/include/openmpi/ompi/mpi/cxx/datatype_inln.h:148:1
	addq	$16, %rsp
	popq	%rbp
	.cfi_def_cfa %rsp, 8
	retq
.Ltmp82:
.Lfunc_end13:
	.size	_ZNK3MPI8Datatype4PackEPKviPviRiRKNS_4CommE, .Lfunc_end13-_ZNK3MPI8Datatype4PackEPKviPviRiRKNS_4CommE
	.cfi_endproc
                                        # -- End function
	.weak	_ZNK3MPI8Datatype6UnpackEPKviPviRiRKNS_4CommE # -- Begin function _ZNK3MPI8Datatype6UnpackEPKviPviRiRKNS_4CommE
	.p2align	4, 0x90
	.type	_ZNK3MPI8Datatype6UnpackEPKviPviRiRKNS_4CommE,@function
_ZNK3MPI8Datatype6UnpackEPKviPviRiRKNS_4CommE: # @_ZNK3MPI8Datatype6UnpackEPKviPviRiRKNS_4CommE
.Lfunc_begin14:
	.loc	3 154 0                 # /usr/lib/x86_64-linux-gnu/openmpi/include/openmpi/ompi/mpi/cxx/datatype_inln.h:154:0
	.cfi_startproc
# %bb.0:                                # %L.entry
	#DEBUG_VALUE: Unpack: <- $rdi
	#DEBUG_VALUE: Unpack:inbuf <- $rsi
	#DEBUG_VALUE: Unpack:insize <- $edx
	#DEBUG_VALUE: Unpack:outbuf <- $rcx
	#DEBUG_VALUE: Unpack:outcount <- $r8d
	#DEBUG_VALUE: Unpack:position <- $r9
	pushq	%rbp
	.cfi_def_cfa_offset 16
	.cfi_offset %rbp, -16
	movq	%rsp, %rbp
	.cfi_def_cfa_register %rbp
	subq	$16, %rsp
.Ltmp83:
	#DEBUG_VALUE:  <- $rdi
	#DEBUG_VALUE: inbuf <- $rsi
	#DEBUG_VALUE: insize <- $edx
	#DEBUG_VALUE: outbuf <- $rcx
	#DEBUG_VALUE: outcount <- $r8d
	#DEBUG_VALUE: position <- $r9
	movq	%r9, %rax
	movq	16(%rbp), %r10
.Ltmp84:
	#DEBUG_VALUE: comm <- [DW_OP_plus_uconst 16] [$rbp+0]
	#DEBUG_VALUE: Unpack:comm <- [DW_OP_plus_uconst 16] [$rbp+0]
	#DEBUG_VALUE: position <- $rax
	#DEBUG_VALUE: Unpack:position <- $rax
	#DEBUG_VALUE: outcount <- $r8d
	#DEBUG_VALUE: Unpack:outcount <- $r8d
	#DEBUG_VALUE: outbuf <- $rcx
	#DEBUG_VALUE: Unpack:outbuf <- $rcx
	#DEBUG_VALUE: insize <- $edx
	#DEBUG_VALUE: Unpack:insize <- $edx
	#DEBUG_VALUE: inbuf <- $rsi
	#DEBUG_VALUE: Unpack:inbuf <- $rsi
	#DEBUG_VALUE:  <- $rdi
	#DEBUG_VALUE: Unpack: <- $rdi
	.loc	3 80 1 prologue_end     # /usr/lib/x86_64-linux-gnu/openmpi/include/openmpi/ompi/mpi/cxx/datatype_inln.h:80:1
	movq	8(%rdi), %r9
	movq	8(%r10), %rdi
.Ltmp85:
	movq	%rdi, (%rsp)
	movq	%rsi, %rdi
.Ltmp86:
	#DEBUG_VALUE: inbuf <- $rdi
	#DEBUG_VALUE: Unpack:inbuf <- $rdi
	movl	%edx, %esi
.Ltmp87:
	#DEBUG_VALUE: insize <- $esi
	#DEBUG_VALUE: Unpack:insize <- $esi
	movq	%rax, %rdx
.Ltmp88:
	#DEBUG_VALUE: position <- $rdx
	#DEBUG_VALUE: Unpack:position <- $rdx
	#DEBUG_VALUE: outcount <- $r8d
	#DEBUG_VALUE: Unpack:outcount <- $r8d
	#DEBUG_VALUE: outbuf <- $rcx
	#DEBUG_VALUE: Unpack:outbuf <- $rcx
	callq	MPI_Unpack
.Ltmp89:
	.loc	3 157 1                 # /usr/lib/x86_64-linux-gnu/openmpi/include/openmpi/ompi/mpi/cxx/datatype_inln.h:157:1
	addq	$16, %rsp
	popq	%rbp
	.cfi_def_cfa %rsp, 8
	retq
.Ltmp90:
.Lfunc_end14:
	.size	_ZNK3MPI8Datatype6UnpackEPKviPviRiRKNS_4CommE, .Lfunc_end14-_ZNK3MPI8Datatype6UnpackEPKviPviRiRKNS_4CommE
	.cfi_endproc
                                        # -- End function
	.weak	_ZNK3MPI8Datatype9Pack_sizeEiRKNS_4CommE # -- Begin function _ZNK3MPI8Datatype9Pack_sizeEiRKNS_4CommE
	.p2align	4, 0x90
	.type	_ZNK3MPI8Datatype9Pack_sizeEiRKNS_4CommE,@function
_ZNK3MPI8Datatype9Pack_sizeEiRKNS_4CommE: # @_ZNK3MPI8Datatype9Pack_sizeEiRKNS_4CommE
.Lfunc_begin15:
	.loc	3 161 0                 # /usr/lib/x86_64-linux-gnu/openmpi/include/openmpi/ompi/mpi/cxx/datatype_inln.h:161:0
	.cfi_startproc
# %bb.0:                                # %L.entry
	#DEBUG_VALUE: Pack_size: <- $rdi
	#DEBUG_VALUE: Pack_size:incount <- $esi
	#DEBUG_VALUE: Pack_size:comm <- $rdx
	pushq	%rbp
	.cfi_def_cfa_offset 16
	.cfi_offset %rbp, -16
	movq	%rsp, %rbp
	.cfi_def_cfa_register %rbp
	subq	$16, %rsp
	movl	%esi, %eax
.Ltmp91:
	#DEBUG_VALUE: comm <- $rdx
	#DEBUG_VALUE: incount <- $eax
	#DEBUG_VALUE:  <- $rdi
	#DEBUG_VALUE: Pack_size:comm <- $rdx
	#DEBUG_VALUE: Pack_size:incount <- $eax
	#DEBUG_VALUE: Pack_size: <- $rdi
	.loc	3 80 1 prologue_end     # /usr/lib/x86_64-linux-gnu/openmpi/include/openmpi/ompi/mpi/cxx/datatype_inln.h:80:1
	movq	8(%rdi), %rsi
	movq	8(%rdx), %rdx
.Ltmp92:
	#DEBUG_VALUE: size <- [DW_OP_constu 4, DW_OP_minus, DW_OP_deref] $rbp
	.loc	3 0 1 is_stmt 0         # /usr/lib/x86_64-linux-gnu/openmpi/include/openmpi/ompi/mpi/cxx/datatype_inln.h:0:1
	leaq	-4(%rbp), %rcx
	.loc	3 80 1                  # /usr/lib/x86_64-linux-gnu/openmpi/include/openmpi/ompi/mpi/cxx/datatype_inln.h:80:1
	movl	%eax, %edi
.Ltmp93:
	#DEBUG_VALUE: Pack_size:incount <- $edi
	callq	MPI_Pack_size
.Ltmp94:
	.loc	3 164 1 is_stmt 1       # /usr/lib/x86_64-linux-gnu/openmpi/include/openmpi/ompi/mpi/cxx/datatype_inln.h:164:1
	movl	-4(%rbp), %eax
.Ltmp95:
	#DEBUG_VALUE: size <- $eax
	addq	$16, %rsp
	popq	%rbp
	.cfi_def_cfa %rsp, 8
	retq
.Ltmp96:
.Lfunc_end15:
	.size	_ZNK3MPI8Datatype9Pack_sizeEiRKNS_4CommE, .Lfunc_end15-_ZNK3MPI8Datatype9Pack_sizeEiRKNS_4CommE
	.cfi_endproc
                                        # -- End function
	.weak	_ZNK3MPI8Datatype13Pack_externalEPKcPKviPvlRl # -- Begin function _ZNK3MPI8Datatype13Pack_externalEPKcPKviPvlRl
	.p2align	4, 0x90
	.type	_ZNK3MPI8Datatype13Pack_externalEPKcPKviPvlRl,@function
_ZNK3MPI8Datatype13Pack_externalEPKcPKviPvlRl: # @_ZNK3MPI8Datatype13Pack_externalEPKcPKviPvlRl
.Lfunc_begin16:
	.loc	3 170 0                 # /usr/lib/x86_64-linux-gnu/openmpi/include/openmpi/ompi/mpi/cxx/datatype_inln.h:170:0
	.cfi_startproc
# %bb.0:                                # %L.entry
	#DEBUG_VALUE: Pack_external: <- $rdi
	#DEBUG_VALUE: Pack_external: <- $rdi
	#DEBUG_VALUE: Pack_external:datarep <- $rsi
	#DEBUG_VALUE: Pack_external:datarep <- $rsi
	#DEBUG_VALUE: Pack_external:inbuf <- $rdx
	#DEBUG_VALUE: Pack_external:inbuf <- $rdx
	#DEBUG_VALUE: Pack_external:incount <- $ecx
	#DEBUG_VALUE: Pack_external:incount <- $ecx
	#DEBUG_VALUE: Pack_external:outbuf <- $r8
	#DEBUG_VALUE: Pack_external:outbuf <- $r8
	#DEBUG_VALUE: Pack_external:outsize <- $r9
	#DEBUG_VALUE: Pack_external:outsize <- $r9
	pushq	%rbp
	.cfi_def_cfa_offset 16
	.cfi_offset %rbp, -16
	movq	%rsp, %rbp
	.cfi_def_cfa_register %rbp
.Ltmp97:
	#DEBUG_VALUE:  <- $rdi
	#DEBUG_VALUE:  <- $rdi
	#DEBUG_VALUE: datarep <- $rsi
	#DEBUG_VALUE: datarep <- $rsi
	#DEBUG_VALUE: inbuf <- $rdx
	#DEBUG_VALUE: inbuf <- $rdx
	#DEBUG_VALUE: incount <- $ecx
	#DEBUG_VALUE: incount <- $ecx
	#DEBUG_VALUE: outbuf <- $r8
	#DEBUG_VALUE: outbuf <- $r8
	#DEBUG_VALUE: outsize <- $r9
	#DEBUG_VALUE: outsize <- $r9
	#DEBUG_VALUE: Pack_external:position <- [DW_OP_plus_uconst 16] [$rbp+0]
	#DEBUG_VALUE: position <- [DW_OP_plus_uconst 16] [$rbp+0]
	.loc	3 171 1 prologue_end    # /usr/lib/x86_64-linux-gnu/openmpi/include/openmpi/ompi/mpi/cxx/datatype_inln.h:171:1
	movq	8(%rdi), %rax
	movq	%rsi, %rdi
.Ltmp98:
	#DEBUG_VALUE: datarep <- $rdi
	#DEBUG_VALUE: Pack_external:datarep <- $rdi
	movq	%rdx, %rsi
.Ltmp99:
	#DEBUG_VALUE: inbuf <- $rsi
	#DEBUG_VALUE: Pack_external:inbuf <- $rsi
	movl	%ecx, %edx
.Ltmp100:
	#DEBUG_VALUE: incount <- $edx
	#DEBUG_VALUE: Pack_external:incount <- $edx
	movq	%rax, %rcx
	#DEBUG_VALUE: outsize <- $r9
	#DEBUG_VALUE: Pack_external:outsize <- $r9
	#DEBUG_VALUE: outbuf <- $r8
	#DEBUG_VALUE: Pack_external:outbuf <- $r8
	popq	%rbp
	.cfi_def_cfa %rsp, 8
	jmp	MPI_Pack_external       # TAILCALL
.Ltmp101:
.Lfunc_end16:
	.size	_ZNK3MPI8Datatype13Pack_externalEPKcPKviPvlRl, .Lfunc_end16-_ZNK3MPI8Datatype13Pack_externalEPKcPKviPvlRl
	.cfi_endproc
                                        # -- End function
	.weak	_ZNK3MPI8Datatype18Pack_external_sizeEPKci # -- Begin function _ZNK3MPI8Datatype18Pack_external_sizeEPKci
	.p2align	4, 0x90
	.type	_ZNK3MPI8Datatype18Pack_external_sizeEPKci,@function
_ZNK3MPI8Datatype18Pack_external_sizeEPKci: # @_ZNK3MPI8Datatype18Pack_external_sizeEPKci
.Lfunc_begin17:
	.loc	3 177 0                 # /usr/lib/x86_64-linux-gnu/openmpi/include/openmpi/ompi/mpi/cxx/datatype_inln.h:177:0
	.cfi_startproc
# %bb.0:                                # %L.entry
	#DEBUG_VALUE: Pack_external_size: <- $rdi
	#DEBUG_VALUE: Pack_external_size: <- $rdi
	#DEBUG_VALUE: Pack_external_size:datarep <- $rsi
	#DEBUG_VALUE: Pack_external_size:datarep <- $rsi
	#DEBUG_VALUE: Pack_external_size:incount <- $edx
	#DEBUG_VALUE: Pack_external_size:incount <- $edx
	pushq	%rbp
	.cfi_def_cfa_offset 16
	.cfi_offset %rbp, -16
	movq	%rsp, %rbp
	.cfi_def_cfa_register %rbp
	subq	$16, %rsp
.Ltmp102:
	#DEBUG_VALUE:  <- $rdi
	#DEBUG_VALUE: datarep <- $rsi
	#DEBUG_VALUE: incount <- $edx
	.loc	3 179 1 prologue_end    # /usr/lib/x86_64-linux-gnu/openmpi/include/openmpi/ompi/mpi/cxx/datatype_inln.h:179:1
	movq	8(%rdi), %rax
.Ltmp103:
	#DEBUG_VALUE: addr <- [DW_OP_constu 8, DW_OP_minus, DW_OP_deref] $rbp
	.loc	3 0 1 is_stmt 0         # /usr/lib/x86_64-linux-gnu/openmpi/include/openmpi/ompi/mpi/cxx/datatype_inln.h:0:1
	leaq	-8(%rbp), %rcx
	.loc	3 179 1                 # /usr/lib/x86_64-linux-gnu/openmpi/include/openmpi/ompi/mpi/cxx/datatype_inln.h:179:1
	movq	%rsi, %rdi
.Ltmp104:
	#DEBUG_VALUE: Pack_external_size:datarep <- $rdi
	movl	%edx, %esi
.Ltmp105:
	#DEBUG_VALUE: Pack_external_size:incount <- $esi
	movq	%rax, %rdx
.Ltmp106:
	callq	MPI_Pack_external_size
.Ltmp107:
	.loc	3 180 1 is_stmt 1       # /usr/lib/x86_64-linux-gnu/openmpi/include/openmpi/ompi/mpi/cxx/datatype_inln.h:180:1
	movq	-8(%rbp), %rax
.Ltmp108:
	#DEBUG_VALUE: addr <- $rax
	addq	$16, %rsp
	popq	%rbp
	.cfi_def_cfa %rsp, 8
	retq
.Ltmp109:
.Lfunc_end17:
	.size	_ZNK3MPI8Datatype18Pack_external_sizeEPKci, .Lfunc_end17-_ZNK3MPI8Datatype18Pack_external_sizeEPKci
	.cfi_endproc
                                        # -- End function
	.weak	_ZNK3MPI8Datatype15Unpack_externalEPKcPKvlRlPvi # -- Begin function _ZNK3MPI8Datatype15Unpack_externalEPKcPKvlRlPvi
	.p2align	4, 0x90
	.type	_ZNK3MPI8Datatype15Unpack_externalEPKcPKvlRlPvi,@function
_ZNK3MPI8Datatype15Unpack_externalEPKcPKvlRlPvi: # @_ZNK3MPI8Datatype15Unpack_externalEPKcPKvlRlPvi
.Lfunc_begin18:
	.loc	3 186 0                 # /usr/lib/x86_64-linux-gnu/openmpi/include/openmpi/ompi/mpi/cxx/datatype_inln.h:186:0
	.cfi_startproc
# %bb.0:                                # %L.entry
	#DEBUG_VALUE: Unpack_external: <- $rdi
	#DEBUG_VALUE: Unpack_external:datarep <- $rsi
	#DEBUG_VALUE: Unpack_external:inbuf <- $rdx
	#DEBUG_VALUE: Unpack_external:insize <- $rcx
	#DEBUG_VALUE: Unpack_external:position <- $r8
	#DEBUG_VALUE: Unpack_external:outbuf <- $r9
	pushq	%rbp
	.cfi_def_cfa_offset 16
	.cfi_offset %rbp, -16
	movq	%rsp, %rbp
	.cfi_def_cfa_register %rbp
	subq	$16, %rsp
.Ltmp110:
	#DEBUG_VALUE:  <- $rdi
	#DEBUG_VALUE: datarep <- $rsi
	#DEBUG_VALUE: inbuf <- $rdx
	#DEBUG_VALUE: insize <- $rcx
	#DEBUG_VALUE: position <- $r8
	#DEBUG_VALUE: outbuf <- $r9
	movq	%r9, %rax
	movl	16(%rbp), %r9d
.Ltmp111:
	#DEBUG_VALUE: outcount <- [DW_OP_plus_uconst 16] [$rbp+0]
	#DEBUG_VALUE: Unpack_external:outcount <- [DW_OP_plus_uconst 16] [$rbp+0]
	#DEBUG_VALUE: outbuf <- $rax
	#DEBUG_VALUE: Unpack_external:outbuf <- $rax
	#DEBUG_VALUE: position <- $r8
	#DEBUG_VALUE: Unpack_external:position <- $r8
	#DEBUG_VALUE: insize <- $rcx
	#DEBUG_VALUE: Unpack_external:insize <- $rcx
	#DEBUG_VALUE: inbuf <- $rdx
	#DEBUG_VALUE: Unpack_external:inbuf <- $rdx
	#DEBUG_VALUE: datarep <- $rsi
	#DEBUG_VALUE: Unpack_external:datarep <- $rsi
	#DEBUG_VALUE:  <- $rdi
	#DEBUG_VALUE: Unpack_external: <- $rdi
	.loc	3 187 1 prologue_end    # /usr/lib/x86_64-linux-gnu/openmpi/include/openmpi/ompi/mpi/cxx/datatype_inln.h:187:1
	movq	8(%rdi), %rdi
.Ltmp112:
	movq	%rdi, (%rsp)
	movq	%rsi, %rdi
.Ltmp113:
	#DEBUG_VALUE: datarep <- $rdi
	#DEBUG_VALUE: Unpack_external:datarep <- $rdi
	movq	%rdx, %rsi
.Ltmp114:
	#DEBUG_VALUE: inbuf <- $rsi
	#DEBUG_VALUE: Unpack_external:inbuf <- $rsi
	movq	%rcx, %rdx
.Ltmp115:
	#DEBUG_VALUE: insize <- $rdx
	#DEBUG_VALUE: Unpack_external:insize <- $rdx
	movq	%r8, %rcx
.Ltmp116:
	#DEBUG_VALUE: position <- $rcx
	#DEBUG_VALUE: Unpack_external:position <- $rcx
	movq	%rax, %r8
.Ltmp117:
	#DEBUG_VALUE: outbuf <- $r8
	#DEBUG_VALUE: Unpack_external:outbuf <- $r8
	callq	MPI_Unpack_external
.Ltmp118:
	.loc	3 189 1                 # /usr/lib/x86_64-linux-gnu/openmpi/include/openmpi/ompi/mpi/cxx/datatype_inln.h:189:1
	addq	$16, %rsp
	popq	%rbp
	.cfi_def_cfa %rsp, 8
	retq
.Ltmp119:
.Lfunc_end18:
	.size	_ZNK3MPI8Datatype15Unpack_externalEPKcPKvlRlPvi, .Lfunc_end18-_ZNK3MPI8Datatype15Unpack_externalEPKcPKvlRlPvi
	.cfi_endproc
                                        # -- End function
	.weak	_ZNK3MPI8Datatype15Create_subarrayEiPKiS2_S2_i # -- Begin function _ZNK3MPI8Datatype15Create_subarrayEiPKiS2_S2_i
	.p2align	4, 0x90
	.type	_ZNK3MPI8Datatype15Create_subarrayEiPKiS2_S2_i,@function
_ZNK3MPI8Datatype15Create_subarrayEiPKiS2_S2_i: # @_ZNK3MPI8Datatype15Create_subarrayEiPKiS2_S2_i
.Lfunc_begin19:
	.loc	3 200 0                 # /usr/lib/x86_64-linux-gnu/openmpi/include/openmpi/ompi/mpi/cxx/datatype_inln.h:200:0
	.cfi_startproc
# %bb.0:                                # %L.entry
	#DEBUG_VALUE: Create_subarray: <- $rsi
	#DEBUG_VALUE: Create_subarray:ndims <- $edx
	#DEBUG_VALUE: Create_subarray:array_of_sizes <- $rcx
	#DEBUG_VALUE: Create_subarray:array_of_subsizes <- $r8
	#DEBUG_VALUE: Create_subarray:array_of_starts <- $r9
	pushq	%rbp
	.cfi_def_cfa_offset 16
	.cfi_offset %rbp, -16
	movq	%rsp, %rbp
	.cfi_def_cfa_register %rbp
	pushq	%rbx
	subq	$24, %rsp
	.cfi_offset %rbx, -24
	movq	%r9, %r10
	movq	%r8, %rax
	movq	%rdi, %rbx
	movl	16(%rbp), %r8d
.Ltmp120:
	#DEBUG_VALUE:  <- $rsi
	#DEBUG_VALUE: order <- $r8d
	#DEBUG_VALUE: array_of_starts <- $r10
	#DEBUG_VALUE: array_of_subsizes <- $rax
	#DEBUG_VALUE: array_of_sizes <- $rcx
	#DEBUG_VALUE: ndims <- $edx
	#DEBUG_VALUE: Create_subarray:order <- [DW_OP_plus_uconst 16] [$rbp+0]
	#DEBUG_VALUE: Create_subarray:array_of_starts <- $r10
	#DEBUG_VALUE: Create_subarray:array_of_subsizes <- $rax
	#DEBUG_VALUE: Create_subarray:array_of_sizes <- $rcx
	#DEBUG_VALUE: Create_subarray:ndims <- $edx
	#DEBUG_VALUE: Create_subarray: <- $rsi
	.loc	3 202 1 prologue_end    # /usr/lib/x86_64-linux-gnu/openmpi/include/openmpi/ompi/mpi/cxx/datatype_inln.h:202:1
	movq	8(%rsi), %r9
.Ltmp121:
	#DEBUG_VALUE: type <- [DW_OP_constu 16, DW_OP_minus, DW_OP_deref] $rbp
	.loc	3 0 1 is_stmt 0         # /usr/lib/x86_64-linux-gnu/openmpi/include/openmpi/ompi/mpi/cxx/datatype_inln.h:0:1
	leaq	-16(%rbp), %rsi
.Ltmp122:
	.loc	3 202 1                 # /usr/lib/x86_64-linux-gnu/openmpi/include/openmpi/ompi/mpi/cxx/datatype_inln.h:202:1
	movq	%rsi, (%rsp)
	movl	%edx, %edi
.Ltmp123:
	#DEBUG_VALUE: Create_subarray:ndims <- $edi
	movq	%rcx, %rsi
.Ltmp124:
	#DEBUG_VALUE: Create_subarray:array_of_sizes <- $rsi
	movq	%rax, %rdx
.Ltmp125:
	#DEBUG_VALUE: Create_subarray:array_of_subsizes <- $rdx
	movq	%r10, %rcx
.Ltmp126:
	#DEBUG_VALUE: Create_subarray:array_of_starts <- $rcx
	callq	MPI_Type_create_subarray
.Ltmp127:
	.loc	3 206 1 is_stmt 1       # /usr/lib/x86_64-linux-gnu/openmpi/include/openmpi/ompi/mpi/cxx/datatype_inln.h:206:1
	movq	-16(%rbp), %rax
.Ltmp128:
	#DEBUG_VALUE: type <- undef
	movq	$_ZTVN3MPI8DatatypeE+16, (%rbx)
	.loc	3 72 1                  # /usr/lib/x86_64-linux-gnu/openmpi/include/openmpi/ompi/mpi/cxx/datatype_inln.h:72:1
	movq	%rax, 8(%rbx)
	.loc	3 207 1                 # /usr/lib/x86_64-linux-gnu/openmpi/include/openmpi/ompi/mpi/cxx/datatype_inln.h:207:1
	movq	%rbx, %rax
	addq	$24, %rsp
	popq	%rbx
	popq	%rbp
	.cfi_def_cfa %rsp, 8
	retq
.Ltmp129:
.Lfunc_end19:
	.size	_ZNK3MPI8Datatype15Create_subarrayEiPKiS2_S2_i, .Lfunc_end19-_ZNK3MPI8Datatype15Create_subarrayEiPKiS2_S2_i
	.cfi_endproc
                                        # -- End function
	.weak	_ZNK3MPI8Datatype13Create_darrayEiiiPKiS2_S2_S2_i # -- Begin function _ZNK3MPI8Datatype13Create_darrayEiiiPKiS2_S2_S2_i
	.p2align	4, 0x90
	.type	_ZNK3MPI8Datatype13Create_darrayEiiiPKiS2_S2_S2_i,@function
_ZNK3MPI8Datatype13Create_darrayEiiiPKiS2_S2_S2_i: # @_ZNK3MPI8Datatype13Create_darrayEiiiPKiS2_S2_S2_i
.Lfunc_begin20:
	.loc	3 214 0                 # /usr/lib/x86_64-linux-gnu/openmpi/include/openmpi/ompi/mpi/cxx/datatype_inln.h:214:0
	.cfi_startproc
# %bb.0:                                # %L.entry
	#DEBUG_VALUE: Create_darray: <- $rsi
	#DEBUG_VALUE: Create_darray:size <- $edx
	#DEBUG_VALUE: Create_darray:rank <- $ecx
	#DEBUG_VALUE: Create_darray:ndims <- $r8d
	#DEBUG_VALUE: Create_darray:array_of_gsizes <- $r9
	pushq	%rbp
	.cfi_def_cfa_offset 16
	.cfi_offset %rbp, -16
	movq	%rsp, %rbp
	.cfi_def_cfa_register %rbp
	pushq	%r15
	pushq	%r14
	pushq	%rbx
	pushq	%rax
	.cfi_offset %rbx, -40
	.cfi_offset %r14, -32
	.cfi_offset %r15, -24
	movq	%r9, %r11
	movl	%r8d, %eax
	movq	%rsi, %r10
	movq	%rdi, %rbx
	movq	16(%rbp), %r8
.Ltmp130:
	movq	24(%rbp), %r9
.Ltmp131:
	#DEBUG_VALUE: array_of_psizes <- undef
	movl	40(%rbp), %r14d
.Ltmp132:
	#DEBUG_VALUE: type <- [DW_OP_constu 32, DW_OP_minus, DW_OP_deref] $rbp
	#DEBUG_VALUE:  <- $r10
	#DEBUG_VALUE: order <- $r14d
	#DEBUG_VALUE: array_of_dargs <- $r9
	#DEBUG_VALUE: array_of_distribs <- $r8
	#DEBUG_VALUE: array_of_gsizes <- $r11
	#DEBUG_VALUE: ndims <- $eax
	#DEBUG_VALUE: rank <- $ecx
	#DEBUG_VALUE: size <- $edx
	#DEBUG_VALUE: Create_darray:order <- [DW_OP_plus_uconst 40] [$rbp+0]
	#DEBUG_VALUE: Create_darray:array_of_psizes <- [DW_OP_plus_uconst 32] [$rbp+0]
	#DEBUG_VALUE: Create_darray:array_of_dargs <- [DW_OP_plus_uconst 24] [$rbp+0]
	#DEBUG_VALUE: Create_darray:array_of_distribs <- [DW_OP_plus_uconst 16] [$rbp+0]
	#DEBUG_VALUE: Create_darray:array_of_gsizes <- $r11
	#DEBUG_VALUE: Create_darray:ndims <- $eax
	#DEBUG_VALUE: Create_darray:rank <- $ecx
	#DEBUG_VALUE: Create_darray:size <- $edx
	#DEBUG_VALUE: Create_darray: <- $r10
	leaq	-32(%rbp), %r15
.Ltmp133:
	.loc	3 216 1 prologue_end    # /usr/lib/x86_64-linux-gnu/openmpi/include/openmpi/ompi/mpi/cxx/datatype_inln.h:216:1
	movl	%edx, %edi
.Ltmp134:
	#DEBUG_VALUE: Create_darray:size <- $edi
	movl	%ecx, %esi
.Ltmp135:
	#DEBUG_VALUE: Create_darray:rank <- $esi
	movl	%eax, %edx
.Ltmp136:
	#DEBUG_VALUE: Create_darray:ndims <- $edx
	movq	%r11, %rcx
.Ltmp137:
	#DEBUG_VALUE: Create_darray:array_of_gsizes <- $rcx
	pushq	%r15
	pushq	8(%r10)
	pushq	%r14
	pushq	32(%rbp)
	callq	MPI_Type_create_darray
.Ltmp138:
	addq	$32, %rsp
	.loc	3 222 1                 # /usr/lib/x86_64-linux-gnu/openmpi/include/openmpi/ompi/mpi/cxx/datatype_inln.h:222:1
	movq	-32(%rbp), %rax
.Ltmp139:
	#DEBUG_VALUE: type <- undef
	movq	$_ZTVN3MPI8DatatypeE+16, (%rbx)
	.loc	3 72 1                  # /usr/lib/x86_64-linux-gnu/openmpi/include/openmpi/ompi/mpi/cxx/datatype_inln.h:72:1
	movq	%rax, 8(%rbx)
	.loc	3 223 1                 # /usr/lib/x86_64-linux-gnu/openmpi/include/openmpi/ompi/mpi/cxx/datatype_inln.h:223:1
	movq	%rbx, %rax
	addq	$8, %rsp
	popq	%rbx
	popq	%r14
.Ltmp140:
	popq	%r15
	popq	%rbp
	.cfi_def_cfa %rsp, 8
	retq
.Ltmp141:
.Lfunc_end20:
	.size	_ZNK3MPI8Datatype13Create_darrayEiiiPKiS2_S2_S2_i, .Lfunc_end20-_ZNK3MPI8Datatype13Create_darrayEiiiPKiS2_S2_S2_i
	.cfi_endproc
                                        # -- End function
	.weak	_ZNK3MPI8Datatype3DupEv # -- Begin function _ZNK3MPI8Datatype3DupEv
	.p2align	4, 0x90
	.type	_ZNK3MPI8Datatype3DupEv,@function
_ZNK3MPI8Datatype3DupEv:                # @_ZNK3MPI8Datatype3DupEv
.Lfunc_begin21:
	.loc	3 264 0                 # /usr/lib/x86_64-linux-gnu/openmpi/include/openmpi/ompi/mpi/cxx/datatype_inln.h:264:0
	.cfi_startproc
# %bb.0:                                # %L.entry
	#DEBUG_VALUE: Dup: <- $rsi
	pushq	%rbp
	.cfi_def_cfa_offset 16
	.cfi_offset %rbp, -16
	movq	%rsp, %rbp
	.cfi_def_cfa_register %rbp
	pushq	%rbx
	pushq	%rax
	.cfi_offset %rbx, -24
	movq	%rdi, %rbx
.Ltmp142:
	#DEBUG_VALUE:  <- $rsi
	#DEBUG_VALUE: Dup: <- $rsi
	.loc	3 266 1 prologue_end    # /usr/lib/x86_64-linux-gnu/openmpi/include/openmpi/ompi/mpi/cxx/datatype_inln.h:266:1
	movq	8(%rsi), %rdi
.Ltmp143:
	#DEBUG_VALUE: type <- [DW_OP_constu 16, DW_OP_minus, DW_OP_deref] $rbp
	.loc	3 0 1 is_stmt 0         # /usr/lib/x86_64-linux-gnu/openmpi/include/openmpi/ompi/mpi/cxx/datatype_inln.h:0:1
	leaq	-16(%rbp), %rsi
.Ltmp144:
	.loc	3 266 1                 # /usr/lib/x86_64-linux-gnu/openmpi/include/openmpi/ompi/mpi/cxx/datatype_inln.h:266:1
	callq	MPI_Type_dup
	.loc	3 267 1 is_stmt 1       # /usr/lib/x86_64-linux-gnu/openmpi/include/openmpi/ompi/mpi/cxx/datatype_inln.h:267:1
	movq	-16(%rbp), %rax
.Ltmp145:
	#DEBUG_VALUE: type <- undef
	movq	$_ZTVN3MPI8DatatypeE+16, (%rbx)
	.loc	3 72 1                  # /usr/lib/x86_64-linux-gnu/openmpi/include/openmpi/ompi/mpi/cxx/datatype_inln.h:72:1
	movq	%rax, 8(%rbx)
	.loc	3 268 1                 # /usr/lib/x86_64-linux-gnu/openmpi/include/openmpi/ompi/mpi/cxx/datatype_inln.h:268:1
	movq	%rbx, %rax
	addq	$8, %rsp
	popq	%rbx
	popq	%rbp
	.cfi_def_cfa %rsp, 8
	retq
.Ltmp146:
.Lfunc_end21:
	.size	_ZNK3MPI8Datatype3DupEv, .Lfunc_end21-_ZNK3MPI8Datatype3DupEv
	.cfi_endproc
                                        # -- End function
	.weak	_ZN3MPI8Datatype11Delete_attrEi # -- Begin function _ZN3MPI8Datatype11Delete_attrEi
	.p2align	4, 0x90
	.type	_ZN3MPI8Datatype11Delete_attrEi,@function
_ZN3MPI8Datatype11Delete_attrEi:        # @_ZN3MPI8Datatype11Delete_attrEi
.Lfunc_begin22:
	.loc	3 333 0                 # /usr/lib/x86_64-linux-gnu/openmpi/include/openmpi/ompi/mpi/cxx/datatype_inln.h:333:0
	.cfi_startproc
# %bb.0:                                # %L.entry
	#DEBUG_VALUE: Delete_attr: <- $rdi
	#DEBUG_VALUE: Delete_attr: <- $rdi
	#DEBUG_VALUE: Delete_attr:type_keyval <- $esi
	#DEBUG_VALUE: Delete_attr:type_keyval <- $esi
	pushq	%rbp
	.cfi_def_cfa_offset 16
	.cfi_offset %rbp, -16
	movq	%rsp, %rbp
	.cfi_def_cfa_register %rbp
.Ltmp147:
	#DEBUG_VALUE:  <- $rdi
	#DEBUG_VALUE:  <- $rdi
	#DEBUG_VALUE: type_keyval <- $esi
	#DEBUG_VALUE: type_keyval <- $esi
	.loc	3 334 1 prologue_end    # /usr/lib/x86_64-linux-gnu/openmpi/include/openmpi/ompi/mpi/cxx/datatype_inln.h:334:1
	movq	8(%rdi), %rdi
.Ltmp148:
	#DEBUG_VALUE: type_keyval <- $esi
	#DEBUG_VALUE: Delete_attr:type_keyval <- $esi
	popq	%rbp
	.cfi_def_cfa %rsp, 8
	jmp	MPI_Type_delete_attr    # TAILCALL
.Ltmp149:
.Lfunc_end22:
	.size	_ZN3MPI8Datatype11Delete_attrEi, .Lfunc_end22-_ZN3MPI8Datatype11Delete_attrEi
	.cfi_endproc
                                        # -- End function
	.weak	_ZNK3MPI8Datatype8Get_attrEiPv # -- Begin function _ZNK3MPI8Datatype8Get_attrEiPv
	.p2align	4, 0x90
	.type	_ZNK3MPI8Datatype8Get_attrEiPv,@function
_ZNK3MPI8Datatype8Get_attrEiPv:         # @_ZNK3MPI8Datatype8Get_attrEiPv
.Lfunc_begin23:
	.loc	3 346 0                 # /usr/lib/x86_64-linux-gnu/openmpi/include/openmpi/ompi/mpi/cxx/datatype_inln.h:346:0
	.cfi_startproc
# %bb.0:                                # %L.entry
	#DEBUG_VALUE: Get_attr: <- $rdi
	#DEBUG_VALUE: Get_attr: <- $rdi
	#DEBUG_VALUE: Get_attr:type_keyval <- $esi
	#DEBUG_VALUE: Get_attr:type_keyval <- $esi
	#DEBUG_VALUE: Get_attr:attribute_val <- $rdx
	#DEBUG_VALUE: Get_attr:attribute_val <- $rdx
	pushq	%rbp
	.cfi_def_cfa_offset 16
	.cfi_offset %rbp, -16
	movq	%rsp, %rbp
	.cfi_def_cfa_register %rbp
	subq	$16, %rsp
.Ltmp150:
	#DEBUG_VALUE:  <- $rdi
	#DEBUG_VALUE: type_keyval <- $esi
	#DEBUG_VALUE: attribute_val <- $rdx
	.loc	3 348 1 prologue_end    # /usr/lib/x86_64-linux-gnu/openmpi/include/openmpi/ompi/mpi/cxx/datatype_inln.h:348:1
	movq	8(%rdi), %rdi
.Ltmp151:
	#DEBUG_VALUE: ret <- [DW_OP_constu 4, DW_OP_minus, DW_OP_deref] $rbp
	.loc	3 0 1 is_stmt 0         # /usr/lib/x86_64-linux-gnu/openmpi/include/openmpi/ompi/mpi/cxx/datatype_inln.h:0:1
	leaq	-4(%rbp), %rcx
	#DEBUG_VALUE: Get_attr:attribute_val <- $rdx
	#DEBUG_VALUE: Get_attr:type_keyval <- $esi
	.loc	3 348 1                 # /usr/lib/x86_64-linux-gnu/openmpi/include/openmpi/ompi/mpi/cxx/datatype_inln.h:348:1
	callq	MPI_Type_get_attr
.Ltmp152:
	#DEBUG_VALUE: ret <- undef
	.loc	3 349 1 is_stmt 1       # /usr/lib/x86_64-linux-gnu/openmpi/include/openmpi/ompi/mpi/cxx/datatype_inln.h:349:1
	cmpl	$0, -4(%rbp)
	setne	%al
	addq	$16, %rsp
	popq	%rbp
	.cfi_def_cfa %rsp, 8
	retq
.Ltmp153:
.Lfunc_end23:
	.size	_ZNK3MPI8Datatype8Get_attrEiPv, .Lfunc_end23-_ZNK3MPI8Datatype8Get_attrEiPv
	.cfi_endproc
                                        # -- End function
	.weak	_ZNK3MPI8Datatype12Get_contentsEiiiPiPlPS0_ # -- Begin function _ZNK3MPI8Datatype12Get_contentsEiiiPiPlPS0_
	.p2align	4, 0x90
	.type	_ZNK3MPI8Datatype12Get_contentsEiiiPiPlPS0_,@function
_ZNK3MPI8Datatype12Get_contentsEiiiPiPlPS0_: # @_ZNK3MPI8Datatype12Get_contentsEiiiPiPlPS0_
.Lfunc_begin24:
	.loc	3 358 0                 # /usr/lib/x86_64-linux-gnu/openmpi/include/openmpi/ompi/mpi/cxx/datatype_inln.h:358:0
	.cfi_startproc
# %bb.0:                                # %L.entry
	#DEBUG_VALUE: Get_contents: <- $rdi
	#DEBUG_VALUE: Get_contents:max_integers <- $esi
	#DEBUG_VALUE: Get_contents:max_addresses <- $edx
	#DEBUG_VALUE: Get_contents:max_datatypes <- $ecx
	#DEBUG_VALUE: Get_contents:array_of_integers <- $r8
	#DEBUG_VALUE: Get_contents:array_of_addresses <- $r9
	pushq	%rbp
	.cfi_def_cfa_offset 16
	.cfi_offset %rbp, -16
	movq	%rsp, %rbp
	.cfi_def_cfa_register %rbp
	pushq	%r15
	pushq	%r14
	pushq	%r13
	pushq	%r12
	pushq	%rbx
	subq	$40, %rsp
	.cfi_offset %rbx, -56
	.cfi_offset %r12, -48
	.cfi_offset %r13, -40
	.cfi_offset %r14, -32
	.cfi_offset %r15, -24
.Ltmp154:
	#DEBUG_VALUE:  <- $rdi
	#DEBUG_VALUE: max_integers <- $esi
	#DEBUG_VALUE: max_addresses <- $edx
	#DEBUG_VALUE: max_datatypes <- $ecx
	#DEBUG_VALUE: array_of_integers <- $r8
	#DEBUG_VALUE: array_of_addresses <- $r9
	movq	%r9, -72(%rbp)          # 8-byte Spill
	movq	%r8, -64(%rbp)          # 8-byte Spill
	movl	%ecx, %r13d
	movl	%edx, -52(%rbp)         # 4-byte Spill
	movl	%esi, %r15d
	movq	%rdi, %r12
	movq	16(%rbp), %rax
	movq	%rax, -48(%rbp)         # 8-byte Spill
.Ltmp155:
	#DEBUG_VALUE: array_of_datatypes <- [DW_OP_plus_uconst 16] [$rbp+0]
	#DEBUG_VALUE: Get_contents:array_of_datatypes <- [DW_OP_plus_uconst 16] [$rbp+0]
	#DEBUG_VALUE: array_of_addresses <- [DW_OP_constu 72, DW_OP_minus] [$rbp+0]
	#DEBUG_VALUE: Get_contents:array_of_addresses <- [DW_OP_constu 72, DW_OP_minus] [$rbp+0]
	#DEBUG_VALUE: array_of_integers <- [DW_OP_constu 64, DW_OP_minus] [$rbp+0]
	#DEBUG_VALUE: Get_contents:array_of_integers <- [DW_OP_constu 64, DW_OP_minus] [$rbp+0]
	#DEBUG_VALUE: max_datatypes <- $r13d
	#DEBUG_VALUE: Get_contents:max_datatypes <- $r13d
	#DEBUG_VALUE: max_addresses <- [DW_OP_constu 52, DW_OP_minus] [$rbp+0]
	#DEBUG_VALUE: Get_contents:max_addresses <- [DW_OP_constu 52, DW_OP_minus] [$rbp+0]
	#DEBUG_VALUE: max_integers <- $r15d
	#DEBUG_VALUE: Get_contents:max_integers <- $r15d
	#DEBUG_VALUE:  <- $r12
	#DEBUG_VALUE: Get_contents: <- $r12
	.loc	3 360 1 prologue_end    # /usr/lib/x86_64-linux-gnu/openmpi/include/openmpi/ompi/mpi/cxx/datatype_inln.h:360:1
	movslq	%ecx, %r14
	leaq	(,%r14,8), %rdi
	callq	_Znam
	movq	%rax, %rbx
.Ltmp156:
	#DEBUG_VALUE: c_datatypes <- $rbx
	.loc	3 362 1                 # /usr/lib/x86_64-linux-gnu/openmpi/include/openmpi/ompi/mpi/cxx/datatype_inln.h:362:1
	movq	8(%r12), %rdi
	movq	%rax, (%rsp)
	movl	%r15d, %esi
.Ltmp157:
	#DEBUG_VALUE: max_integers <- $esi
	#DEBUG_VALUE: Get_contents:max_integers <- $esi
	.loc	3 0 1 is_stmt 0         # /usr/lib/x86_64-linux-gnu/openmpi/include/openmpi/ompi/mpi/cxx/datatype_inln.h:0:1
	movl	-52(%rbp), %edx         # 4-byte Reload
.Ltmp158:
	#DEBUG_VALUE: max_addresses <- $edx
	#DEBUG_VALUE: Get_contents:max_addresses <- $edx
	.loc	3 362 1                 # /usr/lib/x86_64-linux-gnu/openmpi/include/openmpi/ompi/mpi/cxx/datatype_inln.h:362:1
	movl	%r14d, %ecx
	movq	-64(%rbp), %r8          # 8-byte Reload
.Ltmp159:
	#DEBUG_VALUE: array_of_integers <- $r8
	#DEBUG_VALUE: Get_contents:array_of_integers <- $r8
	.loc	3 0 1                   # /usr/lib/x86_64-linux-gnu/openmpi/include/openmpi/ompi/mpi/cxx/datatype_inln.h:0:1
	movq	-72(%rbp), %r9          # 8-byte Reload
.Ltmp160:
	#DEBUG_VALUE: array_of_addresses <- $r9
	#DEBUG_VALUE: Get_contents:array_of_addresses <- $r9
	.loc	3 362 1                 # /usr/lib/x86_64-linux-gnu/openmpi/include/openmpi/ompi/mpi/cxx/datatype_inln.h:362:1
	callq	MPI_Type_get_contents
.Ltmp161:
	#DEBUG_VALUE: max_datatypes <- $r13d
	#DEBUG_VALUE: Get_contents:max_datatypes <- $r13d
	.loc	3 369 1 is_stmt 1       # /usr/lib/x86_64-linux-gnu/openmpi/include/openmpi/ompi/mpi/cxx/datatype_inln.h:369:1
	testl	%r14d, %r14d
	jle	.LBB24_13
.Ltmp162:
# %bb.1:                                # %L.B1029
	#DEBUG_VALUE: c_datatypes <- $rbx
	#DEBUG_VALUE: Get_contents: <- $r12
	#DEBUG_VALUE:  <- $r12
	#DEBUG_VALUE: Get_contents:max_datatypes <- $r13d
	#DEBUG_VALUE: max_datatypes <- $r13d
	#DEBUG_VALUE: Get_contents:array_of_datatypes <- [DW_OP_plus_uconst 16] [$rbp+0]
	#DEBUG_VALUE: array_of_datatypes <- [DW_OP_plus_uconst 16] [$rbp+0]
	.loc	3 0 1 is_stmt 0         # /usr/lib/x86_64-linux-gnu/openmpi/include/openmpi/ompi/mpi/cxx/datatype_inln.h:0:1
	xorl	%eax, %eax
	.loc	3 369 1                 # /usr/lib/x86_64-linux-gnu/openmpi/include/openmpi/ompi/mpi/cxx/datatype_inln.h:369:1
	cmpl	$4, %r13d
	jl	.LBB24_5
.Ltmp163:
# %bb.2:                                # %L.B1030
	#DEBUG_VALUE: c_datatypes <- $rbx
	#DEBUG_VALUE: Get_contents: <- $r12
	#DEBUG_VALUE:  <- $r12
	#DEBUG_VALUE: Get_contents:max_datatypes <- $r13d
	#DEBUG_VALUE: max_datatypes <- $r13d
	#DEBUG_VALUE: Get_contents:array_of_datatypes <- [DW_OP_plus_uconst 16] [$rbp+0]
	#DEBUG_VALUE: array_of_datatypes <- [DW_OP_plus_uconst 16] [$rbp+0]
	movl	%r13d, %ecx
	shrl	$31, %ecx
	addl	%r13d, %ecx
	movl	%ecx, %edx
	sarl	$2, %edx
	andl	$-4, %ecx
	movq	-48(%rbp), %rax         # 8-byte Reload
	leaq	56(%rax), %rsi
	xorl	%eax, %eax
.Ltmp164:
	.p2align	4, 0x90
.LBB24_3:                               # %L.B1023
                                        # =>This Inner Loop Header: Depth=1
	#DEBUG_VALUE: c_datatypes <- $rbx
	#DEBUG_VALUE: Get_contents: <- $r12
	#DEBUG_VALUE:  <- $r12
	#DEBUG_VALUE: Get_contents:max_datatypes <- $r13d
	#DEBUG_VALUE: max_datatypes <- $r13d
	#DEBUG_VALUE: Get_contents:array_of_datatypes <- [DW_OP_plus_uconst 16] [$rbp+0]
	#DEBUG_VALUE: array_of_datatypes <- [DW_OP_plus_uconst 16] [$rbp+0]
	movq	(%rbx,%rax,8), %rdi
	movq	%rdi, -48(%rsi)
	movq	8(%rbx,%rax,8), %rdi
	movq	%rdi, -32(%rsi)
	movq	16(%rbx,%rax,8), %rdi
	movq	%rdi, -16(%rsi)
	movq	24(%rbx,%rax,8), %rdi
	movq	%rdi, (%rsi)
	addq	$4, %rax
	addq	$64, %rsi
	decl	%edx
	jg	.LBB24_3
.Ltmp165:
# %bb.4:                                # %L.B1025.loopexit
	#DEBUG_VALUE: c_datatypes <- $rbx
	#DEBUG_VALUE: Get_contents: <- $r12
	#DEBUG_VALUE:  <- $r12
	#DEBUG_VALUE: Get_contents:max_datatypes <- $r13d
	#DEBUG_VALUE: max_datatypes <- $r13d
	#DEBUG_VALUE: Get_contents:array_of_datatypes <- [DW_OP_plus_uconst 16] [$rbp+0]
	#DEBUG_VALUE: array_of_datatypes <- [DW_OP_plus_uconst 16] [$rbp+0]
	subl	%ecx, %r13d
.Ltmp166:
.LBB24_5:                               # %L.B1025
	#DEBUG_VALUE: c_datatypes <- $rbx
	#DEBUG_VALUE: Get_contents: <- $r12
	#DEBUG_VALUE:  <- $r12
	#DEBUG_VALUE: Get_contents:array_of_datatypes <- [DW_OP_plus_uconst 16] [$rbp+0]
	#DEBUG_VALUE: array_of_datatypes <- [DW_OP_plus_uconst 16] [$rbp+0]
	testl	%r13d, %r13d
	je	.LBB24_13
.Ltmp167:
# %bb.6:                                # %L.B1025
	#DEBUG_VALUE: c_datatypes <- $rbx
	#DEBUG_VALUE: Get_contents: <- $r12
	#DEBUG_VALUE:  <- $r12
	#DEBUG_VALUE: Get_contents:array_of_datatypes <- [DW_OP_plus_uconst 16] [$rbp+0]
	#DEBUG_VALUE: array_of_datatypes <- [DW_OP_plus_uconst 16] [$rbp+0]
	cmpl	$1, %r13d
	je	.LBB24_7
.Ltmp168:
# %bb.8:                                # %L.B1025
	#DEBUG_VALUE: c_datatypes <- $rbx
	#DEBUG_VALUE: Get_contents: <- $r12
	#DEBUG_VALUE:  <- $r12
	#DEBUG_VALUE: Get_contents:array_of_datatypes <- [DW_OP_plus_uconst 16] [$rbp+0]
	#DEBUG_VALUE: array_of_datatypes <- [DW_OP_plus_uconst 16] [$rbp+0]
	cmpl	$2, %r13d
	jne	.LBB24_10
.Ltmp169:
# %bb.9:
	#DEBUG_VALUE: c_datatypes <- $rbx
	#DEBUG_VALUE: Get_contents: <- $r12
	#DEBUG_VALUE:  <- $r12
	#DEBUG_VALUE: Get_contents:array_of_datatypes <- [DW_OP_plus_uconst 16] [$rbp+0]
	#DEBUG_VALUE: array_of_datatypes <- [DW_OP_plus_uconst 16] [$rbp+0]
	.loc	3 0 1                   # /usr/lib/x86_64-linux-gnu/openmpi/include/openmpi/ompi/mpi/cxx/datatype_inln.h:0:1
	movq	-48(%rbp), %rsi         # 8-byte Reload
	jmp	.LBB24_11
.Ltmp170:
.LBB24_7:
	#DEBUG_VALUE: c_datatypes <- $rbx
	#DEBUG_VALUE: Get_contents: <- $r12
	#DEBUG_VALUE:  <- $r12
	#DEBUG_VALUE: Get_contents:array_of_datatypes <- [DW_OP_plus_uconst 16] [$rbp+0]
	#DEBUG_VALUE: array_of_datatypes <- [DW_OP_plus_uconst 16] [$rbp+0]
	movq	-48(%rbp), %rsi         # 8-byte Reload
	jmp	.LBB24_12
.Ltmp171:
.LBB24_10:                              # %L.B1034
	#DEBUG_VALUE: c_datatypes <- $rbx
	#DEBUG_VALUE: Get_contents: <- $r12
	#DEBUG_VALUE:  <- $r12
	#DEBUG_VALUE: Get_contents:array_of_datatypes <- [DW_OP_plus_uconst 16] [$rbp+0]
	#DEBUG_VALUE: array_of_datatypes <- [DW_OP_plus_uconst 16] [$rbp+0]
	.loc	3 369 1                 # /usr/lib/x86_64-linux-gnu/openmpi/include/openmpi/ompi/mpi/cxx/datatype_inln.h:369:1
	cltq
	movq	(%rbx,%rax,8), %rcx
	movq	%rax, %rdx
	shlq	$4, %rdx
	movq	-48(%rbp), %rsi         # 8-byte Reload
	movq	%rcx, 8(%rsi,%rdx)
	incl	%eax
.Ltmp172:
.LBB24_11:                              # %L.B1028
	#DEBUG_VALUE: c_datatypes <- $rbx
	#DEBUG_VALUE: Get_contents: <- $r12
	#DEBUG_VALUE:  <- $r12
	#DEBUG_VALUE: Get_contents:array_of_datatypes <- [DW_OP_plus_uconst 16] [$rbp+0]
	#DEBUG_VALUE: array_of_datatypes <- [DW_OP_plus_uconst 16] [$rbp+0]
	cltq
	movq	(%rbx,%rax,8), %rcx
	movq	%rax, %rdx
	shlq	$4, %rdx
	movq	%rcx, 8(%rsi,%rdx)
	incl	%eax
.Ltmp173:
.LBB24_12:                              # %L.B1027
	#DEBUG_VALUE: c_datatypes <- $rbx
	#DEBUG_VALUE: Get_contents: <- $r12
	#DEBUG_VALUE:  <- $r12
	#DEBUG_VALUE: Get_contents:array_of_datatypes <- [DW_OP_plus_uconst 16] [$rbp+0]
	#DEBUG_VALUE: array_of_datatypes <- [DW_OP_plus_uconst 16] [$rbp+0]
	cltq
	movq	(%rbx,%rax,8), %rcx
	shlq	$4, %rax
	movq	%rcx, 8(%rsi,%rax)
.Ltmp174:
.LBB24_13:                              # %L.B1024
	#DEBUG_VALUE: c_datatypes <- $rbx
	#DEBUG_VALUE: Get_contents: <- $r12
	#DEBUG_VALUE:  <- $r12
	#DEBUG_VALUE: Get_contents:array_of_datatypes <- [DW_OP_plus_uconst 16] [$rbp+0]
	#DEBUG_VALUE: array_of_datatypes <- [DW_OP_plus_uconst 16] [$rbp+0]
	.loc	3 372 1 is_stmt 1       # /usr/lib/x86_64-linux-gnu/openmpi/include/openmpi/ompi/mpi/cxx/datatype_inln.h:372:1
	movq	%rbx, %rdi
	addq	$40, %rsp
	popq	%rbx
.Ltmp175:
	popq	%r12
.Ltmp176:
	popq	%r13
	popq	%r14
	popq	%r15
	popq	%rbp
	.cfi_def_cfa %rsp, 8
	jmp	_ZdaPv                  # TAILCALL
.Ltmp177:
.Lfunc_end24:
	.size	_ZNK3MPI8Datatype12Get_contentsEiiiPiPlPS0_, .Lfunc_end24-_ZNK3MPI8Datatype12Get_contentsEiiiPiPlPS0_
	.cfi_endproc
                                        # -- End function
	.weak	_ZNK3MPI8Datatype12Get_envelopeERiS1_S1_S1_ # -- Begin function _ZNK3MPI8Datatype12Get_envelopeERiS1_S1_S1_
	.p2align	4, 0x90
	.type	_ZNK3MPI8Datatype12Get_envelopeERiS1_S1_S1_,@function
_ZNK3MPI8Datatype12Get_envelopeERiS1_S1_S1_: # @_ZNK3MPI8Datatype12Get_envelopeERiS1_S1_S1_
.Lfunc_begin25:
	.loc	3 378 0                 # /usr/lib/x86_64-linux-gnu/openmpi/include/openmpi/ompi/mpi/cxx/datatype_inln.h:378:0
	.cfi_startproc
# %bb.0:                                # %L.entry
	#DEBUG_VALUE: Get_envelope: <- $rdi
	#DEBUG_VALUE: Get_envelope: <- $rdi
	#DEBUG_VALUE: Get_envelope:num_integers <- $rsi
	#DEBUG_VALUE: Get_envelope:num_integers <- $rsi
	#DEBUG_VALUE: Get_envelope:num_addresses <- $rdx
	#DEBUG_VALUE: Get_envelope:num_addresses <- $rdx
	#DEBUG_VALUE: Get_envelope:num_datatypes <- $rcx
	#DEBUG_VALUE: Get_envelope:num_datatypes <- $rcx
	#DEBUG_VALUE: Get_envelope:combiner <- $r8
	#DEBUG_VALUE: Get_envelope:combiner <- $r8
	pushq	%rbp
	.cfi_def_cfa_offset 16
	.cfi_offset %rbp, -16
	movq	%rsp, %rbp
	.cfi_def_cfa_register %rbp
.Ltmp178:
	#DEBUG_VALUE:  <- $rdi
	#DEBUG_VALUE:  <- $rdi
	#DEBUG_VALUE: num_integers <- $rsi
	#DEBUG_VALUE: num_integers <- $rsi
	#DEBUG_VALUE: num_addresses <- $rdx
	#DEBUG_VALUE: num_addresses <- $rdx
	#DEBUG_VALUE: num_datatypes <- $rcx
	#DEBUG_VALUE: num_datatypes <- $rcx
	#DEBUG_VALUE: combiner <- $r8
	#DEBUG_VALUE: combiner <- $r8
	.loc	3 379 1 prologue_end    # /usr/lib/x86_64-linux-gnu/openmpi/include/openmpi/ompi/mpi/cxx/datatype_inln.h:379:1
	movq	8(%rdi), %rdi
.Ltmp179:
	#DEBUG_VALUE: combiner <- $r8
	#DEBUG_VALUE: Get_envelope:combiner <- $r8
	#DEBUG_VALUE: num_datatypes <- $rcx
	#DEBUG_VALUE: Get_envelope:num_datatypes <- $rcx
	#DEBUG_VALUE: num_addresses <- $rdx
	#DEBUG_VALUE: Get_envelope:num_addresses <- $rdx
	#DEBUG_VALUE: num_integers <- $rsi
	#DEBUG_VALUE: Get_envelope:num_integers <- $rsi
	popq	%rbp
	.cfi_def_cfa %rsp, 8
	jmp	MPI_Type_get_envelope   # TAILCALL
.Ltmp180:
.Lfunc_end25:
	.size	_ZNK3MPI8Datatype12Get_envelopeERiS1_S1_S1_, .Lfunc_end25-_ZNK3MPI8Datatype12Get_envelopeERiS1_S1_S1_
	.cfi_endproc
                                        # -- End function
	.weak	_ZNK3MPI8Datatype8Get_nameEPcRi # -- Begin function _ZNK3MPI8Datatype8Get_nameEPcRi
	.p2align	4, 0x90
	.type	_ZNK3MPI8Datatype8Get_nameEPcRi,@function
_ZNK3MPI8Datatype8Get_nameEPcRi:        # @_ZNK3MPI8Datatype8Get_nameEPcRi
.Lfunc_begin26:
	.loc	3 385 0                 # /usr/lib/x86_64-linux-gnu/openmpi/include/openmpi/ompi/mpi/cxx/datatype_inln.h:385:0
	.cfi_startproc
# %bb.0:                                # %L.entry
	#DEBUG_VALUE: Get_name: <- $rdi
	#DEBUG_VALUE: Get_name: <- $rdi
	#DEBUG_VALUE: Get_name:type_name <- $rsi
	#DEBUG_VALUE: Get_name:type_name <- $rsi
	#DEBUG_VALUE: Get_name:resultlen <- $rdx
	#DEBUG_VALUE: Get_name:resultlen <- $rdx
	pushq	%rbp
	.cfi_def_cfa_offset 16
	.cfi_offset %rbp, -16
	movq	%rsp, %rbp
	.cfi_def_cfa_register %rbp
.Ltmp181:
	#DEBUG_VALUE:  <- $rdi
	#DEBUG_VALUE:  <- $rdi
	#DEBUG_VALUE: type_name <- $rsi
	#DEBUG_VALUE: type_name <- $rsi
	#DEBUG_VALUE: resultlen <- $rdx
	#DEBUG_VALUE: resultlen <- $rdx
	.loc	3 386 1 prologue_end    # /usr/lib/x86_64-linux-gnu/openmpi/include/openmpi/ompi/mpi/cxx/datatype_inln.h:386:1
	movq	8(%rdi), %rdi
.Ltmp182:
	#DEBUG_VALUE: resultlen <- $rdx
	#DEBUG_VALUE: Get_name:resultlen <- $rdx
	#DEBUG_VALUE: type_name <- $rsi
	#DEBUG_VALUE: Get_name:type_name <- $rsi
	popq	%rbp
	.cfi_def_cfa %rsp, 8
	jmp	MPI_Type_get_name       # TAILCALL
.Ltmp183:
.Lfunc_end26:
	.size	_ZNK3MPI8Datatype8Get_nameEPcRi, .Lfunc_end26-_ZNK3MPI8Datatype8Get_nameEPcRi
	.cfi_endproc
                                        # -- End function
	.weak	_ZN3MPI8Datatype8Set_attrEiPKv # -- Begin function _ZN3MPI8Datatype8Set_attrEiPKv
	.p2align	4, 0x90
	.type	_ZN3MPI8Datatype8Set_attrEiPKv,@function
_ZN3MPI8Datatype8Set_attrEiPKv:         # @_ZN3MPI8Datatype8Set_attrEiPKv
.Lfunc_begin27:
	.loc	3 391 0                 # /usr/lib/x86_64-linux-gnu/openmpi/include/openmpi/ompi/mpi/cxx/datatype_inln.h:391:0
	.cfi_startproc
# %bb.0:                                # %L.entry
	#DEBUG_VALUE: Set_attr: <- $rdi
	#DEBUG_VALUE: Set_attr: <- $rdi
	#DEBUG_VALUE: Set_attr:type_keyval <- $esi
	#DEBUG_VALUE: Set_attr:type_keyval <- $esi
	#DEBUG_VALUE: Set_attr:attribute_val <- $rdx
	#DEBUG_VALUE: Set_attr:attribute_val <- $rdx
	pushq	%rbp
	.cfi_def_cfa_offset 16
	.cfi_offset %rbp, -16
	movq	%rsp, %rbp
	.cfi_def_cfa_register %rbp
.Ltmp184:
	#DEBUG_VALUE:  <- $rdi
	#DEBUG_VALUE:  <- $rdi
	#DEBUG_VALUE: type_keyval <- $esi
	#DEBUG_VALUE: type_keyval <- $esi
	#DEBUG_VALUE: attribute_val <- $rdx
	#DEBUG_VALUE: attribute_val <- $rdx
	.loc	3 392 1 prologue_end    # /usr/lib/x86_64-linux-gnu/openmpi/include/openmpi/ompi/mpi/cxx/datatype_inln.h:392:1
	movq	8(%rdi), %rdi
.Ltmp185:
	#DEBUG_VALUE: attribute_val <- $rdx
	#DEBUG_VALUE: Set_attr:attribute_val <- $rdx
	#DEBUG_VALUE: type_keyval <- $esi
	#DEBUG_VALUE: Set_attr:type_keyval <- $esi
	popq	%rbp
	.cfi_def_cfa %rsp, 8
	jmp	MPI_Type_set_attr       # TAILCALL
.Ltmp186:
.Lfunc_end27:
	.size	_ZN3MPI8Datatype8Set_attrEiPKv, .Lfunc_end27-_ZN3MPI8Datatype8Set_attrEiPKv
	.cfi_endproc
                                        # -- End function
	.weak	_ZN3MPI8Datatype8Set_nameEPKc # -- Begin function _ZN3MPI8Datatype8Set_nameEPKc
	.p2align	4, 0x90
	.type	_ZN3MPI8Datatype8Set_nameEPKc,@function
_ZN3MPI8Datatype8Set_nameEPKc:          # @_ZN3MPI8Datatype8Set_nameEPKc
.Lfunc_begin28:
	.loc	3 397 0                 # /usr/lib/x86_64-linux-gnu/openmpi/include/openmpi/ompi/mpi/cxx/datatype_inln.h:397:0
	.cfi_startproc
# %bb.0:                                # %L.entry
	#DEBUG_VALUE: Set_name: <- $rdi
	#DEBUG_VALUE: Set_name: <- $rdi
	#DEBUG_VALUE: Set_name:type_name <- $rsi
	#DEBUG_VALUE: Set_name:type_name <- $rsi
	pushq	%rbp
	.cfi_def_cfa_offset 16
	.cfi_offset %rbp, -16
	movq	%rsp, %rbp
	.cfi_def_cfa_register %rbp
.Ltmp187:
	#DEBUG_VALUE:  <- $rdi
	#DEBUG_VALUE:  <- $rdi
	#DEBUG_VALUE: type_name <- $rsi
	#DEBUG_VALUE: type_name <- $rsi
	.loc	3 398 1 prologue_end    # /usr/lib/x86_64-linux-gnu/openmpi/include/openmpi/ompi/mpi/cxx/datatype_inln.h:398:1
	movq	8(%rdi), %rdi
.Ltmp188:
	#DEBUG_VALUE: type_name <- $rsi
	#DEBUG_VALUE: Set_name:type_name <- $rsi
	popq	%rbp
	.cfi_def_cfa %rsp, 8
	jmp	MPI_Type_set_name       # TAILCALL
.Ltmp189:
.Lfunc_end28:
	.size	_ZN3MPI8Datatype8Set_nameEPKc, .Lfunc_end28-_ZN3MPI8Datatype8Set_nameEPKc
	.cfi_endproc
                                        # -- End function
	.weak	_ZN3MPI2OpD1Ev          # -- Begin function _ZN3MPI2OpD1Ev
	.p2align	4, 0x90
	.type	_ZN3MPI2OpD1Ev,@function
_ZN3MPI2OpD1Ev:                         # @_ZN3MPI2OpD1Ev
.Lfunc_begin29:
	.file	4 "/usr/lib/x86_64-linux-gnu/openmpi/include/openmpi/ompi/mpi/cxx/op_inln.h"
	.loc	4 77 0                  # /usr/lib/x86_64-linux-gnu/openmpi/include/openmpi/ompi/mpi/cxx/op_inln.h:77:0
	.cfi_startproc
# %bb.0:                                # %L.entry
	#DEBUG_VALUE: ~Op: <- $rdi
	#DEBUG_VALUE: ~Op: <- $rdi
	pushq	%rbp
	.cfi_def_cfa_offset 16
	.cfi_offset %rbp, -16
	movq	%rsp, %rbp
	.cfi_def_cfa_register %rbp
.Ltmp190:
	#DEBUG_VALUE:  <- $rdi
	#DEBUG_VALUE:  <- $rdi
	.loc	4 77 1 prologue_end     # /usr/lib/x86_64-linux-gnu/openmpi/include/openmpi/ompi/mpi/cxx/op_inln.h:77:1
	movq	$_ZTVN3MPI2OpE+16, (%rdi)
	.loc	4 82 1                  # /usr/lib/x86_64-linux-gnu/openmpi/include/openmpi/ompi/mpi/cxx/op_inln.h:82:1
	popq	%rbp
	.cfi_def_cfa %rsp, 8
	retq
.Ltmp191:
.Lfunc_end29:
	.size	_ZN3MPI2OpD1Ev, .Lfunc_end29-_ZN3MPI2OpD1Ev
	.cfi_endproc
                                        # -- End function
	.weak	_ZN3MPI2OpD0Ev          # -- Begin function _ZN3MPI2OpD0Ev
	.p2align	4, 0x90
	.type	_ZN3MPI2OpD0Ev,@function
_ZN3MPI2OpD0Ev:                         # @_ZN3MPI2OpD0Ev
.Lfunc_begin30:
	.loc	1 0 0                   # projects/read_gaussian_population.cpp:0:0
	.cfi_startproc
# %bb.0:                                # %L.entry
	pushq	%rbp
	.cfi_def_cfa_offset 16
	.cfi_offset %rbp, -16
	movq	%rsp, %rbp
	.cfi_def_cfa_register %rbp
.Ltmp192:
	.loc	1 82 1 prologue_end     # projects/read_gaussian_population.cpp:82:1
	movl	$16, %esi
	popq	%rbp
	.cfi_def_cfa %rsp, 8
	jmp	_ZdlPvm                 # TAILCALL
.Ltmp193:
.Lfunc_end30:
	.size	_ZN3MPI2OpD0Ev, .Lfunc_end30-_ZN3MPI2OpD0Ev
	.cfi_endproc
                                        # -- End function
	.weak	_ZN3MPI2Op4InitEPFvPKvPviRKNS_8DatatypeEEb # -- Begin function _ZN3MPI2Op4InitEPFvPKvPviRKNS_8DatatypeEEb
	.p2align	4, 0x90
	.type	_ZN3MPI2Op4InitEPFvPKvPviRKNS_8DatatypeEEb,@function
_ZN3MPI2Op4InitEPFvPKvPviRKNS_8DatatypeEEb: # @_ZN3MPI2Op4InitEPFvPKvPviRKNS_8DatatypeEEb
.Lfunc_begin31:
	.loc	4 120 0                 # /usr/lib/x86_64-linux-gnu/openmpi/include/openmpi/ompi/mpi/cxx/op_inln.h:120:0
	.cfi_startproc
# %bb.0:                                # %L.entry
	#DEBUG_VALUE: Init: <- $rdi
	#DEBUG_VALUE: Init:func <- $rsi
	#DEBUG_VALUE: Init:commute <- $edx
	pushq	%rbp
	.cfi_def_cfa_offset 16
	.cfi_offset %rbp, -16
	movq	%rsp, %rbp
	.cfi_def_cfa_register %rbp
	pushq	%r14
	pushq	%rbx
	.cfi_offset %rbx, -32
	.cfi_offset %r14, -24
.Ltmp194:
	#DEBUG_VALUE:  <- $rdi
	#DEBUG_VALUE: func <- $rsi
	#DEBUG_VALUE: commute <- $edx
	movq	%rsi, %r14
	movq	%rdi, %rbx
	#DEBUG_VALUE: commute <- $edx
	#DEBUG_VALUE: Init:commute <- $edx
.Ltmp195:
	#DEBUG_VALUE: func <- $r14
	#DEBUG_VALUE: Init:func <- $r14
	#DEBUG_VALUE:  <- $rbx
	#DEBUG_VALUE: Init: <- $rbx
	.loc	4 121 1 prologue_end    # /usr/lib/x86_64-linux-gnu/openmpi/include/openmpi/ompi/mpi/cxx/op_inln.h:121:1
	leaq	8(%rdi), %rax
	movl	$ompi_mpi_cxx_op_intercept, %edi
	movl	%edx, %esi
.Ltmp196:
	#DEBUG_VALUE: commute <- $esi
	#DEBUG_VALUE: Init:commute <- $esi
	movq	%rax, %rdx
	callq	MPI_Op_create
.Ltmp197:
	.loc	4 123 1                 # /usr/lib/x86_64-linux-gnu/openmpi/include/openmpi/ompi/mpi/cxx/op_inln.h:123:1
	movq	8(%rbx), %rdi
	movq	%r14, %rsi
.Ltmp198:
	#DEBUG_VALUE: func <- $rsi
	#DEBUG_VALUE: Init:func <- $rsi
	popq	%rbx
.Ltmp199:
	popq	%r14
	popq	%rbp
	.cfi_def_cfa %rsp, 8
	jmp	ompi_op_set_cxx_callback # TAILCALL
.Ltmp200:
.Lfunc_end31:
	.size	_ZN3MPI2Op4InitEPFvPKvPviRKNS_8DatatypeEEb, .Lfunc_end31-_ZN3MPI2Op4InitEPFvPKvPviRKNS_8DatatypeEEb
	.cfi_endproc
                                        # -- End function
	.weak	_ZN3MPI2Op4FreeEv       # -- Begin function _ZN3MPI2Op4FreeEv
	.p2align	4, 0x90
	.type	_ZN3MPI2Op4FreeEv,@function
_ZN3MPI2Op4FreeEv:                      # @_ZN3MPI2Op4FreeEv
.Lfunc_begin32:
	.loc	4 129 0                 # /usr/lib/x86_64-linux-gnu/openmpi/include/openmpi/ompi/mpi/cxx/op_inln.h:129:0
	.cfi_startproc
# %bb.0:                                # %L.entry
	#DEBUG_VALUE: Free: <- $rdi
	#DEBUG_VALUE: Free: <- $rdi
	pushq	%rbp
	.cfi_def_cfa_offset 16
	.cfi_offset %rbp, -16
	movq	%rsp, %rbp
	.cfi_def_cfa_register %rbp
.Ltmp201:
	#DEBUG_VALUE:  <- $rdi
	#DEBUG_VALUE:  <- $rdi
	.loc	4 130 1 prologue_end    # /usr/lib/x86_64-linux-gnu/openmpi/include/openmpi/ompi/mpi/cxx/op_inln.h:130:1
	addq	$8, %rdi
.Ltmp202:
	popq	%rbp
	.cfi_def_cfa %rsp, 8
	jmp	MPI_Op_free             # TAILCALL
.Ltmp203:
.Lfunc_end32:
	.size	_ZN3MPI2Op4FreeEv, .Lfunc_end32-_ZN3MPI2Op4FreeEv
	.cfi_endproc
                                        # -- End function
	.weak	_ZNK3MPI2Op12Reduce_localEPKvPviRKNS_8DatatypeE # -- Begin function _ZNK3MPI2Op12Reduce_localEPKvPviRKNS_8DatatypeE
	.p2align	4, 0x90
	.type	_ZNK3MPI2Op12Reduce_localEPKvPviRKNS_8DatatypeE,@function
_ZNK3MPI2Op12Reduce_localEPKvPviRKNS_8DatatypeE: # @_ZNK3MPI2Op12Reduce_localEPKvPviRKNS_8DatatypeE
.Lfunc_begin33:
	.loc	4 137 0                 # /usr/lib/x86_64-linux-gnu/openmpi/include/openmpi/ompi/mpi/cxx/op_inln.h:137:0
	.cfi_startproc
# %bb.0:                                # %L.entry
	#DEBUG_VALUE: Reduce_local: <- $rdi
	#DEBUG_VALUE: Reduce_local: <- $rdi
	#DEBUG_VALUE: Reduce_local:inbuf <- $rsi
	#DEBUG_VALUE: Reduce_local:inbuf <- $rsi
	#DEBUG_VALUE: Reduce_local:inoutbuf <- $rdx
	#DEBUG_VALUE: Reduce_local:inoutbuf <- $rdx
	#DEBUG_VALUE: Reduce_local:count <- $ecx
	#DEBUG_VALUE: Reduce_local:count <- $ecx
	#DEBUG_VALUE: Reduce_local:datatype <- $r8
	#DEBUG_VALUE: Reduce_local:datatype <- $r8
	pushq	%rbp
	.cfi_def_cfa_offset 16
	.cfi_offset %rbp, -16
	movq	%rsp, %rbp
	.cfi_def_cfa_register %rbp
.Ltmp204:
	#DEBUG_VALUE:  <- $rdi
	#DEBUG_VALUE:  <- $rdi
	#DEBUG_VALUE: inbuf <- $rsi
	#DEBUG_VALUE: inbuf <- $rsi
	#DEBUG_VALUE: inoutbuf <- $rdx
	#DEBUG_VALUE: inoutbuf <- $rdx
	#DEBUG_VALUE: count <- $ecx
	#DEBUG_VALUE: count <- $ecx
	#DEBUG_VALUE: datatype <- $r8
	#DEBUG_VALUE: datatype <- $r8
	.loc	4 90 1 prologue_end     # /usr/lib/x86_64-linux-gnu/openmpi/include/openmpi/ompi/mpi/cxx/op_inln.h:90:1
	movq	8(%r8), %rax
	movq	8(%rdi), %r8
.Ltmp205:
	movq	%rsi, %rdi
.Ltmp206:
	#DEBUG_VALUE: inbuf <- $rdi
	#DEBUG_VALUE: Reduce_local:inbuf <- $rdi
	movq	%rdx, %rsi
.Ltmp207:
	#DEBUG_VALUE: inoutbuf <- $rsi
	#DEBUG_VALUE: Reduce_local:inoutbuf <- $rsi
	movl	%ecx, %edx
.Ltmp208:
	#DEBUG_VALUE: count <- $edx
	#DEBUG_VALUE: Reduce_local:count <- $edx
	movq	%rax, %rcx
	popq	%rbp
	.cfi_def_cfa %rsp, 8
	jmp	MPI_Reduce_local        # TAILCALL
.Ltmp209:
.Lfunc_end33:
	.size	_ZNK3MPI2Op12Reduce_localEPKvPviRKNS_8DatatypeE, .Lfunc_end33-_ZNK3MPI2Op12Reduce_localEPKvPviRKNS_8DatatypeE
	.cfi_endproc
                                        # -- End function
	.weak	_ZNK3MPI2Op14Is_commutativeEv # -- Begin function _ZNK3MPI2Op14Is_commutativeEv
	.p2align	4, 0x90
	.type	_ZNK3MPI2Op14Is_commutativeEv,@function
_ZNK3MPI2Op14Is_commutativeEv:          # @_ZNK3MPI2Op14Is_commutativeEv
.Lfunc_begin34:
	.loc	4 145 0                 # /usr/lib/x86_64-linux-gnu/openmpi/include/openmpi/ompi/mpi/cxx/op_inln.h:145:0
	.cfi_startproc
# %bb.0:                                # %L.entry
	#DEBUG_VALUE: Is_commutative: <- $rdi
	#DEBUG_VALUE: Is_commutative: <- $rdi
	pushq	%rbp
	.cfi_def_cfa_offset 16
	.cfi_offset %rbp, -16
	movq	%rsp, %rbp
	.cfi_def_cfa_register %rbp
	subq	$16, %rsp
.Ltmp210:
	#DEBUG_VALUE:  <- $rdi
	.loc	4 147 1 prologue_end    # /usr/lib/x86_64-linux-gnu/openmpi/include/openmpi/ompi/mpi/cxx/op_inln.h:147:1
	movq	8(%rdi), %rdi
.Ltmp211:
	#DEBUG_VALUE: commute <- [DW_OP_constu 4, DW_OP_minus, DW_OP_deref] $rbp
	.loc	4 0 1 is_stmt 0         # /usr/lib/x86_64-linux-gnu/openmpi/include/openmpi/ompi/mpi/cxx/op_inln.h:0:1
	leaq	-4(%rbp), %rsi
	.loc	4 147 1                 # /usr/lib/x86_64-linux-gnu/openmpi/include/openmpi/ompi/mpi/cxx/op_inln.h:147:1
	callq	MPI_Op_commutative
.Ltmp212:
	#DEBUG_VALUE: commute <- undef
	.loc	4 148 1 is_stmt 1       # /usr/lib/x86_64-linux-gnu/openmpi/include/openmpi/ompi/mpi/cxx/op_inln.h:148:1
	cmpl	$0, -4(%rbp)
	setne	%al
	addq	$16, %rsp
	popq	%rbp
	.cfi_def_cfa %rsp, 8
	retq
.Ltmp213:
.Lfunc_end34:
	.size	_ZNK3MPI2Op14Is_commutativeEv, .Lfunc_end34-_ZNK3MPI2Op14Is_commutativeEv
	.cfi_endproc
                                        # -- End function
	.weak	_ZN3MPI6StatusD1Ev      # -- Begin function _ZN3MPI6StatusD1Ev
	.p2align	4, 0x90
	.type	_ZN3MPI6StatusD1Ev,@function
_ZN3MPI6StatusD1Ev:                     # @_ZN3MPI6StatusD1Ev
.Lfunc_begin35:
	.file	5 "/usr/lib/x86_64-linux-gnu/openmpi/include/openmpi/ompi/mpi/cxx/status.h"
	.loc	5 64 0                  # /usr/lib/x86_64-linux-gnu/openmpi/include/openmpi/ompi/mpi/cxx/status.h:64:0
	.cfi_startproc
# %bb.0:                                # %L.entry
	#DEBUG_VALUE: ~Status: <- $rdi
	#DEBUG_VALUE: ~Status: <- $rdi
	pushq	%rbp
	.cfi_def_cfa_offset 16
	.cfi_offset %rbp, -16
	movq	%rsp, %rbp
	.cfi_def_cfa_register %rbp
.Ltmp214:
	#DEBUG_VALUE:  <- $rdi
	#DEBUG_VALUE:  <- $rdi
	.loc	5 64 1 prologue_end     # /usr/lib/x86_64-linux-gnu/openmpi/include/openmpi/ompi/mpi/cxx/status.h:64:1
	movq	$_ZTVN3MPI6StatusE+16, (%rdi)
	popq	%rbp
	.cfi_def_cfa %rsp, 8
	retq
.Ltmp215:
.Lfunc_end35:
	.size	_ZN3MPI6StatusD1Ev, .Lfunc_end35-_ZN3MPI6StatusD1Ev
	.cfi_endproc
                                        # -- End function
	.weak	_ZN3MPI6StatusD0Ev      # -- Begin function _ZN3MPI6StatusD0Ev
	.p2align	4, 0x90
	.type	_ZN3MPI6StatusD0Ev,@function
_ZN3MPI6StatusD0Ev:                     # @_ZN3MPI6StatusD0Ev
.Lfunc_begin36:
	.loc	1 0 0                   # projects/read_gaussian_population.cpp:0:0
	.cfi_startproc
# %bb.0:                                # %L.entry
	pushq	%rbp
	.cfi_def_cfa_offset 16
	.cfi_offset %rbp, -16
	movq	%rsp, %rbp
	.cfi_def_cfa_register %rbp
.Ltmp216:
	.loc	1 64 1 prologue_end     # projects/read_gaussian_population.cpp:64:1
	movl	$32, %esi
	popq	%rbp
	.cfi_def_cfa %rsp, 8
	jmp	_ZdlPvm                 # TAILCALL
.Ltmp217:
.Lfunc_end36:
	.size	_ZN3MPI6StatusD0Ev, .Lfunc_end36-_ZN3MPI6StatusD0Ev
	.cfi_endproc
                                        # -- End function
	.weak	_ZNK3MPI6Status9Get_countERKNS_8DatatypeE # -- Begin function _ZNK3MPI6Status9Get_countERKNS_8DatatypeE
	.p2align	4, 0x90
	.type	_ZNK3MPI6Status9Get_countERKNS_8DatatypeE,@function
_ZNK3MPI6Status9Get_countERKNS_8DatatypeE: # @_ZNK3MPI6Status9Get_countERKNS_8DatatypeE
.Lfunc_begin37:
	.file	6 "/usr/lib/x86_64-linux-gnu/openmpi/include/openmpi/ompi/mpi/cxx/status_inln.h"
	.loc	6 27 0                  # /usr/lib/x86_64-linux-gnu/openmpi/include/openmpi/ompi/mpi/cxx/status_inln.h:27:0
	.cfi_startproc
# %bb.0:                                # %L.entry
	#DEBUG_VALUE: Get_count: <- $rdi
	#DEBUG_VALUE: Get_count: <- $rdi
	#DEBUG_VALUE: Get_count:datatype <- $rsi
	#DEBUG_VALUE: Get_count:datatype <- $rsi
	pushq	%rbp
	.cfi_def_cfa_offset 16
	.cfi_offset %rbp, -16
	movq	%rsp, %rbp
	.cfi_def_cfa_register %rbp
	subq	$16, %rsp
.Ltmp218:
	#DEBUG_VALUE:  <- $rdi
	#DEBUG_VALUE: datatype <- $rsi
	.loc	6 90 1 prologue_end     # /usr/lib/x86_64-linux-gnu/openmpi/include/openmpi/ompi/mpi/cxx/status_inln.h:90:1
	addq	$8, %rdi
.Ltmp219:
	movq	8(%rsi), %rsi
.Ltmp220:
	#DEBUG_VALUE: count <- [DW_OP_constu 4, DW_OP_minus, DW_OP_deref] $rbp
	.loc	6 0 1 is_stmt 0         # /usr/lib/x86_64-linux-gnu/openmpi/include/openmpi/ompi/mpi/cxx/status_inln.h:0:1
	leaq	-4(%rbp), %rdx
	.loc	6 90 1                  # /usr/lib/x86_64-linux-gnu/openmpi/include/openmpi/ompi/mpi/cxx/status_inln.h:90:1
	callq	MPI_Get_count
	.loc	6 30 1 is_stmt 1        # /usr/lib/x86_64-linux-gnu/openmpi/include/openmpi/ompi/mpi/cxx/status_inln.h:30:1
	movl	-4(%rbp), %eax
.Ltmp221:
	#DEBUG_VALUE: count <- $eax
	addq	$16, %rsp
	popq	%rbp
	.cfi_def_cfa %rsp, 8
	retq
.Ltmp222:
.Lfunc_end37:
	.size	_ZNK3MPI6Status9Get_countERKNS_8DatatypeE, .Lfunc_end37-_ZNK3MPI6Status9Get_countERKNS_8DatatypeE
	.cfi_endproc
                                        # -- End function
	.weak	_ZNK3MPI6Status12Is_cancelledEv # -- Begin function _ZNK3MPI6Status12Is_cancelledEv
	.p2align	4, 0x90
	.type	_ZNK3MPI6Status12Is_cancelledEv,@function
_ZNK3MPI6Status12Is_cancelledEv:        # @_ZNK3MPI6Status12Is_cancelledEv
.Lfunc_begin38:
	.loc	6 35 0                  # /usr/lib/x86_64-linux-gnu/openmpi/include/openmpi/ompi/mpi/cxx/status_inln.h:35:0
	.cfi_startproc
# %bb.0:                                # %L.entry
	#DEBUG_VALUE: Is_cancelled: <- $rdi
	#DEBUG_VALUE: Is_cancelled: <- $rdi
	pushq	%rbp
	.cfi_def_cfa_offset 16
	.cfi_offset %rbp, -16
	movq	%rsp, %rbp
	.cfi_def_cfa_register %rbp
	subq	$16, %rsp
.Ltmp223:
	#DEBUG_VALUE:  <- $rdi
	.loc	6 37 1 prologue_end     # /usr/lib/x86_64-linux-gnu/openmpi/include/openmpi/ompi/mpi/cxx/status_inln.h:37:1
	addq	$8, %rdi
.Ltmp224:
	#DEBUG_VALUE: t <- [DW_OP_constu 4, DW_OP_minus, DW_OP_deref] $rbp
	.loc	6 0 1 is_stmt 0         # /usr/lib/x86_64-linux-gnu/openmpi/include/openmpi/ompi/mpi/cxx/status_inln.h:0:1
	leaq	-4(%rbp), %rsi
	.loc	6 37 1                  # /usr/lib/x86_64-linux-gnu/openmpi/include/openmpi/ompi/mpi/cxx/status_inln.h:37:1
	callq	MPI_Test_cancelled
.Ltmp225:
	#DEBUG_VALUE: t <- undef
	.loc	6 38 1 is_stmt 1        # /usr/lib/x86_64-linux-gnu/openmpi/include/openmpi/ompi/mpi/cxx/status_inln.h:38:1
	cmpl	$0, -4(%rbp)
	setne	%al
	addq	$16, %rsp
	popq	%rbp
	.cfi_def_cfa %rsp, 8
	retq
.Ltmp226:
.Lfunc_end38:
	.size	_ZNK3MPI6Status12Is_cancelledEv, .Lfunc_end38-_ZNK3MPI6Status12Is_cancelledEv
	.cfi_endproc
                                        # -- End function
	.weak	_ZNK3MPI6Status12Get_elementsERKNS_8DatatypeE # -- Begin function _ZNK3MPI6Status12Get_elementsERKNS_8DatatypeE
	.p2align	4, 0x90
	.type	_ZNK3MPI6Status12Get_elementsERKNS_8DatatypeE,@function
_ZNK3MPI6Status12Get_elementsERKNS_8DatatypeE: # @_ZNK3MPI6Status12Get_elementsERKNS_8DatatypeE
.Lfunc_begin39:
	.loc	6 43 0                  # /usr/lib/x86_64-linux-gnu/openmpi/include/openmpi/ompi/mpi/cxx/status_inln.h:43:0
	.cfi_startproc
# %bb.0:                                # %L.entry
	#DEBUG_VALUE: Get_elements: <- $rdi
	#DEBUG_VALUE: Get_elements: <- $rdi
	#DEBUG_VALUE: Get_elements:datatype <- $rsi
	#DEBUG_VALUE: Get_elements:datatype <- $rsi
	pushq	%rbp
	.cfi_def_cfa_offset 16
	.cfi_offset %rbp, -16
	movq	%rsp, %rbp
	.cfi_def_cfa_register %rbp
	subq	$16, %rsp
.Ltmp227:
	#DEBUG_VALUE:  <- $rdi
	#DEBUG_VALUE: datatype <- $rsi
	.loc	6 90 1 prologue_end     # /usr/lib/x86_64-linux-gnu/openmpi/include/openmpi/ompi/mpi/cxx/status_inln.h:90:1
	addq	$8, %rdi
.Ltmp228:
	movq	8(%rsi), %rsi
.Ltmp229:
	#DEBUG_VALUE: count <- [DW_OP_constu 4, DW_OP_minus, DW_OP_deref] $rbp
	.loc	6 0 1 is_stmt 0         # /usr/lib/x86_64-linux-gnu/openmpi/include/openmpi/ompi/mpi/cxx/status_inln.h:0:1
	leaq	-4(%rbp), %rdx
	.loc	6 90 1                  # /usr/lib/x86_64-linux-gnu/openmpi/include/openmpi/ompi/mpi/cxx/status_inln.h:90:1
	callq	MPI_Get_elements
	.loc	6 46 1 is_stmt 1        # /usr/lib/x86_64-linux-gnu/openmpi/include/openmpi/ompi/mpi/cxx/status_inln.h:46:1
	movl	-4(%rbp), %eax
.Ltmp230:
	#DEBUG_VALUE: count <- $eax
	addq	$16, %rsp
	popq	%rbp
	.cfi_def_cfa %rsp, 8
	retq
.Ltmp231:
.Lfunc_end39:
	.size	_ZNK3MPI6Status12Get_elementsERKNS_8DatatypeE, .Lfunc_end39-_ZNK3MPI6Status12Get_elementsERKNS_8DatatypeE
	.cfi_endproc
                                        # -- End function
	.weak	_ZNK3MPI6Status10Get_sourceEv # -- Begin function _ZNK3MPI6Status10Get_sourceEv
	.p2align	4, 0x90
	.type	_ZNK3MPI6Status10Get_sourceEv,@function
_ZNK3MPI6Status10Get_sourceEv:          # @_ZNK3MPI6Status10Get_sourceEv
.Lfunc_begin40:
	.loc	6 54 0                  # /usr/lib/x86_64-linux-gnu/openmpi/include/openmpi/ompi/mpi/cxx/status_inln.h:54:0
	.cfi_startproc
# %bb.0:                                # %L.entry
	#DEBUG_VALUE: Get_source: <- $rdi
	#DEBUG_VALUE: Get_source: <- $rdi
	pushq	%rbp
	.cfi_def_cfa_offset 16
	.cfi_offset %rbp, -16
	movq	%rsp, %rbp
	.cfi_def_cfa_register %rbp
.Ltmp232:
	#DEBUG_VALUE:  <- $rdi
	#DEBUG_VALUE:  <- $rdi
	.loc	6 57 1 prologue_end     # /usr/lib/x86_64-linux-gnu/openmpi/include/openmpi/ompi/mpi/cxx/status_inln.h:57:1
	movl	8(%rdi), %eax
	popq	%rbp
	.cfi_def_cfa %rsp, 8
	retq
.Ltmp233:
.Lfunc_end40:
	.size	_ZNK3MPI6Status10Get_sourceEv, .Lfunc_end40-_ZNK3MPI6Status10Get_sourceEv
	.cfi_endproc
                                        # -- End function
	.weak	_ZN3MPI6Status10Set_sourceEi # -- Begin function _ZN3MPI6Status10Set_sourceEi
	.p2align	4, 0x90
	.type	_ZN3MPI6Status10Set_sourceEi,@function
_ZN3MPI6Status10Set_sourceEi:           # @_ZN3MPI6Status10Set_sourceEi
.Lfunc_begin41:
	.loc	6 62 0                  # /usr/lib/x86_64-linux-gnu/openmpi/include/openmpi/ompi/mpi/cxx/status_inln.h:62:0
	.cfi_startproc
# %bb.0:                                # %L.entry
	#DEBUG_VALUE: Set_source: <- $rdi
	#DEBUG_VALUE: Set_source: <- $rdi
	#DEBUG_VALUE: Set_source:source <- $esi
	#DEBUG_VALUE: Set_source:source <- $esi
	pushq	%rbp
	.cfi_def_cfa_offset 16
	.cfi_offset %rbp, -16
	movq	%rsp, %rbp
	.cfi_def_cfa_register %rbp
.Ltmp234:
	#DEBUG_VALUE:  <- $rdi
	#DEBUG_VALUE:  <- $rdi
	#DEBUG_VALUE: source <- $esi
	#DEBUG_VALUE: source <- $esi
	.loc	6 63 1 prologue_end     # /usr/lib/x86_64-linux-gnu/openmpi/include/openmpi/ompi/mpi/cxx/status_inln.h:63:1
	movl	%esi, 8(%rdi)
	.loc	6 64 1                  # /usr/lib/x86_64-linux-gnu/openmpi/include/openmpi/ompi/mpi/cxx/status_inln.h:64:1
	popq	%rbp
	.cfi_def_cfa %rsp, 8
	retq
.Ltmp235:
.Lfunc_end41:
	.size	_ZN3MPI6Status10Set_sourceEi, .Lfunc_end41-_ZN3MPI6Status10Set_sourceEi
	.cfi_endproc
                                        # -- End function
	.weak	_ZNK3MPI6Status7Get_tagEv # -- Begin function _ZNK3MPI6Status7Get_tagEv
	.p2align	4, 0x90
	.type	_ZNK3MPI6Status7Get_tagEv,@function
_ZNK3MPI6Status7Get_tagEv:              # @_ZNK3MPI6Status7Get_tagEv
.Lfunc_begin42:
	.loc	6 68 0                  # /usr/lib/x86_64-linux-gnu/openmpi/include/openmpi/ompi/mpi/cxx/status_inln.h:68:0
	.cfi_startproc
# %bb.0:                                # %L.entry
	#DEBUG_VALUE: Get_tag: <- $rdi
	#DEBUG_VALUE: Get_tag: <- $rdi
	pushq	%rbp
	.cfi_def_cfa_offset 16
	.cfi_offset %rbp, -16
	movq	%rsp, %rbp
	.cfi_def_cfa_register %rbp
.Ltmp236:
	#DEBUG_VALUE:  <- $rdi
	#DEBUG_VALUE:  <- $rdi
	.loc	6 71 1 prologue_end     # /usr/lib/x86_64-linux-gnu/openmpi/include/openmpi/ompi/mpi/cxx/status_inln.h:71:1
	movl	12(%rdi), %eax
	popq	%rbp
	.cfi_def_cfa %rsp, 8
	retq
.Ltmp237:
.Lfunc_end42:
	.size	_ZNK3MPI6Status7Get_tagEv, .Lfunc_end42-_ZNK3MPI6Status7Get_tagEv
	.cfi_endproc
                                        # -- End function
	.weak	_ZN3MPI6Status7Set_tagEi # -- Begin function _ZN3MPI6Status7Set_tagEi
	.p2align	4, 0x90
	.type	_ZN3MPI6Status7Set_tagEi,@function
_ZN3MPI6Status7Set_tagEi:               # @_ZN3MPI6Status7Set_tagEi
.Lfunc_begin43:
	.loc	6 76 0                  # /usr/lib/x86_64-linux-gnu/openmpi/include/openmpi/ompi/mpi/cxx/status_inln.h:76:0
	.cfi_startproc
# %bb.0:                                # %L.entry
	#DEBUG_VALUE: Set_tag: <- $rdi
	#DEBUG_VALUE: Set_tag: <- $rdi
	#DEBUG_VALUE: Set_tag:tag <- $esi
	#DEBUG_VALUE: Set_tag:tag <- $esi
	pushq	%rbp
	.cfi_def_cfa_offset 16
	.cfi_offset %rbp, -16
	movq	%rsp, %rbp
	.cfi_def_cfa_register %rbp
.Ltmp238:
	#DEBUG_VALUE:  <- $rdi
	#DEBUG_VALUE:  <- $rdi
	#DEBUG_VALUE: tag <- $esi
	#DEBUG_VALUE: tag <- $esi
	.loc	6 77 1 prologue_end     # /usr/lib/x86_64-linux-gnu/openmpi/include/openmpi/ompi/mpi/cxx/status_inln.h:77:1
	movl	%esi, 12(%rdi)
	.loc	6 78 1                  # /usr/lib/x86_64-linux-gnu/openmpi/include/openmpi/ompi/mpi/cxx/status_inln.h:78:1
	popq	%rbp
	.cfi_def_cfa %rsp, 8
	retq
.Ltmp239:
.Lfunc_end43:
	.size	_ZN3MPI6Status7Set_tagEi, .Lfunc_end43-_ZN3MPI6Status7Set_tagEi
	.cfi_endproc
                                        # -- End function
	.weak	_ZNK3MPI6Status9Get_errorEv # -- Begin function _ZNK3MPI6Status9Get_errorEv
	.p2align	4, 0x90
	.type	_ZNK3MPI6Status9Get_errorEv,@function
_ZNK3MPI6Status9Get_errorEv:            # @_ZNK3MPI6Status9Get_errorEv
.Lfunc_begin44:
	.loc	6 82 0                  # /usr/lib/x86_64-linux-gnu/openmpi/include/openmpi/ompi/mpi/cxx/status_inln.h:82:0
	.cfi_startproc
# %bb.0:                                # %L.entry
	#DEBUG_VALUE: Get_error: <- $rdi
	#DEBUG_VALUE: Get_error: <- $rdi
	pushq	%rbp
	.cfi_def_cfa_offset 16
	.cfi_offset %rbp, -16
	movq	%rsp, %rbp
	.cfi_def_cfa_register %rbp
.Ltmp240:
	#DEBUG_VALUE:  <- $rdi
	#DEBUG_VALUE:  <- $rdi
	.loc	6 85 1 prologue_end     # /usr/lib/x86_64-linux-gnu/openmpi/include/openmpi/ompi/mpi/cxx/status_inln.h:85:1
	movl	16(%rdi), %eax
	popq	%rbp
	.cfi_def_cfa %rsp, 8
	retq
.Ltmp241:
.Lfunc_end44:
	.size	_ZNK3MPI6Status9Get_errorEv, .Lfunc_end44-_ZNK3MPI6Status9Get_errorEv
	.cfi_endproc
                                        # -- End function
	.weak	_ZN3MPI6Status9Set_errorEi # -- Begin function _ZN3MPI6Status9Set_errorEi
	.p2align	4, 0x90
	.type	_ZN3MPI6Status9Set_errorEi,@function
_ZN3MPI6Status9Set_errorEi:             # @_ZN3MPI6Status9Set_errorEi
.Lfunc_begin45:
	.loc	6 90 0                  # /usr/lib/x86_64-linux-gnu/openmpi/include/openmpi/ompi/mpi/cxx/status_inln.h:90:0
	.cfi_startproc
# %bb.0:                                # %L.entry
	#DEBUG_VALUE: Set_error: <- $rdi
	#DEBUG_VALUE: Set_error: <- $rdi
	#DEBUG_VALUE: Set_error:error <- $esi
	#DEBUG_VALUE: Set_error:error <- $esi
	pushq	%rbp
	.cfi_def_cfa_offset 16
	.cfi_offset %rbp, -16
	movq	%rsp, %rbp
	.cfi_def_cfa_register %rbp
.Ltmp242:
	#DEBUG_VALUE:  <- $rdi
	#DEBUG_VALUE:  <- $rdi
	#DEBUG_VALUE: error <- $esi
	#DEBUG_VALUE: error <- $esi
	.loc	6 91 1 prologue_end     # /usr/lib/x86_64-linux-gnu/openmpi/include/openmpi/ompi/mpi/cxx/status_inln.h:91:1
	movl	%esi, 16(%rdi)
	.loc	6 92 1                  # /usr/lib/x86_64-linux-gnu/openmpi/include/openmpi/ompi/mpi/cxx/status_inln.h:92:1
	popq	%rbp
	.cfi_def_cfa %rsp, 8
	retq
.Ltmp243:
.Lfunc_end45:
	.size	_ZN3MPI6Status9Set_errorEi, .Lfunc_end45-_ZN3MPI6Status9Set_errorEi
	.cfi_endproc
                                        # -- End function
	.weak	_ZN3MPI6Status12Set_elementsERKNS_8DatatypeEi # -- Begin function _ZN3MPI6Status12Set_elementsERKNS_8DatatypeEi
	.p2align	4, 0x90
	.type	_ZN3MPI6Status12Set_elementsERKNS_8DatatypeEi,@function
_ZN3MPI6Status12Set_elementsERKNS_8DatatypeEi: # @_ZN3MPI6Status12Set_elementsERKNS_8DatatypeEi
.Lfunc_begin46:
	.loc	6 96 0                  # /usr/lib/x86_64-linux-gnu/openmpi/include/openmpi/ompi/mpi/cxx/status_inln.h:96:0
	.cfi_startproc
# %bb.0:                                # %L.entry
	#DEBUG_VALUE: Set_elements: <- $rdi
	#DEBUG_VALUE: Set_elements: <- $rdi
	#DEBUG_VALUE: Set_elements:datatype <- $rsi
	#DEBUG_VALUE: Set_elements:datatype <- $rsi
	#DEBUG_VALUE: Set_elements:count <- $edx
	#DEBUG_VALUE: Set_elements:count <- $edx
	pushq	%rbp
	.cfi_def_cfa_offset 16
	.cfi_offset %rbp, -16
	movq	%rsp, %rbp
	.cfi_def_cfa_register %rbp
.Ltmp244:
	#DEBUG_VALUE:  <- $rdi
	#DEBUG_VALUE:  <- $rdi
	#DEBUG_VALUE: datatype <- $rsi
	#DEBUG_VALUE: datatype <- $rsi
	#DEBUG_VALUE: count <- $edx
	#DEBUG_VALUE: count <- $edx
	.loc	6 90 1 prologue_end     # /usr/lib/x86_64-linux-gnu/openmpi/include/openmpi/ompi/mpi/cxx/status_inln.h:90:1
	addq	$8, %rdi
.Ltmp245:
	movq	8(%rsi), %rsi
.Ltmp246:
	#DEBUG_VALUE: count <- $edx
	#DEBUG_VALUE: Set_elements:count <- $edx
	popq	%rbp
	.cfi_def_cfa %rsp, 8
	jmp	MPI_Status_set_elements # TAILCALL
.Ltmp247:
.Lfunc_end46:
	.size	_ZN3MPI6Status12Set_elementsERKNS_8DatatypeEi, .Lfunc_end46-_ZN3MPI6Status12Set_elementsERKNS_8DatatypeEi
	.cfi_endproc
                                        # -- End function
	.weak	_ZN3MPI6Status13Set_cancelledEb # -- Begin function _ZN3MPI6Status13Set_cancelledEb
	.p2align	4, 0x90
	.type	_ZN3MPI6Status13Set_cancelledEb,@function
_ZN3MPI6Status13Set_cancelledEb:        # @_ZN3MPI6Status13Set_cancelledEb
.Lfunc_begin47:
	.loc	6 102 0                 # /usr/lib/x86_64-linux-gnu/openmpi/include/openmpi/ompi/mpi/cxx/status_inln.h:102:0
	.cfi_startproc
# %bb.0:                                # %L.entry
	#DEBUG_VALUE: Set_cancelled: <- $rdi
	#DEBUG_VALUE: Set_cancelled: <- $rdi
	#DEBUG_VALUE: Set_cancelled:flag <- $esi
	#DEBUG_VALUE: Set_cancelled:flag <- $esi
	pushq	%rbp
	.cfi_def_cfa_offset 16
	.cfi_offset %rbp, -16
	movq	%rsp, %rbp
	.cfi_def_cfa_register %rbp
.Ltmp248:
	#DEBUG_VALUE:  <- $rdi
	#DEBUG_VALUE:  <- $rdi
	#DEBUG_VALUE: flag <- $esi
	#DEBUG_VALUE: flag <- $esi
	.loc	6 103 1 prologue_end    # /usr/lib/x86_64-linux-gnu/openmpi/include/openmpi/ompi/mpi/cxx/status_inln.h:103:1
	addq	$8, %rdi
.Ltmp249:
	#DEBUG_VALUE: flag <- $esi
	#DEBUG_VALUE: Set_cancelled:flag <- $esi
	popq	%rbp
	.cfi_def_cfa %rsp, 8
	jmp	MPI_Status_set_cancelled # TAILCALL
.Ltmp250:
.Lfunc_end47:
	.size	_ZN3MPI6Status13Set_cancelledEb, .Lfunc_end47-_ZN3MPI6Status13Set_cancelledEb
	.cfi_endproc
                                        # -- End function
	.weak	_ZN3MPI7RequestD1Ev     # -- Begin function _ZN3MPI7RequestD1Ev
	.p2align	4, 0x90
	.type	_ZN3MPI7RequestD1Ev,@function
_ZN3MPI7RequestD1Ev:                    # @_ZN3MPI7RequestD1Ev
.Lfunc_begin48:
	.file	7 "/usr/lib/x86_64-linux-gnu/openmpi/include/openmpi/ompi/mpi/cxx/request.h"
	.loc	7 61 0                  # /usr/lib/x86_64-linux-gnu/openmpi/include/openmpi/ompi/mpi/cxx/request.h:61:0
	.cfi_startproc
# %bb.0:                                # %L.entry
	#DEBUG_VALUE: ~Request: <- $rdi
	#DEBUG_VALUE: ~Request: <- $rdi
	pushq	%rbp
	.cfi_def_cfa_offset 16
	.cfi_offset %rbp, -16
	movq	%rsp, %rbp
	.cfi_def_cfa_register %rbp
.Ltmp251:
	#DEBUG_VALUE:  <- $rdi
	#DEBUG_VALUE:  <- $rdi
	.loc	7 61 1 prologue_end     # /usr/lib/x86_64-linux-gnu/openmpi/include/openmpi/ompi/mpi/cxx/request.h:61:1
	movq	$_ZTVN3MPI7RequestE+16, (%rdi)
	popq	%rbp
	.cfi_def_cfa %rsp, 8
	retq
.Ltmp252:
.Lfunc_end48:
	.size	_ZN3MPI7RequestD1Ev, .Lfunc_end48-_ZN3MPI7RequestD1Ev
	.cfi_endproc
                                        # -- End function
	.weak	_ZN3MPI7RequestD0Ev     # -- Begin function _ZN3MPI7RequestD0Ev
	.p2align	4, 0x90
	.type	_ZN3MPI7RequestD0Ev,@function
_ZN3MPI7RequestD0Ev:                    # @_ZN3MPI7RequestD0Ev
.Lfunc_begin49:
	.loc	1 0 0                   # projects/read_gaussian_population.cpp:0:0
	.cfi_startproc
# %bb.0:                                # %L.entry
	pushq	%rbp
	.cfi_def_cfa_offset 16
	.cfi_offset %rbp, -16
	movq	%rsp, %rbp
	.cfi_def_cfa_register %rbp
.Ltmp253:
	.loc	1 61 1 prologue_end     # projects/read_gaussian_population.cpp:61:1
	movl	$16, %esi
	popq	%rbp
	.cfi_def_cfa %rsp, 8
	jmp	_ZdlPvm                 # TAILCALL
.Ltmp254:
.Lfunc_end49:
	.size	_ZN3MPI7RequestD0Ev, .Lfunc_end49-_ZN3MPI7RequestD0Ev
	.cfi_endproc
                                        # -- End function
	.weak	_ZN3MPI7Request4WaitERNS_6StatusE # -- Begin function _ZN3MPI7Request4WaitERNS_6StatusE
	.p2align	4, 0x90
	.type	_ZN3MPI7Request4WaitERNS_6StatusE,@function
_ZN3MPI7Request4WaitERNS_6StatusE:      # @_ZN3MPI7Request4WaitERNS_6StatusE
.Lfunc_begin50:
	.file	8 "/usr/lib/x86_64-linux-gnu/openmpi/include/openmpi/ompi/mpi/cxx/request_inln.h"
	.loc	8 28 0                  # /usr/lib/x86_64-linux-gnu/openmpi/include/openmpi/ompi/mpi/cxx/request_inln.h:28:0
	.cfi_startproc
# %bb.0:                                # %L.entry
	#DEBUG_VALUE: Wait: <- $rdi
	#DEBUG_VALUE: Wait: <- $rdi
	#DEBUG_VALUE: Wait:status <- $rsi
	#DEBUG_VALUE: Wait:status <- $rsi
	pushq	%rbp
	.cfi_def_cfa_offset 16
	.cfi_offset %rbp, -16
	movq	%rsp, %rbp
	.cfi_def_cfa_register %rbp
.Ltmp255:
	#DEBUG_VALUE:  <- $rdi
	#DEBUG_VALUE:  <- $rdi
	#DEBUG_VALUE: status <- $rsi
	#DEBUG_VALUE: status <- $rsi
	.loc	8 29 1 prologue_end     # /usr/lib/x86_64-linux-gnu/openmpi/include/openmpi/ompi/mpi/cxx/request_inln.h:29:1
	addq	$8, %rdi
.Ltmp256:
	addq	$8, %rsi
.Ltmp257:
	popq	%rbp
	.cfi_def_cfa %rsp, 8
	jmp	MPI_Wait                # TAILCALL
.Ltmp258:
.Lfunc_end50:
	.size	_ZN3MPI7Request4WaitERNS_6StatusE, .Lfunc_end50-_ZN3MPI7Request4WaitERNS_6StatusE
	.cfi_endproc
                                        # -- End function
	.weak	_ZN3MPI7Request4WaitEv  # -- Begin function _ZN3MPI7Request4WaitEv
	.p2align	4, 0x90
	.type	_ZN3MPI7Request4WaitEv,@function
_ZN3MPI7Request4WaitEv:                 # @_ZN3MPI7Request4WaitEv
.Lfunc_begin51:
	.loc	8 34 0                  # /usr/lib/x86_64-linux-gnu/openmpi/include/openmpi/ompi/mpi/cxx/request_inln.h:34:0
	.cfi_startproc
# %bb.0:                                # %L.entry
	#DEBUG_VALUE: Wait: <- $rdi
	#DEBUG_VALUE: Wait: <- $rdi
	pushq	%rbp
	.cfi_def_cfa_offset 16
	.cfi_offset %rbp, -16
	movq	%rsp, %rbp
	.cfi_def_cfa_register %rbp
.Ltmp259:
	#DEBUG_VALUE:  <- $rdi
	#DEBUG_VALUE:  <- $rdi
	.loc	8 35 1 prologue_end     # /usr/lib/x86_64-linux-gnu/openmpi/include/openmpi/ompi/mpi/cxx/request_inln.h:35:1
	addq	$8, %rdi
.Ltmp260:
	xorl	%esi, %esi
	popq	%rbp
	.cfi_def_cfa %rsp, 8
	jmp	MPI_Wait                # TAILCALL
.Ltmp261:
.Lfunc_end51:
	.size	_ZN3MPI7Request4WaitEv, .Lfunc_end51-_ZN3MPI7Request4WaitEv
	.cfi_endproc
                                        # -- End function
	.weak	_ZN3MPI7Request4TestERNS_6StatusE # -- Begin function _ZN3MPI7Request4TestERNS_6StatusE
	.p2align	4, 0x90
	.type	_ZN3MPI7Request4TestERNS_6StatusE,@function
_ZN3MPI7Request4TestERNS_6StatusE:      # @_ZN3MPI7Request4TestERNS_6StatusE
.Lfunc_begin52:
	.loc	8 46 0                  # /usr/lib/x86_64-linux-gnu/openmpi/include/openmpi/ompi/mpi/cxx/request_inln.h:46:0
	.cfi_startproc
# %bb.0:                                # %L.entry
	#DEBUG_VALUE: Test: <- $rdi
	#DEBUG_VALUE: Test: <- $rdi
	#DEBUG_VALUE: Test:status <- $rsi
	#DEBUG_VALUE: Test:status <- $rsi
	pushq	%rbp
	.cfi_def_cfa_offset 16
	.cfi_offset %rbp, -16
	movq	%rsp, %rbp
	.cfi_def_cfa_register %rbp
	subq	$16, %rsp
.Ltmp262:
	#DEBUG_VALUE:  <- $rdi
	#DEBUG_VALUE: status <- $rsi
	.loc	8 48 1 prologue_end     # /usr/lib/x86_64-linux-gnu/openmpi/include/openmpi/ompi/mpi/cxx/request_inln.h:48:1
	addq	$8, %rdi
.Ltmp263:
	leaq	8(%rsi), %rdx
.Ltmp264:
	#DEBUG_VALUE: t <- [DW_OP_constu 4, DW_OP_minus, DW_OP_deref] $rbp
	.loc	8 0 1 is_stmt 0         # /usr/lib/x86_64-linux-gnu/openmpi/include/openmpi/ompi/mpi/cxx/request_inln.h:0:1
	leaq	-4(%rbp), %rsi
.Ltmp265:
	.loc	8 48 1                  # /usr/lib/x86_64-linux-gnu/openmpi/include/openmpi/ompi/mpi/cxx/request_inln.h:48:1
	callq	MPI_Test
.Ltmp266:
	#DEBUG_VALUE: t <- undef
	.loc	8 49 1 is_stmt 1        # /usr/lib/x86_64-linux-gnu/openmpi/include/openmpi/ompi/mpi/cxx/request_inln.h:49:1
	cmpl	$0, -4(%rbp)
	setne	%al
	addq	$16, %rsp
	popq	%rbp
	.cfi_def_cfa %rsp, 8
	retq
.Ltmp267:
.Lfunc_end52:
	.size	_ZN3MPI7Request4TestERNS_6StatusE, .Lfunc_end52-_ZN3MPI7Request4TestERNS_6StatusE
	.cfi_endproc
                                        # -- End function
	.weak	_ZN3MPI7Request4TestEv  # -- Begin function _ZN3MPI7Request4TestEv
	.p2align	4, 0x90
	.type	_ZN3MPI7Request4TestEv,@function
_ZN3MPI7Request4TestEv:                 # @_ZN3MPI7Request4TestEv
.Lfunc_begin53:
	.loc	8 54 0                  # /usr/lib/x86_64-linux-gnu/openmpi/include/openmpi/ompi/mpi/cxx/request_inln.h:54:0
	.cfi_startproc
# %bb.0:                                # %L.entry
	#DEBUG_VALUE: Test: <- $rdi
	#DEBUG_VALUE: Test: <- $rdi
	pushq	%rbp
	.cfi_def_cfa_offset 16
	.cfi_offset %rbp, -16
	movq	%rsp, %rbp
	.cfi_def_cfa_register %rbp
	subq	$16, %rsp
.Ltmp268:
	#DEBUG_VALUE:  <- $rdi
	.loc	8 56 1 prologue_end     # /usr/lib/x86_64-linux-gnu/openmpi/include/openmpi/ompi/mpi/cxx/request_inln.h:56:1
	addq	$8, %rdi
.Ltmp269:
	#DEBUG_VALUE: t <- [DW_OP_constu 4, DW_OP_minus, DW_OP_deref] $rbp
	.loc	8 0 1 is_stmt 0         # /usr/lib/x86_64-linux-gnu/openmpi/include/openmpi/ompi/mpi/cxx/request_inln.h:0:1
	leaq	-4(%rbp), %rsi
	.loc	8 56 1                  # /usr/lib/x86_64-linux-gnu/openmpi/include/openmpi/ompi/mpi/cxx/request_inln.h:56:1
	xorl	%edx, %edx
	callq	MPI_Test
.Ltmp270:
	#DEBUG_VALUE: t <- undef
	.loc	8 57 1 is_stmt 1        # /usr/lib/x86_64-linux-gnu/openmpi/include/openmpi/ompi/mpi/cxx/request_inln.h:57:1
	cmpl	$0, -4(%rbp)
	setne	%al
	addq	$16, %rsp
	popq	%rbp
	.cfi_def_cfa %rsp, 8
	retq
.Ltmp271:
.Lfunc_end53:
	.size	_ZN3MPI7Request4TestEv, .Lfunc_end53-_ZN3MPI7Request4TestEv
	.cfi_endproc
                                        # -- End function
	.weak	_ZN3MPI7Request4FreeEv  # -- Begin function _ZN3MPI7Request4FreeEv
	.p2align	4, 0x90
	.type	_ZN3MPI7Request4FreeEv,@function
_ZN3MPI7Request4FreeEv:                 # @_ZN3MPI7Request4FreeEv
.Lfunc_begin54:
	.loc	8 40 0                  # /usr/lib/x86_64-linux-gnu/openmpi/include/openmpi/ompi/mpi/cxx/request_inln.h:40:0
	.cfi_startproc
# %bb.0:                                # %L.entry
	#DEBUG_VALUE: Free: <- $rdi
	#DEBUG_VALUE: Free: <- $rdi
	pushq	%rbp
	.cfi_def_cfa_offset 16
	.cfi_offset %rbp, -16
	movq	%rsp, %rbp
	.cfi_def_cfa_register %rbp
.Ltmp272:
	#DEBUG_VALUE:  <- $rdi
	#DEBUG_VALUE:  <- $rdi
	.loc	8 41 1 prologue_end     # /usr/lib/x86_64-linux-gnu/openmpi/include/openmpi/ompi/mpi/cxx/request_inln.h:41:1
	addq	$8, %rdi
.Ltmp273:
	popq	%rbp
	.cfi_def_cfa %rsp, 8
	jmp	MPI_Request_free        # TAILCALL
.Ltmp274:
.Lfunc_end54:
	.size	_ZN3MPI7Request4FreeEv, .Lfunc_end54-_ZN3MPI7Request4FreeEv
	.cfi_endproc
                                        # -- End function
	.weak	_ZNK3MPI7Request6CancelEv # -- Begin function _ZNK3MPI7Request6CancelEv
	.p2align	4, 0x90
	.type	_ZNK3MPI7Request6CancelEv,@function
_ZNK3MPI7Request6CancelEv:              # @_ZNK3MPI7Request6CancelEv
.Lfunc_begin55:
	.loc	8 289 0                 # /usr/lib/x86_64-linux-gnu/openmpi/include/openmpi/ompi/mpi/cxx/request_inln.h:289:0
	.cfi_startproc
# %bb.0:                                # %L.entry
	#DEBUG_VALUE: Cancel: <- $rdi
	#DEBUG_VALUE: Cancel: <- $rdi
	pushq	%rbp
	.cfi_def_cfa_offset 16
	.cfi_offset %rbp, -16
	movq	%rsp, %rbp
	.cfi_def_cfa_register %rbp
.Ltmp275:
	#DEBUG_VALUE:  <- $rdi
	#DEBUG_VALUE:  <- $rdi
	.loc	8 290 1 prologue_end    # /usr/lib/x86_64-linux-gnu/openmpi/include/openmpi/ompi/mpi/cxx/request_inln.h:290:1
	addq	$8, %rdi
.Ltmp276:
	popq	%rbp
	.cfi_def_cfa %rsp, 8
	jmp	MPI_Cancel              # TAILCALL
.Ltmp277:
.Lfunc_end55:
	.size	_ZNK3MPI7Request6CancelEv, .Lfunc_end55-_ZNK3MPI7Request6CancelEv
	.cfi_endproc
                                        # -- End function
	.weak	_ZNK3MPI7Request10Get_statusERNS_6StatusE # -- Begin function _ZNK3MPI7Request10Get_statusERNS_6StatusE
	.p2align	4, 0x90
	.type	_ZNK3MPI7Request10Get_statusERNS_6StatusE,@function
_ZNK3MPI7Request10Get_statusERNS_6StatusE: # @_ZNK3MPI7Request10Get_statusERNS_6StatusE
.Lfunc_begin56:
	.loc	8 316 0                 # /usr/lib/x86_64-linux-gnu/openmpi/include/openmpi/ompi/mpi/cxx/request_inln.h:316:0
	.cfi_startproc
# %bb.0:                                # %L.entry
	#DEBUG_VALUE: Get_status: <- $rdi
	#DEBUG_VALUE: Get_status:status <- $rsi
	pushq	%rbp
	.cfi_def_cfa_offset 16
	.cfi_offset %rbp, -16
	movq	%rsp, %rbp
	.cfi_def_cfa_register %rbp
	pushq	%rbx
	subq	$40, %rsp
	.cfi_offset %rbx, -24
	movq	%rsi, %rbx
.Ltmp278:
	#DEBUG_VALUE: flag <- 0
	#DEBUG_VALUE: status <- undef
	#DEBUG_VALUE:  <- $rdi
	#DEBUG_VALUE: Get_status:status <- $rbx
	#DEBUG_VALUE: Get_status: <- $rdi
	.loc	8 317 1 prologue_end    # /usr/lib/x86_64-linux-gnu/openmpi/include/openmpi/ompi/mpi/cxx/request_inln.h:317:1
	movl	$0, -12(%rbp)
	.loc	8 323 1                 # /usr/lib/x86_64-linux-gnu/openmpi/include/openmpi/ompi/mpi/cxx/request_inln.h:323:1
	movq	8(%rdi), %rdi
.Ltmp279:
	#DEBUG_VALUE: flag <- [DW_OP_constu 12, DW_OP_minus, DW_OP_deref] $rbp
	.loc	8 0 1 is_stmt 0         # /usr/lib/x86_64-linux-gnu/openmpi/include/openmpi/ompi/mpi/cxx/request_inln.h:0:1
	leaq	-12(%rbp), %rsi
	leaq	-48(%rbp), %rdx
	.loc	8 323 1                 # /usr/lib/x86_64-linux-gnu/openmpi/include/openmpi/ompi/mpi/cxx/request_inln.h:323:1
	callq	MPI_Request_get_status
	.loc	8 324 1 is_stmt 1       # /usr/lib/x86_64-linux-gnu/openmpi/include/openmpi/ompi/mpi/cxx/request_inln.h:324:1
	movl	-12(%rbp), %eax
.Ltmp280:
	#DEBUG_VALUE: flag <- $eax
	testl	%eax, %eax
	je	.LBB56_2
.Ltmp281:
# %bb.1:                                # %L.B1059
	#DEBUG_VALUE: flag <- $eax
	#DEBUG_VALUE: Get_status:status <- $rbx
	.loc	8 325 1                 # /usr/lib/x86_64-linux-gnu/openmpi/include/openmpi/ompi/mpi/cxx/request_inln.h:325:1
	vmovaps	-48(%rbp), %xmm0
	vmovups	%xmm0, 8(%rbx)
	movq	-32(%rbp), %rcx
	movq	%rcx, 24(%rbx)
.Ltmp282:
.LBB56_2:                               # %L.B0018
	#DEBUG_VALUE: flag <- $eax
	#DEBUG_VALUE: Get_status:status <- $rbx
	#DEBUG_VALUE: flag <- $eax
	.loc	8 327 1                 # /usr/lib/x86_64-linux-gnu/openmpi/include/openmpi/ompi/mpi/cxx/request_inln.h:327:1
	testl	%eax, %eax
	setne	%al
.Ltmp283:
	addq	$40, %rsp
	popq	%rbx
.Ltmp284:
	popq	%rbp
	.cfi_def_cfa %rsp, 8
	retq
.Ltmp285:
.Lfunc_end56:
	.size	_ZNK3MPI7Request10Get_statusERNS_6StatusE, .Lfunc_end56-_ZNK3MPI7Request10Get_statusERNS_6StatusE
	.cfi_endproc
                                        # -- End function
	.weak	_ZNK3MPI7Request10Get_statusEv # -- Begin function _ZNK3MPI7Request10Get_statusEv
	.p2align	4, 0x90
	.type	_ZNK3MPI7Request10Get_statusEv,@function
_ZNK3MPI7Request10Get_statusEv:         # @_ZNK3MPI7Request10Get_statusEv
.Lfunc_begin57:
	.loc	8 331 0                 # /usr/lib/x86_64-linux-gnu/openmpi/include/openmpi/ompi/mpi/cxx/request_inln.h:331:0
	.cfi_startproc
# %bb.0:                                # %L.entry
	#DEBUG_VALUE: Get_status: <- $rdi
	#DEBUG_VALUE: Get_status: <- $rdi
	pushq	%rbp
	.cfi_def_cfa_offset 16
	.cfi_offset %rbp, -16
	movq	%rsp, %rbp
	.cfi_def_cfa_register %rbp
	subq	$16, %rsp
.Ltmp286:
	#DEBUG_VALUE:  <- $rdi
	.loc	8 337 1 prologue_end    # /usr/lib/x86_64-linux-gnu/openmpi/include/openmpi/ompi/mpi/cxx/request_inln.h:337:1
	movq	8(%rdi), %rdi
.Ltmp287:
	#DEBUG_VALUE: flag <- [DW_OP_constu 4, DW_OP_minus, DW_OP_deref] $rbp
	.loc	8 0 1 is_stmt 0         # /usr/lib/x86_64-linux-gnu/openmpi/include/openmpi/ompi/mpi/cxx/request_inln.h:0:1
	leaq	-4(%rbp), %rsi
	.loc	8 337 1                 # /usr/lib/x86_64-linux-gnu/openmpi/include/openmpi/ompi/mpi/cxx/request_inln.h:337:1
	xorl	%edx, %edx
	callq	MPI_Request_get_status
.Ltmp288:
	#DEBUG_VALUE: flag <- undef
	.loc	8 338 1 is_stmt 1       # /usr/lib/x86_64-linux-gnu/openmpi/include/openmpi/ompi/mpi/cxx/request_inln.h:338:1
	cmpl	$0, -4(%rbp)
	setne	%al
	addq	$16, %rsp
	popq	%rbp
	.cfi_def_cfa %rsp, 8
	retq
.Ltmp289:
.Lfunc_end57:
	.size	_ZNK3MPI7Request10Get_statusEv, .Lfunc_end57-_ZNK3MPI7Request10Get_statusEv
	.cfi_endproc
                                        # -- End function
	.weak	_ZN3MPI8PrequestD1Ev    # -- Begin function _ZN3MPI8PrequestD1Ev
	.p2align	4, 0x90
	.type	_ZN3MPI8PrequestD1Ev,@function
_ZN3MPI8PrequestD1Ev:                   # @_ZN3MPI8PrequestD1Ev
.Lfunc_begin58:
	.loc	7 177 0                 # /usr/lib/x86_64-linux-gnu/openmpi/include/openmpi/ompi/mpi/cxx/request.h:177:0
	.cfi_startproc
# %bb.0:                                # %L.entry
	#DEBUG_VALUE: ~Prequest: <- $rdi
	#DEBUG_VALUE: ~Prequest: <- $rdi
	pushq	%rbp
	.cfi_def_cfa_offset 16
	.cfi_offset %rbp, -16
	movq	%rsp, %rbp
	.cfi_def_cfa_register %rbp
.Ltmp290:
	#DEBUG_VALUE:  <- $rdi
	#DEBUG_VALUE:  <- $rdi
	.loc	7 177 1 prologue_end    # /usr/lib/x86_64-linux-gnu/openmpi/include/openmpi/ompi/mpi/cxx/request.h:177:1
	movq	$_ZTVN3MPI7RequestE+16, (%rdi)
	popq	%rbp
	.cfi_def_cfa %rsp, 8
	retq
.Ltmp291:
.Lfunc_end58:
	.size	_ZN3MPI8PrequestD1Ev, .Lfunc_end58-_ZN3MPI8PrequestD1Ev
	.cfi_endproc
                                        # -- End function
	.weak	_ZN3MPI8PrequestD0Ev    # -- Begin function _ZN3MPI8PrequestD0Ev
	.p2align	4, 0x90
	.type	_ZN3MPI8PrequestD0Ev,@function
_ZN3MPI8PrequestD0Ev:                   # @_ZN3MPI8PrequestD0Ev
.Lfunc_begin59:
	.loc	1 0 0                   # projects/read_gaussian_population.cpp:0:0
	.cfi_startproc
# %bb.0:                                # %L.entry
	pushq	%rbp
	.cfi_def_cfa_offset 16
	.cfi_offset %rbp, -16
	movq	%rsp, %rbp
	.cfi_def_cfa_register %rbp
.Ltmp292:
	.loc	1 177 1 prologue_end    # projects/read_gaussian_population.cpp:177:1
	movl	$16, %esi
	popq	%rbp
	.cfi_def_cfa %rsp, 8
	jmp	_ZdlPvm                 # TAILCALL
.Ltmp293:
.Lfunc_end59:
	.size	_ZN3MPI8PrequestD0Ev, .Lfunc_end59-_ZN3MPI8PrequestD0Ev
	.cfi_endproc
                                        # -- End function
	.weak	_ZN3MPI8Prequest5StartEv # -- Begin function _ZN3MPI8Prequest5StartEv
	.p2align	4, 0x90
	.type	_ZN3MPI8Prequest5StartEv,@function
_ZN3MPI8Prequest5StartEv:               # @_ZN3MPI8Prequest5StartEv
.Lfunc_begin60:
	.loc	8 295 0                 # /usr/lib/x86_64-linux-gnu/openmpi/include/openmpi/ompi/mpi/cxx/request_inln.h:295:0
	.cfi_startproc
# %bb.0:                                # %L.entry
	#DEBUG_VALUE: Start: <- $rdi
	#DEBUG_VALUE: Start: <- $rdi
	pushq	%rbp
	.cfi_def_cfa_offset 16
	.cfi_offset %rbp, -16
	movq	%rsp, %rbp
	.cfi_def_cfa_register %rbp
.Ltmp294:
	#DEBUG_VALUE:  <- $rdi
	#DEBUG_VALUE:  <- $rdi
	.loc	8 296 1 prologue_end    # /usr/lib/x86_64-linux-gnu/openmpi/include/openmpi/ompi/mpi/cxx/request_inln.h:296:1
	addq	$8, %rdi
.Ltmp295:
	popq	%rbp
	.cfi_def_cfa %rsp, 8
	jmp	MPI_Start               # TAILCALL
.Ltmp296:
.Lfunc_end60:
	.size	_ZN3MPI8Prequest5StartEv, .Lfunc_end60-_ZN3MPI8Prequest5StartEv
	.cfi_endproc
                                        # -- End function
	.weak	_ZN3MPI8GrequestD1Ev    # -- Begin function _ZN3MPI8GrequestD1Ev
	.p2align	4, 0x90
	.type	_ZN3MPI8GrequestD1Ev,@function
_ZN3MPI8GrequestD1Ev:                   # @_ZN3MPI8GrequestD1Ev
.Lfunc_begin61:
	.loc	7 209 0                 # /usr/lib/x86_64-linux-gnu/openmpi/include/openmpi/ompi/mpi/cxx/request.h:209:0
	.cfi_startproc
# %bb.0:                                # %L.entry
	#DEBUG_VALUE: ~Grequest: <- $rdi
	#DEBUG_VALUE: ~Grequest: <- $rdi
	pushq	%rbp
	.cfi_def_cfa_offset 16
	.cfi_offset %rbp, -16
	movq	%rsp, %rbp
	.cfi_def_cfa_register %rbp
.Ltmp297:
	#DEBUG_VALUE:  <- $rdi
	#DEBUG_VALUE:  <- $rdi
	.loc	7 209 1 prologue_end    # /usr/lib/x86_64-linux-gnu/openmpi/include/openmpi/ompi/mpi/cxx/request.h:209:1
	movq	$_ZTVN3MPI7RequestE+16, (%rdi)
	popq	%rbp
	.cfi_def_cfa %rsp, 8
	retq
.Ltmp298:
.Lfunc_end61:
	.size	_ZN3MPI8GrequestD1Ev, .Lfunc_end61-_ZN3MPI8GrequestD1Ev
	.cfi_endproc
                                        # -- End function
	.weak	_ZN3MPI8GrequestD0Ev    # -- Begin function _ZN3MPI8GrequestD0Ev
	.p2align	4, 0x90
	.type	_ZN3MPI8GrequestD0Ev,@function
_ZN3MPI8GrequestD0Ev:                   # @_ZN3MPI8GrequestD0Ev
.Lfunc_begin62:
	.loc	1 0 0                   # projects/read_gaussian_population.cpp:0:0
	.cfi_startproc
# %bb.0:                                # %L.entry
	pushq	%rbp
	.cfi_def_cfa_offset 16
	.cfi_offset %rbp, -16
	movq	%rsp, %rbp
	.cfi_def_cfa_register %rbp
.Ltmp299:
	.loc	1 209 1 prologue_end    # projects/read_gaussian_population.cpp:209:1
	movl	$16, %esi
	popq	%rbp
	.cfi_def_cfa %rsp, 8
	jmp	_ZdlPvm                 # TAILCALL
.Ltmp300:
.Lfunc_end62:
	.size	_ZN3MPI8GrequestD0Ev, .Lfunc_end62-_ZN3MPI8GrequestD0Ev
	.cfi_endproc
                                        # -- End function
	.weak	_ZN3MPI8Grequest8CompleteEv # -- Begin function _ZN3MPI8Grequest8CompleteEv
	.p2align	4, 0x90
	.type	_ZN3MPI8Grequest8CompleteEv,@function
_ZN3MPI8Grequest8CompleteEv:            # @_ZN3MPI8Grequest8CompleteEv
.Lfunc_begin63:
	.loc	8 363 0                 # /usr/lib/x86_64-linux-gnu/openmpi/include/openmpi/ompi/mpi/cxx/request_inln.h:363:0
	.cfi_startproc
# %bb.0:                                # %L.entry
	#DEBUG_VALUE: Complete: <- $rdi
	#DEBUG_VALUE: Complete: <- $rdi
	pushq	%rbp
	.cfi_def_cfa_offset 16
	.cfi_offset %rbp, -16
	movq	%rsp, %rbp
	.cfi_def_cfa_register %rbp
.Ltmp301:
	#DEBUG_VALUE:  <- $rdi
	#DEBUG_VALUE:  <- $rdi
	.loc	8 364 1 prologue_end    # /usr/lib/x86_64-linux-gnu/openmpi/include/openmpi/ompi/mpi/cxx/request_inln.h:364:1
	movq	8(%rdi), %rdi
.Ltmp302:
	popq	%rbp
	.cfi_def_cfa %rsp, 8
	jmp	MPI_Grequest_complete   # TAILCALL
.Ltmp303:
.Lfunc_end63:
	.size	_ZN3MPI8Grequest8CompleteEv, .Lfunc_end63-_ZN3MPI8Grequest8CompleteEv
	.cfi_endproc
                                        # -- End function
	.weak	_ZN3MPI5GroupD1Ev       # -- Begin function _ZN3MPI5GroupD1Ev
	.p2align	4, 0x90
	.type	_ZN3MPI5GroupD1Ev,@function
_ZN3MPI5GroupD1Ev:                      # @_ZN3MPI5GroupD1Ev
.Lfunc_begin64:
	.file	9 "/usr/lib/x86_64-linux-gnu/openmpi/include/openmpi/ompi/mpi/cxx/group.h"
	.loc	9 67 0                  # /usr/lib/x86_64-linux-gnu/openmpi/include/openmpi/ompi/mpi/cxx/group.h:67:0
	.cfi_startproc
# %bb.0:                                # %L.entry
	#DEBUG_VALUE: ~Group: <- $rdi
	#DEBUG_VALUE: ~Group: <- $rdi
	pushq	%rbp
	.cfi_def_cfa_offset 16
	.cfi_offset %rbp, -16
	movq	%rsp, %rbp
	.cfi_def_cfa_register %rbp
.Ltmp304:
	#DEBUG_VALUE:  <- $rdi
	#DEBUG_VALUE:  <- $rdi
	.loc	9 67 1 prologue_end     # /usr/lib/x86_64-linux-gnu/openmpi/include/openmpi/ompi/mpi/cxx/group.h:67:1
	movq	$_ZTVN3MPI5GroupE+16, (%rdi)
	popq	%rbp
	.cfi_def_cfa %rsp, 8
	retq
.Ltmp305:
.Lfunc_end64:
	.size	_ZN3MPI5GroupD1Ev, .Lfunc_end64-_ZN3MPI5GroupD1Ev
	.cfi_endproc
                                        # -- End function
	.weak	_ZN3MPI5GroupD0Ev       # -- Begin function _ZN3MPI5GroupD0Ev
	.p2align	4, 0x90
	.type	_ZN3MPI5GroupD0Ev,@function
_ZN3MPI5GroupD0Ev:                      # @_ZN3MPI5GroupD0Ev
.Lfunc_begin65:
	.loc	1 0 0                   # projects/read_gaussian_population.cpp:0:0
	.cfi_startproc
# %bb.0:                                # %L.entry
	pushq	%rbp
	.cfi_def_cfa_offset 16
	.cfi_offset %rbp, -16
	movq	%rsp, %rbp
	.cfi_def_cfa_register %rbp
.Ltmp306:
	.loc	1 67 1 prologue_end     # projects/read_gaussian_population.cpp:67:1
	movl	$16, %esi
	popq	%rbp
	.cfi_def_cfa %rsp, 8
	jmp	_ZdlPvm                 # TAILCALL
.Ltmp307:
.Lfunc_end65:
	.size	_ZN3MPI5GroupD0Ev, .Lfunc_end65-_ZN3MPI5GroupD0Ev
	.cfi_endproc
                                        # -- End function
	.weak	_ZNK3MPI5Group8Get_sizeEv # -- Begin function _ZNK3MPI5Group8Get_sizeEv
	.p2align	4, 0x90
	.type	_ZNK3MPI5Group8Get_sizeEv,@function
_ZNK3MPI5Group8Get_sizeEv:              # @_ZNK3MPI5Group8Get_sizeEv
.Lfunc_begin66:
	.file	10 "/usr/lib/x86_64-linux-gnu/openmpi/include/openmpi/ompi/mpi/cxx/group_inln.h"
	.loc	10 27 0                 # /usr/lib/x86_64-linux-gnu/openmpi/include/openmpi/ompi/mpi/cxx/group_inln.h:27:0
	.cfi_startproc
# %bb.0:                                # %L.entry
	#DEBUG_VALUE: Get_size: <- $rdi
	#DEBUG_VALUE: Get_size: <- $rdi
	pushq	%rbp
	.cfi_def_cfa_offset 16
	.cfi_offset %rbp, -16
	movq	%rsp, %rbp
	.cfi_def_cfa_register %rbp
	subq	$16, %rsp
.Ltmp308:
	#DEBUG_VALUE:  <- $rdi
	.loc	10 29 1 prologue_end    # /usr/lib/x86_64-linux-gnu/openmpi/include/openmpi/ompi/mpi/cxx/group_inln.h:29:1
	movq	8(%rdi), %rdi
.Ltmp309:
	#DEBUG_VALUE: size <- [DW_OP_constu 4, DW_OP_minus, DW_OP_deref] $rbp
	.loc	10 0 1 is_stmt 0        # /usr/lib/x86_64-linux-gnu/openmpi/include/openmpi/ompi/mpi/cxx/group_inln.h:0:1
	leaq	-4(%rbp), %rsi
	.loc	10 29 1                 # /usr/lib/x86_64-linux-gnu/openmpi/include/openmpi/ompi/mpi/cxx/group_inln.h:29:1
	callq	MPI_Group_size
	.loc	10 30 1 is_stmt 1       # /usr/lib/x86_64-linux-gnu/openmpi/include/openmpi/ompi/mpi/cxx/group_inln.h:30:1
	movl	-4(%rbp), %eax
.Ltmp310:
	#DEBUG_VALUE: size <- $eax
	addq	$16, %rsp
	popq	%rbp
	.cfi_def_cfa %rsp, 8
	retq
.Ltmp311:
.Lfunc_end66:
	.size	_ZNK3MPI5Group8Get_sizeEv, .Lfunc_end66-_ZNK3MPI5Group8Get_sizeEv
	.cfi_endproc
                                        # -- End function
	.weak	_ZNK3MPI5Group8Get_rankEv # -- Begin function _ZNK3MPI5Group8Get_rankEv
	.p2align	4, 0x90
	.type	_ZNK3MPI5Group8Get_rankEv,@function
_ZNK3MPI5Group8Get_rankEv:              # @_ZNK3MPI5Group8Get_rankEv
.Lfunc_begin67:
	.loc	10 35 0                 # /usr/lib/x86_64-linux-gnu/openmpi/include/openmpi/ompi/mpi/cxx/group_inln.h:35:0
	.cfi_startproc
# %bb.0:                                # %L.entry
	#DEBUG_VALUE: Get_rank: <- $rdi
	#DEBUG_VALUE: Get_rank: <- $rdi
	pushq	%rbp
	.cfi_def_cfa_offset 16
	.cfi_offset %rbp, -16
	movq	%rsp, %rbp
	.cfi_def_cfa_register %rbp
	subq	$16, %rsp
.Ltmp312:
	#DEBUG_VALUE:  <- $rdi
	.loc	10 37 1 prologue_end    # /usr/lib/x86_64-linux-gnu/openmpi/include/openmpi/ompi/mpi/cxx/group_inln.h:37:1
	movq	8(%rdi), %rdi
.Ltmp313:
	#DEBUG_VALUE: myrank <- [DW_OP_constu 4, DW_OP_minus, DW_OP_deref] $rbp
	.loc	10 0 1 is_stmt 0        # /usr/lib/x86_64-linux-gnu/openmpi/include/openmpi/ompi/mpi/cxx/group_inln.h:0:1
	leaq	-4(%rbp), %rsi
	.loc	10 37 1                 # /usr/lib/x86_64-linux-gnu/openmpi/include/openmpi/ompi/mpi/cxx/group_inln.h:37:1
	callq	MPI_Group_rank
	.loc	10 38 1 is_stmt 1       # /usr/lib/x86_64-linux-gnu/openmpi/include/openmpi/ompi/mpi/cxx/group_inln.h:38:1
	movl	-4(%rbp), %eax
.Ltmp314:
	#DEBUG_VALUE: myrank <- $eax
	addq	$16, %rsp
	popq	%rbp
	.cfi_def_cfa %rsp, 8
	retq
.Ltmp315:
.Lfunc_end67:
	.size	_ZNK3MPI5Group8Get_rankEv, .Lfunc_end67-_ZNK3MPI5Group8Get_rankEv
	.cfi_endproc
                                        # -- End function
	.weak	_ZNK3MPI5Group4InclEiPKi # -- Begin function _ZNK3MPI5Group4InclEiPKi
	.p2align	4, 0x90
	.type	_ZNK3MPI5Group4InclEiPKi,@function
_ZNK3MPI5Group4InclEiPKi:               # @_ZNK3MPI5Group4InclEiPKi
.Lfunc_begin68:
	.loc	10 83 0                 # /usr/lib/x86_64-linux-gnu/openmpi/include/openmpi/ompi/mpi/cxx/group_inln.h:83:0
	.cfi_startproc
# %bb.0:                                # %L.entry
	#DEBUG_VALUE: Incl: <- $rsi
	#DEBUG_VALUE: Incl:n <- $edx
	#DEBUG_VALUE: Incl:ranks <- $rcx
	pushq	%rbp
	.cfi_def_cfa_offset 16
	.cfi_offset %rbp, -16
	movq	%rsp, %rbp
	.cfi_def_cfa_register %rbp
	pushq	%rbx
	pushq	%rax
	.cfi_offset %rbx, -24
	movq	%rdi, %rbx
.Ltmp316:
	#DEBUG_VALUE:  <- $rsi
	#DEBUG_VALUE: ranks <- $rcx
	#DEBUG_VALUE: n <- $edx
	#DEBUG_VALUE: Incl:ranks <- $rcx
	#DEBUG_VALUE: Incl:n <- $edx
	#DEBUG_VALUE: Incl: <- $rsi
	.loc	10 85 1 prologue_end    # /usr/lib/x86_64-linux-gnu/openmpi/include/openmpi/ompi/mpi/cxx/group_inln.h:85:1
	movq	8(%rsi), %rdi
.Ltmp317:
	#DEBUG_VALUE: newgroup <- [DW_OP_constu 16, DW_OP_minus, DW_OP_deref] $rbp
	.loc	10 0 1 is_stmt 0        # /usr/lib/x86_64-linux-gnu/openmpi/include/openmpi/ompi/mpi/cxx/group_inln.h:0:1
	leaq	-16(%rbp), %rax
	.loc	10 85 1                 # /usr/lib/x86_64-linux-gnu/openmpi/include/openmpi/ompi/mpi/cxx/group_inln.h:85:1
	movl	%edx, %esi
.Ltmp318:
	#DEBUG_VALUE: Incl:n <- $esi
	movq	%rcx, %rdx
.Ltmp319:
	#DEBUG_VALUE: Incl:ranks <- $rdx
	movq	%rax, %rcx
.Ltmp320:
	callq	MPI_Group_incl
.Ltmp321:
	.loc	10 86 1 is_stmt 1       # /usr/lib/x86_64-linux-gnu/openmpi/include/openmpi/ompi/mpi/cxx/group_inln.h:86:1
	movq	-16(%rbp), %rax
.Ltmp322:
	#DEBUG_VALUE: newgroup <- undef
	movq	$_ZTVN3MPI5GroupE+16, (%rbx)
	.loc	10 62 1                 # /usr/lib/x86_64-linux-gnu/openmpi/include/openmpi/ompi/mpi/cxx/group_inln.h:62:1
	movq	%rax, 8(%rbx)
	.loc	10 87 1                 # /usr/lib/x86_64-linux-gnu/openmpi/include/openmpi/ompi/mpi/cxx/group_inln.h:87:1
	movq	%rbx, %rax
	addq	$8, %rsp
	popq	%rbx
	popq	%rbp
	.cfi_def_cfa %rsp, 8
	retq
.Ltmp323:
.Lfunc_end68:
	.size	_ZNK3MPI5Group4InclEiPKi, .Lfunc_end68-_ZNK3MPI5Group4InclEiPKi
	.cfi_endproc
                                        # -- End function
	.weak	_ZNK3MPI5Group4ExclEiPKi # -- Begin function _ZNK3MPI5Group4ExclEiPKi
	.p2align	4, 0x90
	.type	_ZNK3MPI5Group4ExclEiPKi,@function
_ZNK3MPI5Group4ExclEiPKi:               # @_ZNK3MPI5Group4ExclEiPKi
.Lfunc_begin69:
	.loc	10 91 0                 # /usr/lib/x86_64-linux-gnu/openmpi/include/openmpi/ompi/mpi/cxx/group_inln.h:91:0
	.cfi_startproc
# %bb.0:                                # %L.entry
	#DEBUG_VALUE: Excl: <- $rsi
	#DEBUG_VALUE: Excl:n <- $edx
	#DEBUG_VALUE: Excl:ranks <- $rcx
	pushq	%rbp
	.cfi_def_cfa_offset 16
	.cfi_offset %rbp, -16
	movq	%rsp, %rbp
	.cfi_def_cfa_register %rbp
	pushq	%rbx
	pushq	%rax
	.cfi_offset %rbx, -24
	movq	%rdi, %rbx
.Ltmp324:
	#DEBUG_VALUE:  <- $rsi
	#DEBUG_VALUE: ranks <- $rcx
	#DEBUG_VALUE: n <- $edx
	#DEBUG_VALUE: Excl:ranks <- $rcx
	#DEBUG_VALUE: Excl:n <- $edx
	#DEBUG_VALUE: Excl: <- $rsi
	.loc	10 93 1 prologue_end    # /usr/lib/x86_64-linux-gnu/openmpi/include/openmpi/ompi/mpi/cxx/group_inln.h:93:1
	movq	8(%rsi), %rdi
.Ltmp325:
	#DEBUG_VALUE: newgroup <- [DW_OP_constu 16, DW_OP_minus, DW_OP_deref] $rbp
	.loc	10 0 1 is_stmt 0        # /usr/lib/x86_64-linux-gnu/openmpi/include/openmpi/ompi/mpi/cxx/group_inln.h:0:1
	leaq	-16(%rbp), %rax
	.loc	10 93 1                 # /usr/lib/x86_64-linux-gnu/openmpi/include/openmpi/ompi/mpi/cxx/group_inln.h:93:1
	movl	%edx, %esi
.Ltmp326:
	#DEBUG_VALUE: Excl:n <- $esi
	movq	%rcx, %rdx
.Ltmp327:
	#DEBUG_VALUE: Excl:ranks <- $rdx
	movq	%rax, %rcx
.Ltmp328:
	callq	MPI_Group_excl
.Ltmp329:
	.loc	10 94 1 is_stmt 1       # /usr/lib/x86_64-linux-gnu/openmpi/include/openmpi/ompi/mpi/cxx/group_inln.h:94:1
	movq	-16(%rbp), %rax
.Ltmp330:
	#DEBUG_VALUE: newgroup <- undef
	movq	$_ZTVN3MPI5GroupE+16, (%rbx)
	.loc	10 62 1                 # /usr/lib/x86_64-linux-gnu/openmpi/include/openmpi/ompi/mpi/cxx/group_inln.h:62:1
	movq	%rax, 8(%rbx)
	.loc	10 95 1                 # /usr/lib/x86_64-linux-gnu/openmpi/include/openmpi/ompi/mpi/cxx/group_inln.h:95:1
	movq	%rbx, %rax
	addq	$8, %rsp
	popq	%rbx
	popq	%rbp
	.cfi_def_cfa %rsp, 8
	retq
.Ltmp331:
.Lfunc_end69:
	.size	_ZNK3MPI5Group4ExclEiPKi, .Lfunc_end69-_ZNK3MPI5Group4ExclEiPKi
	.cfi_endproc
                                        # -- End function
	.weak	_ZNK3MPI5Group10Range_inclEiPA3_Ki # -- Begin function _ZNK3MPI5Group10Range_inclEiPA3_Ki
	.p2align	4, 0x90
	.type	_ZNK3MPI5Group10Range_inclEiPA3_Ki,@function
_ZNK3MPI5Group10Range_inclEiPA3_Ki:     # @_ZNK3MPI5Group10Range_inclEiPA3_Ki
.Lfunc_begin70:
	.loc	10 99 0                 # /usr/lib/x86_64-linux-gnu/openmpi/include/openmpi/ompi/mpi/cxx/group_inln.h:99:0
	.cfi_startproc
# %bb.0:                                # %L.entry
	#DEBUG_VALUE: Range_incl: <- $rsi
	#DEBUG_VALUE: Range_incl:n <- $edx
	#DEBUG_VALUE: Range_incl:ranges <- $rcx
	pushq	%rbp
	.cfi_def_cfa_offset 16
	.cfi_offset %rbp, -16
	movq	%rsp, %rbp
	.cfi_def_cfa_register %rbp
	pushq	%rbx
	pushq	%rax
	.cfi_offset %rbx, -24
	movq	%rdi, %rbx
.Ltmp332:
	#DEBUG_VALUE:  <- $rsi
	#DEBUG_VALUE: ranges <- $rcx
	#DEBUG_VALUE: n <- $edx
	#DEBUG_VALUE: Range_incl:ranges <- $rcx
	#DEBUG_VALUE: Range_incl:n <- $edx
	#DEBUG_VALUE: Range_incl: <- $rsi
	.loc	10 101 1 prologue_end   # /usr/lib/x86_64-linux-gnu/openmpi/include/openmpi/ompi/mpi/cxx/group_inln.h:101:1
	movq	8(%rsi), %rdi
.Ltmp333:
	#DEBUG_VALUE: newgroup <- [DW_OP_constu 16, DW_OP_minus, DW_OP_deref] $rbp
	.loc	10 0 1 is_stmt 0        # /usr/lib/x86_64-linux-gnu/openmpi/include/openmpi/ompi/mpi/cxx/group_inln.h:0:1
	leaq	-16(%rbp), %rax
	.loc	10 101 1                # /usr/lib/x86_64-linux-gnu/openmpi/include/openmpi/ompi/mpi/cxx/group_inln.h:101:1
	movl	%edx, %esi
.Ltmp334:
	#DEBUG_VALUE: Range_incl:n <- $esi
	movq	%rcx, %rdx
.Ltmp335:
	#DEBUG_VALUE: Range_incl:ranges <- $rdx
	movq	%rax, %rcx
.Ltmp336:
	callq	MPI_Group_range_incl
.Ltmp337:
	.loc	10 108 1 is_stmt 1      # /usr/lib/x86_64-linux-gnu/openmpi/include/openmpi/ompi/mpi/cxx/group_inln.h:108:1
	movq	-16(%rbp), %rax
.Ltmp338:
	#DEBUG_VALUE: newgroup <- undef
	movq	$_ZTVN3MPI5GroupE+16, (%rbx)
	.loc	10 62 1                 # /usr/lib/x86_64-linux-gnu/openmpi/include/openmpi/ompi/mpi/cxx/group_inln.h:62:1
	movq	%rax, 8(%rbx)
	.loc	10 109 1                # /usr/lib/x86_64-linux-gnu/openmpi/include/openmpi/ompi/mpi/cxx/group_inln.h:109:1
	movq	%rbx, %rax
	addq	$8, %rsp
	popq	%rbx
	popq	%rbp
	.cfi_def_cfa %rsp, 8
	retq
.Ltmp339:
.Lfunc_end70:
	.size	_ZNK3MPI5Group10Range_inclEiPA3_Ki, .Lfunc_end70-_ZNK3MPI5Group10Range_inclEiPA3_Ki
	.cfi_endproc
                                        # -- End function
	.weak	_ZNK3MPI5Group10Range_exclEiPA3_Ki # -- Begin function _ZNK3MPI5Group10Range_exclEiPA3_Ki
	.p2align	4, 0x90
	.type	_ZNK3MPI5Group10Range_exclEiPA3_Ki,@function
_ZNK3MPI5Group10Range_exclEiPA3_Ki:     # @_ZNK3MPI5Group10Range_exclEiPA3_Ki
.Lfunc_begin71:
	.loc	10 113 0                # /usr/lib/x86_64-linux-gnu/openmpi/include/openmpi/ompi/mpi/cxx/group_inln.h:113:0
	.cfi_startproc
# %bb.0:                                # %L.entry
	#DEBUG_VALUE: Range_excl: <- $rsi
	#DEBUG_VALUE: Range_excl:n <- $edx
	#DEBUG_VALUE: Range_excl:ranges <- $rcx
	pushq	%rbp
	.cfi_def_cfa_offset 16
	.cfi_offset %rbp, -16
	movq	%rsp, %rbp
	.cfi_def_cfa_register %rbp
	pushq	%rbx
	pushq	%rax
	.cfi_offset %rbx, -24
	movq	%rdi, %rbx
.Ltmp340:
	#DEBUG_VALUE:  <- $rsi
	#DEBUG_VALUE: ranges <- $rcx
	#DEBUG_VALUE: n <- $edx
	#DEBUG_VALUE: Range_excl:ranges <- $rcx
	#DEBUG_VALUE: Range_excl:n <- $edx
	#DEBUG_VALUE: Range_excl: <- $rsi
	.loc	10 115 1 prologue_end   # /usr/lib/x86_64-linux-gnu/openmpi/include/openmpi/ompi/mpi/cxx/group_inln.h:115:1
	movq	8(%rsi), %rdi
.Ltmp341:
	#DEBUG_VALUE: newgroup <- [DW_OP_constu 16, DW_OP_minus, DW_OP_deref] $rbp
	.loc	10 0 1 is_stmt 0        # /usr/lib/x86_64-linux-gnu/openmpi/include/openmpi/ompi/mpi/cxx/group_inln.h:0:1
	leaq	-16(%rbp), %rax
	.loc	10 115 1                # /usr/lib/x86_64-linux-gnu/openmpi/include/openmpi/ompi/mpi/cxx/group_inln.h:115:1
	movl	%edx, %esi
.Ltmp342:
	#DEBUG_VALUE: Range_excl:n <- $esi
	movq	%rcx, %rdx
.Ltmp343:
	#DEBUG_VALUE: Range_excl:ranges <- $rdx
	movq	%rax, %rcx
.Ltmp344:
	callq	MPI_Group_range_excl
.Ltmp345:
	.loc	10 122 1 is_stmt 1      # /usr/lib/x86_64-linux-gnu/openmpi/include/openmpi/ompi/mpi/cxx/group_inln.h:122:1
	movq	-16(%rbp), %rax
.Ltmp346:
	#DEBUG_VALUE: newgroup <- undef
	movq	$_ZTVN3MPI5GroupE+16, (%rbx)
	.loc	10 62 1                 # /usr/lib/x86_64-linux-gnu/openmpi/include/openmpi/ompi/mpi/cxx/group_inln.h:62:1
	movq	%rax, 8(%rbx)
	.loc	10 123 1                # /usr/lib/x86_64-linux-gnu/openmpi/include/openmpi/ompi/mpi/cxx/group_inln.h:123:1
	movq	%rbx, %rax
	addq	$8, %rsp
	popq	%rbx
	popq	%rbp
	.cfi_def_cfa %rsp, 8
	retq
.Ltmp347:
.Lfunc_end71:
	.size	_ZNK3MPI5Group10Range_exclEiPA3_Ki, .Lfunc_end71-_ZNK3MPI5Group10Range_exclEiPA3_Ki
	.cfi_endproc
                                        # -- End function
	.weak	_ZN3MPI5Group4FreeEv    # -- Begin function _ZN3MPI5Group4FreeEv
	.p2align	4, 0x90
	.type	_ZN3MPI5Group4FreeEv,@function
_ZN3MPI5Group4FreeEv:                   # @_ZN3MPI5Group4FreeEv
.Lfunc_begin72:
	.loc	10 127 0                # /usr/lib/x86_64-linux-gnu/openmpi/include/openmpi/ompi/mpi/cxx/group_inln.h:127:0
	.cfi_startproc
# %bb.0:                                # %L.entry
	#DEBUG_VALUE: Free: <- $rdi
	#DEBUG_VALUE: Free: <- $rdi
	pushq	%rbp
	.cfi_def_cfa_offset 16
	.cfi_offset %rbp, -16
	movq	%rsp, %rbp
	.cfi_def_cfa_register %rbp
.Ltmp348:
	#DEBUG_VALUE:  <- $rdi
	#DEBUG_VALUE:  <- $rdi
	.loc	10 128 1 prologue_end   # /usr/lib/x86_64-linux-gnu/openmpi/include/openmpi/ompi/mpi/cxx/group_inln.h:128:1
	addq	$8, %rdi
.Ltmp349:
	popq	%rbp
	.cfi_def_cfa %rsp, 8
	jmp	MPI_Group_free          # TAILCALL
.Ltmp350:
.Lfunc_end72:
	.size	_ZN3MPI5Group4FreeEv, .Lfunc_end72-_ZN3MPI5Group4FreeEv
	.cfi_endproc
                                        # -- End function
	.weak	_ZN3MPI9Comm_NullD1Ev   # -- Begin function _ZN3MPI9Comm_NullD1Ev
	.p2align	4, 0x90
	.type	_ZN3MPI9Comm_NullD1Ev,@function
_ZN3MPI9Comm_NullD1Ev:                  # @_ZN3MPI9Comm_NullD1Ev
.Lfunc_begin73:
	.file	11 "/usr/lib/x86_64-linux-gnu/openmpi/include/openmpi/ompi/mpi/cxx/comm.h"
	.loc	11 69 0                 # /usr/lib/x86_64-linux-gnu/openmpi/include/openmpi/ompi/mpi/cxx/comm.h:69:0
	.cfi_startproc
# %bb.0:                                # %L.entry
	#DEBUG_VALUE: ~Comm_Null: <- $rdi
	#DEBUG_VALUE: ~Comm_Null: <- $rdi
	pushq	%rbp
	.cfi_def_cfa_offset 16
	.cfi_offset %rbp, -16
	movq	%rsp, %rbp
	.cfi_def_cfa_register %rbp
.Ltmp351:
	#DEBUG_VALUE:  <- $rdi
	#DEBUG_VALUE:  <- $rdi
	.loc	11 69 1 prologue_end    # /usr/lib/x86_64-linux-gnu/openmpi/include/openmpi/ompi/mpi/cxx/comm.h:69:1
	movq	$_ZTVN3MPI9Comm_NullE+16, (%rdi)
	popq	%rbp
	.cfi_def_cfa %rsp, 8
	retq
.Ltmp352:
.Lfunc_end73:
	.size	_ZN3MPI9Comm_NullD1Ev, .Lfunc_end73-_ZN3MPI9Comm_NullD1Ev
	.cfi_endproc
                                        # -- End function
	.weak	_ZN3MPI9Comm_NullD0Ev   # -- Begin function _ZN3MPI9Comm_NullD0Ev
	.p2align	4, 0x90
	.type	_ZN3MPI9Comm_NullD0Ev,@function
_ZN3MPI9Comm_NullD0Ev:                  # @_ZN3MPI9Comm_NullD0Ev
.Lfunc_begin74:
	.loc	1 0 0                   # projects/read_gaussian_population.cpp:0:0
	.cfi_startproc
# %bb.0:                                # %L.entry
	pushq	%rbp
	.cfi_def_cfa_offset 16
	.cfi_offset %rbp, -16
	movq	%rsp, %rbp
	.cfi_def_cfa_register %rbp
.Ltmp353:
	.loc	1 69 1 prologue_end     # projects/read_gaussian_population.cpp:69:1
	movl	$16, %esi
	popq	%rbp
	.cfi_def_cfa %rsp, 8
	jmp	_ZdlPvm                 # TAILCALL
.Ltmp354:
.Lfunc_end74:
	.size	_ZN3MPI9Comm_NullD0Ev, .Lfunc_end74-_ZN3MPI9Comm_NullD0Ev
	.cfi_endproc
                                        # -- End function
	.weak	_ZNK3MPI4Comm4SendEPKviRKNS_8DatatypeEii # -- Begin function _ZNK3MPI4Comm4SendEPKviRKNS_8DatatypeEii
	.p2align	4, 0x90
	.type	_ZNK3MPI4Comm4SendEPKviRKNS_8DatatypeEii,@function
_ZNK3MPI4Comm4SendEPKviRKNS_8DatatypeEii: # @_ZNK3MPI4Comm4SendEPKviRKNS_8DatatypeEii
.Lfunc_begin75:
	.file	12 "/usr/lib/x86_64-linux-gnu/openmpi/include/openmpi/ompi/mpi/cxx/comm_inln.h"
	.loc	12 29 0                 # /usr/lib/x86_64-linux-gnu/openmpi/include/openmpi/ompi/mpi/cxx/comm_inln.h:29:0
	.cfi_startproc
# %bb.0:                                # %L.entry
	#DEBUG_VALUE: Send: <- $rdi
	#DEBUG_VALUE: Send:buf <- $rsi
	#DEBUG_VALUE: Send:count <- $edx
	#DEBUG_VALUE: Send:datatype <- $rcx
	#DEBUG_VALUE: Send:dest <- $r8d
	#DEBUG_VALUE: Send:tag <- $r9d
	pushq	%rbp
	.cfi_def_cfa_offset 16
	.cfi_offset %rbp, -16
	movq	%rsp, %rbp
	.cfi_def_cfa_register %rbp
.Ltmp355:
	#DEBUG_VALUE:  <- $rdi
	#DEBUG_VALUE: buf <- $rsi
	#DEBUG_VALUE: count <- $edx
	#DEBUG_VALUE: datatype <- $rcx
	#DEBUG_VALUE: dest <- $r8d
	#DEBUG_VALUE: tag <- $r9d
	movl	%r9d, %r10d
.Ltmp356:
	#DEBUG_VALUE: tag <- $r10d
	#DEBUG_VALUE: Send:tag <- $r10d
	#DEBUG_VALUE: dest <- $r8d
	#DEBUG_VALUE: Send:dest <- $r8d
	#DEBUG_VALUE: datatype <- $rcx
	#DEBUG_VALUE: Send:datatype <- $rcx
	#DEBUG_VALUE: count <- $edx
	#DEBUG_VALUE: Send:count <- $edx
	#DEBUG_VALUE: buf <- $rsi
	#DEBUG_VALUE: Send:buf <- $rsi
	#DEBUG_VALUE:  <- $rdi
	#DEBUG_VALUE: Send: <- $rdi
	.loc	12 90 1 prologue_end    # /usr/lib/x86_64-linux-gnu/openmpi/include/openmpi/ompi/mpi/cxx/comm_inln.h:90:1
	movq	8(%rcx), %rax
	movq	8(%rdi), %r9
	movq	%rsi, %rdi
.Ltmp357:
	#DEBUG_VALUE: buf <- $rdi
	#DEBUG_VALUE: Send:buf <- $rdi
	movl	%edx, %esi
.Ltmp358:
	#DEBUG_VALUE: count <- $esi
	#DEBUG_VALUE: Send:count <- $esi
	movq	%rax, %rdx
	movl	%r8d, %ecx
.Ltmp359:
	#DEBUG_VALUE: dest <- $ecx
	#DEBUG_VALUE: Send:dest <- $ecx
	movl	%r10d, %r8d
.Ltmp360:
	#DEBUG_VALUE: tag <- $r8d
	#DEBUG_VALUE: Send:tag <- $r8d
	popq	%rbp
	.cfi_def_cfa %rsp, 8
	jmp	MPI_Send                # TAILCALL
.Ltmp361:
.Lfunc_end75:
	.size	_ZNK3MPI4Comm4SendEPKviRKNS_8DatatypeEii, .Lfunc_end75-_ZNK3MPI4Comm4SendEPKviRKNS_8DatatypeEii
	.cfi_endproc
                                        # -- End function
	.weak	_ZNK3MPI4Comm4RecvEPviRKNS_8DatatypeEiiRNS_6StatusE # -- Begin function _ZNK3MPI4Comm4RecvEPviRKNS_8DatatypeEiiRNS_6StatusE
	.p2align	4, 0x90
	.type	_ZNK3MPI4Comm4RecvEPviRKNS_8DatatypeEiiRNS_6StatusE,@function
_ZNK3MPI4Comm4RecvEPviRKNS_8DatatypeEiiRNS_6StatusE: # @_ZNK3MPI4Comm4RecvEPviRKNS_8DatatypeEiiRNS_6StatusE
.Lfunc_begin76:
	.loc	12 36 0                 # /usr/lib/x86_64-linux-gnu/openmpi/include/openmpi/ompi/mpi/cxx/comm_inln.h:36:0
	.cfi_startproc
# %bb.0:                                # %L.entry
	#DEBUG_VALUE: Recv: <- $rdi
	#DEBUG_VALUE: Recv:buf <- $rsi
	#DEBUG_VALUE: Recv:count <- $edx
	#DEBUG_VALUE: Recv:datatype <- $rcx
	#DEBUG_VALUE: Recv:source <- $r8d
	#DEBUG_VALUE: Recv:tag <- $r9d
	pushq	%rbp
	.cfi_def_cfa_offset 16
	.cfi_offset %rbp, -16
	movq	%rsp, %rbp
	.cfi_def_cfa_register %rbp
	subq	$16, %rsp
.Ltmp362:
	#DEBUG_VALUE:  <- $rdi
	#DEBUG_VALUE: buf <- $rsi
	#DEBUG_VALUE: count <- $edx
	#DEBUG_VALUE: datatype <- $rcx
	#DEBUG_VALUE: source <- $r8d
	#DEBUG_VALUE: tag <- $r9d
	movl	%r9d, %r10d
	movq	%rsi, %r11
	movq	16(%rbp), %rsi
.Ltmp363:
	#DEBUG_VALUE: status <- [DW_OP_plus_uconst 16] [$rbp+0]
	#DEBUG_VALUE: Recv:status <- [DW_OP_plus_uconst 16] [$rbp+0]
	#DEBUG_VALUE: tag <- $r10d
	#DEBUG_VALUE: Recv:tag <- $r10d
	#DEBUG_VALUE: source <- $r8d
	#DEBUG_VALUE: Recv:source <- $r8d
	#DEBUG_VALUE: datatype <- $rcx
	#DEBUG_VALUE: Recv:datatype <- $rcx
	#DEBUG_VALUE: count <- $edx
	#DEBUG_VALUE: Recv:count <- $edx
	#DEBUG_VALUE: buf <- $r11
	#DEBUG_VALUE: Recv:buf <- $r11
	#DEBUG_VALUE:  <- $rdi
	#DEBUG_VALUE: Recv: <- $rdi
	.loc	12 90 1 prologue_end    # /usr/lib/x86_64-linux-gnu/openmpi/include/openmpi/ompi/mpi/cxx/comm_inln.h:90:1
	movq	8(%rcx), %rax
	movq	8(%rdi), %r9
	addq	$8, %rsi
	movq	%rsi, (%rsp)
	movq	%r11, %rdi
.Ltmp364:
	#DEBUG_VALUE: buf <- $rdi
	#DEBUG_VALUE: Recv:buf <- $rdi
	movl	%edx, %esi
.Ltmp365:
	#DEBUG_VALUE: count <- $esi
	#DEBUG_VALUE: Recv:count <- $esi
	movq	%rax, %rdx
	movl	%r8d, %ecx
.Ltmp366:
	#DEBUG_VALUE: source <- $ecx
	#DEBUG_VALUE: Recv:source <- $ecx
	movl	%r10d, %r8d
.Ltmp367:
	#DEBUG_VALUE: tag <- $r8d
	#DEBUG_VALUE: Recv:tag <- $r8d
	callq	MPI_Recv
.Ltmp368:
	.loc	12 38 1                 # /usr/lib/x86_64-linux-gnu/openmpi/include/openmpi/ompi/mpi/cxx/comm_inln.h:38:1
	addq	$16, %rsp
	popq	%rbp
	.cfi_def_cfa %rsp, 8
	retq
.Ltmp369:
.Lfunc_end76:
	.size	_ZNK3MPI4Comm4RecvEPviRKNS_8DatatypeEiiRNS_6StatusE, .Lfunc_end76-_ZNK3MPI4Comm4RecvEPviRKNS_8DatatypeEiiRNS_6StatusE
	.cfi_endproc
                                        # -- End function
	.weak	_ZNK3MPI4Comm4RecvEPviRKNS_8DatatypeEii # -- Begin function _ZNK3MPI4Comm4RecvEPviRKNS_8DatatypeEii
	.p2align	4, 0x90
	.type	_ZNK3MPI4Comm4RecvEPviRKNS_8DatatypeEii,@function
_ZNK3MPI4Comm4RecvEPviRKNS_8DatatypeEii: # @_ZNK3MPI4Comm4RecvEPviRKNS_8DatatypeEii
.Lfunc_begin77:
	.loc	12 43 0                 # /usr/lib/x86_64-linux-gnu/openmpi/include/openmpi/ompi/mpi/cxx/comm_inln.h:43:0
	.cfi_startproc
# %bb.0:                                # %L.entry
	#DEBUG_VALUE: Recv: <- $rdi
	#DEBUG_VALUE: Recv:buf <- $rsi
	#DEBUG_VALUE: Recv:count <- $edx
	#DEBUG_VALUE: Recv:datatype <- $rcx
	#DEBUG_VALUE: Recv:source <- $r8d
	#DEBUG_VALUE: Recv:tag <- $r9d
	pushq	%rbp
	.cfi_def_cfa_offset 16
	.cfi_offset %rbp, -16
	movq	%rsp, %rbp
	.cfi_def_cfa_register %rbp
	subq	$16, %rsp
.Ltmp370:
	#DEBUG_VALUE:  <- $rdi
	#DEBUG_VALUE: buf <- $rsi
	#DEBUG_VALUE: count <- $edx
	#DEBUG_VALUE: datatype <- $rcx
	#DEBUG_VALUE: source <- $r8d
	#DEBUG_VALUE: tag <- $r9d
	movl	%r9d, %r10d
.Ltmp371:
	#DEBUG_VALUE: tag <- $r10d
	#DEBUG_VALUE: Recv:tag <- $r10d
	#DEBUG_VALUE: source <- $r8d
	#DEBUG_VALUE: Recv:source <- $r8d
	#DEBUG_VALUE: datatype <- $rcx
	#DEBUG_VALUE: Recv:datatype <- $rcx
	#DEBUG_VALUE: count <- $edx
	#DEBUG_VALUE: Recv:count <- $edx
	#DEBUG_VALUE: buf <- $rsi
	#DEBUG_VALUE: Recv:buf <- $rsi
	#DEBUG_VALUE:  <- $rdi
	#DEBUG_VALUE: Recv: <- $rdi
	.loc	12 90 1 prologue_end    # /usr/lib/x86_64-linux-gnu/openmpi/include/openmpi/ompi/mpi/cxx/comm_inln.h:90:1
	movq	8(%rcx), %rax
	movq	8(%rdi), %r9
	movq	$0, (%rsp)
	movq	%rsi, %rdi
.Ltmp372:
	#DEBUG_VALUE: buf <- $rdi
	#DEBUG_VALUE: Recv:buf <- $rdi
	movl	%edx, %esi
.Ltmp373:
	#DEBUG_VALUE: count <- $esi
	#DEBUG_VALUE: Recv:count <- $esi
	movq	%rax, %rdx
	movl	%r8d, %ecx
.Ltmp374:
	#DEBUG_VALUE: source <- $ecx
	#DEBUG_VALUE: Recv:source <- $ecx
	movl	%r10d, %r8d
.Ltmp375:
	#DEBUG_VALUE: tag <- $r8d
	#DEBUG_VALUE: Recv:tag <- $r8d
	callq	MPI_Recv
.Ltmp376:
	.loc	12 46 1                 # /usr/lib/x86_64-linux-gnu/openmpi/include/openmpi/ompi/mpi/cxx/comm_inln.h:46:1
	addq	$16, %rsp
	popq	%rbp
	.cfi_def_cfa %rsp, 8
	retq
.Ltmp377:
.Lfunc_end77:
	.size	_ZNK3MPI4Comm4RecvEPviRKNS_8DatatypeEii, .Lfunc_end77-_ZNK3MPI4Comm4RecvEPviRKNS_8DatatypeEii
	.cfi_endproc
                                        # -- End function
	.weak	_ZNK3MPI4Comm5BsendEPKviRKNS_8DatatypeEii # -- Begin function _ZNK3MPI4Comm5BsendEPKviRKNS_8DatatypeEii
	.p2align	4, 0x90
	.type	_ZNK3MPI4Comm5BsendEPKviRKNS_8DatatypeEii,@function
_ZNK3MPI4Comm5BsendEPKviRKNS_8DatatypeEii: # @_ZNK3MPI4Comm5BsendEPKviRKNS_8DatatypeEii
.Lfunc_begin78:
	.loc	12 51 0                 # /usr/lib/x86_64-linux-gnu/openmpi/include/openmpi/ompi/mpi/cxx/comm_inln.h:51:0
	.cfi_startproc
# %bb.0:                                # %L.entry
	#DEBUG_VALUE: Bsend: <- $rdi
	#DEBUG_VALUE: Bsend:buf <- $rsi
	#DEBUG_VALUE: Bsend:count <- $edx
	#DEBUG_VALUE: Bsend:datatype <- $rcx
	#DEBUG_VALUE: Bsend:dest <- $r8d
	#DEBUG_VALUE: Bsend:tag <- $r9d
	pushq	%rbp
	.cfi_def_cfa_offset 16
	.cfi_offset %rbp, -16
	movq	%rsp, %rbp
	.cfi_def_cfa_register %rbp
.Ltmp378:
	#DEBUG_VALUE:  <- $rdi
	#DEBUG_VALUE: buf <- $rsi
	#DEBUG_VALUE: count <- $edx
	#DEBUG_VALUE: datatype <- $rcx
	#DEBUG_VALUE: dest <- $r8d
	#DEBUG_VALUE: tag <- $r9d
	movl	%r9d, %r10d
.Ltmp379:
	#DEBUG_VALUE: tag <- $r10d
	#DEBUG_VALUE: Bsend:tag <- $r10d
	#DEBUG_VALUE: dest <- $r8d
	#DEBUG_VALUE: Bsend:dest <- $r8d
	#DEBUG_VALUE: datatype <- $rcx
	#DEBUG_VALUE: Bsend:datatype <- $rcx
	#DEBUG_VALUE: count <- $edx
	#DEBUG_VALUE: Bsend:count <- $edx
	#DEBUG_VALUE: buf <- $rsi
	#DEBUG_VALUE: Bsend:buf <- $rsi
	#DEBUG_VALUE:  <- $rdi
	#DEBUG_VALUE: Bsend: <- $rdi
	.loc	12 90 1 prologue_end    # /usr/lib/x86_64-linux-gnu/openmpi/include/openmpi/ompi/mpi/cxx/comm_inln.h:90:1
	movq	8(%rcx), %rax
	movq	8(%rdi), %r9
	movq	%rsi, %rdi
.Ltmp380:
	#DEBUG_VALUE: buf <- $rdi
	#DEBUG_VALUE: Bsend:buf <- $rdi
	movl	%edx, %esi
.Ltmp381:
	#DEBUG_VALUE: count <- $esi
	#DEBUG_VALUE: Bsend:count <- $esi
	movq	%rax, %rdx
	movl	%r8d, %ecx
.Ltmp382:
	#DEBUG_VALUE: dest <- $ecx
	#DEBUG_VALUE: Bsend:dest <- $ecx
	movl	%r10d, %r8d
.Ltmp383:
	#DEBUG_VALUE: tag <- $r8d
	#DEBUG_VALUE: Bsend:tag <- $r8d
	popq	%rbp
	.cfi_def_cfa %rsp, 8
	jmp	MPI_Bsend               # TAILCALL
.Ltmp384:
.Lfunc_end78:
	.size	_ZNK3MPI4Comm5BsendEPKviRKNS_8DatatypeEii, .Lfunc_end78-_ZNK3MPI4Comm5BsendEPKviRKNS_8DatatypeEii
	.cfi_endproc
                                        # -- End function
	.weak	_ZNK3MPI4Comm5SsendEPKviRKNS_8DatatypeEii # -- Begin function _ZNK3MPI4Comm5SsendEPKviRKNS_8DatatypeEii
	.p2align	4, 0x90
	.type	_ZNK3MPI4Comm5SsendEPKviRKNS_8DatatypeEii,@function
_ZNK3MPI4Comm5SsendEPKviRKNS_8DatatypeEii: # @_ZNK3MPI4Comm5SsendEPKviRKNS_8DatatypeEii
.Lfunc_begin79:
	.loc	12 59 0                 # /usr/lib/x86_64-linux-gnu/openmpi/include/openmpi/ompi/mpi/cxx/comm_inln.h:59:0
	.cfi_startproc
# %bb.0:                                # %L.entry
	#DEBUG_VALUE: Ssend: <- $rdi
	#DEBUG_VALUE: Ssend:buf <- $rsi
	#DEBUG_VALUE: Ssend:count <- $edx
	#DEBUG_VALUE: Ssend:datatype <- $rcx
	#DEBUG_VALUE: Ssend:dest <- $r8d
	#DEBUG_VALUE: Ssend:tag <- $r9d
	pushq	%rbp
	.cfi_def_cfa_offset 16
	.cfi_offset %rbp, -16
	movq	%rsp, %rbp
	.cfi_def_cfa_register %rbp
.Ltmp385:
	#DEBUG_VALUE:  <- $rdi
	#DEBUG_VALUE: buf <- $rsi
	#DEBUG_VALUE: count <- $edx
	#DEBUG_VALUE: datatype <- $rcx
	#DEBUG_VALUE: dest <- $r8d
	#DEBUG_VALUE: tag <- $r9d
	movl	%r9d, %r10d
.Ltmp386:
	#DEBUG_VALUE: tag <- $r10d
	#DEBUG_VALUE: Ssend:tag <- $r10d
	#DEBUG_VALUE: dest <- $r8d
	#DEBUG_VALUE: Ssend:dest <- $r8d
	#DEBUG_VALUE: datatype <- $rcx
	#DEBUG_VALUE: Ssend:datatype <- $rcx
	#DEBUG_VALUE: count <- $edx
	#DEBUG_VALUE: Ssend:count <- $edx
	#DEBUG_VALUE: buf <- $rsi
	#DEBUG_VALUE: Ssend:buf <- $rsi
	#DEBUG_VALUE:  <- $rdi
	#DEBUG_VALUE: Ssend: <- $rdi
	.loc	12 90 1 prologue_end    # /usr/lib/x86_64-linux-gnu/openmpi/include/openmpi/ompi/mpi/cxx/comm_inln.h:90:1
	movq	8(%rcx), %rax
	movq	8(%rdi), %r9
	movq	%rsi, %rdi
.Ltmp387:
	#DEBUG_VALUE: buf <- $rdi
	#DEBUG_VALUE: Ssend:buf <- $rdi
	movl	%edx, %esi
.Ltmp388:
	#DEBUG_VALUE: count <- $esi
	#DEBUG_VALUE: Ssend:count <- $esi
	movq	%rax, %rdx
	movl	%r8d, %ecx
.Ltmp389:
	#DEBUG_VALUE: dest <- $ecx
	#DEBUG_VALUE: Ssend:dest <- $ecx
	movl	%r10d, %r8d
.Ltmp390:
	#DEBUG_VALUE: tag <- $r8d
	#DEBUG_VALUE: Ssend:tag <- $r8d
	popq	%rbp
	.cfi_def_cfa %rsp, 8
	jmp	MPI_Ssend               # TAILCALL
.Ltmp391:
.Lfunc_end79:
	.size	_ZNK3MPI4Comm5SsendEPKviRKNS_8DatatypeEii, .Lfunc_end79-_ZNK3MPI4Comm5SsendEPKviRKNS_8DatatypeEii
	.cfi_endproc
                                        # -- End function
	.weak	_ZNK3MPI4Comm5RsendEPKviRKNS_8DatatypeEii # -- Begin function _ZNK3MPI4Comm5RsendEPKviRKNS_8DatatypeEii
	.p2align	4, 0x90
	.type	_ZNK3MPI4Comm5RsendEPKviRKNS_8DatatypeEii,@function
_ZNK3MPI4Comm5RsendEPKviRKNS_8DatatypeEii: # @_ZNK3MPI4Comm5RsendEPKviRKNS_8DatatypeEii
.Lfunc_begin80:
	.loc	12 67 0                 # /usr/lib/x86_64-linux-gnu/openmpi/include/openmpi/ompi/mpi/cxx/comm_inln.h:67:0
	.cfi_startproc
# %bb.0:                                # %L.entry
	#DEBUG_VALUE: Rsend: <- $rdi
	#DEBUG_VALUE: Rsend:buf <- $rsi
	#DEBUG_VALUE: Rsend:count <- $edx
	#DEBUG_VALUE: Rsend:datatype <- $rcx
	#DEBUG_VALUE: Rsend:dest <- $r8d
	#DEBUG_VALUE: Rsend:tag <- $r9d
	pushq	%rbp
	.cfi_def_cfa_offset 16
	.cfi_offset %rbp, -16
	movq	%rsp, %rbp
	.cfi_def_cfa_register %rbp
.Ltmp392:
	#DEBUG_VALUE:  <- $rdi
	#DEBUG_VALUE: buf <- $rsi
	#DEBUG_VALUE: count <- $edx
	#DEBUG_VALUE: datatype <- $rcx
	#DEBUG_VALUE: dest <- $r8d
	#DEBUG_VALUE: tag <- $r9d
	movl	%r9d, %r10d
.Ltmp393:
	#DEBUG_VALUE: tag <- $r10d
	#DEBUG_VALUE: Rsend:tag <- $r10d
	#DEBUG_VALUE: dest <- $r8d
	#DEBUG_VALUE: Rsend:dest <- $r8d
	#DEBUG_VALUE: datatype <- $rcx
	#DEBUG_VALUE: Rsend:datatype <- $rcx
	#DEBUG_VALUE: count <- $edx
	#DEBUG_VALUE: Rsend:count <- $edx
	#DEBUG_VALUE: buf <- $rsi
	#DEBUG_VALUE: Rsend:buf <- $rsi
	#DEBUG_VALUE:  <- $rdi
	#DEBUG_VALUE: Rsend: <- $rdi
	.loc	12 90 1 prologue_end    # /usr/lib/x86_64-linux-gnu/openmpi/include/openmpi/ompi/mpi/cxx/comm_inln.h:90:1
	movq	8(%rcx), %rax
	movq	8(%rdi), %r9
	movq	%rsi, %rdi
.Ltmp394:
	#DEBUG_VALUE: buf <- $rdi
	#DEBUG_VALUE: Rsend:buf <- $rdi
	movl	%edx, %esi
.Ltmp395:
	#DEBUG_VALUE: count <- $esi
	#DEBUG_VALUE: Rsend:count <- $esi
	movq	%rax, %rdx
	movl	%r8d, %ecx
.Ltmp396:
	#DEBUG_VALUE: dest <- $ecx
	#DEBUG_VALUE: Rsend:dest <- $ecx
	movl	%r10d, %r8d
.Ltmp397:
	#DEBUG_VALUE: tag <- $r8d
	#DEBUG_VALUE: Rsend:tag <- $r8d
	popq	%rbp
	.cfi_def_cfa %rsp, 8
	jmp	MPI_Rsend               # TAILCALL
.Ltmp398:
.Lfunc_end80:
	.size	_ZNK3MPI4Comm5RsendEPKviRKNS_8DatatypeEii, .Lfunc_end80-_ZNK3MPI4Comm5RsendEPKviRKNS_8DatatypeEii
	.cfi_endproc
                                        # -- End function
	.weak	_ZNK3MPI4Comm5IsendEPKviRKNS_8DatatypeEii # -- Begin function _ZNK3MPI4Comm5IsendEPKviRKNS_8DatatypeEii
	.p2align	4, 0x90
	.type	_ZNK3MPI4Comm5IsendEPKviRKNS_8DatatypeEii,@function
_ZNK3MPI4Comm5IsendEPKviRKNS_8DatatypeEii: # @_ZNK3MPI4Comm5IsendEPKviRKNS_8DatatypeEii
.Lfunc_begin81:
	.loc	12 75 0                 # /usr/lib/x86_64-linux-gnu/openmpi/include/openmpi/ompi/mpi/cxx/comm_inln.h:75:0
	.cfi_startproc
# %bb.0:                                # %L.entry
	#DEBUG_VALUE: Isend: <- $rsi
	#DEBUG_VALUE: Isend:buf <- $rdx
	#DEBUG_VALUE: Isend:count <- $ecx
	#DEBUG_VALUE: Isend:datatype <- $r8
	#DEBUG_VALUE: Isend:dest <- $r9d
	pushq	%rbp
	.cfi_def_cfa_offset 16
	.cfi_offset %rbp, -16
	movq	%rsp, %rbp
	.cfi_def_cfa_register %rbp
	pushq	%rbx
	subq	$24, %rsp
	.cfi_offset %rbx, -24
	movl	%r9d, %r11d
	movq	%rdx, %rax
	movq	%rdi, %rbx
	movl	16(%rbp), %r10d
.Ltmp399:
	#DEBUG_VALUE: datatype <- $r8
	#DEBUG_VALUE:  <- $rsi
	#DEBUG_VALUE: tag <- $r10d
	#DEBUG_VALUE: dest <- $r11d
	#DEBUG_VALUE: count <- $ecx
	#DEBUG_VALUE: buf <- $rax
	#DEBUG_VALUE: Isend:tag <- [DW_OP_plus_uconst 16] [$rbp+0]
	#DEBUG_VALUE: Isend:dest <- $r11d
	#DEBUG_VALUE: Isend:datatype <- $r8
	#DEBUG_VALUE: Isend:count <- $ecx
	#DEBUG_VALUE: Isend:buf <- $rax
	#DEBUG_VALUE: Isend: <- $rsi
	.loc	12 90 1 prologue_end    # /usr/lib/x86_64-linux-gnu/openmpi/include/openmpi/ompi/mpi/cxx/comm_inln.h:90:1
	movq	8(%r8), %rdx
	movq	8(%rsi), %r9
.Ltmp400:
	#DEBUG_VALUE: request <- [DW_OP_constu 16, DW_OP_minus, DW_OP_deref] $rbp
	.loc	12 0 1 is_stmt 0        # /usr/lib/x86_64-linux-gnu/openmpi/include/openmpi/ompi/mpi/cxx/comm_inln.h:0:1
	leaq	-16(%rbp), %rsi
.Ltmp401:
	.loc	12 90 1                 # /usr/lib/x86_64-linux-gnu/openmpi/include/openmpi/ompi/mpi/cxx/comm_inln.h:90:1
	movq	%rsi, (%rsp)
	movq	%rax, %rdi
.Ltmp402:
	#DEBUG_VALUE: Isend:buf <- $rdi
	movl	%ecx, %esi
.Ltmp403:
	#DEBUG_VALUE: Isend:count <- $esi
	movl	%r11d, %ecx
.Ltmp404:
	#DEBUG_VALUE: Isend:dest <- $ecx
	movl	%r10d, %r8d
.Ltmp405:
	callq	MPI_Isend
.Ltmp406:
	.loc	12 79 1 is_stmt 1       # /usr/lib/x86_64-linux-gnu/openmpi/include/openmpi/ompi/mpi/cxx/comm_inln.h:79:1
	movq	-16(%rbp), %rax
.Ltmp407:
	#DEBUG_VALUE: request <- undef
	movq	$_ZTVN3MPI7RequestE+16, (%rbx)
	.loc	12 62 1                 # /usr/lib/x86_64-linux-gnu/openmpi/include/openmpi/ompi/mpi/cxx/comm_inln.h:62:1
	movq	%rax, 8(%rbx)
	.loc	12 80 1                 # /usr/lib/x86_64-linux-gnu/openmpi/include/openmpi/ompi/mpi/cxx/comm_inln.h:80:1
	movq	%rbx, %rax
	addq	$24, %rsp
	popq	%rbx
	popq	%rbp
	.cfi_def_cfa %rsp, 8
	retq
.Ltmp408:
.Lfunc_end81:
	.size	_ZNK3MPI4Comm5IsendEPKviRKNS_8DatatypeEii, .Lfunc_end81-_ZNK3MPI4Comm5IsendEPKviRKNS_8DatatypeEii
	.cfi_endproc
                                        # -- End function
	.weak	_ZNK3MPI4Comm6IbsendEPKviRKNS_8DatatypeEii # -- Begin function _ZNK3MPI4Comm6IbsendEPKviRKNS_8DatatypeEii
	.p2align	4, 0x90
	.type	_ZNK3MPI4Comm6IbsendEPKviRKNS_8DatatypeEii,@function
_ZNK3MPI4Comm6IbsendEPKviRKNS_8DatatypeEii: # @_ZNK3MPI4Comm6IbsendEPKviRKNS_8DatatypeEii
.Lfunc_begin82:
	.loc	12 85 0                 # /usr/lib/x86_64-linux-gnu/openmpi/include/openmpi/ompi/mpi/cxx/comm_inln.h:85:0
	.cfi_startproc
# %bb.0:                                # %L.entry
	#DEBUG_VALUE: Ibsend: <- $rsi
	#DEBUG_VALUE: Ibsend:buf <- $rdx
	#DEBUG_VALUE: Ibsend:count <- $ecx
	#DEBUG_VALUE: Ibsend:datatype <- $r8
	#DEBUG_VALUE: Ibsend:dest <- $r9d
	pushq	%rbp
	.cfi_def_cfa_offset 16
	.cfi_offset %rbp, -16
	movq	%rsp, %rbp
	.cfi_def_cfa_register %rbp
	pushq	%rbx
	subq	$24, %rsp
	.cfi_offset %rbx, -24
	movl	%r9d, %r11d
	movq	%rdx, %rax
	movq	%rdi, %rbx
	movl	16(%rbp), %r10d
.Ltmp409:
	#DEBUG_VALUE: datatype <- $r8
	#DEBUG_VALUE:  <- $rsi
	#DEBUG_VALUE: tag <- $r10d
	#DEBUG_VALUE: dest <- $r11d
	#DEBUG_VALUE: count <- $ecx
	#DEBUG_VALUE: buf <- $rax
	#DEBUG_VALUE: Ibsend:tag <- [DW_OP_plus_uconst 16] [$rbp+0]
	#DEBUG_VALUE: Ibsend:dest <- $r11d
	#DEBUG_VALUE: Ibsend:datatype <- $r8
	#DEBUG_VALUE: Ibsend:count <- $ecx
	#DEBUG_VALUE: Ibsend:buf <- $rax
	#DEBUG_VALUE: Ibsend: <- $rsi
	.loc	12 90 1 prologue_end    # /usr/lib/x86_64-linux-gnu/openmpi/include/openmpi/ompi/mpi/cxx/comm_inln.h:90:1
	movq	8(%r8), %rdx
	movq	8(%rsi), %r9
.Ltmp410:
	#DEBUG_VALUE: request <- [DW_OP_constu 16, DW_OP_minus, DW_OP_deref] $rbp
	.loc	12 0 1 is_stmt 0        # /usr/lib/x86_64-linux-gnu/openmpi/include/openmpi/ompi/mpi/cxx/comm_inln.h:0:1
	leaq	-16(%rbp), %rsi
.Ltmp411:
	.loc	12 90 1                 # /usr/lib/x86_64-linux-gnu/openmpi/include/openmpi/ompi/mpi/cxx/comm_inln.h:90:1
	movq	%rsi, (%rsp)
	movq	%rax, %rdi
.Ltmp412:
	#DEBUG_VALUE: Ibsend:buf <- $rdi
	movl	%ecx, %esi
.Ltmp413:
	#DEBUG_VALUE: Ibsend:count <- $esi
	movl	%r11d, %ecx
.Ltmp414:
	#DEBUG_VALUE: Ibsend:dest <- $ecx
	movl	%r10d, %r8d
.Ltmp415:
	callq	MPI_Ibsend
.Ltmp416:
	.loc	12 89 1 is_stmt 1       # /usr/lib/x86_64-linux-gnu/openmpi/include/openmpi/ompi/mpi/cxx/comm_inln.h:89:1
	movq	-16(%rbp), %rax
.Ltmp417:
	#DEBUG_VALUE: request <- undef
	movq	$_ZTVN3MPI7RequestE+16, (%rbx)
	.loc	12 62 1                 # /usr/lib/x86_64-linux-gnu/openmpi/include/openmpi/ompi/mpi/cxx/comm_inln.h:62:1
	movq	%rax, 8(%rbx)
	.loc	12 90 1                 # /usr/lib/x86_64-linux-gnu/openmpi/include/openmpi/ompi/mpi/cxx/comm_inln.h:90:1
	movq	%rbx, %rax
	addq	$24, %rsp
	popq	%rbx
	popq	%rbp
	.cfi_def_cfa %rsp, 8
	retq
.Ltmp418:
.Lfunc_end82:
	.size	_ZNK3MPI4Comm6IbsendEPKviRKNS_8DatatypeEii, .Lfunc_end82-_ZNK3MPI4Comm6IbsendEPKviRKNS_8DatatypeEii
	.cfi_endproc
                                        # -- End function
	.weak	_ZNK3MPI4Comm6IssendEPKviRKNS_8DatatypeEii # -- Begin function _ZNK3MPI4Comm6IssendEPKviRKNS_8DatatypeEii
	.p2align	4, 0x90
	.type	_ZNK3MPI4Comm6IssendEPKviRKNS_8DatatypeEii,@function
_ZNK3MPI4Comm6IssendEPKviRKNS_8DatatypeEii: # @_ZNK3MPI4Comm6IssendEPKviRKNS_8DatatypeEii
.Lfunc_begin83:
	.loc	12 95 0                 # /usr/lib/x86_64-linux-gnu/openmpi/include/openmpi/ompi/mpi/cxx/comm_inln.h:95:0
	.cfi_startproc
# %bb.0:                                # %L.entry
	#DEBUG_VALUE: Issend: <- $rsi
	#DEBUG_VALUE: Issend:buf <- $rdx
	#DEBUG_VALUE: Issend:count <- $ecx
	#DEBUG_VALUE: Issend:datatype <- $r8
	#DEBUG_VALUE: Issend:dest <- $r9d
	pushq	%rbp
	.cfi_def_cfa_offset 16
	.cfi_offset %rbp, -16
	movq	%rsp, %rbp
	.cfi_def_cfa_register %rbp
	pushq	%rbx
	subq	$24, %rsp
	.cfi_offset %rbx, -24
	movl	%r9d, %r11d
	movq	%rdx, %rax
	movq	%rdi, %rbx
	movl	16(%rbp), %r10d
.Ltmp419:
	#DEBUG_VALUE: datatype <- $r8
	#DEBUG_VALUE:  <- $rsi
	#DEBUG_VALUE: tag <- $r10d
	#DEBUG_VALUE: dest <- $r11d
	#DEBUG_VALUE: count <- $ecx
	#DEBUG_VALUE: buf <- $rax
	#DEBUG_VALUE: Issend:tag <- [DW_OP_plus_uconst 16] [$rbp+0]
	#DEBUG_VALUE: Issend:dest <- $r11d
	#DEBUG_VALUE: Issend:datatype <- $r8
	#DEBUG_VALUE: Issend:count <- $ecx
	#DEBUG_VALUE: Issend:buf <- $rax
	#DEBUG_VALUE: Issend: <- $rsi
	.loc	12 90 1 prologue_end    # /usr/lib/x86_64-linux-gnu/openmpi/include/openmpi/ompi/mpi/cxx/comm_inln.h:90:1
	movq	8(%r8), %rdx
	movq	8(%rsi), %r9
.Ltmp420:
	#DEBUG_VALUE: request <- [DW_OP_constu 16, DW_OP_minus, DW_OP_deref] $rbp
	.loc	12 0 1 is_stmt 0        # /usr/lib/x86_64-linux-gnu/openmpi/include/openmpi/ompi/mpi/cxx/comm_inln.h:0:1
	leaq	-16(%rbp), %rsi
.Ltmp421:
	.loc	12 90 1                 # /usr/lib/x86_64-linux-gnu/openmpi/include/openmpi/ompi/mpi/cxx/comm_inln.h:90:1
	movq	%rsi, (%rsp)
	movq	%rax, %rdi
.Ltmp422:
	#DEBUG_VALUE: Issend:buf <- $rdi
	movl	%ecx, %esi
.Ltmp423:
	#DEBUG_VALUE: Issend:count <- $esi
	movl	%r11d, %ecx
.Ltmp424:
	#DEBUG_VALUE: Issend:dest <- $ecx
	movl	%r10d, %r8d
.Ltmp425:
	callq	MPI_Issend
.Ltmp426:
	.loc	12 99 1 is_stmt 1       # /usr/lib/x86_64-linux-gnu/openmpi/include/openmpi/ompi/mpi/cxx/comm_inln.h:99:1
	movq	-16(%rbp), %rax
.Ltmp427:
	#DEBUG_VALUE: request <- undef
	movq	$_ZTVN3MPI7RequestE+16, (%rbx)
	.loc	12 62 1                 # /usr/lib/x86_64-linux-gnu/openmpi/include/openmpi/ompi/mpi/cxx/comm_inln.h:62:1
	movq	%rax, 8(%rbx)
	.loc	12 100 1                # /usr/lib/x86_64-linux-gnu/openmpi/include/openmpi/ompi/mpi/cxx/comm_inln.h:100:1
	movq	%rbx, %rax
	addq	$24, %rsp
	popq	%rbx
	popq	%rbp
	.cfi_def_cfa %rsp, 8
	retq
.Ltmp428:
.Lfunc_end83:
	.size	_ZNK3MPI4Comm6IssendEPKviRKNS_8DatatypeEii, .Lfunc_end83-_ZNK3MPI4Comm6IssendEPKviRKNS_8DatatypeEii
	.cfi_endproc
                                        # -- End function
	.weak	_ZNK3MPI4Comm6IrsendEPKviRKNS_8DatatypeEii # -- Begin function _ZNK3MPI4Comm6IrsendEPKviRKNS_8DatatypeEii
	.p2align	4, 0x90
	.type	_ZNK3MPI4Comm6IrsendEPKviRKNS_8DatatypeEii,@function
_ZNK3MPI4Comm6IrsendEPKviRKNS_8DatatypeEii: # @_ZNK3MPI4Comm6IrsendEPKviRKNS_8DatatypeEii
.Lfunc_begin84:
	.loc	12 105 0                # /usr/lib/x86_64-linux-gnu/openmpi/include/openmpi/ompi/mpi/cxx/comm_inln.h:105:0
	.cfi_startproc
# %bb.0:                                # %L.entry
	#DEBUG_VALUE: Irsend: <- $rsi
	#DEBUG_VALUE: Irsend:buf <- $rdx
	#DEBUG_VALUE: Irsend:count <- $ecx
	#DEBUG_VALUE: Irsend:datatype <- $r8
	#DEBUG_VALUE: Irsend:dest <- $r9d
	pushq	%rbp
	.cfi_def_cfa_offset 16
	.cfi_offset %rbp, -16
	movq	%rsp, %rbp
	.cfi_def_cfa_register %rbp
	pushq	%rbx
	subq	$24, %rsp
	.cfi_offset %rbx, -24
	movl	%r9d, %r11d
	movq	%rdx, %rax
	movq	%rdi, %rbx
	movl	16(%rbp), %r10d
.Ltmp429:
	#DEBUG_VALUE: datatype <- $r8
	#DEBUG_VALUE:  <- $rsi
	#DEBUG_VALUE: tag <- $r10d
	#DEBUG_VALUE: dest <- $r11d
	#DEBUG_VALUE: count <- $ecx
	#DEBUG_VALUE: buf <- $rax
	#DEBUG_VALUE: Irsend:tag <- [DW_OP_plus_uconst 16] [$rbp+0]
	#DEBUG_VALUE: Irsend:dest <- $r11d
	#DEBUG_VALUE: Irsend:datatype <- $r8
	#DEBUG_VALUE: Irsend:count <- $ecx
	#DEBUG_VALUE: Irsend:buf <- $rax
	#DEBUG_VALUE: Irsend: <- $rsi
	.loc	12 90 1 prologue_end    # /usr/lib/x86_64-linux-gnu/openmpi/include/openmpi/ompi/mpi/cxx/comm_inln.h:90:1
	movq	8(%r8), %rdx
	movq	8(%rsi), %r9
.Ltmp430:
	#DEBUG_VALUE: request <- [DW_OP_constu 16, DW_OP_minus, DW_OP_deref] $rbp
	.loc	12 0 1 is_stmt 0        # /usr/lib/x86_64-linux-gnu/openmpi/include/openmpi/ompi/mpi/cxx/comm_inln.h:0:1
	leaq	-16(%rbp), %rsi
.Ltmp431:
	.loc	12 90 1                 # /usr/lib/x86_64-linux-gnu/openmpi/include/openmpi/ompi/mpi/cxx/comm_inln.h:90:1
	movq	%rsi, (%rsp)
	movq	%rax, %rdi
.Ltmp432:
	#DEBUG_VALUE: Irsend:buf <- $rdi
	movl	%ecx, %esi
.Ltmp433:
	#DEBUG_VALUE: Irsend:count <- $esi
	movl	%r11d, %ecx
.Ltmp434:
	#DEBUG_VALUE: Irsend:dest <- $ecx
	movl	%r10d, %r8d
.Ltmp435:
	callq	MPI_Irsend
.Ltmp436:
	.loc	12 109 1 is_stmt 1      # /usr/lib/x86_64-linux-gnu/openmpi/include/openmpi/ompi/mpi/cxx/comm_inln.h:109:1
	movq	-16(%rbp), %rax
.Ltmp437:
	#DEBUG_VALUE: request <- undef
	movq	$_ZTVN3MPI7RequestE+16, (%rbx)
	.loc	12 62 1                 # /usr/lib/x86_64-linux-gnu/openmpi/include/openmpi/ompi/mpi/cxx/comm_inln.h:62:1
	movq	%rax, 8(%rbx)
	.loc	12 110 1                # /usr/lib/x86_64-linux-gnu/openmpi/include/openmpi/ompi/mpi/cxx/comm_inln.h:110:1
	movq	%rbx, %rax
	addq	$24, %rsp
	popq	%rbx
	popq	%rbp
	.cfi_def_cfa %rsp, 8
	retq
.Ltmp438:
.Lfunc_end84:
	.size	_ZNK3MPI4Comm6IrsendEPKviRKNS_8DatatypeEii, .Lfunc_end84-_ZNK3MPI4Comm6IrsendEPKviRKNS_8DatatypeEii
	.cfi_endproc
                                        # -- End function
	.weak	_ZNK3MPI4Comm5IrecvEPviRKNS_8DatatypeEii # -- Begin function _ZNK3MPI4Comm5IrecvEPviRKNS_8DatatypeEii
	.p2align	4, 0x90
	.type	_ZNK3MPI4Comm5IrecvEPviRKNS_8DatatypeEii,@function
_ZNK3MPI4Comm5IrecvEPviRKNS_8DatatypeEii: # @_ZNK3MPI4Comm5IrecvEPviRKNS_8DatatypeEii
.Lfunc_begin85:
	.loc	12 115 0                # /usr/lib/x86_64-linux-gnu/openmpi/include/openmpi/ompi/mpi/cxx/comm_inln.h:115:0
	.cfi_startproc
# %bb.0:                                # %L.entry
	#DEBUG_VALUE: Irecv: <- $rsi
	#DEBUG_VALUE: Irecv:buf <- $rdx
	#DEBUG_VALUE: Irecv:count <- $ecx
	#DEBUG_VALUE: Irecv:datatype <- $r8
	#DEBUG_VALUE: Irecv:source <- $r9d
	pushq	%rbp
	.cfi_def_cfa_offset 16
	.cfi_offset %rbp, -16
	movq	%rsp, %rbp
	.cfi_def_cfa_register %rbp
	pushq	%rbx
	subq	$24, %rsp
	.cfi_offset %rbx, -24
	movl	%r9d, %r11d
	movq	%rdx, %rax
	movq	%rdi, %rbx
	movl	16(%rbp), %r10d
.Ltmp439:
	#DEBUG_VALUE: datatype <- $r8
	#DEBUG_VALUE:  <- $rsi
	#DEBUG_VALUE: tag <- $r10d
	#DEBUG_VALUE: source <- $r11d
	#DEBUG_VALUE: count <- $ecx
	#DEBUG_VALUE: buf <- $rax
	#DEBUG_VALUE: Irecv:tag <- [DW_OP_plus_uconst 16] [$rbp+0]
	#DEBUG_VALUE: Irecv:source <- $r11d
	#DEBUG_VALUE: Irecv:datatype <- $r8
	#DEBUG_VALUE: Irecv:count <- $ecx
	#DEBUG_VALUE: Irecv:buf <- $rax
	#DEBUG_VALUE: Irecv: <- $rsi
	.loc	12 90 1 prologue_end    # /usr/lib/x86_64-linux-gnu/openmpi/include/openmpi/ompi/mpi/cxx/comm_inln.h:90:1
	movq	8(%r8), %rdx
	movq	8(%rsi), %r9
.Ltmp440:
	#DEBUG_VALUE: request <- [DW_OP_constu 16, DW_OP_minus, DW_OP_deref] $rbp
	.loc	12 0 1 is_stmt 0        # /usr/lib/x86_64-linux-gnu/openmpi/include/openmpi/ompi/mpi/cxx/comm_inln.h:0:1
	leaq	-16(%rbp), %rsi
.Ltmp441:
	.loc	12 90 1                 # /usr/lib/x86_64-linux-gnu/openmpi/include/openmpi/ompi/mpi/cxx/comm_inln.h:90:1
	movq	%rsi, (%rsp)
	movq	%rax, %rdi
.Ltmp442:
	#DEBUG_VALUE: Irecv:buf <- $rdi
	movl	%ecx, %esi
.Ltmp443:
	#DEBUG_VALUE: Irecv:count <- $esi
	movl	%r11d, %ecx
.Ltmp444:
	#DEBUG_VALUE: Irecv:source <- $ecx
	movl	%r10d, %r8d
.Ltmp445:
	callq	MPI_Irecv
.Ltmp446:
	.loc	12 119 1 is_stmt 1      # /usr/lib/x86_64-linux-gnu/openmpi/include/openmpi/ompi/mpi/cxx/comm_inln.h:119:1
	movq	-16(%rbp), %rax
.Ltmp447:
	#DEBUG_VALUE: request <- undef
	movq	$_ZTVN3MPI7RequestE+16, (%rbx)
	.loc	12 62 1                 # /usr/lib/x86_64-linux-gnu/openmpi/include/openmpi/ompi/mpi/cxx/comm_inln.h:62:1
	movq	%rax, 8(%rbx)
	.loc	12 120 1                # /usr/lib/x86_64-linux-gnu/openmpi/include/openmpi/ompi/mpi/cxx/comm_inln.h:120:1
	movq	%rbx, %rax
	addq	$24, %rsp
	popq	%rbx
	popq	%rbp
	.cfi_def_cfa %rsp, 8
	retq
.Ltmp448:
.Lfunc_end85:
	.size	_ZNK3MPI4Comm5IrecvEPviRKNS_8DatatypeEii, .Lfunc_end85-_ZNK3MPI4Comm5IrecvEPviRKNS_8DatatypeEii
	.cfi_endproc
                                        # -- End function
	.weak	_ZNK3MPI4Comm6IprobeEiiRNS_6StatusE # -- Begin function _ZNK3MPI4Comm6IprobeEiiRNS_6StatusE
	.p2align	4, 0x90
	.type	_ZNK3MPI4Comm6IprobeEiiRNS_6StatusE,@function
_ZNK3MPI4Comm6IprobeEiiRNS_6StatusE:    # @_ZNK3MPI4Comm6IprobeEiiRNS_6StatusE
.Lfunc_begin86:
	.loc	12 125 0                # /usr/lib/x86_64-linux-gnu/openmpi/include/openmpi/ompi/mpi/cxx/comm_inln.h:125:0
	.cfi_startproc
# %bb.0:                                # %L.entry
	#DEBUG_VALUE: Iprobe: <- $rdi
	#DEBUG_VALUE: Iprobe: <- $rdi
	#DEBUG_VALUE: Iprobe:source <- $esi
	#DEBUG_VALUE: Iprobe:source <- $esi
	#DEBUG_VALUE: Iprobe:tag <- $edx
	#DEBUG_VALUE: Iprobe:tag <- $edx
	#DEBUG_VALUE: Iprobe:status <- $rcx
	#DEBUG_VALUE: Iprobe:status <- $rcx
	pushq	%rbp
	.cfi_def_cfa_offset 16
	.cfi_offset %rbp, -16
	movq	%rsp, %rbp
	.cfi_def_cfa_register %rbp
	subq	$16, %rsp
.Ltmp449:
	#DEBUG_VALUE:  <- $rdi
	#DEBUG_VALUE: source <- $esi
	#DEBUG_VALUE: tag <- $edx
	#DEBUG_VALUE: status <- $rcx
	.loc	12 127 1 prologue_end   # /usr/lib/x86_64-linux-gnu/openmpi/include/openmpi/ompi/mpi/cxx/comm_inln.h:127:1
	movq	8(%rdi), %rax
	leaq	8(%rcx), %r8
.Ltmp450:
	#DEBUG_VALUE: t <- [DW_OP_constu 4, DW_OP_minus, DW_OP_deref] $rbp
	.loc	12 0 1 is_stmt 0        # /usr/lib/x86_64-linux-gnu/openmpi/include/openmpi/ompi/mpi/cxx/comm_inln.h:0:1
	leaq	-4(%rbp), %rcx
.Ltmp451:
	.loc	12 127 1                # /usr/lib/x86_64-linux-gnu/openmpi/include/openmpi/ompi/mpi/cxx/comm_inln.h:127:1
	movl	%esi, %edi
.Ltmp452:
	#DEBUG_VALUE: Iprobe:source <- $edi
	movl	%edx, %esi
.Ltmp453:
	#DEBUG_VALUE: Iprobe:tag <- $esi
	movq	%rax, %rdx
.Ltmp454:
	callq	MPI_Iprobe
.Ltmp455:
	#DEBUG_VALUE: t <- undef
	.loc	12 128 1 is_stmt 1      # /usr/lib/x86_64-linux-gnu/openmpi/include/openmpi/ompi/mpi/cxx/comm_inln.h:128:1
	cmpl	$0, -4(%rbp)
	setne	%al
	addq	$16, %rsp
	popq	%rbp
	.cfi_def_cfa %rsp, 8
	retq
.Ltmp456:
.Lfunc_end86:
	.size	_ZNK3MPI4Comm6IprobeEiiRNS_6StatusE, .Lfunc_end86-_ZNK3MPI4Comm6IprobeEiiRNS_6StatusE
	.cfi_endproc
                                        # -- End function
	.weak	_ZNK3MPI4Comm6IprobeEii # -- Begin function _ZNK3MPI4Comm6IprobeEii
	.p2align	4, 0x90
	.type	_ZNK3MPI4Comm6IprobeEii,@function
_ZNK3MPI4Comm6IprobeEii:                # @_ZNK3MPI4Comm6IprobeEii
.Lfunc_begin87:
	.loc	12 133 0                # /usr/lib/x86_64-linux-gnu/openmpi/include/openmpi/ompi/mpi/cxx/comm_inln.h:133:0
	.cfi_startproc
# %bb.0:                                # %L.entry
	#DEBUG_VALUE: Iprobe: <- $rdi
	#DEBUG_VALUE: Iprobe: <- $rdi
	#DEBUG_VALUE: Iprobe:source <- $esi
	#DEBUG_VALUE: Iprobe:source <- $esi
	#DEBUG_VALUE: Iprobe:tag <- $edx
	#DEBUG_VALUE: Iprobe:tag <- $edx
	pushq	%rbp
	.cfi_def_cfa_offset 16
	.cfi_offset %rbp, -16
	movq	%rsp, %rbp
	.cfi_def_cfa_register %rbp
	subq	$16, %rsp
.Ltmp457:
	#DEBUG_VALUE:  <- $rdi
	#DEBUG_VALUE: source <- $esi
	#DEBUG_VALUE: tag <- $edx
	.loc	12 135 1 prologue_end   # /usr/lib/x86_64-linux-gnu/openmpi/include/openmpi/ompi/mpi/cxx/comm_inln.h:135:1
	movq	8(%rdi), %rax
.Ltmp458:
	#DEBUG_VALUE: t <- [DW_OP_constu 4, DW_OP_minus, DW_OP_deref] $rbp
	.loc	12 0 1 is_stmt 0        # /usr/lib/x86_64-linux-gnu/openmpi/include/openmpi/ompi/mpi/cxx/comm_inln.h:0:1
	leaq	-4(%rbp), %rcx
	.loc	12 135 1                # /usr/lib/x86_64-linux-gnu/openmpi/include/openmpi/ompi/mpi/cxx/comm_inln.h:135:1
	movl	%esi, %edi
.Ltmp459:
	#DEBUG_VALUE: Iprobe:source <- $edi
	movl	%edx, %esi
.Ltmp460:
	#DEBUG_VALUE: Iprobe:tag <- $esi
	movq	%rax, %rdx
.Ltmp461:
	xorl	%r8d, %r8d
	callq	MPI_Iprobe
.Ltmp462:
	#DEBUG_VALUE: t <- undef
	.loc	12 136 1 is_stmt 1      # /usr/lib/x86_64-linux-gnu/openmpi/include/openmpi/ompi/mpi/cxx/comm_inln.h:136:1
	cmpl	$0, -4(%rbp)
	setne	%al
	addq	$16, %rsp
	popq	%rbp
	.cfi_def_cfa %rsp, 8
	retq
.Ltmp463:
.Lfunc_end87:
	.size	_ZNK3MPI4Comm6IprobeEii, .Lfunc_end87-_ZNK3MPI4Comm6IprobeEii
	.cfi_endproc
                                        # -- End function
	.weak	_ZNK3MPI4Comm5ProbeEiiRNS_6StatusE # -- Begin function _ZNK3MPI4Comm5ProbeEiiRNS_6StatusE
	.p2align	4, 0x90
	.type	_ZNK3MPI4Comm5ProbeEiiRNS_6StatusE,@function
_ZNK3MPI4Comm5ProbeEiiRNS_6StatusE:     # @_ZNK3MPI4Comm5ProbeEiiRNS_6StatusE
.Lfunc_begin88:
	.loc	12 141 0                # /usr/lib/x86_64-linux-gnu/openmpi/include/openmpi/ompi/mpi/cxx/comm_inln.h:141:0
	.cfi_startproc
# %bb.0:                                # %L.entry
	#DEBUG_VALUE: Probe: <- $rdi
	#DEBUG_VALUE: Probe: <- $rdi
	#DEBUG_VALUE: Probe:source <- $esi
	#DEBUG_VALUE: Probe:source <- $esi
	#DEBUG_VALUE: Probe:tag <- $edx
	#DEBUG_VALUE: Probe:tag <- $edx
	#DEBUG_VALUE: Probe:status <- $rcx
	#DEBUG_VALUE: Probe:status <- $rcx
	pushq	%rbp
	.cfi_def_cfa_offset 16
	.cfi_offset %rbp, -16
	movq	%rsp, %rbp
	.cfi_def_cfa_register %rbp
.Ltmp464:
	#DEBUG_VALUE:  <- $rdi
	#DEBUG_VALUE:  <- $rdi
	#DEBUG_VALUE: source <- $esi
	#DEBUG_VALUE: source <- $esi
	#DEBUG_VALUE: tag <- $edx
	#DEBUG_VALUE: tag <- $edx
	#DEBUG_VALUE: status <- $rcx
	#DEBUG_VALUE: status <- $rcx
	.loc	12 142 1 prologue_end   # /usr/lib/x86_64-linux-gnu/openmpi/include/openmpi/ompi/mpi/cxx/comm_inln.h:142:1
	movq	8(%rdi), %rax
	addq	$8, %rcx
.Ltmp465:
	movl	%esi, %edi
.Ltmp466:
	#DEBUG_VALUE: source <- $edi
	#DEBUG_VALUE: Probe:source <- $edi
	movl	%edx, %esi
.Ltmp467:
	#DEBUG_VALUE: tag <- $esi
	#DEBUG_VALUE: Probe:tag <- $esi
	movq	%rax, %rdx
	popq	%rbp
	.cfi_def_cfa %rsp, 8
	jmp	MPI_Probe               # TAILCALL
.Ltmp468:
.Lfunc_end88:
	.size	_ZNK3MPI4Comm5ProbeEiiRNS_6StatusE, .Lfunc_end88-_ZNK3MPI4Comm5ProbeEiiRNS_6StatusE
	.cfi_endproc
                                        # -- End function
	.weak	_ZNK3MPI4Comm5ProbeEii  # -- Begin function _ZNK3MPI4Comm5ProbeEii
	.p2align	4, 0x90
	.type	_ZNK3MPI4Comm5ProbeEii,@function
_ZNK3MPI4Comm5ProbeEii:                 # @_ZNK3MPI4Comm5ProbeEii
.Lfunc_begin89:
	.loc	12 147 0                # /usr/lib/x86_64-linux-gnu/openmpi/include/openmpi/ompi/mpi/cxx/comm_inln.h:147:0
	.cfi_startproc
# %bb.0:                                # %L.entry
	#DEBUG_VALUE: Probe: <- $rdi
	#DEBUG_VALUE: Probe: <- $rdi
	#DEBUG_VALUE: Probe:source <- $esi
	#DEBUG_VALUE: Probe:source <- $esi
	#DEBUG_VALUE: Probe:tag <- $edx
	#DEBUG_VALUE: Probe:tag <- $edx
	pushq	%rbp
	.cfi_def_cfa_offset 16
	.cfi_offset %rbp, -16
	movq	%rsp, %rbp
	.cfi_def_cfa_register %rbp
.Ltmp469:
	#DEBUG_VALUE:  <- $rdi
	#DEBUG_VALUE:  <- $rdi
	#DEBUG_VALUE: source <- $esi
	#DEBUG_VALUE: source <- $esi
	#DEBUG_VALUE: tag <- $edx
	#DEBUG_VALUE: tag <- $edx
	.loc	12 148 1 prologue_end   # /usr/lib/x86_64-linux-gnu/openmpi/include/openmpi/ompi/mpi/cxx/comm_inln.h:148:1
	movq	8(%rdi), %rax
	movl	%esi, %edi
.Ltmp470:
	#DEBUG_VALUE: source <- $edi
	#DEBUG_VALUE: Probe:source <- $edi
	movl	%edx, %esi
.Ltmp471:
	#DEBUG_VALUE: tag <- $esi
	#DEBUG_VALUE: Probe:tag <- $esi
	movq	%rax, %rdx
	xorl	%ecx, %ecx
	popq	%rbp
	.cfi_def_cfa %rsp, 8
	jmp	MPI_Probe               # TAILCALL
.Ltmp472:
.Lfunc_end89:
	.size	_ZNK3MPI4Comm5ProbeEii, .Lfunc_end89-_ZNK3MPI4Comm5ProbeEii
	.cfi_endproc
                                        # -- End function
	.weak	_ZNK3MPI4Comm9Send_initEPKviRKNS_8DatatypeEii # -- Begin function _ZNK3MPI4Comm9Send_initEPKviRKNS_8DatatypeEii
	.p2align	4, 0x90
	.type	_ZNK3MPI4Comm9Send_initEPKviRKNS_8DatatypeEii,@function
_ZNK3MPI4Comm9Send_initEPKviRKNS_8DatatypeEii: # @_ZNK3MPI4Comm9Send_initEPKviRKNS_8DatatypeEii
.Lfunc_begin90:
	.loc	12 154 0                # /usr/lib/x86_64-linux-gnu/openmpi/include/openmpi/ompi/mpi/cxx/comm_inln.h:154:0
	.cfi_startproc
# %bb.0:                                # %L.entry
	#DEBUG_VALUE: Send_init: <- $rsi
	#DEBUG_VALUE: Send_init:buf <- $rdx
	#DEBUG_VALUE: Send_init:count <- $ecx
	#DEBUG_VALUE: Send_init:datatype <- $r8
	#DEBUG_VALUE: Send_init:dest <- $r9d
	pushq	%rbp
	.cfi_def_cfa_offset 16
	.cfi_offset %rbp, -16
	movq	%rsp, %rbp
	.cfi_def_cfa_register %rbp
	pushq	%rbx
	subq	$24, %rsp
	.cfi_offset %rbx, -24
	movl	%r9d, %r11d
	movq	%rdx, %rax
	movq	%rdi, %rbx
	movl	16(%rbp), %r10d
.Ltmp473:
	#DEBUG_VALUE: datatype <- $r8
	#DEBUG_VALUE:  <- $rsi
	#DEBUG_VALUE: tag <- $r10d
	#DEBUG_VALUE: dest <- $r11d
	#DEBUG_VALUE: count <- $ecx
	#DEBUG_VALUE: buf <- $rax
	#DEBUG_VALUE: Send_init:tag <- [DW_OP_plus_uconst 16] [$rbp+0]
	#DEBUG_VALUE: Send_init:dest <- $r11d
	#DEBUG_VALUE: Send_init:datatype <- $r8
	#DEBUG_VALUE: Send_init:count <- $ecx
	#DEBUG_VALUE: Send_init:buf <- $rax
	#DEBUG_VALUE: Send_init: <- $rsi
	.loc	12 90 1 prologue_end    # /usr/lib/x86_64-linux-gnu/openmpi/include/openmpi/ompi/mpi/cxx/comm_inln.h:90:1
	movq	8(%r8), %rdx
	movq	8(%rsi), %r9
.Ltmp474:
	#DEBUG_VALUE: request <- [DW_OP_constu 16, DW_OP_minus, DW_OP_deref] $rbp
	.loc	12 0 1 is_stmt 0        # /usr/lib/x86_64-linux-gnu/openmpi/include/openmpi/ompi/mpi/cxx/comm_inln.h:0:1
	leaq	-16(%rbp), %rsi
.Ltmp475:
	.loc	12 90 1                 # /usr/lib/x86_64-linux-gnu/openmpi/include/openmpi/ompi/mpi/cxx/comm_inln.h:90:1
	movq	%rsi, (%rsp)
	movq	%rax, %rdi
.Ltmp476:
	#DEBUG_VALUE: Send_init:buf <- $rdi
	movl	%ecx, %esi
.Ltmp477:
	#DEBUG_VALUE: Send_init:count <- $esi
	movl	%r11d, %ecx
.Ltmp478:
	#DEBUG_VALUE: Send_init:dest <- $ecx
	movl	%r10d, %r8d
.Ltmp479:
	callq	MPI_Send_init
.Ltmp480:
	.loc	12 175 1 is_stmt 1      # /usr/lib/x86_64-linux-gnu/openmpi/include/openmpi/ompi/mpi/cxx/comm_inln.h:175:1
	movq	-16(%rbp), %rax
.Ltmp481:
	#DEBUG_VALUE: request <- undef
	movq	%rax, 8(%rbx)
	movq	$_ZTVN3MPI8PrequestE+16, (%rbx)
	.loc	12 159 1                # /usr/lib/x86_64-linux-gnu/openmpi/include/openmpi/ompi/mpi/cxx/comm_inln.h:159:1
	movq	%rbx, %rax
	addq	$24, %rsp
	popq	%rbx
	popq	%rbp
	.cfi_def_cfa %rsp, 8
	retq
.Ltmp482:
.Lfunc_end90:
	.size	_ZNK3MPI4Comm9Send_initEPKviRKNS_8DatatypeEii, .Lfunc_end90-_ZNK3MPI4Comm9Send_initEPKviRKNS_8DatatypeEii
	.cfi_endproc
                                        # -- End function
	.weak	_ZNK3MPI4Comm10Bsend_initEPKviRKNS_8DatatypeEii # -- Begin function _ZNK3MPI4Comm10Bsend_initEPKviRKNS_8DatatypeEii
	.p2align	4, 0x90
	.type	_ZNK3MPI4Comm10Bsend_initEPKviRKNS_8DatatypeEii,@function
_ZNK3MPI4Comm10Bsend_initEPKviRKNS_8DatatypeEii: # @_ZNK3MPI4Comm10Bsend_initEPKviRKNS_8DatatypeEii
.Lfunc_begin91:
	.loc	12 164 0                # /usr/lib/x86_64-linux-gnu/openmpi/include/openmpi/ompi/mpi/cxx/comm_inln.h:164:0
	.cfi_startproc
# %bb.0:                                # %L.entry
	#DEBUG_VALUE: Bsend_init: <- $rsi
	#DEBUG_VALUE: Bsend_init:buf <- $rdx
	#DEBUG_VALUE: Bsend_init:count <- $ecx
	#DEBUG_VALUE: Bsend_init:datatype <- $r8
	#DEBUG_VALUE: Bsend_init:dest <- $r9d
	pushq	%rbp
	.cfi_def_cfa_offset 16
	.cfi_offset %rbp, -16
	movq	%rsp, %rbp
	.cfi_def_cfa_register %rbp
	pushq	%rbx
	subq	$24, %rsp
	.cfi_offset %rbx, -24
	movl	%r9d, %r11d
	movq	%rdx, %rax
	movq	%rdi, %rbx
	movl	16(%rbp), %r10d
.Ltmp483:
	#DEBUG_VALUE: datatype <- $r8
	#DEBUG_VALUE:  <- $rsi
	#DEBUG_VALUE: tag <- $r10d
	#DEBUG_VALUE: dest <- $r11d
	#DEBUG_VALUE: count <- $ecx
	#DEBUG_VALUE: buf <- $rax
	#DEBUG_VALUE: Bsend_init:tag <- [DW_OP_plus_uconst 16] [$rbp+0]
	#DEBUG_VALUE: Bsend_init:dest <- $r11d
	#DEBUG_VALUE: Bsend_init:datatype <- $r8
	#DEBUG_VALUE: Bsend_init:count <- $ecx
	#DEBUG_VALUE: Bsend_init:buf <- $rax
	#DEBUG_VALUE: Bsend_init: <- $rsi
	.loc	12 90 1 prologue_end    # /usr/lib/x86_64-linux-gnu/openmpi/include/openmpi/ompi/mpi/cxx/comm_inln.h:90:1
	movq	8(%r8), %rdx
	movq	8(%rsi), %r9
.Ltmp484:
	#DEBUG_VALUE: request <- [DW_OP_constu 16, DW_OP_minus, DW_OP_deref] $rbp
	.loc	12 0 1 is_stmt 0        # /usr/lib/x86_64-linux-gnu/openmpi/include/openmpi/ompi/mpi/cxx/comm_inln.h:0:1
	leaq	-16(%rbp), %rsi
.Ltmp485:
	.loc	12 90 1                 # /usr/lib/x86_64-linux-gnu/openmpi/include/openmpi/ompi/mpi/cxx/comm_inln.h:90:1
	movq	%rsi, (%rsp)
	movq	%rax, %rdi
.Ltmp486:
	#DEBUG_VALUE: Bsend_init:buf <- $rdi
	movl	%ecx, %esi
.Ltmp487:
	#DEBUG_VALUE: Bsend_init:count <- $esi
	movl	%r11d, %ecx
.Ltmp488:
	#DEBUG_VALUE: Bsend_init:dest <- $ecx
	movl	%r10d, %r8d
.Ltmp489:
	callq	MPI_Bsend_init
.Ltmp490:
	.loc	12 175 1 is_stmt 1      # /usr/lib/x86_64-linux-gnu/openmpi/include/openmpi/ompi/mpi/cxx/comm_inln.h:175:1
	movq	-16(%rbp), %rax
.Ltmp491:
	#DEBUG_VALUE: request <- undef
	movq	%rax, 8(%rbx)
	movq	$_ZTVN3MPI8PrequestE+16, (%rbx)
	.loc	12 169 1                # /usr/lib/x86_64-linux-gnu/openmpi/include/openmpi/ompi/mpi/cxx/comm_inln.h:169:1
	movq	%rbx, %rax
	addq	$24, %rsp
	popq	%rbx
	popq	%rbp
	.cfi_def_cfa %rsp, 8
	retq
.Ltmp492:
.Lfunc_end91:
	.size	_ZNK3MPI4Comm10Bsend_initEPKviRKNS_8DatatypeEii, .Lfunc_end91-_ZNK3MPI4Comm10Bsend_initEPKviRKNS_8DatatypeEii
	.cfi_endproc
                                        # -- End function
	.weak	_ZNK3MPI4Comm10Ssend_initEPKviRKNS_8DatatypeEii # -- Begin function _ZNK3MPI4Comm10Ssend_initEPKviRKNS_8DatatypeEii
	.p2align	4, 0x90
	.type	_ZNK3MPI4Comm10Ssend_initEPKviRKNS_8DatatypeEii,@function
_ZNK3MPI4Comm10Ssend_initEPKviRKNS_8DatatypeEii: # @_ZNK3MPI4Comm10Ssend_initEPKviRKNS_8DatatypeEii
.Lfunc_begin92:
	.loc	12 174 0                # /usr/lib/x86_64-linux-gnu/openmpi/include/openmpi/ompi/mpi/cxx/comm_inln.h:174:0
	.cfi_startproc
# %bb.0:                                # %L.entry
	#DEBUG_VALUE: Ssend_init: <- $rsi
	#DEBUG_VALUE: Ssend_init:buf <- $rdx
	#DEBUG_VALUE: Ssend_init:count <- $ecx
	#DEBUG_VALUE: Ssend_init:datatype <- $r8
	#DEBUG_VALUE: Ssend_init:dest <- $r9d
	pushq	%rbp
	.cfi_def_cfa_offset 16
	.cfi_offset %rbp, -16
	movq	%rsp, %rbp
	.cfi_def_cfa_register %rbp
	pushq	%rbx
	subq	$24, %rsp
	.cfi_offset %rbx, -24
	movl	%r9d, %r11d
	movq	%rdx, %rax
	movq	%rdi, %rbx
	movl	16(%rbp), %r10d
.Ltmp493:
	#DEBUG_VALUE: datatype <- $r8
	#DEBUG_VALUE:  <- $rsi
	#DEBUG_VALUE: tag <- $r10d
	#DEBUG_VALUE: dest <- $r11d
	#DEBUG_VALUE: count <- $ecx
	#DEBUG_VALUE: buf <- $rax
	#DEBUG_VALUE: Ssend_init:tag <- [DW_OP_plus_uconst 16] [$rbp+0]
	#DEBUG_VALUE: Ssend_init:dest <- $r11d
	#DEBUG_VALUE: Ssend_init:datatype <- $r8
	#DEBUG_VALUE: Ssend_init:count <- $ecx
	#DEBUG_VALUE: Ssend_init:buf <- $rax
	#DEBUG_VALUE: Ssend_init: <- $rsi
	.loc	12 90 1 prologue_end    # /usr/lib/x86_64-linux-gnu/openmpi/include/openmpi/ompi/mpi/cxx/comm_inln.h:90:1
	movq	8(%r8), %rdx
	movq	8(%rsi), %r9
.Ltmp494:
	#DEBUG_VALUE: request <- [DW_OP_constu 16, DW_OP_minus, DW_OP_deref] $rbp
	.loc	12 0 1 is_stmt 0        # /usr/lib/x86_64-linux-gnu/openmpi/include/openmpi/ompi/mpi/cxx/comm_inln.h:0:1
	leaq	-16(%rbp), %rsi
.Ltmp495:
	.loc	12 90 1                 # /usr/lib/x86_64-linux-gnu/openmpi/include/openmpi/ompi/mpi/cxx/comm_inln.h:90:1
	movq	%rsi, (%rsp)
	movq	%rax, %rdi
.Ltmp496:
	#DEBUG_VALUE: Ssend_init:buf <- $rdi
	movl	%ecx, %esi
.Ltmp497:
	#DEBUG_VALUE: Ssend_init:count <- $esi
	movl	%r11d, %ecx
.Ltmp498:
	#DEBUG_VALUE: Ssend_init:dest <- $ecx
	movl	%r10d, %r8d
.Ltmp499:
	callq	MPI_Ssend_init
.Ltmp500:
	.loc	12 175 1 is_stmt 1      # /usr/lib/x86_64-linux-gnu/openmpi/include/openmpi/ompi/mpi/cxx/comm_inln.h:175:1
	movq	-16(%rbp), %rax
.Ltmp501:
	#DEBUG_VALUE: request <- undef
	movq	%rax, 8(%rbx)
	movq	$_ZTVN3MPI8PrequestE+16, (%rbx)
	.loc	12 179 1                # /usr/lib/x86_64-linux-gnu/openmpi/include/openmpi/ompi/mpi/cxx/comm_inln.h:179:1
	movq	%rbx, %rax
	addq	$24, %rsp
	popq	%rbx
	popq	%rbp
	.cfi_def_cfa %rsp, 8
	retq
.Ltmp502:
.Lfunc_end92:
	.size	_ZNK3MPI4Comm10Ssend_initEPKviRKNS_8DatatypeEii, .Lfunc_end92-_ZNK3MPI4Comm10Ssend_initEPKviRKNS_8DatatypeEii
	.cfi_endproc
                                        # -- End function
	.weak	_ZNK3MPI4Comm10Rsend_initEPKviRKNS_8DatatypeEii # -- Begin function _ZNK3MPI4Comm10Rsend_initEPKviRKNS_8DatatypeEii
	.p2align	4, 0x90
	.type	_ZNK3MPI4Comm10Rsend_initEPKviRKNS_8DatatypeEii,@function
_ZNK3MPI4Comm10Rsend_initEPKviRKNS_8DatatypeEii: # @_ZNK3MPI4Comm10Rsend_initEPKviRKNS_8DatatypeEii
.Lfunc_begin93:
	.loc	12 184 0                # /usr/lib/x86_64-linux-gnu/openmpi/include/openmpi/ompi/mpi/cxx/comm_inln.h:184:0
	.cfi_startproc
# %bb.0:                                # %L.entry
	#DEBUG_VALUE: Rsend_init: <- $rsi
	#DEBUG_VALUE: Rsend_init:buf <- $rdx
	#DEBUG_VALUE: Rsend_init:count <- $ecx
	#DEBUG_VALUE: Rsend_init:datatype <- $r8
	#DEBUG_VALUE: Rsend_init:dest <- $r9d
	pushq	%rbp
	.cfi_def_cfa_offset 16
	.cfi_offset %rbp, -16
	movq	%rsp, %rbp
	.cfi_def_cfa_register %rbp
	pushq	%rbx
	subq	$24, %rsp
	.cfi_offset %rbx, -24
	movl	%r9d, %r11d
	movq	%rdx, %rax
	movq	%rdi, %rbx
	movl	16(%rbp), %r10d
.Ltmp503:
	#DEBUG_VALUE: datatype <- $r8
	#DEBUG_VALUE:  <- $rsi
	#DEBUG_VALUE: tag <- $r10d
	#DEBUG_VALUE: dest <- $r11d
	#DEBUG_VALUE: count <- $ecx
	#DEBUG_VALUE: buf <- $rax
	#DEBUG_VALUE: Rsend_init:tag <- [DW_OP_plus_uconst 16] [$rbp+0]
	#DEBUG_VALUE: Rsend_init:dest <- $r11d
	#DEBUG_VALUE: Rsend_init:datatype <- $r8
	#DEBUG_VALUE: Rsend_init:count <- $ecx
	#DEBUG_VALUE: Rsend_init:buf <- $rax
	#DEBUG_VALUE: Rsend_init: <- $rsi
	.loc	12 90 1 prologue_end    # /usr/lib/x86_64-linux-gnu/openmpi/include/openmpi/ompi/mpi/cxx/comm_inln.h:90:1
	movq	8(%r8), %rdx
	movq	8(%rsi), %r9
.Ltmp504:
	#DEBUG_VALUE: request <- [DW_OP_constu 16, DW_OP_minus, DW_OP_deref] $rbp
	.loc	12 0 1 is_stmt 0        # /usr/lib/x86_64-linux-gnu/openmpi/include/openmpi/ompi/mpi/cxx/comm_inln.h:0:1
	leaq	-16(%rbp), %rsi
.Ltmp505:
	.loc	12 90 1                 # /usr/lib/x86_64-linux-gnu/openmpi/include/openmpi/ompi/mpi/cxx/comm_inln.h:90:1
	movq	%rsi, (%rsp)
	movq	%rax, %rdi
.Ltmp506:
	#DEBUG_VALUE: Rsend_init:buf <- $rdi
	movl	%ecx, %esi
.Ltmp507:
	#DEBUG_VALUE: Rsend_init:count <- $esi
	movl	%r11d, %ecx
.Ltmp508:
	#DEBUG_VALUE: Rsend_init:dest <- $ecx
	movl	%r10d, %r8d
.Ltmp509:
	callq	MPI_Rsend_init
.Ltmp510:
	.loc	12 175 1 is_stmt 1      # /usr/lib/x86_64-linux-gnu/openmpi/include/openmpi/ompi/mpi/cxx/comm_inln.h:175:1
	movq	-16(%rbp), %rax
.Ltmp511:
	#DEBUG_VALUE: request <- undef
	movq	%rax, 8(%rbx)
	movq	$_ZTVN3MPI8PrequestE+16, (%rbx)
	.loc	12 189 1                # /usr/lib/x86_64-linux-gnu/openmpi/include/openmpi/ompi/mpi/cxx/comm_inln.h:189:1
	movq	%rbx, %rax
	addq	$24, %rsp
	popq	%rbx
	popq	%rbp
	.cfi_def_cfa %rsp, 8
	retq
.Ltmp512:
.Lfunc_end93:
	.size	_ZNK3MPI4Comm10Rsend_initEPKviRKNS_8DatatypeEii, .Lfunc_end93-_ZNK3MPI4Comm10Rsend_initEPKviRKNS_8DatatypeEii
	.cfi_endproc
                                        # -- End function
	.weak	_ZNK3MPI4Comm9Recv_initEPviRKNS_8DatatypeEii # -- Begin function _ZNK3MPI4Comm9Recv_initEPviRKNS_8DatatypeEii
	.p2align	4, 0x90
	.type	_ZNK3MPI4Comm9Recv_initEPviRKNS_8DatatypeEii,@function
_ZNK3MPI4Comm9Recv_initEPviRKNS_8DatatypeEii: # @_ZNK3MPI4Comm9Recv_initEPviRKNS_8DatatypeEii
.Lfunc_begin94:
	.loc	12 194 0                # /usr/lib/x86_64-linux-gnu/openmpi/include/openmpi/ompi/mpi/cxx/comm_inln.h:194:0
	.cfi_startproc
# %bb.0:                                # %L.entry
	#DEBUG_VALUE: Recv_init: <- $rsi
	#DEBUG_VALUE: Recv_init:buf <- $rdx
	#DEBUG_VALUE: Recv_init:count <- $ecx
	#DEBUG_VALUE: Recv_init:datatype <- $r8
	#DEBUG_VALUE: Recv_init:source <- $r9d
	pushq	%rbp
	.cfi_def_cfa_offset 16
	.cfi_offset %rbp, -16
	movq	%rsp, %rbp
	.cfi_def_cfa_register %rbp
	pushq	%rbx
	subq	$24, %rsp
	.cfi_offset %rbx, -24
	movl	%r9d, %r11d
	movq	%rdx, %rax
	movq	%rdi, %rbx
	movl	16(%rbp), %r10d
.Ltmp513:
	#DEBUG_VALUE: datatype <- $r8
	#DEBUG_VALUE:  <- $rsi
	#DEBUG_VALUE: tag <- $r10d
	#DEBUG_VALUE: source <- $r11d
	#DEBUG_VALUE: count <- $ecx
	#DEBUG_VALUE: buf <- $rax
	#DEBUG_VALUE: Recv_init:tag <- [DW_OP_plus_uconst 16] [$rbp+0]
	#DEBUG_VALUE: Recv_init:source <- $r11d
	#DEBUG_VALUE: Recv_init:datatype <- $r8
	#DEBUG_VALUE: Recv_init:count <- $ecx
	#DEBUG_VALUE: Recv_init:buf <- $rax
	#DEBUG_VALUE: Recv_init: <- $rsi
	.loc	12 90 1 prologue_end    # /usr/lib/x86_64-linux-gnu/openmpi/include/openmpi/ompi/mpi/cxx/comm_inln.h:90:1
	movq	8(%r8), %rdx
	movq	8(%rsi), %r9
.Ltmp514:
	#DEBUG_VALUE: request <- [DW_OP_constu 16, DW_OP_minus, DW_OP_deref] $rbp
	.loc	12 0 1 is_stmt 0        # /usr/lib/x86_64-linux-gnu/openmpi/include/openmpi/ompi/mpi/cxx/comm_inln.h:0:1
	leaq	-16(%rbp), %rsi
.Ltmp515:
	.loc	12 90 1                 # /usr/lib/x86_64-linux-gnu/openmpi/include/openmpi/ompi/mpi/cxx/comm_inln.h:90:1
	movq	%rsi, (%rsp)
	movq	%rax, %rdi
.Ltmp516:
	#DEBUG_VALUE: Recv_init:buf <- $rdi
	movl	%ecx, %esi
.Ltmp517:
	#DEBUG_VALUE: Recv_init:count <- $esi
	movl	%r11d, %ecx
.Ltmp518:
	#DEBUG_VALUE: Recv_init:source <- $ecx
	movl	%r10d, %r8d
.Ltmp519:
	callq	MPI_Recv_init
.Ltmp520:
	.loc	12 175 1 is_stmt 1      # /usr/lib/x86_64-linux-gnu/openmpi/include/openmpi/ompi/mpi/cxx/comm_inln.h:175:1
	movq	-16(%rbp), %rax
.Ltmp521:
	#DEBUG_VALUE: request <- undef
	movq	%rax, 8(%rbx)
	movq	$_ZTVN3MPI8PrequestE+16, (%rbx)
	.loc	12 199 1                # /usr/lib/x86_64-linux-gnu/openmpi/include/openmpi/ompi/mpi/cxx/comm_inln.h:199:1
	movq	%rbx, %rax
	addq	$24, %rsp
	popq	%rbx
	popq	%rbp
	.cfi_def_cfa %rsp, 8
	retq
.Ltmp522:
.Lfunc_end94:
	.size	_ZNK3MPI4Comm9Recv_initEPviRKNS_8DatatypeEii, .Lfunc_end94-_ZNK3MPI4Comm9Recv_initEPviRKNS_8DatatypeEii
	.cfi_endproc
                                        # -- End function
	.weak	_ZNK3MPI4Comm8SendrecvEPKviRKNS_8DatatypeEiiPviS5_iiRNS_6StatusE # -- Begin function _ZNK3MPI4Comm8SendrecvEPKviRKNS_8DatatypeEiiPviS5_iiRNS_6StatusE
	.p2align	4, 0x90
	.type	_ZNK3MPI4Comm8SendrecvEPKviRKNS_8DatatypeEiiPviS5_iiRNS_6StatusE,@function
_ZNK3MPI4Comm8SendrecvEPKviRKNS_8DatatypeEiiPviS5_iiRNS_6StatusE: # @_ZNK3MPI4Comm8SendrecvEPKviRKNS_8DatatypeEiiPviS5_iiRNS_6StatusE
.Lfunc_begin95:
	.loc	12 207 0                # /usr/lib/x86_64-linux-gnu/openmpi/include/openmpi/ompi/mpi/cxx/comm_inln.h:207:0
	.cfi_startproc
# %bb.0:                                # %L.entry
	#DEBUG_VALUE: Sendrecv: <- $rdi
	#DEBUG_VALUE: Sendrecv:sendbuf <- $rsi
	#DEBUG_VALUE: Sendrecv:sendcount <- $edx
	#DEBUG_VALUE: Sendrecv:sendtype <- $rcx
	#DEBUG_VALUE: Sendrecv:dest <- $r8d
	#DEBUG_VALUE: Sendrecv:sendtag <- $r9d
	pushq	%rbp
	.cfi_def_cfa_offset 16
	.cfi_offset %rbp, -16
	movq	%rsp, %rbp
	.cfi_def_cfa_register %rbp
	pushq	%r15
	pushq	%r14
	pushq	%r12
	pushq	%rbx
	.cfi_offset %rbx, -48
	.cfi_offset %r12, -40
	.cfi_offset %r14, -32
	.cfi_offset %r15, -24
.Ltmp523:
	#DEBUG_VALUE:  <- $rdi
	#DEBUG_VALUE: sendbuf <- $rsi
	#DEBUG_VALUE: sendcount <- $edx
	#DEBUG_VALUE: sendtype <- $rcx
	#DEBUG_VALUE: dest <- $r8d
	#DEBUG_VALUE: sendtag <- $r9d
	movl	%r9d, %r10d
	movq	%rdi, %rax
	movq	16(%rbp), %r9
.Ltmp524:
	movl	24(%rbp), %r11d
	movl	40(%rbp), %r14d
	movl	48(%rbp), %r15d
	movq	56(%rbp), %rbx
	movq	32(%rbp), %r12
.Ltmp525:
	#DEBUG_VALUE: status <- [DW_OP_plus_uconst 56] [$rbp+0]
	#DEBUG_VALUE: Sendrecv:status <- [DW_OP_plus_uconst 56] [$rbp+0]
	#DEBUG_VALUE: recvtag <- [DW_OP_plus_uconst 48] [$rbp+0]
	#DEBUG_VALUE: Sendrecv:recvtag <- [DW_OP_plus_uconst 48] [$rbp+0]
	#DEBUG_VALUE: source <- [DW_OP_plus_uconst 40] [$rbp+0]
	#DEBUG_VALUE: Sendrecv:source <- [DW_OP_plus_uconst 40] [$rbp+0]
	#DEBUG_VALUE: recvtype <- [DW_OP_plus_uconst 32] [$rbp+0]
	#DEBUG_VALUE: Sendrecv:recvtype <- [DW_OP_plus_uconst 32] [$rbp+0]
	#DEBUG_VALUE: recvcount <- [DW_OP_plus_uconst 24] [$rbp+0]
	#DEBUG_VALUE: Sendrecv:recvcount <- [DW_OP_plus_uconst 24] [$rbp+0]
	#DEBUG_VALUE: recvbuf <- [DW_OP_plus_uconst 16] [$rbp+0]
	#DEBUG_VALUE: Sendrecv:recvbuf <- [DW_OP_plus_uconst 16] [$rbp+0]
	#DEBUG_VALUE: sendtag <- $r10d
	#DEBUG_VALUE: Sendrecv:sendtag <- $r10d
	#DEBUG_VALUE: dest <- $r8d
	#DEBUG_VALUE: Sendrecv:dest <- $r8d
	#DEBUG_VALUE: sendtype <- $rcx
	#DEBUG_VALUE: Sendrecv:sendtype <- $rcx
	#DEBUG_VALUE: sendcount <- $edx
	#DEBUG_VALUE: Sendrecv:sendcount <- $edx
	#DEBUG_VALUE: sendbuf <- $rsi
	#DEBUG_VALUE: Sendrecv:sendbuf <- $rsi
	#DEBUG_VALUE:  <- $rax
	#DEBUG_VALUE: Sendrecv: <- $rax
	.loc	12 90 1 prologue_end    # /usr/lib/x86_64-linux-gnu/openmpi/include/openmpi/ompi/mpi/cxx/comm_inln.h:90:1
	movq	8(%rcx), %rcx
.Ltmp526:
	addq	$8, %rbx
	movq	%rsi, %rdi
.Ltmp527:
	#DEBUG_VALUE: sendbuf <- $rdi
	#DEBUG_VALUE: Sendrecv:sendbuf <- $rdi
	movl	%edx, %esi
.Ltmp528:
	#DEBUG_VALUE: sendcount <- $esi
	#DEBUG_VALUE: Sendrecv:sendcount <- $esi
	movq	%rcx, %rdx
	movl	%r8d, %ecx
.Ltmp529:
	#DEBUG_VALUE: dest <- $ecx
	#DEBUG_VALUE: Sendrecv:dest <- $ecx
	movl	%r10d, %r8d
.Ltmp530:
	#DEBUG_VALUE: sendtag <- $r8d
	#DEBUG_VALUE: Sendrecv:sendtag <- $r8d
	pushq	%rbx
	pushq	8(%rax)
	pushq	%r15
	pushq	%r14
	pushq	8(%r12)
	pushq	%r11
	callq	MPI_Sendrecv
.Ltmp531:
	addq	$48, %rsp
	.loc	12 213 1                # /usr/lib/x86_64-linux-gnu/openmpi/include/openmpi/ompi/mpi/cxx/comm_inln.h:213:1
	popq	%rbx
	popq	%r12
	popq	%r14
	popq	%r15
	popq	%rbp
	.cfi_def_cfa %rsp, 8
	retq
.Ltmp532:
.Lfunc_end95:
	.size	_ZNK3MPI4Comm8SendrecvEPKviRKNS_8DatatypeEiiPviS5_iiRNS_6StatusE, .Lfunc_end95-_ZNK3MPI4Comm8SendrecvEPKviRKNS_8DatatypeEiiPviS5_iiRNS_6StatusE
	.cfi_endproc
                                        # -- End function
	.weak	_ZNK3MPI4Comm8SendrecvEPKviRKNS_8DatatypeEiiPviS5_ii # -- Begin function _ZNK3MPI4Comm8SendrecvEPKviRKNS_8DatatypeEiiPviS5_ii
	.p2align	4, 0x90
	.type	_ZNK3MPI4Comm8SendrecvEPKviRKNS_8DatatypeEiiPviS5_ii,@function
_ZNK3MPI4Comm8SendrecvEPKviRKNS_8DatatypeEiiPviS5_ii: # @_ZNK3MPI4Comm8SendrecvEPKviRKNS_8DatatypeEiiPviS5_ii
.Lfunc_begin96:
	.loc	12 221 0                # /usr/lib/x86_64-linux-gnu/openmpi/include/openmpi/ompi/mpi/cxx/comm_inln.h:221:0
	.cfi_startproc
# %bb.0:                                # %L.entry
	#DEBUG_VALUE: Sendrecv: <- $rdi
	#DEBUG_VALUE: Sendrecv:sendbuf <- $rsi
	#DEBUG_VALUE: Sendrecv:sendcount <- $edx
	#DEBUG_VALUE: Sendrecv:sendtype <- $rcx
	#DEBUG_VALUE: Sendrecv:dest <- $r8d
	#DEBUG_VALUE: Sendrecv:sendtag <- $r9d
	pushq	%rbp
	.cfi_def_cfa_offset 16
	.cfi_offset %rbp, -16
	movq	%rsp, %rbp
	.cfi_def_cfa_register %rbp
	pushq	%r15
	pushq	%r14
	pushq	%rbx
	pushq	%rax
	.cfi_offset %rbx, -40
	.cfi_offset %r14, -32
	.cfi_offset %r15, -24
.Ltmp533:
	#DEBUG_VALUE:  <- $rdi
	#DEBUG_VALUE: sendbuf <- $rsi
	#DEBUG_VALUE: sendcount <- $edx
	#DEBUG_VALUE: sendtype <- $rcx
	#DEBUG_VALUE: dest <- $r8d
	#DEBUG_VALUE: sendtag <- $r9d
	movl	%r9d, %r10d
	movq	%rdi, %rax
	movq	16(%rbp), %r9
.Ltmp534:
	movl	24(%rbp), %r11d
	movl	40(%rbp), %r14d
	movl	48(%rbp), %ebx
	movq	32(%rbp), %r15
.Ltmp535:
	#DEBUG_VALUE: recvtag <- [DW_OP_plus_uconst 48] [$rbp+0]
	#DEBUG_VALUE: Sendrecv:recvtag <- [DW_OP_plus_uconst 48] [$rbp+0]
	#DEBUG_VALUE: source <- [DW_OP_plus_uconst 40] [$rbp+0]
	#DEBUG_VALUE: Sendrecv:source <- [DW_OP_plus_uconst 40] [$rbp+0]
	#DEBUG_VALUE: recvtype <- [DW_OP_plus_uconst 32] [$rbp+0]
	#DEBUG_VALUE: Sendrecv:recvtype <- [DW_OP_plus_uconst 32] [$rbp+0]
	#DEBUG_VALUE: recvcount <- [DW_OP_plus_uconst 24] [$rbp+0]
	#DEBUG_VALUE: Sendrecv:recvcount <- [DW_OP_plus_uconst 24] [$rbp+0]
	#DEBUG_VALUE: recvbuf <- [DW_OP_plus_uconst 16] [$rbp+0]
	#DEBUG_VALUE: Sendrecv:recvbuf <- [DW_OP_plus_uconst 16] [$rbp+0]
	#DEBUG_VALUE: sendtag <- $r10d
	#DEBUG_VALUE: Sendrecv:sendtag <- $r10d
	#DEBUG_VALUE: dest <- $r8d
	#DEBUG_VALUE: Sendrecv:dest <- $r8d
	#DEBUG_VALUE: sendtype <- $rcx
	#DEBUG_VALUE: Sendrecv:sendtype <- $rcx
	#DEBUG_VALUE: sendcount <- $edx
	#DEBUG_VALUE: Sendrecv:sendcount <- $edx
	#DEBUG_VALUE: sendbuf <- $rsi
	#DEBUG_VALUE: Sendrecv:sendbuf <- $rsi
	#DEBUG_VALUE:  <- $rax
	#DEBUG_VALUE: Sendrecv: <- $rax
	.loc	12 90 1 prologue_end    # /usr/lib/x86_64-linux-gnu/openmpi/include/openmpi/ompi/mpi/cxx/comm_inln.h:90:1
	movq	8(%rcx), %rcx
.Ltmp536:
	movq	%rsi, %rdi
.Ltmp537:
	#DEBUG_VALUE: sendbuf <- $rdi
	#DEBUG_VALUE: Sendrecv:sendbuf <- $rdi
	movl	%edx, %esi
.Ltmp538:
	#DEBUG_VALUE: sendcount <- $esi
	#DEBUG_VALUE: Sendrecv:sendcount <- $esi
	movq	%rcx, %rdx
	movl	%r8d, %ecx
.Ltmp539:
	#DEBUG_VALUE: dest <- $ecx
	#DEBUG_VALUE: Sendrecv:dest <- $ecx
	movl	%r10d, %r8d
.Ltmp540:
	#DEBUG_VALUE: sendtag <- $r8d
	#DEBUG_VALUE: Sendrecv:sendtag <- $r8d
	pushq	$0
	pushq	8(%rax)
	pushq	%rbx
	pushq	%r14
	pushq	8(%r15)
	pushq	%r11
	callq	MPI_Sendrecv
.Ltmp541:
	.loc	12 227 1                # /usr/lib/x86_64-linux-gnu/openmpi/include/openmpi/ompi/mpi/cxx/comm_inln.h:227:1
	addq	$56, %rsp
	popq	%rbx
	popq	%r14
	popq	%r15
	popq	%rbp
	.cfi_def_cfa %rsp, 8
	retq
.Ltmp542:
.Lfunc_end96:
	.size	_ZNK3MPI4Comm8SendrecvEPKviRKNS_8DatatypeEiiPviS5_ii, .Lfunc_end96-_ZNK3MPI4Comm8SendrecvEPKviRKNS_8DatatypeEiiPviS5_ii
	.cfi_endproc
                                        # -- End function
	.weak	_ZNK3MPI4Comm16Sendrecv_replaceEPviRKNS_8DatatypeEiiiiRNS_6StatusE # -- Begin function _ZNK3MPI4Comm16Sendrecv_replaceEPviRKNS_8DatatypeEiiiiRNS_6StatusE
	.p2align	4, 0x90
	.type	_ZNK3MPI4Comm16Sendrecv_replaceEPviRKNS_8DatatypeEiiiiRNS_6StatusE,@function
_ZNK3MPI4Comm16Sendrecv_replaceEPviRKNS_8DatatypeEiiiiRNS_6StatusE: # @_ZNK3MPI4Comm16Sendrecv_replaceEPviRKNS_8DatatypeEiiiiRNS_6StatusE
.Lfunc_begin97:
	.loc	12 234 0                # /usr/lib/x86_64-linux-gnu/openmpi/include/openmpi/ompi/mpi/cxx/comm_inln.h:234:0
	.cfi_startproc
# %bb.0:                                # %L.entry
	#DEBUG_VALUE: Sendrecv_replace: <- $rdi
	#DEBUG_VALUE: Sendrecv_replace:buf <- $rsi
	#DEBUG_VALUE: Sendrecv_replace:count <- $edx
	#DEBUG_VALUE: Sendrecv_replace:datatype <- $rcx
	#DEBUG_VALUE: Sendrecv_replace:dest <- $r8d
	#DEBUG_VALUE: Sendrecv_replace:sendtag <- $r9d
	pushq	%rbp
	.cfi_def_cfa_offset 16
	.cfi_offset %rbp, -16
	movq	%rsp, %rbp
	.cfi_def_cfa_register %rbp
	pushq	%rbx
	pushq	%rax
	.cfi_offset %rbx, -24
.Ltmp543:
	#DEBUG_VALUE:  <- $rdi
	#DEBUG_VALUE: buf <- $rsi
	#DEBUG_VALUE: count <- $edx
	#DEBUG_VALUE: datatype <- $rcx
	#DEBUG_VALUE: dest <- $r8d
	#DEBUG_VALUE: sendtag <- $r9d
	movl	%r9d, %r10d
	movq	%rdi, %rax
	movl	16(%rbp), %r9d
.Ltmp544:
	movl	24(%rbp), %r11d
	movq	32(%rbp), %rbx
.Ltmp545:
	#DEBUG_VALUE: status <- [DW_OP_plus_uconst 32] [$rbp+0]
	#DEBUG_VALUE: Sendrecv_replace:status <- [DW_OP_plus_uconst 32] [$rbp+0]
	#DEBUG_VALUE: recvtag <- [DW_OP_plus_uconst 24] [$rbp+0]
	#DEBUG_VALUE: Sendrecv_replace:recvtag <- [DW_OP_plus_uconst 24] [$rbp+0]
	#DEBUG_VALUE: source <- [DW_OP_plus_uconst 16] [$rbp+0]
	#DEBUG_VALUE: Sendrecv_replace:source <- [DW_OP_plus_uconst 16] [$rbp+0]
	#DEBUG_VALUE: sendtag <- $r10d
	#DEBUG_VALUE: Sendrecv_replace:sendtag <- $r10d
	#DEBUG_VALUE: dest <- $r8d
	#DEBUG_VALUE: Sendrecv_replace:dest <- $r8d
	#DEBUG_VALUE: datatype <- $rcx
	#DEBUG_VALUE: Sendrecv_replace:datatype <- $rcx
	#DEBUG_VALUE: count <- $edx
	#DEBUG_VALUE: Sendrecv_replace:count <- $edx
	#DEBUG_VALUE: buf <- $rsi
	#DEBUG_VALUE: Sendrecv_replace:buf <- $rsi
	#DEBUG_VALUE:  <- $rax
	#DEBUG_VALUE: Sendrecv_replace: <- $rax
	.loc	12 90 1 prologue_end    # /usr/lib/x86_64-linux-gnu/openmpi/include/openmpi/ompi/mpi/cxx/comm_inln.h:90:1
	movq	8(%rcx), %rcx
.Ltmp546:
	addq	$8, %rbx
	subq	$8, %rsp
	movq	%rsi, %rdi
.Ltmp547:
	#DEBUG_VALUE: buf <- $rdi
	#DEBUG_VALUE: Sendrecv_replace:buf <- $rdi
	movl	%edx, %esi
.Ltmp548:
	#DEBUG_VALUE: count <- $esi
	#DEBUG_VALUE: Sendrecv_replace:count <- $esi
	movq	%rcx, %rdx
	movl	%r8d, %ecx
.Ltmp549:
	#DEBUG_VALUE: dest <- $ecx
	#DEBUG_VALUE: Sendrecv_replace:dest <- $ecx
	movl	%r10d, %r8d
.Ltmp550:
	#DEBUG_VALUE: sendtag <- $r8d
	#DEBUG_VALUE: Sendrecv_replace:sendtag <- $r8d
	pushq	%rbx
	pushq	8(%rax)
	pushq	%r11
	callq	MPI_Sendrecv_replace
.Ltmp551:
	.loc	12 238 1                # /usr/lib/x86_64-linux-gnu/openmpi/include/openmpi/ompi/mpi/cxx/comm_inln.h:238:1
	addq	$40, %rsp
	popq	%rbx
	popq	%rbp
	.cfi_def_cfa %rsp, 8
	retq
.Ltmp552:
.Lfunc_end97:
	.size	_ZNK3MPI4Comm16Sendrecv_replaceEPviRKNS_8DatatypeEiiiiRNS_6StatusE, .Lfunc_end97-_ZNK3MPI4Comm16Sendrecv_replaceEPviRKNS_8DatatypeEiiiiRNS_6StatusE
	.cfi_endproc
                                        # -- End function
	.weak	_ZNK3MPI4Comm16Sendrecv_replaceEPviRKNS_8DatatypeEiiii # -- Begin function _ZNK3MPI4Comm16Sendrecv_replaceEPviRKNS_8DatatypeEiiii
	.p2align	4, 0x90
	.type	_ZNK3MPI4Comm16Sendrecv_replaceEPviRKNS_8DatatypeEiiii,@function
_ZNK3MPI4Comm16Sendrecv_replaceEPviRKNS_8DatatypeEiiii: # @_ZNK3MPI4Comm16Sendrecv_replaceEPviRKNS_8DatatypeEiiii
.Lfunc_begin98:
	.loc	12 245 0                # /usr/lib/x86_64-linux-gnu/openmpi/include/openmpi/ompi/mpi/cxx/comm_inln.h:245:0
	.cfi_startproc
# %bb.0:                                # %L.entry
	#DEBUG_VALUE: Sendrecv_replace: <- $rdi
	#DEBUG_VALUE: Sendrecv_replace:buf <- $rsi
	#DEBUG_VALUE: Sendrecv_replace:count <- $edx
	#DEBUG_VALUE: Sendrecv_replace:datatype <- $rcx
	#DEBUG_VALUE: Sendrecv_replace:dest <- $r8d
	#DEBUG_VALUE: Sendrecv_replace:sendtag <- $r9d
	pushq	%rbp
	.cfi_def_cfa_offset 16
	.cfi_offset %rbp, -16
	movq	%rsp, %rbp
	.cfi_def_cfa_register %rbp
.Ltmp553:
	#DEBUG_VALUE:  <- $rdi
	#DEBUG_VALUE: buf <- $rsi
	#DEBUG_VALUE: count <- $edx
	#DEBUG_VALUE: datatype <- $rcx
	#DEBUG_VALUE: dest <- $r8d
	#DEBUG_VALUE: sendtag <- $r9d
	movl	%r9d, %r10d
	movq	%rdi, %rax
	movl	16(%rbp), %r9d
.Ltmp554:
	movl	24(%rbp), %r11d
.Ltmp555:
	#DEBUG_VALUE: recvtag <- [DW_OP_plus_uconst 24] [$rbp+0]
	#DEBUG_VALUE: Sendrecv_replace:recvtag <- [DW_OP_plus_uconst 24] [$rbp+0]
	#DEBUG_VALUE: source <- [DW_OP_plus_uconst 16] [$rbp+0]
	#DEBUG_VALUE: Sendrecv_replace:source <- [DW_OP_plus_uconst 16] [$rbp+0]
	#DEBUG_VALUE: sendtag <- $r10d
	#DEBUG_VALUE: Sendrecv_replace:sendtag <- $r10d
	#DEBUG_VALUE: dest <- $r8d
	#DEBUG_VALUE: Sendrecv_replace:dest <- $r8d
	#DEBUG_VALUE: datatype <- $rcx
	#DEBUG_VALUE: Sendrecv_replace:datatype <- $rcx
	#DEBUG_VALUE: count <- $edx
	#DEBUG_VALUE: Sendrecv_replace:count <- $edx
	#DEBUG_VALUE: buf <- $rsi
	#DEBUG_VALUE: Sendrecv_replace:buf <- $rsi
	#DEBUG_VALUE:  <- $rax
	#DEBUG_VALUE: Sendrecv_replace: <- $rax
	.loc	12 90 1 prologue_end    # /usr/lib/x86_64-linux-gnu/openmpi/include/openmpi/ompi/mpi/cxx/comm_inln.h:90:1
	movq	8(%rcx), %rcx
.Ltmp556:
	subq	$8, %rsp
	movq	%rsi, %rdi
.Ltmp557:
	#DEBUG_VALUE: buf <- $rdi
	#DEBUG_VALUE: Sendrecv_replace:buf <- $rdi
	movl	%edx, %esi
.Ltmp558:
	#DEBUG_VALUE: count <- $esi
	#DEBUG_VALUE: Sendrecv_replace:count <- $esi
	movq	%rcx, %rdx
	movl	%r8d, %ecx
.Ltmp559:
	#DEBUG_VALUE: dest <- $ecx
	#DEBUG_VALUE: Sendrecv_replace:dest <- $ecx
	movl	%r10d, %r8d
.Ltmp560:
	#DEBUG_VALUE: sendtag <- $r8d
	#DEBUG_VALUE: Sendrecv_replace:sendtag <- $r8d
	pushq	$0
	pushq	8(%rax)
	pushq	%r11
	callq	MPI_Sendrecv_replace
.Ltmp561:
	addq	$32, %rsp
	.loc	12 249 1                # /usr/lib/x86_64-linux-gnu/openmpi/include/openmpi/ompi/mpi/cxx/comm_inln.h:249:1
	popq	%rbp
	.cfi_def_cfa %rsp, 8
	retq
.Ltmp562:
.Lfunc_end98:
	.size	_ZNK3MPI4Comm16Sendrecv_replaceEPviRKNS_8DatatypeEiiii, .Lfunc_end98-_ZNK3MPI4Comm16Sendrecv_replaceEPviRKNS_8DatatypeEiiii
	.cfi_endproc
                                        # -- End function
	.weak	_ZNK3MPI4Comm9Get_groupEv # -- Begin function _ZNK3MPI4Comm9Get_groupEv
	.p2align	4, 0x90
	.type	_ZNK3MPI4Comm9Get_groupEv,@function
_ZNK3MPI4Comm9Get_groupEv:              # @_ZNK3MPI4Comm9Get_groupEv
.Lfunc_begin99:
	.loc	12 257 0                # /usr/lib/x86_64-linux-gnu/openmpi/include/openmpi/ompi/mpi/cxx/comm_inln.h:257:0
	.cfi_startproc
# %bb.0:                                # %L.entry
	#DEBUG_VALUE: Get_group: <- $rsi
	pushq	%rbp
	.cfi_def_cfa_offset 16
	.cfi_offset %rbp, -16
	movq	%rsp, %rbp
	.cfi_def_cfa_register %rbp
	pushq	%rbx
	pushq	%rax
	.cfi_offset %rbx, -24
	movq	%rdi, %rbx
.Ltmp563:
	#DEBUG_VALUE:  <- $rsi
	#DEBUG_VALUE: Get_group: <- $rsi
	.loc	12 259 1 prologue_end   # /usr/lib/x86_64-linux-gnu/openmpi/include/openmpi/ompi/mpi/cxx/comm_inln.h:259:1
	movq	8(%rsi), %rdi
.Ltmp564:
	#DEBUG_VALUE: group <- [DW_OP_constu 16, DW_OP_minus, DW_OP_deref] $rbp
	.loc	12 0 1 is_stmt 0        # /usr/lib/x86_64-linux-gnu/openmpi/include/openmpi/ompi/mpi/cxx/comm_inln.h:0:1
	leaq	-16(%rbp), %rsi
.Ltmp565:
	.loc	12 259 1                # /usr/lib/x86_64-linux-gnu/openmpi/include/openmpi/ompi/mpi/cxx/comm_inln.h:259:1
	callq	MPI_Comm_group
	.loc	12 260 1 is_stmt 1      # /usr/lib/x86_64-linux-gnu/openmpi/include/openmpi/ompi/mpi/cxx/comm_inln.h:260:1
	movq	-16(%rbp), %rax
.Ltmp566:
	#DEBUG_VALUE: group <- undef
	movq	$_ZTVN3MPI5GroupE+16, (%rbx)
	.loc	12 62 1                 # /usr/lib/x86_64-linux-gnu/openmpi/include/openmpi/ompi/mpi/cxx/comm_inln.h:62:1
	movq	%rax, 8(%rbx)
	.loc	12 261 1                # /usr/lib/x86_64-linux-gnu/openmpi/include/openmpi/ompi/mpi/cxx/comm_inln.h:261:1
	movq	%rbx, %rax
	addq	$8, %rsp
	popq	%rbx
	popq	%rbp
	.cfi_def_cfa %rsp, 8
	retq
.Ltmp567:
.Lfunc_end99:
	.size	_ZNK3MPI4Comm9Get_groupEv, .Lfunc_end99-_ZNK3MPI4Comm9Get_groupEv
	.cfi_endproc
                                        # -- End function
	.weak	_ZNK3MPI4Comm8Get_sizeEv # -- Begin function _ZNK3MPI4Comm8Get_sizeEv
	.p2align	4, 0x90
	.type	_ZNK3MPI4Comm8Get_sizeEv,@function
_ZNK3MPI4Comm8Get_sizeEv:               # @_ZNK3MPI4Comm8Get_sizeEv
.Lfunc_begin100:
	.loc	12 265 0                # /usr/lib/x86_64-linux-gnu/openmpi/include/openmpi/ompi/mpi/cxx/comm_inln.h:265:0
	.cfi_startproc
# %bb.0:                                # %L.entry
	#DEBUG_VALUE: Get_size: <- $rdi
	#DEBUG_VALUE: Get_size: <- $rdi
	pushq	%rbp
	.cfi_def_cfa_offset 16
	.cfi_offset %rbp, -16
	movq	%rsp, %rbp
	.cfi_def_cfa_register %rbp
	subq	$16, %rsp
.Ltmp568:
	#DEBUG_VALUE:  <- $rdi
	.loc	12 267 1 prologue_end   # /usr/lib/x86_64-linux-gnu/openmpi/include/openmpi/ompi/mpi/cxx/comm_inln.h:267:1
	movq	8(%rdi), %rdi
.Ltmp569:
	#DEBUG_VALUE: size <- [DW_OP_constu 4, DW_OP_minus, DW_OP_deref] $rbp
	.loc	12 0 1 is_stmt 0        # /usr/lib/x86_64-linux-gnu/openmpi/include/openmpi/ompi/mpi/cxx/comm_inln.h:0:1
	leaq	-4(%rbp), %rsi
	.loc	12 267 1                # /usr/lib/x86_64-linux-gnu/openmpi/include/openmpi/ompi/mpi/cxx/comm_inln.h:267:1
	callq	MPI_Comm_size
	.loc	12 268 1 is_stmt 1      # /usr/lib/x86_64-linux-gnu/openmpi/include/openmpi/ompi/mpi/cxx/comm_inln.h:268:1
	movl	-4(%rbp), %eax
.Ltmp570:
	#DEBUG_VALUE: size <- $eax
	addq	$16, %rsp
	popq	%rbp
	.cfi_def_cfa %rsp, 8
	retq
.Ltmp571:
.Lfunc_end100:
	.size	_ZNK3MPI4Comm8Get_sizeEv, .Lfunc_end100-_ZNK3MPI4Comm8Get_sizeEv
	.cfi_endproc
                                        # -- End function
	.weak	_ZNK3MPI4Comm8Get_rankEv # -- Begin function _ZNK3MPI4Comm8Get_rankEv
	.p2align	4, 0x90
	.type	_ZNK3MPI4Comm8Get_rankEv,@function
_ZNK3MPI4Comm8Get_rankEv:               # @_ZNK3MPI4Comm8Get_rankEv
.Lfunc_begin101:
	.loc	12 273 0                # /usr/lib/x86_64-linux-gnu/openmpi/include/openmpi/ompi/mpi/cxx/comm_inln.h:273:0
	.cfi_startproc
# %bb.0:                                # %L.entry
	#DEBUG_VALUE: Get_rank: <- $rdi
	#DEBUG_VALUE: Get_rank: <- $rdi
	pushq	%rbp
	.cfi_def_cfa_offset 16
	.cfi_offset %rbp, -16
	movq	%rsp, %rbp
	.cfi_def_cfa_register %rbp
	subq	$16, %rsp
.Ltmp572:
	#DEBUG_VALUE:  <- $rdi
	.loc	12 275 1 prologue_end   # /usr/lib/x86_64-linux-gnu/openmpi/include/openmpi/ompi/mpi/cxx/comm_inln.h:275:1
	movq	8(%rdi), %rdi
.Ltmp573:
	#DEBUG_VALUE: myrank <- [DW_OP_constu 4, DW_OP_minus, DW_OP_deref] $rbp
	.loc	12 0 1 is_stmt 0        # /usr/lib/x86_64-linux-gnu/openmpi/include/openmpi/ompi/mpi/cxx/comm_inln.h:0:1
	leaq	-4(%rbp), %rsi
	.loc	12 275 1                # /usr/lib/x86_64-linux-gnu/openmpi/include/openmpi/ompi/mpi/cxx/comm_inln.h:275:1
	callq	MPI_Comm_rank
	.loc	12 276 1 is_stmt 1      # /usr/lib/x86_64-linux-gnu/openmpi/include/openmpi/ompi/mpi/cxx/comm_inln.h:276:1
	movl	-4(%rbp), %eax
.Ltmp574:
	#DEBUG_VALUE: myrank <- $eax
	addq	$16, %rsp
	popq	%rbp
	.cfi_def_cfa %rsp, 8
	retq
.Ltmp575:
.Lfunc_end101:
	.size	_ZNK3MPI4Comm8Get_rankEv, .Lfunc_end101-_ZNK3MPI4Comm8Get_rankEv
	.cfi_endproc
                                        # -- End function
	.weak	_ZN3MPI4Comm4FreeEv     # -- Begin function _ZN3MPI4Comm4FreeEv
	.p2align	4, 0x90
	.type	_ZN3MPI4Comm4FreeEv,@function
_ZN3MPI4Comm4FreeEv:                    # @_ZN3MPI4Comm4FreeEv
.Lfunc_begin102:
	.loc	12 290 0                # /usr/lib/x86_64-linux-gnu/openmpi/include/openmpi/ompi/mpi/cxx/comm_inln.h:290:0
	.cfi_startproc
# %bb.0:                                # %L.entry
	#DEBUG_VALUE: Free: <- $rdi
	#DEBUG_VALUE: Free: <- $rdi
	pushq	%rbp
	.cfi_def_cfa_offset 16
	.cfi_offset %rbp, -16
	movq	%rsp, %rbp
	.cfi_def_cfa_register %rbp
.Ltmp576:
	#DEBUG_VALUE:  <- $rdi
	#DEBUG_VALUE:  <- $rdi
	.loc	12 291 1 prologue_end   # /usr/lib/x86_64-linux-gnu/openmpi/include/openmpi/ompi/mpi/cxx/comm_inln.h:291:1
	addq	$8, %rdi
.Ltmp577:
	popq	%rbp
	.cfi_def_cfa %rsp, 8
	jmp	MPI_Comm_free           # TAILCALL
.Ltmp578:
.Lfunc_end102:
	.size	_ZN3MPI4Comm4FreeEv, .Lfunc_end102-_ZN3MPI4Comm4FreeEv
	.cfi_endproc
                                        # -- End function
	.weak	_ZNK3MPI4Comm8Is_interEv # -- Begin function _ZNK3MPI4Comm8Is_interEv
	.p2align	4, 0x90
	.type	_ZNK3MPI4Comm8Is_interEv,@function
_ZNK3MPI4Comm8Is_interEv:               # @_ZNK3MPI4Comm8Is_interEv
.Lfunc_begin103:
	.loc	12 296 0                # /usr/lib/x86_64-linux-gnu/openmpi/include/openmpi/ompi/mpi/cxx/comm_inln.h:296:0
	.cfi_startproc
# %bb.0:                                # %L.entry
	#DEBUG_VALUE: Is_inter: <- $rdi
	#DEBUG_VALUE: Is_inter: <- $rdi
	pushq	%rbp
	.cfi_def_cfa_offset 16
	.cfi_offset %rbp, -16
	movq	%rsp, %rbp
	.cfi_def_cfa_register %rbp
	subq	$16, %rsp
.Ltmp579:
	#DEBUG_VALUE:  <- $rdi
	.loc	12 298 1 prologue_end   # /usr/lib/x86_64-linux-gnu/openmpi/include/openmpi/ompi/mpi/cxx/comm_inln.h:298:1
	movq	8(%rdi), %rdi
.Ltmp580:
	#DEBUG_VALUE: t <- [DW_OP_constu 4, DW_OP_minus, DW_OP_deref] $rbp
	.loc	12 0 1 is_stmt 0        # /usr/lib/x86_64-linux-gnu/openmpi/include/openmpi/ompi/mpi/cxx/comm_inln.h:0:1
	leaq	-4(%rbp), %rsi
	.loc	12 298 1                # /usr/lib/x86_64-linux-gnu/openmpi/include/openmpi/ompi/mpi/cxx/comm_inln.h:298:1
	callq	MPI_Comm_test_inter
.Ltmp581:
	#DEBUG_VALUE: t <- undef
	.loc	12 299 1 is_stmt 1      # /usr/lib/x86_64-linux-gnu/openmpi/include/openmpi/ompi/mpi/cxx/comm_inln.h:299:1
	cmpl	$0, -4(%rbp)
	setne	%al
	addq	$16, %rsp
	popq	%rbp
	.cfi_def_cfa %rsp, 8
	retq
.Ltmp582:
.Lfunc_end103:
	.size	_ZNK3MPI4Comm8Is_interEv, .Lfunc_end103-_ZNK3MPI4Comm8Is_interEv
	.cfi_endproc
                                        # -- End function
	.weak	_ZNK3MPI4Comm7BarrierEv # -- Begin function _ZNK3MPI4Comm7BarrierEv
	.p2align	4, 0x90
	.type	_ZNK3MPI4Comm7BarrierEv,@function
_ZNK3MPI4Comm7BarrierEv:                # @_ZNK3MPI4Comm7BarrierEv
.Lfunc_begin104:
	.loc	12 309 0                # /usr/lib/x86_64-linux-gnu/openmpi/include/openmpi/ompi/mpi/cxx/comm_inln.h:309:0
	.cfi_startproc
# %bb.0:                                # %L.entry
	#DEBUG_VALUE: Barrier: <- $rdi
	#DEBUG_VALUE: Barrier: <- $rdi
	pushq	%rbp
	.cfi_def_cfa_offset 16
	.cfi_offset %rbp, -16
	movq	%rsp, %rbp
	.cfi_def_cfa_register %rbp
.Ltmp583:
	#DEBUG_VALUE:  <- $rdi
	#DEBUG_VALUE:  <- $rdi
	.loc	12 310 1 prologue_end   # /usr/lib/x86_64-linux-gnu/openmpi/include/openmpi/ompi/mpi/cxx/comm_inln.h:310:1
	movq	8(%rdi), %rdi
.Ltmp584:
	popq	%rbp
	.cfi_def_cfa %rsp, 8
	jmp	MPI_Barrier             # TAILCALL
.Ltmp585:
.Lfunc_end104:
	.size	_ZNK3MPI4Comm7BarrierEv, .Lfunc_end104-_ZNK3MPI4Comm7BarrierEv
	.cfi_endproc
                                        # -- End function
	.weak	_ZNK3MPI4Comm5BcastEPviRKNS_8DatatypeEi # -- Begin function _ZNK3MPI4Comm5BcastEPviRKNS_8DatatypeEi
	.p2align	4, 0x90
	.type	_ZNK3MPI4Comm5BcastEPviRKNS_8DatatypeEi,@function
_ZNK3MPI4Comm5BcastEPviRKNS_8DatatypeEi: # @_ZNK3MPI4Comm5BcastEPviRKNS_8DatatypeEi
.Lfunc_begin105:
	.loc	12 316 0                # /usr/lib/x86_64-linux-gnu/openmpi/include/openmpi/ompi/mpi/cxx/comm_inln.h:316:0
	.cfi_startproc
# %bb.0:                                # %L.entry
	#DEBUG_VALUE: Bcast: <- $rdi
	#DEBUG_VALUE: Bcast:buffer <- $rsi
	#DEBUG_VALUE: Bcast:count <- $edx
	#DEBUG_VALUE: Bcast:datatype <- $rcx
	#DEBUG_VALUE: Bcast:root <- $r8d
	pushq	%rbp
	.cfi_def_cfa_offset 16
	.cfi_offset %rbp, -16
	movq	%rsp, %rbp
	.cfi_def_cfa_register %rbp
.Ltmp586:
	#DEBUG_VALUE:  <- $rdi
	#DEBUG_VALUE: buffer <- $rsi
	#DEBUG_VALUE: count <- $edx
	#DEBUG_VALUE: datatype <- $rcx
	#DEBUG_VALUE: root <- $r8d
	movl	%r8d, %r9d
.Ltmp587:
	#DEBUG_VALUE: root <- $r9d
	#DEBUG_VALUE: Bcast:root <- $r9d
	#DEBUG_VALUE: datatype <- $rcx
	#DEBUG_VALUE: Bcast:datatype <- $rcx
	#DEBUG_VALUE: count <- $edx
	#DEBUG_VALUE: Bcast:count <- $edx
	#DEBUG_VALUE: buffer <- $rsi
	#DEBUG_VALUE: Bcast:buffer <- $rsi
	#DEBUG_VALUE:  <- $rdi
	#DEBUG_VALUE: Bcast: <- $rdi
	.loc	12 90 1 prologue_end    # /usr/lib/x86_64-linux-gnu/openmpi/include/openmpi/ompi/mpi/cxx/comm_inln.h:90:1
	movq	8(%rcx), %rax
	movq	8(%rdi), %r8
	movq	%rsi, %rdi
.Ltmp588:
	#DEBUG_VALUE: buffer <- $rdi
	#DEBUG_VALUE: Bcast:buffer <- $rdi
	movl	%edx, %esi
.Ltmp589:
	#DEBUG_VALUE: count <- $esi
	#DEBUG_VALUE: Bcast:count <- $esi
	movq	%rax, %rdx
	movl	%r9d, %ecx
.Ltmp590:
	#DEBUG_VALUE: root <- $ecx
	#DEBUG_VALUE: Bcast:root <- $ecx
	popq	%rbp
	.cfi_def_cfa %rsp, 8
	jmp	MPI_Bcast               # TAILCALL
.Ltmp591:
.Lfunc_end105:
	.size	_ZNK3MPI4Comm5BcastEPviRKNS_8DatatypeEi, .Lfunc_end105-_ZNK3MPI4Comm5BcastEPviRKNS_8DatatypeEi
	.cfi_endproc
                                        # -- End function
	.weak	_ZNK3MPI4Comm6GatherEPKviRKNS_8DatatypeEPviS5_i # -- Begin function _ZNK3MPI4Comm6GatherEPKviRKNS_8DatatypeEPviS5_i
	.p2align	4, 0x90
	.type	_ZNK3MPI4Comm6GatherEPKviRKNS_8DatatypeEPviS5_i,@function
_ZNK3MPI4Comm6GatherEPKviRKNS_8DatatypeEPviS5_i: # @_ZNK3MPI4Comm6GatherEPKviRKNS_8DatatypeEPviS5_i
.Lfunc_begin106:
	.loc	12 325 0                # /usr/lib/x86_64-linux-gnu/openmpi/include/openmpi/ompi/mpi/cxx/comm_inln.h:325:0
	.cfi_startproc
# %bb.0:                                # %L.entry
	#DEBUG_VALUE: Gather: <- $rdi
	#DEBUG_VALUE: Gather:sendbuf <- $rsi
	#DEBUG_VALUE: Gather:sendcount <- $edx
	#DEBUG_VALUE: Gather:sendtype <- $rcx
	#DEBUG_VALUE: Gather:recvbuf <- $r8
	#DEBUG_VALUE: Gather:recvcount <- $r9d
	pushq	%rbp
	.cfi_def_cfa_offset 16
	.cfi_offset %rbp, -16
	movq	%rsp, %rbp
	.cfi_def_cfa_register %rbp
.Ltmp592:
	#DEBUG_VALUE:  <- $rdi
	#DEBUG_VALUE: sendbuf <- $rsi
	#DEBUG_VALUE: sendcount <- $edx
	#DEBUG_VALUE: sendtype <- $rcx
	#DEBUG_VALUE: recvbuf <- $r8
	#DEBUG_VALUE: recvcount <- $r9d
	movl	%r9d, %r10d
	movq	%rdi, %rax
	movl	24(%rbp), %r11d
	movq	16(%rbp), %rdi
.Ltmp593:
	#DEBUG_VALUE: root <- [DW_OP_plus_uconst 24] [$rbp+0]
	#DEBUG_VALUE: Gather:root <- [DW_OP_plus_uconst 24] [$rbp+0]
	#DEBUG_VALUE: recvtype <- [DW_OP_plus_uconst 16] [$rbp+0]
	#DEBUG_VALUE: Gather:recvtype <- [DW_OP_plus_uconst 16] [$rbp+0]
	#DEBUG_VALUE: recvcount <- $r10d
	#DEBUG_VALUE: Gather:recvcount <- $r10d
	#DEBUG_VALUE: recvbuf <- $r8
	#DEBUG_VALUE: Gather:recvbuf <- $r8
	#DEBUG_VALUE: sendtype <- $rcx
	#DEBUG_VALUE: Gather:sendtype <- $rcx
	#DEBUG_VALUE: sendcount <- $edx
	#DEBUG_VALUE: Gather:sendcount <- $edx
	#DEBUG_VALUE: sendbuf <- $rsi
	#DEBUG_VALUE: Gather:sendbuf <- $rsi
	#DEBUG_VALUE:  <- $rax
	#DEBUG_VALUE: Gather: <- $rax
	.loc	12 90 1 prologue_end    # /usr/lib/x86_64-linux-gnu/openmpi/include/openmpi/ompi/mpi/cxx/comm_inln.h:90:1
	movq	8(%rcx), %rcx
.Ltmp594:
	movq	8(%rdi), %r9
	movq	%rsi, %rdi
.Ltmp595:
	#DEBUG_VALUE: sendbuf <- $rdi
	#DEBUG_VALUE: Gather:sendbuf <- $rdi
	movl	%edx, %esi
.Ltmp596:
	#DEBUG_VALUE: sendcount <- $esi
	#DEBUG_VALUE: Gather:sendcount <- $esi
	movq	%rcx, %rdx
	movq	%r8, %rcx
.Ltmp597:
	#DEBUG_VALUE: recvbuf <- $rcx
	#DEBUG_VALUE: Gather:recvbuf <- $rcx
	movl	%r10d, %r8d
.Ltmp598:
	#DEBUG_VALUE: recvcount <- $r8d
	#DEBUG_VALUE: Gather:recvcount <- $r8d
	pushq	8(%rax)
	pushq	%r11
	callq	MPI_Gather
.Ltmp599:
	addq	$16, %rsp
	.loc	12 328 1                # /usr/lib/x86_64-linux-gnu/openmpi/include/openmpi/ompi/mpi/cxx/comm_inln.h:328:1
	popq	%rbp
	.cfi_def_cfa %rsp, 8
	retq
.Ltmp600:
.Lfunc_end106:
	.size	_ZNK3MPI4Comm6GatherEPKviRKNS_8DatatypeEPviS5_i, .Lfunc_end106-_ZNK3MPI4Comm6GatherEPKviRKNS_8DatatypeEPviS5_i
	.cfi_endproc
                                        # -- End function
	.weak	_ZNK3MPI4Comm7GathervEPKviRKNS_8DatatypeEPvPKiS8_S5_i # -- Begin function _ZNK3MPI4Comm7GathervEPKviRKNS_8DatatypeEPvPKiS8_S5_i
	.p2align	4, 0x90
	.type	_ZNK3MPI4Comm7GathervEPKviRKNS_8DatatypeEPvPKiS8_S5_i,@function
_ZNK3MPI4Comm7GathervEPKviRKNS_8DatatypeEPvPKiS8_S5_i: # @_ZNK3MPI4Comm7GathervEPKviRKNS_8DatatypeEPvPKiS8_S5_i
.Lfunc_begin107:
	.loc	12 335 0                # /usr/lib/x86_64-linux-gnu/openmpi/include/openmpi/ompi/mpi/cxx/comm_inln.h:335:0
	.cfi_startproc
# %bb.0:                                # %L.entry
	#DEBUG_VALUE: Gatherv: <- $rdi
	#DEBUG_VALUE: Gatherv:sendbuf <- $rsi
	#DEBUG_VALUE: Gatherv:sendcount <- $edx
	#DEBUG_VALUE: Gatherv:sendtype <- $rcx
	#DEBUG_VALUE: Gatherv:recvbuf <- $r8
	#DEBUG_VALUE: Gatherv:recvcounts <- $r9
	pushq	%rbp
	.cfi_def_cfa_offset 16
	.cfi_offset %rbp, -16
	movq	%rsp, %rbp
	.cfi_def_cfa_register %rbp
	pushq	%rbx
	pushq	%rax
	.cfi_offset %rbx, -24
.Ltmp601:
	#DEBUG_VALUE:  <- $rdi
	#DEBUG_VALUE: sendbuf <- $rsi
	#DEBUG_VALUE: sendcount <- $edx
	#DEBUG_VALUE: sendtype <- $rcx
	#DEBUG_VALUE: recvbuf <- $r8
	#DEBUG_VALUE: recvcounts <- $r9
	movq	%r9, %r10
	movq	%rdi, %rax
	movq	16(%rbp), %r9
.Ltmp602:
	movl	32(%rbp), %r11d
	movq	24(%rbp), %rbx
.Ltmp603:
	#DEBUG_VALUE: root <- [DW_OP_plus_uconst 32] [$rbp+0]
	#DEBUG_VALUE: Gatherv:root <- [DW_OP_plus_uconst 32] [$rbp+0]
	#DEBUG_VALUE: recvtype <- [DW_OP_plus_uconst 24] [$rbp+0]
	#DEBUG_VALUE: Gatherv:recvtype <- [DW_OP_plus_uconst 24] [$rbp+0]
	#DEBUG_VALUE: displs <- [DW_OP_plus_uconst 16] [$rbp+0]
	#DEBUG_VALUE: Gatherv:displs <- [DW_OP_plus_uconst 16] [$rbp+0]
	#DEBUG_VALUE: recvcounts <- $r10
	#DEBUG_VALUE: Gatherv:recvcounts <- $r10
	#DEBUG_VALUE: recvbuf <- $r8
	#DEBUG_VALUE: Gatherv:recvbuf <- $r8
	#DEBUG_VALUE: sendtype <- $rcx
	#DEBUG_VALUE: Gatherv:sendtype <- $rcx
	#DEBUG_VALUE: sendcount <- $edx
	#DEBUG_VALUE: Gatherv:sendcount <- $edx
	#DEBUG_VALUE: sendbuf <- $rsi
	#DEBUG_VALUE: Gatherv:sendbuf <- $rsi
	#DEBUG_VALUE:  <- $rax
	#DEBUG_VALUE: Gatherv: <- $rax
	.loc	12 90 1 prologue_end    # /usr/lib/x86_64-linux-gnu/openmpi/include/openmpi/ompi/mpi/cxx/comm_inln.h:90:1
	movq	8(%rcx), %rcx
.Ltmp604:
	subq	$8, %rsp
	movq	%rsi, %rdi
.Ltmp605:
	#DEBUG_VALUE: sendbuf <- $rdi
	#DEBUG_VALUE: Gatherv:sendbuf <- $rdi
	movl	%edx, %esi
.Ltmp606:
	#DEBUG_VALUE: sendcount <- $esi
	#DEBUG_VALUE: Gatherv:sendcount <- $esi
	movq	%rcx, %rdx
	movq	%r8, %rcx
.Ltmp607:
	#DEBUG_VALUE: recvbuf <- $rcx
	#DEBUG_VALUE: Gatherv:recvbuf <- $rcx
	movq	%r10, %r8
.Ltmp608:
	#DEBUG_VALUE: recvcounts <- $r8
	#DEBUG_VALUE: Gatherv:recvcounts <- $r8
	pushq	8(%rax)
	pushq	%r11
	pushq	8(%rbx)
	callq	MPI_Gatherv
.Ltmp609:
	.loc	12 340 1                # /usr/lib/x86_64-linux-gnu/openmpi/include/openmpi/ompi/mpi/cxx/comm_inln.h:340:1
	addq	$40, %rsp
	popq	%rbx
	popq	%rbp
	.cfi_def_cfa %rsp, 8
	retq
.Ltmp610:
.Lfunc_end107:
	.size	_ZNK3MPI4Comm7GathervEPKviRKNS_8DatatypeEPvPKiS8_S5_i, .Lfunc_end107-_ZNK3MPI4Comm7GathervEPKviRKNS_8DatatypeEPvPKiS8_S5_i
	.cfi_endproc
                                        # -- End function
	.weak	_ZNK3MPI4Comm7ScatterEPKviRKNS_8DatatypeEPviS5_i # -- Begin function _ZNK3MPI4Comm7ScatterEPKviRKNS_8DatatypeEPviS5_i
	.p2align	4, 0x90
	.type	_ZNK3MPI4Comm7ScatterEPKviRKNS_8DatatypeEPviS5_i,@function
_ZNK3MPI4Comm7ScatterEPKviRKNS_8DatatypeEPviS5_i: # @_ZNK3MPI4Comm7ScatterEPKviRKNS_8DatatypeEPviS5_i
.Lfunc_begin108:
	.loc	12 347 0                # /usr/lib/x86_64-linux-gnu/openmpi/include/openmpi/ompi/mpi/cxx/comm_inln.h:347:0
	.cfi_startproc
# %bb.0:                                # %L.entry
	#DEBUG_VALUE: Scatter: <- $rdi
	#DEBUG_VALUE: Scatter:sendbuf <- $rsi
	#DEBUG_VALUE: Scatter:sendcount <- $edx
	#DEBUG_VALUE: Scatter:sendtype <- $rcx
	#DEBUG_VALUE: Scatter:recvbuf <- $r8
	#DEBUG_VALUE: Scatter:recvcount <- $r9d
	pushq	%rbp
	.cfi_def_cfa_offset 16
	.cfi_offset %rbp, -16
	movq	%rsp, %rbp
	.cfi_def_cfa_register %rbp
.Ltmp611:
	#DEBUG_VALUE:  <- $rdi
	#DEBUG_VALUE: sendbuf <- $rsi
	#DEBUG_VALUE: sendcount <- $edx
	#DEBUG_VALUE: sendtype <- $rcx
	#DEBUG_VALUE: recvbuf <- $r8
	#DEBUG_VALUE: recvcount <- $r9d
	movl	%r9d, %r10d
	movq	%rdi, %rax
	movl	24(%rbp), %r11d
	movq	16(%rbp), %rdi
.Ltmp612:
	#DEBUG_VALUE: root <- [DW_OP_plus_uconst 24] [$rbp+0]
	#DEBUG_VALUE: Scatter:root <- [DW_OP_plus_uconst 24] [$rbp+0]
	#DEBUG_VALUE: recvtype <- [DW_OP_plus_uconst 16] [$rbp+0]
	#DEBUG_VALUE: Scatter:recvtype <- [DW_OP_plus_uconst 16] [$rbp+0]
	#DEBUG_VALUE: recvcount <- $r10d
	#DEBUG_VALUE: Scatter:recvcount <- $r10d
	#DEBUG_VALUE: recvbuf <- $r8
	#DEBUG_VALUE: Scatter:recvbuf <- $r8
	#DEBUG_VALUE: sendtype <- $rcx
	#DEBUG_VALUE: Scatter:sendtype <- $rcx
	#DEBUG_VALUE: sendcount <- $edx
	#DEBUG_VALUE: Scatter:sendcount <- $edx
	#DEBUG_VALUE: sendbuf <- $rsi
	#DEBUG_VALUE: Scatter:sendbuf <- $rsi
	#DEBUG_VALUE:  <- $rax
	#DEBUG_VALUE: Scatter: <- $rax
	.loc	12 90 1 prologue_end    # /usr/lib/x86_64-linux-gnu/openmpi/include/openmpi/ompi/mpi/cxx/comm_inln.h:90:1
	movq	8(%rcx), %rcx
.Ltmp613:
	movq	8(%rdi), %r9
	movq	%rsi, %rdi
.Ltmp614:
	#DEBUG_VALUE: sendbuf <- $rdi
	#DEBUG_VALUE: Scatter:sendbuf <- $rdi
	movl	%edx, %esi
.Ltmp615:
	#DEBUG_VALUE: sendcount <- $esi
	#DEBUG_VALUE: Scatter:sendcount <- $esi
	movq	%rcx, %rdx
	movq	%r8, %rcx
.Ltmp616:
	#DEBUG_VALUE: recvbuf <- $rcx
	#DEBUG_VALUE: Scatter:recvbuf <- $rcx
	movl	%r10d, %r8d
.Ltmp617:
	#DEBUG_VALUE: recvcount <- $r8d
	#DEBUG_VALUE: Scatter:recvcount <- $r8d
	pushq	8(%rax)
	pushq	%r11
	callq	MPI_Scatter
.Ltmp618:
	addq	$16, %rsp
	.loc	12 350 1                # /usr/lib/x86_64-linux-gnu/openmpi/include/openmpi/ompi/mpi/cxx/comm_inln.h:350:1
	popq	%rbp
	.cfi_def_cfa %rsp, 8
	retq
.Ltmp619:
.Lfunc_end108:
	.size	_ZNK3MPI4Comm7ScatterEPKviRKNS_8DatatypeEPviS5_i, .Lfunc_end108-_ZNK3MPI4Comm7ScatterEPKviRKNS_8DatatypeEPviS5_i
	.cfi_endproc
                                        # -- End function
	.weak	_ZNK3MPI4Comm8ScattervEPKvPKiS4_RKNS_8DatatypeEPviS7_i # -- Begin function _ZNK3MPI4Comm8ScattervEPKvPKiS4_RKNS_8DatatypeEPviS7_i
	.p2align	4, 0x90
	.type	_ZNK3MPI4Comm8ScattervEPKvPKiS4_RKNS_8DatatypeEPviS7_i,@function
_ZNK3MPI4Comm8ScattervEPKvPKiS4_RKNS_8DatatypeEPviS7_i: # @_ZNK3MPI4Comm8ScattervEPKvPKiS4_RKNS_8DatatypeEPviS7_i
.Lfunc_begin109:
	.loc	12 357 0                # /usr/lib/x86_64-linux-gnu/openmpi/include/openmpi/ompi/mpi/cxx/comm_inln.h:357:0
	.cfi_startproc
# %bb.0:                                # %L.entry
	#DEBUG_VALUE: Scatterv: <- $rdi
	#DEBUG_VALUE: Scatterv:sendbuf <- $rsi
	#DEBUG_VALUE: Scatterv:sendcounts <- $rdx
	#DEBUG_VALUE: Scatterv:displs <- $rcx
	#DEBUG_VALUE: Scatterv:sendtype <- $r8
	#DEBUG_VALUE: Scatterv:recvbuf <- $r9
	pushq	%rbp
	.cfi_def_cfa_offset 16
	.cfi_offset %rbp, -16
	movq	%rsp, %rbp
	.cfi_def_cfa_register %rbp
	pushq	%r14
	pushq	%rbx
	.cfi_offset %rbx, -32
	.cfi_offset %r14, -24
.Ltmp620:
	#DEBUG_VALUE:  <- $rdi
	#DEBUG_VALUE: sendbuf <- $rsi
	#DEBUG_VALUE: sendcounts <- $rdx
	#DEBUG_VALUE: displs <- $rcx
	#DEBUG_VALUE: sendtype <- $r8
	#DEBUG_VALUE: recvbuf <- $r9
	movq	%r9, %r10
	movq	%rdi, %r11
	movl	16(%rbp), %r9d
.Ltmp621:
	movl	32(%rbp), %ebx
	movq	24(%rbp), %r14
.Ltmp622:
	#DEBUG_VALUE: root <- [DW_OP_plus_uconst 32] [$rbp+0]
	#DEBUG_VALUE: Scatterv:root <- [DW_OP_plus_uconst 32] [$rbp+0]
	#DEBUG_VALUE: recvtype <- [DW_OP_plus_uconst 24] [$rbp+0]
	#DEBUG_VALUE: Scatterv:recvtype <- [DW_OP_plus_uconst 24] [$rbp+0]
	#DEBUG_VALUE: recvcount <- [DW_OP_plus_uconst 16] [$rbp+0]
	#DEBUG_VALUE: Scatterv:recvcount <- [DW_OP_plus_uconst 16] [$rbp+0]
	#DEBUG_VALUE: recvbuf <- $r10
	#DEBUG_VALUE: Scatterv:recvbuf <- $r10
	#DEBUG_VALUE: sendtype <- $r8
	#DEBUG_VALUE: Scatterv:sendtype <- $r8
	#DEBUG_VALUE: displs <- $rcx
	#DEBUG_VALUE: Scatterv:displs <- $rcx
	#DEBUG_VALUE: sendcounts <- $rdx
	#DEBUG_VALUE: Scatterv:sendcounts <- $rdx
	#DEBUG_VALUE: sendbuf <- $rsi
	#DEBUG_VALUE: Scatterv:sendbuf <- $rsi
	#DEBUG_VALUE:  <- $r11
	#DEBUG_VALUE: Scatterv: <- $r11
	.loc	12 90 1 prologue_end    # /usr/lib/x86_64-linux-gnu/openmpi/include/openmpi/ompi/mpi/cxx/comm_inln.h:90:1
	movq	8(%r8), %rax
	subq	$8, %rsp
	movq	%rsi, %rdi
.Ltmp623:
	#DEBUG_VALUE: sendbuf <- $rdi
	#DEBUG_VALUE: Scatterv:sendbuf <- $rdi
	movq	%rdx, %rsi
.Ltmp624:
	#DEBUG_VALUE: sendcounts <- $rsi
	#DEBUG_VALUE: Scatterv:sendcounts <- $rsi
	movq	%rcx, %rdx
.Ltmp625:
	#DEBUG_VALUE: displs <- $rdx
	#DEBUG_VALUE: Scatterv:displs <- $rdx
	movq	%rax, %rcx
	movq	%r10, %r8
.Ltmp626:
	#DEBUG_VALUE: recvbuf <- $r8
	#DEBUG_VALUE: Scatterv:recvbuf <- $r8
	pushq	8(%r11)
	pushq	%rbx
	pushq	8(%r14)
	callq	MPI_Scatterv
.Ltmp627:
	addq	$32, %rsp
	.loc	12 363 1                # /usr/lib/x86_64-linux-gnu/openmpi/include/openmpi/ompi/mpi/cxx/comm_inln.h:363:1
	popq	%rbx
	popq	%r14
	popq	%rbp
	.cfi_def_cfa %rsp, 8
	retq
.Ltmp628:
.Lfunc_end109:
	.size	_ZNK3MPI4Comm8ScattervEPKvPKiS4_RKNS_8DatatypeEPviS7_i, .Lfunc_end109-_ZNK3MPI4Comm8ScattervEPKvPKiS4_RKNS_8DatatypeEPviS7_i
	.cfi_endproc
                                        # -- End function
	.weak	_ZNK3MPI4Comm9AllgatherEPKviRKNS_8DatatypeEPviS5_ # -- Begin function _ZNK3MPI4Comm9AllgatherEPKviRKNS_8DatatypeEPviS5_
	.p2align	4, 0x90
	.type	_ZNK3MPI4Comm9AllgatherEPKviRKNS_8DatatypeEPviS5_,@function
_ZNK3MPI4Comm9AllgatherEPKviRKNS_8DatatypeEPviS5_: # @_ZNK3MPI4Comm9AllgatherEPKviRKNS_8DatatypeEPviS5_
.Lfunc_begin110:
	.loc	12 369 0                # /usr/lib/x86_64-linux-gnu/openmpi/include/openmpi/ompi/mpi/cxx/comm_inln.h:369:0
	.cfi_startproc
# %bb.0:                                # %L.entry
	#DEBUG_VALUE: Allgather: <- $rdi
	#DEBUG_VALUE: Allgather:sendbuf <- $rsi
	#DEBUG_VALUE: Allgather:sendcount <- $edx
	#DEBUG_VALUE: Allgather:sendtype <- $rcx
	#DEBUG_VALUE: Allgather:recvbuf <- $r8
	#DEBUG_VALUE: Allgather:recvcount <- $r9d
	pushq	%rbp
	.cfi_def_cfa_offset 16
	.cfi_offset %rbp, -16
	movq	%rsp, %rbp
	.cfi_def_cfa_register %rbp
	subq	$16, %rsp
.Ltmp629:
	#DEBUG_VALUE:  <- $rdi
	#DEBUG_VALUE: sendbuf <- $rsi
	#DEBUG_VALUE: sendcount <- $edx
	#DEBUG_VALUE: sendtype <- $rcx
	#DEBUG_VALUE: recvbuf <- $r8
	#DEBUG_VALUE: recvcount <- $r9d
	movl	%r9d, %r10d
	movq	16(%rbp), %r9
.Ltmp630:
	#DEBUG_VALUE: recvtype <- [DW_OP_plus_uconst 16] [$rbp+0]
	#DEBUG_VALUE: Allgather:recvtype <- [DW_OP_plus_uconst 16] [$rbp+0]
	#DEBUG_VALUE: recvcount <- $r10d
	#DEBUG_VALUE: Allgather:recvcount <- $r10d
	#DEBUG_VALUE: recvbuf <- $r8
	#DEBUG_VALUE: Allgather:recvbuf <- $r8
	#DEBUG_VALUE: sendtype <- $rcx
	#DEBUG_VALUE: Allgather:sendtype <- $rcx
	#DEBUG_VALUE: sendcount <- $edx
	#DEBUG_VALUE: Allgather:sendcount <- $edx
	#DEBUG_VALUE: sendbuf <- $rsi
	#DEBUG_VALUE: Allgather:sendbuf <- $rsi
	#DEBUG_VALUE:  <- $rdi
	#DEBUG_VALUE: Allgather: <- $rdi
	.loc	12 90 1 prologue_end    # /usr/lib/x86_64-linux-gnu/openmpi/include/openmpi/ompi/mpi/cxx/comm_inln.h:90:1
	movq	8(%rcx), %rax
	movq	8(%r9), %r9
	movq	8(%rdi), %rcx
.Ltmp631:
	movq	%rcx, (%rsp)
	movq	%rsi, %rdi
.Ltmp632:
	#DEBUG_VALUE: sendbuf <- $rdi
	#DEBUG_VALUE: Allgather:sendbuf <- $rdi
	movl	%edx, %esi
.Ltmp633:
	#DEBUG_VALUE: sendcount <- $esi
	#DEBUG_VALUE: Allgather:sendcount <- $esi
	movq	%rax, %rdx
	movq	%r8, %rcx
.Ltmp634:
	#DEBUG_VALUE: recvbuf <- $rcx
	#DEBUG_VALUE: Allgather:recvbuf <- $rcx
	movl	%r10d, %r8d
.Ltmp635:
	#DEBUG_VALUE: recvcount <- $r8d
	#DEBUG_VALUE: Allgather:recvcount <- $r8d
	callq	MPI_Allgather
.Ltmp636:
	.loc	12 373 1                # /usr/lib/x86_64-linux-gnu/openmpi/include/openmpi/ompi/mpi/cxx/comm_inln.h:373:1
	addq	$16, %rsp
	popq	%rbp
	.cfi_def_cfa %rsp, 8
	retq
.Ltmp637:
.Lfunc_end110:
	.size	_ZNK3MPI4Comm9AllgatherEPKviRKNS_8DatatypeEPviS5_, .Lfunc_end110-_ZNK3MPI4Comm9AllgatherEPKviRKNS_8DatatypeEPviS5_
	.cfi_endproc
                                        # -- End function
	.weak	_ZNK3MPI4Comm10AllgathervEPKviRKNS_8DatatypeEPvPKiS8_S5_ # -- Begin function _ZNK3MPI4Comm10AllgathervEPKviRKNS_8DatatypeEPvPKiS8_S5_
	.p2align	4, 0x90
	.type	_ZNK3MPI4Comm10AllgathervEPKviRKNS_8DatatypeEPvPKiS8_S5_,@function
_ZNK3MPI4Comm10AllgathervEPKviRKNS_8DatatypeEPvPKiS8_S5_: # @_ZNK3MPI4Comm10AllgathervEPKviRKNS_8DatatypeEPvPKiS8_S5_
.Lfunc_begin111:
	.loc	12 380 0                # /usr/lib/x86_64-linux-gnu/openmpi/include/openmpi/ompi/mpi/cxx/comm_inln.h:380:0
	.cfi_startproc
# %bb.0:                                # %L.entry
	#DEBUG_VALUE: Allgatherv: <- $rdi
	#DEBUG_VALUE: Allgatherv:sendbuf <- $rsi
	#DEBUG_VALUE: Allgatherv:sendcount <- $edx
	#DEBUG_VALUE: Allgatherv:sendtype <- $rcx
	#DEBUG_VALUE: Allgatherv:recvbuf <- $r8
	#DEBUG_VALUE: Allgatherv:recvcounts <- $r9
	pushq	%rbp
	.cfi_def_cfa_offset 16
	.cfi_offset %rbp, -16
	movq	%rsp, %rbp
	.cfi_def_cfa_register %rbp
.Ltmp638:
	#DEBUG_VALUE:  <- $rdi
	#DEBUG_VALUE: sendbuf <- $rsi
	#DEBUG_VALUE: sendcount <- $edx
	#DEBUG_VALUE: sendtype <- $rcx
	#DEBUG_VALUE: recvbuf <- $r8
	#DEBUG_VALUE: recvcounts <- $r9
	movq	%r9, %r10
	movq	%rdi, %rax
	movq	16(%rbp), %r9
.Ltmp639:
	movq	24(%rbp), %r11
.Ltmp640:
	#DEBUG_VALUE: recvtype <- [DW_OP_plus_uconst 24] [$rbp+0]
	#DEBUG_VALUE: Allgatherv:recvtype <- [DW_OP_plus_uconst 24] [$rbp+0]
	#DEBUG_VALUE: displs <- [DW_OP_plus_uconst 16] [$rbp+0]
	#DEBUG_VALUE: Allgatherv:displs <- [DW_OP_plus_uconst 16] [$rbp+0]
	#DEBUG_VALUE: recvcounts <- $r10
	#DEBUG_VALUE: Allgatherv:recvcounts <- $r10
	#DEBUG_VALUE: recvbuf <- $r8
	#DEBUG_VALUE: Allgatherv:recvbuf <- $r8
	#DEBUG_VALUE: sendtype <- $rcx
	#DEBUG_VALUE: Allgatherv:sendtype <- $rcx
	#DEBUG_VALUE: sendcount <- $edx
	#DEBUG_VALUE: Allgatherv:sendcount <- $edx
	#DEBUG_VALUE: sendbuf <- $rsi
	#DEBUG_VALUE: Allgatherv:sendbuf <- $rsi
	#DEBUG_VALUE:  <- $rax
	#DEBUG_VALUE: Allgatherv: <- $rax
	.loc	12 90 1 prologue_end    # /usr/lib/x86_64-linux-gnu/openmpi/include/openmpi/ompi/mpi/cxx/comm_inln.h:90:1
	movq	8(%rcx), %rcx
.Ltmp641:
	movq	%rsi, %rdi
.Ltmp642:
	#DEBUG_VALUE: sendbuf <- $rdi
	#DEBUG_VALUE: Allgatherv:sendbuf <- $rdi
	movl	%edx, %esi
.Ltmp643:
	#DEBUG_VALUE: sendcount <- $esi
	#DEBUG_VALUE: Allgatherv:sendcount <- $esi
	movq	%rcx, %rdx
	movq	%r8, %rcx
.Ltmp644:
	#DEBUG_VALUE: recvbuf <- $rcx
	#DEBUG_VALUE: Allgatherv:recvbuf <- $rcx
	movq	%r10, %r8
.Ltmp645:
	#DEBUG_VALUE: recvcounts <- $r8
	#DEBUG_VALUE: Allgatherv:recvcounts <- $r8
	pushq	8(%rax)
	pushq	8(%r11)
	callq	MPI_Allgatherv
.Ltmp646:
	addq	$16, %rsp
	.loc	12 386 1                # /usr/lib/x86_64-linux-gnu/openmpi/include/openmpi/ompi/mpi/cxx/comm_inln.h:386:1
	popq	%rbp
	.cfi_def_cfa %rsp, 8
	retq
.Ltmp647:
.Lfunc_end111:
	.size	_ZNK3MPI4Comm10AllgathervEPKviRKNS_8DatatypeEPvPKiS8_S5_, .Lfunc_end111-_ZNK3MPI4Comm10AllgathervEPKviRKNS_8DatatypeEPvPKiS8_S5_
	.cfi_endproc
                                        # -- End function
	.weak	_ZNK3MPI4Comm8AlltoallEPKviRKNS_8DatatypeEPviS5_ # -- Begin function _ZNK3MPI4Comm8AlltoallEPKviRKNS_8DatatypeEPviS5_
	.p2align	4, 0x90
	.type	_ZNK3MPI4Comm8AlltoallEPKviRKNS_8DatatypeEPviS5_,@function
_ZNK3MPI4Comm8AlltoallEPKviRKNS_8DatatypeEPviS5_: # @_ZNK3MPI4Comm8AlltoallEPKviRKNS_8DatatypeEPviS5_
.Lfunc_begin112:
	.loc	12 392 0                # /usr/lib/x86_64-linux-gnu/openmpi/include/openmpi/ompi/mpi/cxx/comm_inln.h:392:0
	.cfi_startproc
# %bb.0:                                # %L.entry
	#DEBUG_VALUE: Alltoall: <- $rdi
	#DEBUG_VALUE: Alltoall:sendbuf <- $rsi
	#DEBUG_VALUE: Alltoall:sendcount <- $edx
	#DEBUG_VALUE: Alltoall:sendtype <- $rcx
	#DEBUG_VALUE: Alltoall:recvbuf <- $r8
	#DEBUG_VALUE: Alltoall:recvcount <- $r9d
	pushq	%rbp
	.cfi_def_cfa_offset 16
	.cfi_offset %rbp, -16
	movq	%rsp, %rbp
	.cfi_def_cfa_register %rbp
	subq	$16, %rsp
.Ltmp648:
	#DEBUG_VALUE:  <- $rdi
	#DEBUG_VALUE: sendbuf <- $rsi
	#DEBUG_VALUE: sendcount <- $edx
	#DEBUG_VALUE: sendtype <- $rcx
	#DEBUG_VALUE: recvbuf <- $r8
	#DEBUG_VALUE: recvcount <- $r9d
	movl	%r9d, %r10d
	movq	16(%rbp), %r9
.Ltmp649:
	#DEBUG_VALUE: recvtype <- [DW_OP_plus_uconst 16] [$rbp+0]
	#DEBUG_VALUE: Alltoall:recvtype <- [DW_OP_plus_uconst 16] [$rbp+0]
	#DEBUG_VALUE: recvcount <- $r10d
	#DEBUG_VALUE: Alltoall:recvcount <- $r10d
	#DEBUG_VALUE: recvbuf <- $r8
	#DEBUG_VALUE: Alltoall:recvbuf <- $r8
	#DEBUG_VALUE: sendtype <- $rcx
	#DEBUG_VALUE: Alltoall:sendtype <- $rcx
	#DEBUG_VALUE: sendcount <- $edx
	#DEBUG_VALUE: Alltoall:sendcount <- $edx
	#DEBUG_VALUE: sendbuf <- $rsi
	#DEBUG_VALUE: Alltoall:sendbuf <- $rsi
	#DEBUG_VALUE:  <- $rdi
	#DEBUG_VALUE: Alltoall: <- $rdi
	.loc	12 90 1 prologue_end    # /usr/lib/x86_64-linux-gnu/openmpi/include/openmpi/ompi/mpi/cxx/comm_inln.h:90:1
	movq	8(%rcx), %rax
	movq	8(%r9), %r9
	movq	8(%rdi), %rcx
.Ltmp650:
	movq	%rcx, (%rsp)
	movq	%rsi, %rdi
.Ltmp651:
	#DEBUG_VALUE: sendbuf <- $rdi
	#DEBUG_VALUE: Alltoall:sendbuf <- $rdi
	movl	%edx, %esi
.Ltmp652:
	#DEBUG_VALUE: sendcount <- $esi
	#DEBUG_VALUE: Alltoall:sendcount <- $esi
	movq	%rax, %rdx
	movq	%r8, %rcx
.Ltmp653:
	#DEBUG_VALUE: recvbuf <- $rcx
	#DEBUG_VALUE: Alltoall:recvbuf <- $rcx
	movl	%r10d, %r8d
.Ltmp654:
	#DEBUG_VALUE: recvcount <- $r8d
	#DEBUG_VALUE: Alltoall:recvcount <- $r8d
	callq	MPI_Alltoall
.Ltmp655:
	.loc	12 396 1                # /usr/lib/x86_64-linux-gnu/openmpi/include/openmpi/ompi/mpi/cxx/comm_inln.h:396:1
	addq	$16, %rsp
	popq	%rbp
	.cfi_def_cfa %rsp, 8
	retq
.Ltmp656:
.Lfunc_end112:
	.size	_ZNK3MPI4Comm8AlltoallEPKviRKNS_8DatatypeEPviS5_, .Lfunc_end112-_ZNK3MPI4Comm8AlltoallEPKviRKNS_8DatatypeEPviS5_
	.cfi_endproc
                                        # -- End function
	.weak	_ZNK3MPI4Comm9AlltoallvEPKvPKiS4_RKNS_8DatatypeEPvS4_S4_S7_ # -- Begin function _ZNK3MPI4Comm9AlltoallvEPKvPKiS4_RKNS_8DatatypeEPvS4_S4_S7_
	.p2align	4, 0x90
	.type	_ZNK3MPI4Comm9AlltoallvEPKvPKiS4_RKNS_8DatatypeEPvS4_S4_S7_,@function
_ZNK3MPI4Comm9AlltoallvEPKvPKiS4_RKNS_8DatatypeEPvS4_S4_S7_: # @_ZNK3MPI4Comm9AlltoallvEPKvPKiS4_RKNS_8DatatypeEPvS4_S4_S7_
.Lfunc_begin113:
	.loc	12 404 0                # /usr/lib/x86_64-linux-gnu/openmpi/include/openmpi/ompi/mpi/cxx/comm_inln.h:404:0
	.cfi_startproc
# %bb.0:                                # %L.entry
	#DEBUG_VALUE: Alltoallv: <- $rdi
	#DEBUG_VALUE: Alltoallv:sendbuf <- $rsi
	#DEBUG_VALUE: Alltoallv:sendcounts <- $rdx
	#DEBUG_VALUE: Alltoallv:sdispls <- $rcx
	#DEBUG_VALUE: Alltoallv:sendtype <- $r8
	#DEBUG_VALUE: Alltoallv:recvbuf <- $r9
	pushq	%rbp
	.cfi_def_cfa_offset 16
	.cfi_offset %rbp, -16
	movq	%rsp, %rbp
	.cfi_def_cfa_register %rbp
	pushq	%rbx
	pushq	%rax
	.cfi_offset %rbx, -24
.Ltmp657:
	#DEBUG_VALUE:  <- $rdi
	#DEBUG_VALUE: sendbuf <- $rsi
	#DEBUG_VALUE: sendcounts <- $rdx
	#DEBUG_VALUE: sdispls <- $rcx
	#DEBUG_VALUE: sendtype <- $r8
	#DEBUG_VALUE: recvbuf <- $r9
	movq	%r9, %r10
	movq	%rdi, %r11
	movq	16(%rbp), %r9
.Ltmp658:
	movq	32(%rbp), %rbx
.Ltmp659:
	#DEBUG_VALUE: recvtype <- [DW_OP_plus_uconst 32] [$rbp+0]
	#DEBUG_VALUE: Alltoallv:recvtype <- [DW_OP_plus_uconst 32] [$rbp+0]
	#DEBUG_VALUE: rdispls <- [DW_OP_plus_uconst 24] [$rbp+0]
	#DEBUG_VALUE: Alltoallv:rdispls <- [DW_OP_plus_uconst 24] [$rbp+0]
	#DEBUG_VALUE: recvcounts <- [DW_OP_plus_uconst 16] [$rbp+0]
	#DEBUG_VALUE: Alltoallv:recvcounts <- [DW_OP_plus_uconst 16] [$rbp+0]
	#DEBUG_VALUE: recvbuf <- $r10
	#DEBUG_VALUE: Alltoallv:recvbuf <- $r10
	#DEBUG_VALUE: sendtype <- $r8
	#DEBUG_VALUE: Alltoallv:sendtype <- $r8
	#DEBUG_VALUE: sdispls <- $rcx
	#DEBUG_VALUE: Alltoallv:sdispls <- $rcx
	#DEBUG_VALUE: sendcounts <- $rdx
	#DEBUG_VALUE: Alltoallv:sendcounts <- $rdx
	#DEBUG_VALUE: sendbuf <- $rsi
	#DEBUG_VALUE: Alltoallv:sendbuf <- $rsi
	#DEBUG_VALUE:  <- $r11
	#DEBUG_VALUE: Alltoallv: <- $r11
	.loc	12 90 1 prologue_end    # /usr/lib/x86_64-linux-gnu/openmpi/include/openmpi/ompi/mpi/cxx/comm_inln.h:90:1
	movq	8(%r8), %rax
	subq	$8, %rsp
	movq	%rsi, %rdi
.Ltmp660:
	#DEBUG_VALUE: sendbuf <- $rdi
	#DEBUG_VALUE: Alltoallv:sendbuf <- $rdi
	movq	%rdx, %rsi
.Ltmp661:
	#DEBUG_VALUE: sendcounts <- $rsi
	#DEBUG_VALUE: Alltoallv:sendcounts <- $rsi
	movq	%rcx, %rdx
.Ltmp662:
	#DEBUG_VALUE: sdispls <- $rdx
	#DEBUG_VALUE: Alltoallv:sdispls <- $rdx
	movq	%rax, %rcx
	movq	%r10, %r8
.Ltmp663:
	#DEBUG_VALUE: recvbuf <- $r8
	#DEBUG_VALUE: Alltoallv:recvbuf <- $r8
	pushq	8(%r11)
	pushq	8(%rbx)
	pushq	24(%rbp)
	callq	MPI_Alltoallv
.Ltmp664:
	.loc	12 411 1                # /usr/lib/x86_64-linux-gnu/openmpi/include/openmpi/ompi/mpi/cxx/comm_inln.h:411:1
	addq	$40, %rsp
	popq	%rbx
	popq	%rbp
	.cfi_def_cfa %rsp, 8
	retq
.Ltmp665:
.Lfunc_end113:
	.size	_ZNK3MPI4Comm9AlltoallvEPKvPKiS4_RKNS_8DatatypeEPvS4_S4_S7_, .Lfunc_end113-_ZNK3MPI4Comm9AlltoallvEPKvPKiS4_RKNS_8DatatypeEPvS4_S4_S7_
	.cfi_endproc
                                        # -- End function
	.weak	_ZNK3MPI4Comm9AlltoallwEPKvPKiS4_PKNS_8DatatypeEPvS4_S4_S7_ # -- Begin function _ZNK3MPI4Comm9AlltoallwEPKvPKiS4_PKNS_8DatatypeEPvS4_S4_S7_
	.p2align	4, 0x90
	.type	_ZNK3MPI4Comm9AlltoallwEPKvPKiS4_PKNS_8DatatypeEPvS4_S4_S7_,@function
_ZNK3MPI4Comm9AlltoallwEPKvPKiS4_PKNS_8DatatypeEPvS4_S4_S7_: # @_ZNK3MPI4Comm9AlltoallwEPKvPKiS4_PKNS_8DatatypeEPvS4_S4_S7_
.Lfunc_begin114:
	.loc	12 419 0                # /usr/lib/x86_64-linux-gnu/openmpi/include/openmpi/ompi/mpi/cxx/comm_inln.h:419:0
	.cfi_startproc
# %bb.0:                                # %L.entry
	#DEBUG_VALUE: Alltoallw: <- $rdi
	#DEBUG_VALUE: Alltoallw:sendbuf <- $rsi
	#DEBUG_VALUE: Alltoallw:sendcounts <- $rdx
	#DEBUG_VALUE: Alltoallw:sdispls <- $rcx
	#DEBUG_VALUE: Alltoallw:sendtypes <- $r8
	#DEBUG_VALUE: Alltoallw:recvbuf <- $r9
	pushq	%rbp
	.cfi_def_cfa_offset 16
	.cfi_offset %rbp, -16
	movq	%rsp, %rbp
	.cfi_def_cfa_register %rbp
	pushq	%r15
	pushq	%r14
	pushq	%r13
	pushq	%r12
	pushq	%rbx
	subq	$56, %rsp
	.cfi_offset %rbx, -56
	.cfi_offset %r12, -48
	.cfi_offset %r13, -40
	.cfi_offset %r14, -32
	.cfi_offset %r15, -24
.Ltmp666:
	#DEBUG_VALUE:  <- $rdi
	#DEBUG_VALUE: sendbuf <- $rsi
	#DEBUG_VALUE: sendcounts <- $rdx
	#DEBUG_VALUE: sdispls <- $rcx
	#DEBUG_VALUE: sendtypes <- $r8
	#DEBUG_VALUE: recvbuf <- $r9
	movq	%r9, %rbx
	movq	%r8, %r15
	movq	%rcx, -72(%rbp)         # 8-byte Spill
	movq	%rdx, -64(%rbp)         # 8-byte Spill
	movq	%rsi, -48(%rbp)         # 8-byte Spill
	movq	32(%rbp), %r14
	movq	24(%rbp), %rax
	movq	%rax, -80(%rbp)         # 8-byte Spill
	movq	16(%rbp), %rax
	movq	%rax, -56(%rbp)         # 8-byte Spill
.Ltmp667:
	#DEBUG_VALUE: recvtypes <- [DW_OP_plus_uconst 32] [$rbp+0]
	#DEBUG_VALUE: Alltoallw:recvtypes <- [DW_OP_plus_uconst 32] [$rbp+0]
	#DEBUG_VALUE: rdispls <- [DW_OP_plus_uconst 24] [$rbp+0]
	#DEBUG_VALUE: Alltoallw:rdispls <- [DW_OP_plus_uconst 24] [$rbp+0]
	#DEBUG_VALUE: recvcounts <- [DW_OP_plus_uconst 16] [$rbp+0]
	#DEBUG_VALUE: Alltoallw:recvcounts <- [DW_OP_plus_uconst 16] [$rbp+0]
	#DEBUG_VALUE: recvbuf <- $rbx
	#DEBUG_VALUE: Alltoallw:recvbuf <- $rbx
	#DEBUG_VALUE: sendtypes <- $r15
	#DEBUG_VALUE: Alltoallw:sendtypes <- $r15
	#DEBUG_VALUE: sdispls <- [DW_OP_constu 72, DW_OP_minus] [$rbp+0]
	#DEBUG_VALUE: Alltoallw:sdispls <- [DW_OP_constu 72, DW_OP_minus] [$rbp+0]
	#DEBUG_VALUE: sendcounts <- [DW_OP_constu 64, DW_OP_minus] [$rbp+0]
	#DEBUG_VALUE: Alltoallw:sendcounts <- [DW_OP_constu 64, DW_OP_minus] [$rbp+0]
	#DEBUG_VALUE: sendbuf <- [DW_OP_constu 48, DW_OP_minus] [$rbp+0]
	#DEBUG_VALUE: Alltoallw:sendbuf <- [DW_OP_constu 48, DW_OP_minus] [$rbp+0]
	#DEBUG_VALUE:  <- $rdi
	#DEBUG_VALUE: Alltoallw: <- $rdi
	.loc	12 420 1 prologue_end   # /usr/lib/x86_64-linux-gnu/openmpi/include/openmpi/ompi/mpi/cxx/comm_inln.h:420:1
	movq	(%rdi), %rax
	movq	%rdi, -88(%rbp)         # 8-byte Spill
.Ltmp668:
	#DEBUG_VALUE:  <- [DW_OP_constu 88, DW_OP_minus] [$rbp+0]
	#DEBUG_VALUE: Alltoallw: <- [DW_OP_constu 88, DW_OP_minus] [$rbp+0]
	callq	*216(%rax)
	movl	%eax, %r13d
.Ltmp669:
	#DEBUG_VALUE: comm_size <- $r13d
	.loc	12 421 1                # /usr/lib/x86_64-linux-gnu/openmpi/include/openmpi/ompi/mpi/cxx/comm_inln.h:421:1
	leal	(%r13,%r13), %eax
	movslq	%eax, %rdi
	shlq	$3, %rdi
	callq	_Znam
	movq	%rax, %r12
.Ltmp670:
	#DEBUG_VALUE: data_type_tbl <- $r12
	.loc	12 430 1                # /usr/lib/x86_64-linux-gnu/openmpi/include/openmpi/ompi/mpi/cxx/comm_inln.h:430:1
	movslq	%r13d, %rax
.Ltmp671:
	.loc	12 425 1                # /usr/lib/x86_64-linux-gnu/openmpi/include/openmpi/ompi/mpi/cxx/comm_inln.h:425:1
	testl	%r13d, %r13d
	jle	.LBB114_12
.Ltmp672:
# %bb.1:                                # %L.B1212
	#DEBUG_VALUE: data_type_tbl <- $r12
	#DEBUG_VALUE: comm_size <- $r13d
	#DEBUG_VALUE: Alltoallw: <- [DW_OP_constu 88, DW_OP_minus] [$rbp+0]
	#DEBUG_VALUE:  <- [DW_OP_constu 88, DW_OP_minus] [$rbp+0]
	#DEBUG_VALUE: Alltoallw:sendbuf <- [DW_OP_constu 48, DW_OP_minus] [$rbp+0]
	#DEBUG_VALUE: sendbuf <- [DW_OP_constu 48, DW_OP_minus] [$rbp+0]
	#DEBUG_VALUE: Alltoallw:sendcounts <- [DW_OP_constu 64, DW_OP_minus] [$rbp+0]
	#DEBUG_VALUE: sendcounts <- [DW_OP_constu 64, DW_OP_minus] [$rbp+0]
	#DEBUG_VALUE: Alltoallw:sdispls <- [DW_OP_constu 72, DW_OP_minus] [$rbp+0]
	#DEBUG_VALUE: sdispls <- [DW_OP_constu 72, DW_OP_minus] [$rbp+0]
	#DEBUG_VALUE: Alltoallw:sendtypes <- $r15
	#DEBUG_VALUE: sendtypes <- $r15
	#DEBUG_VALUE: Alltoallw:recvbuf <- $rbx
	#DEBUG_VALUE: recvbuf <- $rbx
	#DEBUG_VALUE: Alltoallw:recvcounts <- [DW_OP_plus_uconst 16] [$rbp+0]
	#DEBUG_VALUE: recvcounts <- [DW_OP_plus_uconst 16] [$rbp+0]
	#DEBUG_VALUE: Alltoallw:rdispls <- [DW_OP_plus_uconst 24] [$rbp+0]
	#DEBUG_VALUE: rdispls <- [DW_OP_plus_uconst 24] [$rbp+0]
	#DEBUG_VALUE: Alltoallw:recvtypes <- [DW_OP_plus_uconst 32] [$rbp+0]
	#DEBUG_VALUE: recvtypes <- [DW_OP_plus_uconst 32] [$rbp+0]
	cmpl	$4, %r13d
	jge	.LBB114_3
.Ltmp673:
# %bb.2:
	#DEBUG_VALUE: data_type_tbl <- $r12
	#DEBUG_VALUE: comm_size <- $r13d
	#DEBUG_VALUE: Alltoallw: <- [DW_OP_constu 88, DW_OP_minus] [$rbp+0]
	#DEBUG_VALUE:  <- [DW_OP_constu 88, DW_OP_minus] [$rbp+0]
	#DEBUG_VALUE: Alltoallw:sendbuf <- [DW_OP_constu 48, DW_OP_minus] [$rbp+0]
	#DEBUG_VALUE: sendbuf <- [DW_OP_constu 48, DW_OP_minus] [$rbp+0]
	#DEBUG_VALUE: Alltoallw:sendcounts <- [DW_OP_constu 64, DW_OP_minus] [$rbp+0]
	#DEBUG_VALUE: sendcounts <- [DW_OP_constu 64, DW_OP_minus] [$rbp+0]
	#DEBUG_VALUE: Alltoallw:sdispls <- [DW_OP_constu 72, DW_OP_minus] [$rbp+0]
	#DEBUG_VALUE: sdispls <- [DW_OP_constu 72, DW_OP_minus] [$rbp+0]
	#DEBUG_VALUE: Alltoallw:sendtypes <- $r15
	#DEBUG_VALUE: sendtypes <- $r15
	#DEBUG_VALUE: Alltoallw:recvbuf <- $rbx
	#DEBUG_VALUE: recvbuf <- $rbx
	#DEBUG_VALUE: Alltoallw:recvcounts <- [DW_OP_plus_uconst 16] [$rbp+0]
	#DEBUG_VALUE: recvcounts <- [DW_OP_plus_uconst 16] [$rbp+0]
	#DEBUG_VALUE: Alltoallw:rdispls <- [DW_OP_plus_uconst 24] [$rbp+0]
	#DEBUG_VALUE: rdispls <- [DW_OP_plus_uconst 24] [$rbp+0]
	#DEBUG_VALUE: Alltoallw:recvtypes <- [DW_OP_plus_uconst 32] [$rbp+0]
	#DEBUG_VALUE: recvtypes <- [DW_OP_plus_uconst 32] [$rbp+0]
	.loc	12 0 1 is_stmt 0        # /usr/lib/x86_64-linux-gnu/openmpi/include/openmpi/ompi/mpi/cxx/comm_inln.h:0:1
	xorl	%ecx, %ecx
	.loc	12 425 1                # /usr/lib/x86_64-linux-gnu/openmpi/include/openmpi/ompi/mpi/cxx/comm_inln.h:425:1
	movl	%r13d, %esi
	testl	%esi, %esi
	jne	.LBB114_7
	jmp	.LBB114_12
.Ltmp674:
.LBB114_3:                              # %L.B1213
	#DEBUG_VALUE: data_type_tbl <- $r12
	#DEBUG_VALUE: comm_size <- $r13d
	#DEBUG_VALUE: Alltoallw: <- [DW_OP_constu 88, DW_OP_minus] [$rbp+0]
	#DEBUG_VALUE:  <- [DW_OP_constu 88, DW_OP_minus] [$rbp+0]
	#DEBUG_VALUE: Alltoallw:sendbuf <- [DW_OP_constu 48, DW_OP_minus] [$rbp+0]
	#DEBUG_VALUE: sendbuf <- [DW_OP_constu 48, DW_OP_minus] [$rbp+0]
	#DEBUG_VALUE: Alltoallw:sendcounts <- [DW_OP_constu 64, DW_OP_minus] [$rbp+0]
	#DEBUG_VALUE: sendcounts <- [DW_OP_constu 64, DW_OP_minus] [$rbp+0]
	#DEBUG_VALUE: Alltoallw:sdispls <- [DW_OP_constu 72, DW_OP_minus] [$rbp+0]
	#DEBUG_VALUE: sdispls <- [DW_OP_constu 72, DW_OP_minus] [$rbp+0]
	#DEBUG_VALUE: Alltoallw:sendtypes <- $r15
	#DEBUG_VALUE: sendtypes <- $r15
	#DEBUG_VALUE: Alltoallw:recvbuf <- $rbx
	#DEBUG_VALUE: recvbuf <- $rbx
	#DEBUG_VALUE: Alltoallw:recvcounts <- [DW_OP_plus_uconst 16] [$rbp+0]
	#DEBUG_VALUE: recvcounts <- [DW_OP_plus_uconst 16] [$rbp+0]
	#DEBUG_VALUE: Alltoallw:rdispls <- [DW_OP_plus_uconst 24] [$rbp+0]
	#DEBUG_VALUE: rdispls <- [DW_OP_plus_uconst 24] [$rbp+0]
	#DEBUG_VALUE: Alltoallw:recvtypes <- [DW_OP_plus_uconst 32] [$rbp+0]
	#DEBUG_VALUE: recvtypes <- [DW_OP_plus_uconst 32] [$rbp+0]
	.loc	12 0 1                  # /usr/lib/x86_64-linux-gnu/openmpi/include/openmpi/ompi/mpi/cxx/comm_inln.h:0:1
	movq	%rbx, %r9
	.loc	12 425 1                # /usr/lib/x86_64-linux-gnu/openmpi/include/openmpi/ompi/mpi/cxx/comm_inln.h:425:1
	movl	%r13d, %r8d
	shrl	$31, %r8d
	addl	%r13d, %r8d
	movl	%r8d, %esi
	sarl	$2, %esi
	andl	$-4, %r8d
	leaq	24(%r12), %rdi
	xorl	%ecx, %ecx
	movl	$7, %ebx
.Ltmp675:
	.p2align	4, 0x90
.LBB114_4:                              # %L.B1206
                                        # =>This Inner Loop Header: Depth=1
	#DEBUG_VALUE: data_type_tbl <- $r12
	#DEBUG_VALUE: comm_size <- $r13d
	#DEBUG_VALUE: Alltoallw: <- [DW_OP_constu 88, DW_OP_minus] [$rbp+0]
	#DEBUG_VALUE:  <- [DW_OP_constu 88, DW_OP_minus] [$rbp+0]
	#DEBUG_VALUE: Alltoallw:sendbuf <- [DW_OP_constu 48, DW_OP_minus] [$rbp+0]
	#DEBUG_VALUE: sendbuf <- [DW_OP_constu 48, DW_OP_minus] [$rbp+0]
	#DEBUG_VALUE: Alltoallw:sendcounts <- [DW_OP_constu 64, DW_OP_minus] [$rbp+0]
	#DEBUG_VALUE: sendcounts <- [DW_OP_constu 64, DW_OP_minus] [$rbp+0]
	#DEBUG_VALUE: Alltoallw:sdispls <- [DW_OP_constu 72, DW_OP_minus] [$rbp+0]
	#DEBUG_VALUE: sdispls <- [DW_OP_constu 72, DW_OP_minus] [$rbp+0]
	#DEBUG_VALUE: Alltoallw:sendtypes <- $r15
	#DEBUG_VALUE: sendtypes <- $r15
	#DEBUG_VALUE: Alltoallw:recvcounts <- [DW_OP_plus_uconst 16] [$rbp+0]
	#DEBUG_VALUE: recvcounts <- [DW_OP_plus_uconst 16] [$rbp+0]
	#DEBUG_VALUE: Alltoallw:rdispls <- [DW_OP_plus_uconst 24] [$rbp+0]
	#DEBUG_VALUE: rdispls <- [DW_OP_plus_uconst 24] [$rbp+0]
	#DEBUG_VALUE: Alltoallw:recvtypes <- [DW_OP_plus_uconst 32] [$rbp+0]
	#DEBUG_VALUE: recvtypes <- [DW_OP_plus_uconst 32] [$rbp+0]
	movq	-48(%r15,%rbx,8), %rdx
	movq	%rdx, -24(%rdi)
	movq	-48(%r14,%rbx,8), %rdx
	movq	%rdx, -24(%rdi,%rax,8)
	movq	-32(%r15,%rbx,8), %rdx
	movq	%rdx, -16(%rdi)
	movq	-32(%r14,%rbx,8), %rdx
	movq	%rdx, -16(%rdi,%rax,8)
	movq	-16(%r15,%rbx,8), %rdx
	movq	%rdx, -8(%rdi)
	movq	-16(%r14,%rbx,8), %rdx
	movq	%rdx, -8(%rdi,%rax,8)
	movq	(%r15,%rbx,8), %rdx
	movq	%rdx, (%rdi)
	movq	(%r14,%rbx,8), %rdx
	movq	%rdx, (%rdi,%rax,8)
	addq	$32, %rdi
	addl	$4, %ecx
	addq	$8, %rbx
	decl	%esi
	jg	.LBB114_4
.Ltmp676:
# %bb.5:                                # %L.B1208.loopexit
	#DEBUG_VALUE: data_type_tbl <- $r12
	#DEBUG_VALUE: comm_size <- $r13d
	#DEBUG_VALUE: Alltoallw: <- [DW_OP_constu 88, DW_OP_minus] [$rbp+0]
	#DEBUG_VALUE:  <- [DW_OP_constu 88, DW_OP_minus] [$rbp+0]
	#DEBUG_VALUE: Alltoallw:sendbuf <- [DW_OP_constu 48, DW_OP_minus] [$rbp+0]
	#DEBUG_VALUE: sendbuf <- [DW_OP_constu 48, DW_OP_minus] [$rbp+0]
	#DEBUG_VALUE: Alltoallw:sendcounts <- [DW_OP_constu 64, DW_OP_minus] [$rbp+0]
	#DEBUG_VALUE: sendcounts <- [DW_OP_constu 64, DW_OP_minus] [$rbp+0]
	#DEBUG_VALUE: Alltoallw:sdispls <- [DW_OP_constu 72, DW_OP_minus] [$rbp+0]
	#DEBUG_VALUE: sdispls <- [DW_OP_constu 72, DW_OP_minus] [$rbp+0]
	#DEBUG_VALUE: Alltoallw:sendtypes <- $r15
	#DEBUG_VALUE: sendtypes <- $r15
	#DEBUG_VALUE: Alltoallw:recvcounts <- [DW_OP_plus_uconst 16] [$rbp+0]
	#DEBUG_VALUE: recvcounts <- [DW_OP_plus_uconst 16] [$rbp+0]
	#DEBUG_VALUE: Alltoallw:rdispls <- [DW_OP_plus_uconst 24] [$rbp+0]
	#DEBUG_VALUE: rdispls <- [DW_OP_plus_uconst 24] [$rbp+0]
	#DEBUG_VALUE: Alltoallw:recvtypes <- [DW_OP_plus_uconst 32] [$rbp+0]
	#DEBUG_VALUE: recvtypes <- [DW_OP_plus_uconst 32] [$rbp+0]
	movl	%r13d, %esi
	subl	%r8d, %esi
	movq	%r9, %rbx
	testl	%esi, %esi
	je	.LBB114_12
.Ltmp677:
.LBB114_7:                              # %L.B1208
	#DEBUG_VALUE: data_type_tbl <- $r12
	#DEBUG_VALUE: comm_size <- $r13d
	#DEBUG_VALUE: Alltoallw: <- [DW_OP_constu 88, DW_OP_minus] [$rbp+0]
	#DEBUG_VALUE:  <- [DW_OP_constu 88, DW_OP_minus] [$rbp+0]
	#DEBUG_VALUE: Alltoallw:sendbuf <- [DW_OP_constu 48, DW_OP_minus] [$rbp+0]
	#DEBUG_VALUE: sendbuf <- [DW_OP_constu 48, DW_OP_minus] [$rbp+0]
	#DEBUG_VALUE: Alltoallw:sendcounts <- [DW_OP_constu 64, DW_OP_minus] [$rbp+0]
	#DEBUG_VALUE: sendcounts <- [DW_OP_constu 64, DW_OP_minus] [$rbp+0]
	#DEBUG_VALUE: Alltoallw:sdispls <- [DW_OP_constu 72, DW_OP_minus] [$rbp+0]
	#DEBUG_VALUE: sdispls <- [DW_OP_constu 72, DW_OP_minus] [$rbp+0]
	#DEBUG_VALUE: Alltoallw:sendtypes <- $r15
	#DEBUG_VALUE: sendtypes <- $r15
	#DEBUG_VALUE: Alltoallw:recvcounts <- [DW_OP_plus_uconst 16] [$rbp+0]
	#DEBUG_VALUE: recvcounts <- [DW_OP_plus_uconst 16] [$rbp+0]
	#DEBUG_VALUE: Alltoallw:rdispls <- [DW_OP_plus_uconst 24] [$rbp+0]
	#DEBUG_VALUE: rdispls <- [DW_OP_plus_uconst 24] [$rbp+0]
	#DEBUG_VALUE: Alltoallw:recvtypes <- [DW_OP_plus_uconst 32] [$rbp+0]
	#DEBUG_VALUE: recvtypes <- [DW_OP_plus_uconst 32] [$rbp+0]
	cmpl	$1, %esi
	je	.LBB114_11
.Ltmp678:
# %bb.8:                                # %L.B1208
	#DEBUG_VALUE: data_type_tbl <- $r12
	#DEBUG_VALUE: comm_size <- $r13d
	#DEBUG_VALUE: Alltoallw: <- [DW_OP_constu 88, DW_OP_minus] [$rbp+0]
	#DEBUG_VALUE:  <- [DW_OP_constu 88, DW_OP_minus] [$rbp+0]
	#DEBUG_VALUE: Alltoallw:sendbuf <- [DW_OP_constu 48, DW_OP_minus] [$rbp+0]
	#DEBUG_VALUE: sendbuf <- [DW_OP_constu 48, DW_OP_minus] [$rbp+0]
	#DEBUG_VALUE: Alltoallw:sendcounts <- [DW_OP_constu 64, DW_OP_minus] [$rbp+0]
	#DEBUG_VALUE: sendcounts <- [DW_OP_constu 64, DW_OP_minus] [$rbp+0]
	#DEBUG_VALUE: Alltoallw:sdispls <- [DW_OP_constu 72, DW_OP_minus] [$rbp+0]
	#DEBUG_VALUE: sdispls <- [DW_OP_constu 72, DW_OP_minus] [$rbp+0]
	#DEBUG_VALUE: Alltoallw:sendtypes <- $r15
	#DEBUG_VALUE: sendtypes <- $r15
	#DEBUG_VALUE: Alltoallw:recvcounts <- [DW_OP_plus_uconst 16] [$rbp+0]
	#DEBUG_VALUE: recvcounts <- [DW_OP_plus_uconst 16] [$rbp+0]
	#DEBUG_VALUE: Alltoallw:rdispls <- [DW_OP_plus_uconst 24] [$rbp+0]
	#DEBUG_VALUE: rdispls <- [DW_OP_plus_uconst 24] [$rbp+0]
	#DEBUG_VALUE: Alltoallw:recvtypes <- [DW_OP_plus_uconst 32] [$rbp+0]
	#DEBUG_VALUE: recvtypes <- [DW_OP_plus_uconst 32] [$rbp+0]
	cmpl	$2, %esi
	je	.LBB114_10
.Ltmp679:
# %bb.9:                                # %L.B1217
	#DEBUG_VALUE: data_type_tbl <- $r12
	#DEBUG_VALUE: comm_size <- $r13d
	#DEBUG_VALUE: Alltoallw: <- [DW_OP_constu 88, DW_OP_minus] [$rbp+0]
	#DEBUG_VALUE:  <- [DW_OP_constu 88, DW_OP_minus] [$rbp+0]
	#DEBUG_VALUE: Alltoallw:sendbuf <- [DW_OP_constu 48, DW_OP_minus] [$rbp+0]
	#DEBUG_VALUE: sendbuf <- [DW_OP_constu 48, DW_OP_minus] [$rbp+0]
	#DEBUG_VALUE: Alltoallw:sendcounts <- [DW_OP_constu 64, DW_OP_minus] [$rbp+0]
	#DEBUG_VALUE: sendcounts <- [DW_OP_constu 64, DW_OP_minus] [$rbp+0]
	#DEBUG_VALUE: Alltoallw:sdispls <- [DW_OP_constu 72, DW_OP_minus] [$rbp+0]
	#DEBUG_VALUE: sdispls <- [DW_OP_constu 72, DW_OP_minus] [$rbp+0]
	#DEBUG_VALUE: Alltoallw:sendtypes <- $r15
	#DEBUG_VALUE: sendtypes <- $r15
	#DEBUG_VALUE: Alltoallw:recvcounts <- [DW_OP_plus_uconst 16] [$rbp+0]
	#DEBUG_VALUE: recvcounts <- [DW_OP_plus_uconst 16] [$rbp+0]
	#DEBUG_VALUE: Alltoallw:rdispls <- [DW_OP_plus_uconst 24] [$rbp+0]
	#DEBUG_VALUE: rdispls <- [DW_OP_plus_uconst 24] [$rbp+0]
	#DEBUG_VALUE: Alltoallw:recvtypes <- [DW_OP_plus_uconst 32] [$rbp+0]
	#DEBUG_VALUE: recvtypes <- [DW_OP_plus_uconst 32] [$rbp+0]
	movslq	%ecx, %rcx
	movq	%rcx, %rdx
	shlq	$4, %rdx
	movq	8(%r15,%rdx), %rsi
	movq	%rsi, (%r12,%rcx,8)
	movq	8(%r14,%rdx), %rdx
	leal	(%rcx,%r13), %esi
	movslq	%esi, %rsi
	movq	%rdx, (%r12,%rsi,8)
	incl	%ecx
.Ltmp680:
.LBB114_10:                             # %L.B1211
	#DEBUG_VALUE: data_type_tbl <- $r12
	#DEBUG_VALUE: comm_size <- $r13d
	#DEBUG_VALUE: Alltoallw: <- [DW_OP_constu 88, DW_OP_minus] [$rbp+0]
	#DEBUG_VALUE:  <- [DW_OP_constu 88, DW_OP_minus] [$rbp+0]
	#DEBUG_VALUE: Alltoallw:sendbuf <- [DW_OP_constu 48, DW_OP_minus] [$rbp+0]
	#DEBUG_VALUE: sendbuf <- [DW_OP_constu 48, DW_OP_minus] [$rbp+0]
	#DEBUG_VALUE: Alltoallw:sendcounts <- [DW_OP_constu 64, DW_OP_minus] [$rbp+0]
	#DEBUG_VALUE: sendcounts <- [DW_OP_constu 64, DW_OP_minus] [$rbp+0]
	#DEBUG_VALUE: Alltoallw:sdispls <- [DW_OP_constu 72, DW_OP_minus] [$rbp+0]
	#DEBUG_VALUE: sdispls <- [DW_OP_constu 72, DW_OP_minus] [$rbp+0]
	#DEBUG_VALUE: Alltoallw:sendtypes <- $r15
	#DEBUG_VALUE: sendtypes <- $r15
	#DEBUG_VALUE: Alltoallw:recvcounts <- [DW_OP_plus_uconst 16] [$rbp+0]
	#DEBUG_VALUE: recvcounts <- [DW_OP_plus_uconst 16] [$rbp+0]
	#DEBUG_VALUE: Alltoallw:rdispls <- [DW_OP_plus_uconst 24] [$rbp+0]
	#DEBUG_VALUE: rdispls <- [DW_OP_plus_uconst 24] [$rbp+0]
	#DEBUG_VALUE: Alltoallw:recvtypes <- [DW_OP_plus_uconst 32] [$rbp+0]
	#DEBUG_VALUE: recvtypes <- [DW_OP_plus_uconst 32] [$rbp+0]
	movslq	%ecx, %rcx
	movq	%rcx, %rdx
	shlq	$4, %rdx
	movq	8(%r15,%rdx), %rsi
	movq	%rsi, (%r12,%rcx,8)
	movq	8(%r14,%rdx), %rdx
	leal	(%rcx,%r13), %esi
	movslq	%esi, %rsi
	movq	%rdx, (%r12,%rsi,8)
	incl	%ecx
.Ltmp681:
.LBB114_11:                             # %L.B1210
	#DEBUG_VALUE: data_type_tbl <- $r12
	#DEBUG_VALUE: comm_size <- $r13d
	#DEBUG_VALUE: Alltoallw: <- [DW_OP_constu 88, DW_OP_minus] [$rbp+0]
	#DEBUG_VALUE:  <- [DW_OP_constu 88, DW_OP_minus] [$rbp+0]
	#DEBUG_VALUE: Alltoallw:sendbuf <- [DW_OP_constu 48, DW_OP_minus] [$rbp+0]
	#DEBUG_VALUE: sendbuf <- [DW_OP_constu 48, DW_OP_minus] [$rbp+0]
	#DEBUG_VALUE: Alltoallw:sendcounts <- [DW_OP_constu 64, DW_OP_minus] [$rbp+0]
	#DEBUG_VALUE: sendcounts <- [DW_OP_constu 64, DW_OP_minus] [$rbp+0]
	#DEBUG_VALUE: Alltoallw:sdispls <- [DW_OP_constu 72, DW_OP_minus] [$rbp+0]
	#DEBUG_VALUE: sdispls <- [DW_OP_constu 72, DW_OP_minus] [$rbp+0]
	#DEBUG_VALUE: Alltoallw:sendtypes <- $r15
	#DEBUG_VALUE: sendtypes <- $r15
	#DEBUG_VALUE: Alltoallw:recvcounts <- [DW_OP_plus_uconst 16] [$rbp+0]
	#DEBUG_VALUE: recvcounts <- [DW_OP_plus_uconst 16] [$rbp+0]
	#DEBUG_VALUE: Alltoallw:rdispls <- [DW_OP_plus_uconst 24] [$rbp+0]
	#DEBUG_VALUE: rdispls <- [DW_OP_plus_uconst 24] [$rbp+0]
	#DEBUG_VALUE: Alltoallw:recvtypes <- [DW_OP_plus_uconst 32] [$rbp+0]
	#DEBUG_VALUE: recvtypes <- [DW_OP_plus_uconst 32] [$rbp+0]
	movslq	%ecx, %rcx
	movq	%rcx, %rdx
	shlq	$4, %rdx
	movq	8(%r15,%rdx), %rsi
	movq	%rsi, (%r12,%rcx,8)
	movq	8(%r14,%rdx), %rdx
	addl	%r13d, %ecx
	movslq	%ecx, %rcx
	movq	%rdx, (%r12,%rcx,8)
.Ltmp682:
.LBB114_12:                             # %L.B1207
	#DEBUG_VALUE: data_type_tbl <- $r12
	#DEBUG_VALUE: comm_size <- $r13d
	#DEBUG_VALUE: Alltoallw: <- [DW_OP_constu 88, DW_OP_minus] [$rbp+0]
	#DEBUG_VALUE:  <- [DW_OP_constu 88, DW_OP_minus] [$rbp+0]
	#DEBUG_VALUE: Alltoallw:sendbuf <- [DW_OP_constu 48, DW_OP_minus] [$rbp+0]
	#DEBUG_VALUE: sendbuf <- [DW_OP_constu 48, DW_OP_minus] [$rbp+0]
	#DEBUG_VALUE: Alltoallw:sendcounts <- [DW_OP_constu 64, DW_OP_minus] [$rbp+0]
	#DEBUG_VALUE: sendcounts <- [DW_OP_constu 64, DW_OP_minus] [$rbp+0]
	#DEBUG_VALUE: Alltoallw:sdispls <- [DW_OP_constu 72, DW_OP_minus] [$rbp+0]
	#DEBUG_VALUE: sdispls <- [DW_OP_constu 72, DW_OP_minus] [$rbp+0]
	#DEBUG_VALUE: Alltoallw:sendtypes <- $r15
	#DEBUG_VALUE: sendtypes <- $r15
	#DEBUG_VALUE: Alltoallw:recvcounts <- [DW_OP_plus_uconst 16] [$rbp+0]
	#DEBUG_VALUE: recvcounts <- [DW_OP_plus_uconst 16] [$rbp+0]
	#DEBUG_VALUE: Alltoallw:rdispls <- [DW_OP_plus_uconst 24] [$rbp+0]
	#DEBUG_VALUE: rdispls <- [DW_OP_plus_uconst 24] [$rbp+0]
	#DEBUG_VALUE: Alltoallw:recvtypes <- [DW_OP_plus_uconst 32] [$rbp+0]
	#DEBUG_VALUE: recvtypes <- [DW_OP_plus_uconst 32] [$rbp+0]
	.loc	12 430 1 is_stmt 1      # /usr/lib/x86_64-linux-gnu/openmpi/include/openmpi/ompi/mpi/cxx/comm_inln.h:430:1
	leaq	(%r12,%rax,8), %rax
	subq	$8, %rsp
	movq	-48(%rbp), %rdi         # 8-byte Reload
	movq	-64(%rbp), %rsi         # 8-byte Reload
	movq	-72(%rbp), %rdx         # 8-byte Reload
	movq	%r12, %rcx
	movq	%rbx, %r8
	movq	-56(%rbp), %r9          # 8-byte Reload
	movq	-88(%rbp), %rbx         # 8-byte Reload
	pushq	8(%rbx)
	pushq	%rax
	pushq	-80(%rbp)               # 8-byte Folded Reload
	callq	MPI_Alltoallw
	addq	$32, %rsp
	.loc	12 438 1                # /usr/lib/x86_64-linux-gnu/openmpi/include/openmpi/ompi/mpi/cxx/comm_inln.h:438:1
	movq	%r12, %rdi
	addq	$56, %rsp
	popq	%rbx
	popq	%r12
.Ltmp683:
	popq	%r13
.Ltmp684:
	popq	%r14
	popq	%r15
.Ltmp685:
	popq	%rbp
	.cfi_def_cfa %rsp, 8
	jmp	_ZdaPv                  # TAILCALL
.Ltmp686:
.Lfunc_end114:
	.size	_ZNK3MPI4Comm9AlltoallwEPKvPKiS4_PKNS_8DatatypeEPvS4_S4_S7_, .Lfunc_end114-_ZNK3MPI4Comm9AlltoallwEPKvPKiS4_PKNS_8DatatypeEPvS4_S4_S7_
	.cfi_endproc
                                        # -- End function
	.weak	_ZNK3MPI4Comm6ReduceEPKvPviRKNS_8DatatypeERKNS_2OpEi # -- Begin function _ZNK3MPI4Comm6ReduceEPKvPviRKNS_8DatatypeERKNS_2OpEi
	.p2align	4, 0x90
	.type	_ZNK3MPI4Comm6ReduceEPKvPviRKNS_8DatatypeERKNS_2OpEi,@function
_ZNK3MPI4Comm6ReduceEPKvPviRKNS_8DatatypeERKNS_2OpEi: # @_ZNK3MPI4Comm6ReduceEPKvPviRKNS_8DatatypeERKNS_2OpEi
.Lfunc_begin115:
	.loc	12 445 0                # /usr/lib/x86_64-linux-gnu/openmpi/include/openmpi/ompi/mpi/cxx/comm_inln.h:445:0
	.cfi_startproc
# %bb.0:                                # %L.entry
	#DEBUG_VALUE: Reduce: <- $rdi
	#DEBUG_VALUE: Reduce:sendbuf <- $rsi
	#DEBUG_VALUE: Reduce:recvbuf <- $rdx
	#DEBUG_VALUE: Reduce:count <- $ecx
	#DEBUG_VALUE: Reduce:datatype <- $r8
	#DEBUG_VALUE: Reduce:op <- $r9
	pushq	%rbp
	.cfi_def_cfa_offset 16
	.cfi_offset %rbp, -16
	movq	%rsp, %rbp
	.cfi_def_cfa_register %rbp
	subq	$16, %rsp
.Ltmp687:
	#DEBUG_VALUE:  <- $rdi
	#DEBUG_VALUE: sendbuf <- $rsi
	#DEBUG_VALUE: recvbuf <- $rdx
	#DEBUG_VALUE: count <- $ecx
	#DEBUG_VALUE: datatype <- $r8
	#DEBUG_VALUE: op <- $r9
	movl	16(%rbp), %r10d
.Ltmp688:
	#DEBUG_VALUE: root <- [DW_OP_plus_uconst 16] [$rbp+0]
	#DEBUG_VALUE: Reduce:root <- [DW_OP_plus_uconst 16] [$rbp+0]
	#DEBUG_VALUE: op <- $r9
	#DEBUG_VALUE: Reduce:op <- $r9
	#DEBUG_VALUE: datatype <- $r8
	#DEBUG_VALUE: Reduce:datatype <- $r8
	#DEBUG_VALUE: count <- $ecx
	#DEBUG_VALUE: Reduce:count <- $ecx
	#DEBUG_VALUE: recvbuf <- $rdx
	#DEBUG_VALUE: Reduce:recvbuf <- $rdx
	#DEBUG_VALUE: sendbuf <- $rsi
	#DEBUG_VALUE: Reduce:sendbuf <- $rsi
	#DEBUG_VALUE:  <- $rdi
	#DEBUG_VALUE: Reduce: <- $rdi
	.loc	12 102 1 prologue_end   # /usr/lib/x86_64-linux-gnu/openmpi/include/openmpi/ompi/mpi/cxx/comm_inln.h:102:1
	movq	8(%r8), %rax
	movq	8(%r9), %r8
.Ltmp689:
	movq	8(%rdi), %rdi
.Ltmp690:
	movq	%rdi, (%rsp)
	movq	%rsi, %rdi
.Ltmp691:
	#DEBUG_VALUE: sendbuf <- $rdi
	#DEBUG_VALUE: Reduce:sendbuf <- $rdi
	movq	%rdx, %rsi
.Ltmp692:
	#DEBUG_VALUE: recvbuf <- $rsi
	#DEBUG_VALUE: Reduce:recvbuf <- $rsi
	movl	%ecx, %edx
.Ltmp693:
	#DEBUG_VALUE: count <- $edx
	#DEBUG_VALUE: Reduce:count <- $edx
	movq	%rax, %rcx
	movl	%r10d, %r9d
.Ltmp694:
	callq	MPI_Reduce
.Ltmp695:
	.loc	12 447 1                # /usr/lib/x86_64-linux-gnu/openmpi/include/openmpi/ompi/mpi/cxx/comm_inln.h:447:1
	addq	$16, %rsp
	popq	%rbp
	.cfi_def_cfa %rsp, 8
	retq
.Ltmp696:
.Lfunc_end115:
	.size	_ZNK3MPI4Comm6ReduceEPKvPviRKNS_8DatatypeERKNS_2OpEi, .Lfunc_end115-_ZNK3MPI4Comm6ReduceEPKvPviRKNS_8DatatypeERKNS_2OpEi
	.cfi_endproc
                                        # -- End function
	.weak	_ZNK3MPI4Comm9AllreduceEPKvPviRKNS_8DatatypeERKNS_2OpE # -- Begin function _ZNK3MPI4Comm9AllreduceEPKvPviRKNS_8DatatypeERKNS_2OpE
	.p2align	4, 0x90
	.type	_ZNK3MPI4Comm9AllreduceEPKvPviRKNS_8DatatypeERKNS_2OpE,@function
_ZNK3MPI4Comm9AllreduceEPKvPviRKNS_8DatatypeERKNS_2OpE: # @_ZNK3MPI4Comm9AllreduceEPKvPviRKNS_8DatatypeERKNS_2OpE
.Lfunc_begin116:
	.loc	12 452 0                # /usr/lib/x86_64-linux-gnu/openmpi/include/openmpi/ompi/mpi/cxx/comm_inln.h:452:0
	.cfi_startproc
# %bb.0:                                # %L.entry
	#DEBUG_VALUE: Allreduce: <- $rdi
	#DEBUG_VALUE: Allreduce: <- $rdi
	#DEBUG_VALUE: Allreduce:sendbuf <- $rsi
	#DEBUG_VALUE: Allreduce:sendbuf <- $rsi
	#DEBUG_VALUE: Allreduce:recvbuf <- $rdx
	#DEBUG_VALUE: Allreduce:recvbuf <- $rdx
	#DEBUG_VALUE: Allreduce:count <- $ecx
	#DEBUG_VALUE: Allreduce:count <- $ecx
	#DEBUG_VALUE: Allreduce:datatype <- $r8
	#DEBUG_VALUE: Allreduce:datatype <- $r8
	#DEBUG_VALUE: Allreduce:op <- $r9
	#DEBUG_VALUE: Allreduce:op <- $r9
	pushq	%rbp
	.cfi_def_cfa_offset 16
	.cfi_offset %rbp, -16
	movq	%rsp, %rbp
	.cfi_def_cfa_register %rbp
.Ltmp697:
	#DEBUG_VALUE:  <- $rdi
	#DEBUG_VALUE:  <- $rdi
	#DEBUG_VALUE: sendbuf <- $rsi
	#DEBUG_VALUE: sendbuf <- $rsi
	#DEBUG_VALUE: recvbuf <- $rdx
	#DEBUG_VALUE: recvbuf <- $rdx
	#DEBUG_VALUE: count <- $ecx
	#DEBUG_VALUE: count <- $ecx
	#DEBUG_VALUE: datatype <- $r8
	#DEBUG_VALUE: datatype <- $r8
	#DEBUG_VALUE: op <- $r9
	#DEBUG_VALUE: op <- $r9
	.loc	12 102 1 prologue_end   # /usr/lib/x86_64-linux-gnu/openmpi/include/openmpi/ompi/mpi/cxx/comm_inln.h:102:1
	movq	8(%r8), %rax
	movq	8(%r9), %r8
.Ltmp698:
	movq	8(%rdi), %r9
.Ltmp699:
	movq	%rsi, %rdi
.Ltmp700:
	#DEBUG_VALUE: sendbuf <- $rdi
	#DEBUG_VALUE: Allreduce:sendbuf <- $rdi
	movq	%rdx, %rsi
.Ltmp701:
	#DEBUG_VALUE: recvbuf <- $rsi
	#DEBUG_VALUE: Allreduce:recvbuf <- $rsi
	movl	%ecx, %edx
.Ltmp702:
	#DEBUG_VALUE: count <- $edx
	#DEBUG_VALUE: Allreduce:count <- $edx
	movq	%rax, %rcx
	popq	%rbp
	.cfi_def_cfa %rsp, 8
	jmp	MPI_Allreduce           # TAILCALL
.Ltmp703:
.Lfunc_end116:
	.size	_ZNK3MPI4Comm9AllreduceEPKvPviRKNS_8DatatypeERKNS_2OpE, .Lfunc_end116-_ZNK3MPI4Comm9AllreduceEPKvPviRKNS_8DatatypeERKNS_2OpE
	.cfi_endproc
                                        # -- End function
	.weak	_ZNK3MPI4Comm14Reduce_scatterEPKvPvPiRKNS_8DatatypeERKNS_2OpE # -- Begin function _ZNK3MPI4Comm14Reduce_scatterEPKvPvPiRKNS_8DatatypeERKNS_2OpE
	.p2align	4, 0x90
	.type	_ZNK3MPI4Comm14Reduce_scatterEPKvPvPiRKNS_8DatatypeERKNS_2OpE,@function
_ZNK3MPI4Comm14Reduce_scatterEPKvPvPiRKNS_8DatatypeERKNS_2OpE: # @_ZNK3MPI4Comm14Reduce_scatterEPKvPvPiRKNS_8DatatypeERKNS_2OpE
.Lfunc_begin117:
	.loc	12 461 0                # /usr/lib/x86_64-linux-gnu/openmpi/include/openmpi/ompi/mpi/cxx/comm_inln.h:461:0
	.cfi_startproc
# %bb.0:                                # %L.entry
	#DEBUG_VALUE: Reduce_scatter: <- $rdi
	#DEBUG_VALUE: Reduce_scatter: <- $rdi
	#DEBUG_VALUE: Reduce_scatter:sendbuf <- $rsi
	#DEBUG_VALUE: Reduce_scatter:sendbuf <- $rsi
	#DEBUG_VALUE: Reduce_scatter:recvbuf <- $rdx
	#DEBUG_VALUE: Reduce_scatter:recvbuf <- $rdx
	#DEBUG_VALUE: Reduce_scatter:recvcounts <- $rcx
	#DEBUG_VALUE: Reduce_scatter:recvcounts <- $rcx
	#DEBUG_VALUE: Reduce_scatter:datatype <- $r8
	#DEBUG_VALUE: Reduce_scatter:datatype <- $r8
	#DEBUG_VALUE: Reduce_scatter:op <- $r9
