; ModuleID = 'projects/read_gaussian_population.cpp'
target datalayout = "e-p:64:64-i64:64-f80:128-n8:16:32:64-S128"
target triple = "x86_64-pc-linux-gnu"
define internal void @pgCplus_compiled.() noinline {
L.entry:
	ret void
}


define linkonce_odr void @_ZNSt11char_traitsIcE6assignERcRKc(i8* %__c1.arg, i8* %__c2.arg) #0 inlinehint !dbg !2072 {
L.entry:
	%__c1.addr = alloca i8*, align 8
	%__c2.addr = alloca i8*, align 8

	call void @llvm.dbg.declare (metadata i8** %__c1.addr, metadata !2076, metadata !2077), !dbg !2073
	store i8* %__c1.arg, i8** %__c1.addr, align 8, !tbaa !2084
	call void @llvm.dbg.declare (metadata i8** %__c1.addr, metadata !2078, metadata !2077), !dbg !2073
	call void @llvm.dbg.declare (metadata i8** %__c2.addr, metadata !2079, metadata !2077), !dbg !2073
	store i8* %__c2.arg, i8** %__c2.addr, align 8, !tbaa !2084
	call void @llvm.dbg.declare (metadata i8** %__c2.addr, metadata !2080, metadata !2077), !dbg !2073
	%0 = load i8*, i8** %__c2.addr, align 8, !tbaa !2084, !dbg !2081
	%1 = load i8, i8*  %0, align 1, !tbaa !2085, !dbg !2081
	%2 = load i8*, i8** %__c1.addr, align 8, !tbaa !2084, !dbg !2081
	store i8  %1, i8*  %2, align 1, !tbaa !2085, !dbg !2081
	ret void, !dbg !2081
}
define linkonce_odr i64 @_ZNSt11char_traitsIcE6lengthEPKc(i8* %__s.arg) #0 inlinehint !dbg !2089 {
L.entry:
	%__s.addr = alloca i8*, align 8

	call void @llvm.dbg.declare (metadata i8** %__s.addr, metadata !2093, metadata !2077), !dbg !2090
	store i8* %__s.arg, i8** %__s.addr, align 8, !tbaa !2084
	call void @llvm.dbg.declare (metadata i8** %__s.addr, metadata !2094, metadata !2077), !dbg !2090
	%0 = load i8*, i8** %__s.addr, align 8, !tbaa !2084, !dbg !2095
	%1 = call i64  @strlen (i8*  %0) nounwind, !dbg !2095
	ret i64  %1, !dbg !2095
}
define linkonce_odr i8* @_ZNSt11char_traitsIcE4copyEPcPKcm(i8* %__s1.arg, i8* %__s2.arg, i64 %__n.arg) #0 inlinehint !dbg !2100 {
L.entry:
	%__s1.addr = alloca i8*, align 8
	%__s2.addr = alloca i8*, align 8
	%__n.addr = alloca i64, align 8

	call void @llvm.dbg.declare (metadata i8** %__s1.addr, metadata !2104, metadata !2077), !dbg !2101
	store i8* %__s1.arg, i8** %__s1.addr, align 8, !tbaa !2084
	call void @llvm.dbg.declare (metadata i8** %__s1.addr, metadata !2105, metadata !2077), !dbg !2101
	call void @llvm.dbg.declare (metadata i8** %__s2.addr, metadata !2106, metadata !2077), !dbg !2101
	store i8* %__s2.arg, i8** %__s2.addr, align 8, !tbaa !2084
	call void @llvm.dbg.declare (metadata i8** %__s2.addr, metadata !2107, metadata !2077), !dbg !2101
	call void @llvm.dbg.declare (metadata i64* %__n.addr, metadata !2108, metadata !2077), !dbg !2101
	store i64 %__n.arg, i64* %__n.addr, align 8, !tbaa !2085
	call void @llvm.dbg.declare (metadata i64* %__n.addr, metadata !2109, metadata !2077), !dbg !2101
	%0 = load i64, i64* %__n.addr, align 8, !tbaa !2115, !dbg !2110
	%1 = icmp ne i64  %0, 0, !dbg !2110
	br i1  %1, label %L.B0000, label %L.B0810, !dbg !2110
L.B0810:
	%2 = load i8*, i8** %__s1.addr, align 8, !tbaa !2084, !dbg !2111
	ret i8*  %2, !dbg !2111
L.B0811:
	br label %L.R0002, !dbg !2111
L.B0000:
	%3 = load i8*, i8** %__s1.addr, align 8, !tbaa !2084, !dbg !2112
	%4 = load i8*, i8** %__s2.addr, align 8, !tbaa !2084, !dbg !2112
	%5 = load i64, i64* %__n.addr, align 8, !tbaa !2115, !dbg !2112
	%6 = call i8*  @memcpy (i8*  %3, i8*  %4, i64  %5) nounwind, !dbg !2112
	ret i8*  %6, !dbg !2112
L.R0002:
	ret i8* null
}

%struct._ZSaIcE = type <{ [1 x i8]}> 

define linkonce_odr void @_ZNSaIcEC1Ev(%struct._ZSaIcE* %_T47232200_9536.arg) #0 inlinehint !dbg !2122 {
L.entry:
	%_T47232200_9536.addr = alloca %struct._ZSaIcE*, align 8

	call void @llvm.dbg.declare (metadata %struct._ZSaIcE** %_T47232200_9536.addr, metadata !2126, metadata !2077), !dbg !2123
	store %struct._ZSaIcE* %_T47232200_9536.arg, %struct._ZSaIcE** %_T47232200_9536.addr, align 8, !tbaa !2084
	call void @llvm.dbg.declare (metadata %struct._ZSaIcE** %_T47232200_9536.addr, metadata !2127, metadata !2077), !dbg !2123
	ret void, !dbg !2128
}
define linkonce_odr void @_ZNSaIcEC2Ev(%struct._ZSaIcE* %_T47232200_9537.arg) #0 inlinehint !dbg !2130 {
L.entry:
	%_T47232200_9537.addr = alloca %struct._ZSaIcE*, align 8

	store %struct._ZSaIcE* %_T47232200_9537.arg, %struct._ZSaIcE** %_T47232200_9537.addr, align 8, !tbaa !2084
	ret void, !dbg !2138
}
define linkonce_odr void @_ZNSaIcEC1ERKS_(%struct._ZSaIcE* %_T47232200_9538.arg, %struct._ZSaIcE* %__a.arg) #0 inlinehint !dbg !2146 {
L.entry:
	%_T47232200_9538.addr = alloca %struct._ZSaIcE*, align 8
	%__a.addr = alloca %struct._ZSaIcE*, align 8

	call void @llvm.dbg.declare (metadata %struct._ZSaIcE** %_T47232200_9538.addr, metadata !2150, metadata !2077), !dbg !2147
	store %struct._ZSaIcE* %_T47232200_9538.arg, %struct._ZSaIcE** %_T47232200_9538.addr, align 8, !tbaa !2084
	call void @llvm.dbg.declare (metadata %struct._ZSaIcE** %_T47232200_9538.addr, metadata !2151, metadata !2077), !dbg !2147
	call void @llvm.dbg.declare (metadata %struct._ZSaIcE** %__a.addr, metadata !2152, metadata !2077), !dbg !2147
	store %struct._ZSaIcE* %__a.arg, %struct._ZSaIcE** %__a.addr, align 8, !tbaa !2084
	call void @llvm.dbg.declare (metadata %struct._ZSaIcE** %__a.addr, metadata !2153, metadata !2077), !dbg !2147
	ret void, !dbg !2154
}
define linkonce_odr void @_ZNSaIcEC2ERKS_(%struct._ZSaIcE* %_T47232200_9539.arg, %struct._ZSaIcE* %_T47232496_9539.arg) #0 inlinehint !dbg !2156 {
L.entry:
	%_T47232200_9539.addr = alloca %struct._ZSaIcE*, align 8
	%_T47232496_9539.addr = alloca %struct._ZSaIcE*, align 8

	store %struct._ZSaIcE* %_T47232200_9539.arg, %struct._ZSaIcE** %_T47232200_9539.addr, align 8, !tbaa !2084
	store %struct._ZSaIcE* %_T47232496_9539.arg, %struct._ZSaIcE** %_T47232496_9539.addr, align 8, !tbaa !2084
	ret void, !dbg !2164
}
define linkonce_odr void @_ZNSaIcED1Ev(%struct._ZSaIcE* %_T47232200_9540.arg) #0 inlinehint !dbg !2166 {
L.entry:
	%_T47232200_9540.addr = alloca %struct._ZSaIcE*, align 8

	call void @llvm.dbg.declare (metadata %struct._ZSaIcE** %_T47232200_9540.addr, metadata !2170, metadata !2077), !dbg !2167
	store %struct._ZSaIcE* %_T47232200_9540.arg, %struct._ZSaIcE** %_T47232200_9540.addr, align 8, !tbaa !2084
	call void @llvm.dbg.declare (metadata %struct._ZSaIcE** %_T47232200_9540.addr, metadata !2171, metadata !2077), !dbg !2167
	ret void, !dbg !2172
}
define linkonce_odr void @_ZNSaIcED2Ev(%struct._ZSaIcE* %_T47232200_9541.arg) #0 inlinehint !dbg !2174 {
L.entry:
	%_T47232200_9541.addr = alloca %struct._ZSaIcE*, align 8

	store %struct._ZSaIcE* %_T47232200_9541.arg, %struct._ZSaIcE** %_T47232200_9541.addr, align 8, !tbaa !2084
	ret void, !dbg !2182
}
define linkonce_odr void @_ZNSt16allocator_traitsISaIcEE10deallocateERS0_Pcm(%struct._ZSaIcE* %__a.arg, i8* %__p.arg, i64 %__n.arg) #0 inlinehint !dbg !2192 {
L.entry:
	%__a.addr = alloca %struct._ZSaIcE*, align 8
	%__p.addr = alloca i8*, align 8
	%__n.addr = alloca i64, align 8
	%..inline.addr = alloca i8*, align 8

	call void @llvm.dbg.declare (metadata %struct._ZSaIcE** %__a.addr, metadata !2200, metadata !2077), !dbg !2193
	store %struct._ZSaIcE* %__a.arg, %struct._ZSaIcE** %__a.addr, align 8, !tbaa !2084
	call void @llvm.dbg.declare (metadata %struct._ZSaIcE** %__a.addr, metadata !2201, metadata !2077), !dbg !2193
	call void @llvm.dbg.declare (metadata i8** %__p.addr, metadata !2202, metadata !2077), !dbg !2193
	store i8* %__p.arg, i8** %__p.addr, align 8, !tbaa !2084
	call void @llvm.dbg.declare (metadata i8** %__p.addr, metadata !2203, metadata !2077), !dbg !2193
	call void @llvm.dbg.declare (metadata i64* %__n.addr, metadata !2204, metadata !2077), !dbg !2193
	store i64 %__n.arg, i64* %__n.addr, align 8, !tbaa !2085
	call void @llvm.dbg.declare (metadata i64* %__n.addr, metadata !2205, metadata !2077), !dbg !2193
	%0 = load i8*, i8** %__p.addr, align 8, !tbaa !2084, !dbg !2206
	call void  @_ZdlPv (i8*  %0) nounwind, !dbg !2207
	ret void, !dbg !2206
}
define linkonce_odr i64 @_ZNSt16allocator_traitsISaIcEE8max_sizeERKS0_(%struct._ZSaIcE* %__a.arg) #0 inlinehint !dbg !2215 {
L.entry:
	%__a.addr = alloca %struct._ZSaIcE*, align 8

	call void @llvm.dbg.declare (metadata %struct._ZSaIcE** %__a.addr, metadata !2223, metadata !2077), !dbg !2216
	store %struct._ZSaIcE* %__a.arg, %struct._ZSaIcE** %__a.addr, align 8, !tbaa !2084
	call void @llvm.dbg.declare (metadata %struct._ZSaIcE** %__a.addr, metadata !2224, metadata !2077), !dbg !2216
	ret i64 -1, !dbg !2225
}
define linkonce_odr void @_ZNSt16allocator_traitsISaIcEE37select_on_container_copy_constructionERKS0_(%struct._ZSaIcE* sret %_T47232200_9549.arg, %struct._ZSaIcE* %__rhs.arg) #0 inlinehint !dbg !2230 {
L.entry:
	%_T47232200_9549.addr = alloca %struct._ZSaIcE*, align 8
	%__rhs.addr = alloca %struct._ZSaIcE*, align 8

	store %struct._ZSaIcE* %_T47232200_9549.arg, %struct._ZSaIcE** %_T47232200_9549.addr, align 8, !tbaa !2084
	call void @llvm.dbg.declare (metadata %struct._ZSaIcE** %__rhs.addr, metadata !2234, metadata !2077), !dbg !2231
	store %struct._ZSaIcE* %__rhs.arg, %struct._ZSaIcE** %__rhs.addr, align 8, !tbaa !2084
	call void @llvm.dbg.declare (metadata %struct._ZSaIcE** %__rhs.addr, metadata !2235, metadata !2077), !dbg !2231
	ret void, !dbg !2236
}

%struct.__SO__NSt6locale5facetE = type <{ i32 (...)* (...)*, i32}> 
%struct._ZSt5ctypeIcE = type <{ %struct.__SO__NSt6locale5facetE, [4 x i8], %struct.__locale_struct*, i8, [7 x i8], i32*, i32*, i16*, i8, [256 x i8], [256 x i8], i8, [6 x i8]}> 
%struct.__locale_data = type opaque
%struct.__locale_struct = type <{ [13 x %struct.__locale_data*], i16*, i32*, i32*, [13 x i8*]}> 

define linkonce_odr signext i8 @_ZNKSt5ctypeIcE5widenEc(%struct._ZSt5ctypeIcE* %_T47232384_9553.arg, i8 signext %__c.arg) #0 inlinehint !dbg !2242 {
L.entry:
	%_T47232384_9553.addr = alloca %struct._ZSt5ctypeIcE*, align 8
	%__c.addr = alloca i8, align 1
	%.Q0000.addr = alloca i32, align 4

	call void @llvm.dbg.declare (metadata %struct._ZSt5ctypeIcE** %_T47232384_9553.addr, metadata !2246, metadata !2077), !dbg !2243
	store %struct._ZSt5ctypeIcE* %_T47232384_9553.arg, %struct._ZSt5ctypeIcE** %_T47232384_9553.addr, align 8, !tbaa !2084
	call void @llvm.dbg.declare (metadata %struct._ZSt5ctypeIcE** %_T47232384_9553.addr, metadata !2247, metadata !2077), !dbg !2243
	call void @llvm.dbg.declare (metadata i8* %__c.addr, metadata !2248, metadata !2077), !dbg !2243
	store i8 %__c.arg, i8* %__c.addr, align 1, !tbaa !2085
	call void @llvm.dbg.declare (metadata i8* %__c.addr, metadata !2249, metadata !2077), !dbg !2243
	%0 = load %struct._ZSt5ctypeIcE*, %struct._ZSt5ctypeIcE** %_T47232384_9553.addr, align 8, !tbaa !2084, !dbg !2250
	%1 = bitcast %struct._ZSt5ctypeIcE*  %0 to i8*, !dbg !2250
	%2 = getelementptr i8, i8*  %1, i64 56, !dbg !2250
	%3 = load i8, i8*  %2, align 1, !tbaa !2085, !dbg !2250
	%4 = sext i8  %3 to i32, !dbg !2250
	%5 = icmp eq i32  %4, 0, !dbg !2250
	br i1  %5, label %L.B0001, label %L.B0822, !dbg !2250
L.B0822:
	%6 = bitcast %struct._ZSt5ctypeIcE*  %0 to i8*, !dbg !2251
	%7 = getelementptr i8, i8*  %6, i64 57, !dbg !2251
	%8 = load i8, i8* %__c.addr, align 1, !tbaa !2085, !dbg !2251
	%9 = sext i8  %8 to i32, !dbg !2251
	%10 = and i32  %9, 255, !dbg !2251
	%11 = sext i32  %10 to i64, !dbg !2251
	%12 = getelementptr i8, i8*  %7, i64  %11, !dbg !2251
	%13 = load i8, i8*  %12, align 1, !tbaa !2085, !dbg !2251
	ret i8  %13, !dbg !2251
L.B0823:
	br label %L.R0012, !dbg !2251
L.B0001:
	%14 = load %struct._ZSt5ctypeIcE*, %struct._ZSt5ctypeIcE** %_T47232384_9553.addr, align 8, !tbaa !2084, !dbg !2252
	call void  @_ZNKSt5ctypeIcE13_M_widen_initEv (%struct._ZSt5ctypeIcE*  %14), !dbg !2252
	%15 = load %struct._ZSt5ctypeIcE*, %struct._ZSt5ctypeIcE** %_T47232384_9553.addr, align 8, !tbaa !2084, !dbg !2253
	%16 = load i8, i8* %__c.addr, align 1, !tbaa !2085, !dbg !2253
	%17 = bitcast %struct._ZSt5ctypeIcE*  %15 to i8**, !dbg !2253
	%18 = load i8*, i8**  %17, align 8, !tbaa !2084, !dbg !2253
	%19 = getelementptr i8, i8*  %18, i64 48, !dbg !2253
	%20 = bitcast i8*  %19 to i8 (%struct._ZSt5ctypeIcE*, i8)**, !dbg !2253
	%21 = load i8 (%struct._ZSt5ctypeIcE*, i8)*, i8 (%struct._ZSt5ctypeIcE*, i8)**  %20, align 8, !tbaa !2084, !dbg !2253
	%22 = call i8  %21 (%struct._ZSt5ctypeIcE*  %15, i8  %16), !dbg !2253
	%23 = sext i8  %22 to i32, !dbg !2253
	store i32  %23, i32* %.Q0000.addr, align 4, !tbaa !2256, !dbg !2253
	%24 = shl i32  %23, 24, !dbg !2253
	%25 = ashr i32  %24, 24, !dbg !2253
	%26 = trunc i32  %25 to i8, !dbg !2253
	ret i8  %26, !dbg !2253
L.R0012:
	ret i8 0
}

%struct._ZSo = type <{ i32 (...)* (...)*, %struct._ZSt9basic_iosIcSt11char_traitsIcEE}> 
%struct._ZSt9basic_iosIcSt11char_traitsIcEE = type <{ %struct._ZSt8ios_base, %struct._ZSo*, i8, i8, [6 x i8], %struct._ZSt15basic_streambufIcSt11char_traitsIcEE*, %struct._ZSt5ctypeIcE*, %struct._ZSt7num_putIcSt19ostreambuf_iteratorIcSt11char_traitsIcEEE*, %struct._ZSt7num_getIcSt19istreambuf_iteratorIcSt11char_traitsIcEEE*}> 
%struct._ZNSt8ios_base14_Callback_listE = type <{ %struct._ZNSt8ios_base14_Callback_listE*, void (i32, %struct._ZSt8ios_base*, i32)*, i32, i32}> 
%struct._ZNSt6locale5_ImplE = type <{ i32, [4 x i8], %struct._ZNSt6locale5facetE**, i64, %struct._ZNSt6locale5facetE**, i8**}> 
%struct._ZSt8ios_base = type <{ i32 (...)* (...)*, i64, i64, i32, i32, i32, [4 x i8], %struct._ZNSt8ios_base14_Callback_listE*, %struct._ZNSt8ios_base6_WordsE, [8 x %struct._ZNSt8ios_base6_WordsE], i32, [4 x i8], %struct._ZNSt8ios_base6_WordsE*, %struct._ZSt6locale}> 
%struct._ZSt6locale = type <{ %struct._ZNSt6locale5_ImplE*}> 
%struct._ZSt15basic_streambufIcSt11char_traitsIcEE = type <{ i32 (...)* (...)*, i8*, i8*, i8*, i8*, i8*, i8*, %struct._ZSt6locale}> 
%struct._ZSt7num_putIcSt19ostreambuf_iteratorIcSt11char_traitsIcEEE = type <{ %struct.__SO__NSt6locale5facetE, [4 x i8]}> 
%struct._ZSt7num_getIcSt19istreambuf_iteratorIcSt11char_traitsIcEEE = type <{ %struct.__SO__NSt6locale5facetE, [4 x i8]}> 
%struct._ZNSt8ios_base6_WordsE = type <{ i8*, i64}> 
%struct._ZNSt6locale5facetE = type <{ i32 (...)* (...)*, i32, [4 x i8]}> 

define linkonce_odr signext i32 @_ZNKSt9basic_iosIcSt11char_traitsIcEE7rdstateEv(%struct._ZSt9basic_iosIcSt11char_traitsIcEE* %_T47232200_9556.arg) #0 inlinehint !dbg !2263 {
L.entry:
	%_T47232200_9556.addr = alloca %struct._ZSt9basic_iosIcSt11char_traitsIcEE*, align 8

	call void @llvm.dbg.declare (metadata %struct._ZSt9basic_iosIcSt11char_traitsIcEE** %_T47232200_9556.addr, metadata !2267, metadata !2077), !dbg !2264
	store %struct._ZSt9basic_iosIcSt11char_traitsIcEE* %_T47232200_9556.arg, %struct._ZSt9basic_iosIcSt11char_traitsIcEE** %_T47232200_9556.addr, align 8, !tbaa !2084
	call void @llvm.dbg.declare (metadata %struct._ZSt9basic_iosIcSt11char_traitsIcEE** %_T47232200_9556.addr, metadata !2268, metadata !2077), !dbg !2264
	%0 = load %struct._ZSt9basic_iosIcSt11char_traitsIcEE*, %struct._ZSt9basic_iosIcSt11char_traitsIcEE** %_T47232200_9556.addr, align 8, !tbaa !2084, !dbg !2269
	%1 = bitcast %struct._ZSt9basic_iosIcSt11char_traitsIcEE*  %0 to i8*, !dbg !2269
	%2 = getelementptr i8, i8*  %1, i64 32, !dbg !2269
	%3 = bitcast i8*  %2 to i32*, !dbg !2269
	%4 = load i32, i32*  %3, align 4, !tbaa !2085, !dbg !2269
	ret i32  %4, !dbg !2269
}
define linkonce_odr void @_ZNSt9basic_iosIcSt11char_traitsIcEE8setstateESt12_Ios_Iostate(%struct._ZSt9basic_iosIcSt11char_traitsIcEE* %_T47232200_9560.arg, i32 signext %__state.arg) #0 inlinehint !dbg !2273 {
L.entry:
	%_T47232200_9560.addr = alloca %struct._ZSt9basic_iosIcSt11char_traitsIcEE*, align 8
	%__state.addr = alloca i32, align 4
	%..inline.addr = alloca i32, align 4

	call void @llvm.dbg.declare (metadata %struct._ZSt9basic_iosIcSt11char_traitsIcEE** %_T47232200_9560.addr, metadata !2285, metadata !2077), !dbg !2274
	store %struct._ZSt9basic_iosIcSt11char_traitsIcEE* %_T47232200_9560.arg, %struct._ZSt9basic_iosIcSt11char_traitsIcEE** %_T47232200_9560.addr, align 8, !tbaa !2084
	call void @llvm.dbg.declare (metadata %struct._ZSt9basic_iosIcSt11char_traitsIcEE** %_T47232200_9560.addr, metadata !2286, metadata !2077), !dbg !2274
	call void @llvm.dbg.declare (metadata i32* %__state.addr, metadata !2287, metadata !2077), !dbg !2274
	store i32 %__state.arg, i32* %__state.addr, align 4, !tbaa !2085
	call void @llvm.dbg.declare (metadata i32* %__state.addr, metadata !2288, metadata !2077), !dbg !2274
	%0 = load i32, i32* %__state.addr, align 4, !tbaa !2085, !dbg !2289
	%1 = load %struct._ZSt9basic_iosIcSt11char_traitsIcEE*, %struct._ZSt9basic_iosIcSt11char_traitsIcEE** %_T47232200_9560.addr, align 8, !tbaa !2084, !dbg !2289
	%2 = bitcast %struct._ZSt9basic_iosIcSt11char_traitsIcEE*  %1 to i8*, !dbg !2289
	%3 = getelementptr i8, i8*  %2, i64 32, !dbg !2289
	%4 = bitcast i8*  %3 to i32*, !dbg !2289
	%5 = load i32, i32*  %4, align 4, !tbaa !2085, !dbg !2289
	%6 = or i32  %0,  %5, !dbg !2289
	call void  @_ZNSt9basic_iosIcSt11char_traitsIcEE5clearESt12_Ios_Iostate (%struct._ZSt9basic_iosIcSt11char_traitsIcEE*  %1, i32  %6), !dbg !2290
	ret void, !dbg !2289
}
define linkonce_odr signext i8 @_ZNKSt9basic_iosIcSt11char_traitsIcEE5widenEc(%struct._ZSt9basic_iosIcSt11char_traitsIcEE* %_T47232200_9562.arg, i8 signext %__c.arg) #0 inlinehint !dbg !2294 {
L.entry:
	%_T47232200_9562.addr = alloca %struct._ZSt9basic_iosIcSt11char_traitsIcEE*, align 8
	%__c.addr = alloca i8, align 1
	%..inline.addr = alloca %struct._ZSt5ctypeIcE*, align 8
	%..inline.addr.1 = alloca %struct._ZSt5ctypeIcE*, align 8
	%..inline.addr.2 = alloca i8, align 1
	%..inline.addr.3 = alloca i8, align 1
	%.Q0001.addr = alloca i32, align 4

	call void @llvm.dbg.declare (metadata %struct._ZSt9basic_iosIcSt11char_traitsIcEE** %_T47232200_9562.addr, metadata !2306, metadata !2077), !dbg !2295
	store %struct._ZSt9basic_iosIcSt11char_traitsIcEE* %_T47232200_9562.arg, %struct._ZSt9basic_iosIcSt11char_traitsIcEE** %_T47232200_9562.addr, align 8, !tbaa !2084
	call void @llvm.dbg.declare (metadata %struct._ZSt9basic_iosIcSt11char_traitsIcEE** %_T47232200_9562.addr, metadata !2307, metadata !2077), !dbg !2295
	call void @llvm.dbg.declare (metadata i8* %__c.addr, metadata !2308, metadata !2077), !dbg !2295
	store i8 %__c.arg, i8* %__c.addr, align 1, !tbaa !2085
	call void @llvm.dbg.declare (metadata i8* %__c.addr, metadata !2309, metadata !2077), !dbg !2295
	%0 = load %struct._ZSt9basic_iosIcSt11char_traitsIcEE*, %struct._ZSt9basic_iosIcSt11char_traitsIcEE** %_T47232200_9562.addr, align 8, !tbaa !2084, !dbg !2310
	%1 = bitcast %struct._ZSt9basic_iosIcSt11char_traitsIcEE*  %0 to i8*, !dbg !2310
	%2 = getelementptr i8, i8*  %1, i64 240, !dbg !2310
	%3 = bitcast i8*  %2 to i8**, !dbg !2310
	%4 = load i8*, i8**  %3, align 8, !tbaa !2084, !dbg !2310
	%5 = bitcast %struct._ZSt5ctypeIcE** %..inline.addr to i8**, !dbg !2310
	store i8*  %4, i8**  %5, align 8, !tbaa !2084, !dbg !2310
	%6 = load %struct._ZSt5ctypeIcE*, %struct._ZSt5ctypeIcE** %..inline.addr, align 8, !tbaa !2084, !dbg !2310
	%7 = bitcast %struct._ZSt5ctypeIcE*  %6 to i8*, !dbg !2310
	%8 = icmp ne i8*  %7,  null, !dbg !2310
	br i1  %8, label %L..inline.21148, label %L.B0832, !dbg !2310
L.B0832:
	call void  @_ZSt16__throw_bad_castv () noreturn, !dbg !2311
	br label %L..inline.21148
L..inline.21148:
	%9 = load %struct._ZSt5ctypeIcE*, %struct._ZSt5ctypeIcE** %..inline.addr, align 8, !tbaa !2084, !dbg !2312
	%10 = bitcast %struct._ZSt5ctypeIcE*  %9 to i8*, !dbg !2312
	%11 = bitcast %struct._ZSt5ctypeIcE** %..inline.addr.1 to i8**, !dbg !2312
	store i8*  %10, i8**  %11, align 8, !tbaa !2084, !dbg !2312
	%12 = load i8, i8* %__c.addr, align 1, !tbaa !2085, !dbg !2310
	store i8  %12, i8* %..inline.addr.2, align 1, !tbaa !2085, !dbg !2310
	%13 = load %struct._ZSt5ctypeIcE*, %struct._ZSt5ctypeIcE** %..inline.addr.1, align 8, !tbaa !2084, !dbg !2310
	%14 = bitcast %struct._ZSt5ctypeIcE*  %13 to i8*, !dbg !2310
	%15 = getelementptr i8, i8*  %14, i64 56, !dbg !2310
	%16 = load i8, i8*  %15, align 1, !tbaa !2085, !dbg !2310
	%17 = sext i8  %16 to i32, !dbg !2310
	%18 = icmp eq i32  %17, 0, !dbg !2310
	br i1  %18, label %L..inline.21154, label %L.B0833, !dbg !2310
L.B0833:
	%19 = bitcast %struct._ZSt5ctypeIcE*  %13 to i8*, !dbg !2313
	%20 = getelementptr i8, i8*  %19, i64 57, !dbg !2313
	%21 = sext i8  %12 to i32, !dbg !2313
	%22 = and i32  %21, 255, !dbg !2313
	%23 = sext i32  %22 to i64, !dbg !2313
	%24 = getelementptr i8, i8*  %20, i64  %23, !dbg !2313
	%25 = load i8, i8*  %24, align 1, !tbaa !2085, !dbg !2313
	store i8  %25, i8* %..inline.addr.3, align 1, !tbaa !2085, !dbg !2313
	br label %L..inline.21158, !dbg !2314
L..inline.21154:
	%26 = load %struct._ZSt5ctypeIcE*, %struct._ZSt5ctypeIcE** %..inline.addr.1, align 8, !tbaa !2084, !dbg !2315
	call void  @_ZNKSt5ctypeIcE13_M_widen_initEv (%struct._ZSt5ctypeIcE*  %26), !dbg !2315
	%27 = load %struct._ZSt5ctypeIcE*, %struct._ZSt5ctypeIcE** %..inline.addr.1, align 8, !tbaa !2084, !dbg !2316
	%28 = load i8, i8* %..inline.addr.2, align 1, !tbaa !2085, !dbg !2316
	%29 = bitcast %struct._ZSt5ctypeIcE*  %27 to i8**, !dbg !2316
	%30 = load i8*, i8**  %29, align 8, !tbaa !2084, !dbg !2316
	%31 = getelementptr i8, i8*  %30, i64 48, !dbg !2316
	%32 = bitcast i8*  %31 to i8 (%struct._ZSt5ctypeIcE*, i8)**, !dbg !2316
	%33 = load i8 (%struct._ZSt5ctypeIcE*, i8)*, i8 (%struct._ZSt5ctypeIcE*, i8)**  %32, align 8, !tbaa !2084, !dbg !2316
	%34 = call i8  %33 (%struct._ZSt5ctypeIcE*  %27, i8  %28), !dbg !2316
	%35 = sext i8  %34 to i32, !dbg !2316
	store i32  %35, i32* %.Q0001.addr, align 4, !tbaa !2256, !dbg !2316
	%36 = shl i32  %35, 24, !dbg !2316
	%37 = ashr i32  %36, 24, !dbg !2316
	%38 = trunc i32  %37 to i8, !dbg !2316
	store i8  %38, i8* %..inline.addr.3, align 1, !tbaa !2085, !dbg !2316
	br label %L..inline.21158
L..inline.21158:
	%39 = load i8, i8* %..inline.addr.3, align 1, !tbaa !2085, !dbg !2317
	ret i8  %39, !dbg !2317
}
define linkonce_odr %struct._ZSo* @_ZNSolsEPFRSoS_E(%struct._ZSo* %_T47232200_9564.arg, %struct._ZSo* (%struct._ZSo*)* %__pf.arg) #0 inlinehint !dbg !2326 {
L.entry:
	%_T47232200_9564.addr = alloca %struct._ZSo*, align 8
	%__pf.addr = alloca %struct._ZSo* (%struct._ZSo*)*, align 8
	%.Q0002.addr = alloca %struct._ZSo*, align 8

	call void @llvm.dbg.declare (metadata %struct._ZSo** %_T47232200_9564.addr, metadata !2330, metadata !2077), !dbg !2327
	store %struct._ZSo* %_T47232200_9564.arg, %struct._ZSo** %_T47232200_9564.addr, align 8, !tbaa !2084
	call void @llvm.dbg.declare (metadata %struct._ZSo** %_T47232200_9564.addr, metadata !2331, metadata !2077), !dbg !2327
	call void @llvm.dbg.declare (metadata %struct._ZSo* (%struct._ZSo*)** %__pf.addr, metadata !2332, metadata !2077), !dbg !2327
	store %struct._ZSo* (%struct._ZSo*)* %__pf.arg, %struct._ZSo* (%struct._ZSo*)** %__pf.addr, align 8, !tbaa !2084
	call void @llvm.dbg.declare (metadata %struct._ZSo* (%struct._ZSo*)** %__pf.addr, metadata !2333, metadata !2077), !dbg !2327
	%0 = load %struct._ZSo*, %struct._ZSo** %_T47232200_9564.addr, align 8, !tbaa !2084, !dbg !2334
	%1 = load %struct._ZSo* (%struct._ZSo*)*, %struct._ZSo* (%struct._ZSo*)** %__pf.addr, align 8, !tbaa !2084, !dbg !2334
	%2 = call %struct._ZSo*  %1 (%struct._ZSo*  %0), !dbg !2334
	%3 = bitcast %struct._ZSo*  %2 to i8*, !dbg !2334
	%4 = bitcast %struct._ZSo** %.Q0002.addr to i8**, !dbg !2334
	store i8*  %3, i8**  %4, align 8, !tbaa !2084, !dbg !2334
	%5 = load %struct._ZSo*, %struct._ZSo** %.Q0002.addr, align 8, !tbaa !2084, !dbg !2334
	ret %struct._ZSo*  %5, !dbg !2334
}

%struct._ZSt6vectorIdSaIdEE = type <{ %struct._ZSt12_Vector_baseIdSaIdEE}> 
%struct._ZNSt12_Vector_baseIdSaIdEE12_Vector_implE = type <{ %struct._ZNSt12_Vector_baseIdSaIdEE17_Vector_impl_dataE}> 
%struct._ZSt12_Vector_baseIdSaIdEE = type <{ %struct._ZNSt12_Vector_baseIdSaIdEE12_Vector_implE}> 
%struct._ZNSt12_Vector_baseIdSaIdEE17_Vector_impl_dataE = type <{ double*, double*, double*}> 

define linkonce_odr i64 @_ZNKSt6vectorIdSaIdEE4sizeEv(%struct._ZSt6vectorIdSaIdEE* %_T47232200_9570.arg) #0 inlinehint !dbg !2342 {
L.entry:
	%_T47232200_9570.addr = alloca %struct._ZSt6vectorIdSaIdEE*, align 8

	call void @llvm.dbg.declare (metadata %struct._ZSt6vectorIdSaIdEE** %_T47232200_9570.addr, metadata !2346, metadata !2077), !dbg !2343
	store %struct._ZSt6vectorIdSaIdEE* %_T47232200_9570.arg, %struct._ZSt6vectorIdSaIdEE** %_T47232200_9570.addr, align 8, !tbaa !2084
	call void @llvm.dbg.declare (metadata %struct._ZSt6vectorIdSaIdEE** %_T47232200_9570.addr, metadata !2347, metadata !2077), !dbg !2343
	%0 = load %struct._ZSt6vectorIdSaIdEE*, %struct._ZSt6vectorIdSaIdEE** %_T47232200_9570.addr, align 8, !tbaa !2084, !dbg !2348
	%1 = bitcast %struct._ZSt6vectorIdSaIdEE*  %0 to i8*, !dbg !2348
	%2 = getelementptr i8, i8*  %1, i64 8, !dbg !2348
	%3 = bitcast i8*  %2 to i8**, !dbg !2348
	%4 = load i8*, i8**  %3, align 8, !tbaa !2084, !dbg !2348
	%5 = bitcast %struct._ZSt6vectorIdSaIdEE*  %0 to i8**, !dbg !2348
	%6 = load i8*, i8**  %5, align 8, !tbaa !2084, !dbg !2348
	%7 = ptrtoint i8*  %6 to i64, !dbg !2348
	%8 = sub i64 0,  %7, !dbg !2348
	%9 = getelementptr i8, i8*  %4, i64  %8, !dbg !2348
	%10 = ptrtoint i8*  %9 to i64, !dbg !2348
	%11 = sext i32 3 to i64, !dbg !2348
	%12 = ashr i64  %10,  %11, !dbg !2348
	ret i64  %12, !dbg !2348
}
define linkonce_odr i8* @_ZNSt14pointer_traitsIPcE10pointer_toERc(i8* %__r.arg) #0 inlinehint !dbg !2354 {
L.entry:
	%__r.addr = alloca i8*, align 8

	call void @llvm.dbg.declare (metadata i8** %__r.addr, metadata !2366, metadata !2077), !dbg !2355
	store i8* %__r.arg, i8** %__r.addr, align 8, !tbaa !2084
	call void @llvm.dbg.declare (metadata i8** %__r.addr, metadata !2367, metadata !2077), !dbg !2355
	%0 = load i8*, i8** %__r.addr, align 8, !tbaa !2084, !dbg !2368
	ret i8*  %0, !dbg !2368
}
define linkonce_odr i8* @_ZNSt14pointer_traitsIPKcE10pointer_toERS0_(i8* %__r.arg) #0 inlinehint !dbg !2370 {
L.entry:
	%__r.addr = alloca i8*, align 8

	call void @llvm.dbg.declare (metadata i8** %__r.addr, metadata !2382, metadata !2077), !dbg !2371
	store i8* %__r.arg, i8** %__r.addr, align 8, !tbaa !2084
	call void @llvm.dbg.declare (metadata i8** %__r.addr, metadata !2383, metadata !2077), !dbg !2371
	%0 = load i8*, i8** %__r.addr, align 8, !tbaa !2084, !dbg !2384
	ret i8*  %0, !dbg !2384
}

%struct._ZNSt7__cxx1112basic_stringIcSt11char_traitsIcESaIcEEE = type <{ %struct._ZNSt7__cxx1112basic_stringIcSt11char_traitsIcESaIcEE12_Alloc_hiderE, i64, %union.__C5}> 
%struct._ZNSt7__cxx1112basic_stringIcSt11char_traitsIcESaIcEE12_Alloc_hiderE = type <{ i8*}> 
%union.__C5 = type <{ [16 x i8]}> 

define linkonce_odr void @_ZNSt7__cxx1112basic_stringIcSt11char_traitsIcESaIcEE7_M_dataEPc(%struct._ZNSt7__cxx1112basic_stringIcSt11char_traitsIcESaIcEEE* %_T47232200_9578.arg, i8* %__p.arg) #0 inlinehint !dbg !2391 {
L.entry:
	%_T47232200_9578.addr = alloca %struct._ZNSt7__cxx1112basic_stringIcSt11char_traitsIcESaIcEEE*, align 8
	%__p.addr = alloca i8*, align 8

	call void @llvm.dbg.declare (metadata %struct._ZNSt7__cxx1112basic_stringIcSt11char_traitsIcESaIcEEE** %_T47232200_9578.addr, metadata !2395, metadata !2077), !dbg !2392
	store %struct._ZNSt7__cxx1112basic_stringIcSt11char_traitsIcESaIcEEE* %_T47232200_9578.arg, %struct._ZNSt7__cxx1112basic_stringIcSt11char_traitsIcESaIcEEE** %_T47232200_9578.addr, align 8, !tbaa !2084
	call void @llvm.dbg.declare (metadata %struct._ZNSt7__cxx1112basic_stringIcSt11char_traitsIcESaIcEEE** %_T47232200_9578.addr, metadata !2396, metadata !2077), !dbg !2392
	call void @llvm.dbg.declare (metadata i8** %__p.addr, metadata !2397, metadata !2077), !dbg !2392
	store i8* %__p.arg, i8** %__p.addr, align 8, !tbaa !2084
	call void @llvm.dbg.declare (metadata i8** %__p.addr, metadata !2398, metadata !2077), !dbg !2392
	%0 = load i8*, i8** %__p.addr, align 8, !tbaa !2084, !dbg !2399
	%1 = load %struct._ZNSt7__cxx1112basic_stringIcSt11char_traitsIcESaIcEEE*, %struct._ZNSt7__cxx1112basic_stringIcSt11char_traitsIcESaIcEEE** %_T47232200_9578.addr, align 8, !tbaa !2084, !dbg !2399
	%2 = bitcast %struct._ZNSt7__cxx1112basic_stringIcSt11char_traitsIcESaIcEEE*  %1 to i8**, !dbg !2399
	store i8*  %0, i8**  %2, align 8, !tbaa !2084, !dbg !2399
	ret void, !dbg !2399
}
define linkonce_odr void @_ZNSt7__cxx1112basic_stringIcSt11char_traitsIcESaIcEE9_M_lengthEm(%struct._ZNSt7__cxx1112basic_stringIcSt11char_traitsIcESaIcEEE* %_T47232200_9580.arg, i64 %__length.arg) #0 inlinehint !dbg !2403 {
L.entry:
	%_T47232200_9580.addr = alloca %struct._ZNSt7__cxx1112basic_stringIcSt11char_traitsIcESaIcEEE*, align 8
	%__length.addr = alloca i64, align 8

	call void @llvm.dbg.declare (metadata %struct._ZNSt7__cxx1112basic_stringIcSt11char_traitsIcESaIcEEE** %_T47232200_9580.addr, metadata !2407, metadata !2077), !dbg !2404
	store %struct._ZNSt7__cxx1112basic_stringIcSt11char_traitsIcESaIcEEE* %_T47232200_9580.arg, %struct._ZNSt7__cxx1112basic_stringIcSt11char_traitsIcESaIcEEE** %_T47232200_9580.addr, align 8, !tbaa !2084
	call void @llvm.dbg.declare (metadata %struct._ZNSt7__cxx1112basic_stringIcSt11char_traitsIcESaIcEEE** %_T47232200_9580.addr, metadata !2408, metadata !2077), !dbg !2404
	call void @llvm.dbg.declare (metadata i64* %__length.addr, metadata !2409, metadata !2077), !dbg !2404
	store i64 %__length.arg, i64* %__length.addr, align 8, !tbaa !2085
	call void @llvm.dbg.declare (metadata i64* %__length.addr, metadata !2410, metadata !2077), !dbg !2404
	%0 = load i64, i64* %__length.addr, align 8, !tbaa !2115, !dbg !2411
	%1 = load %struct._ZNSt7__cxx1112basic_stringIcSt11char_traitsIcESaIcEEE*, %struct._ZNSt7__cxx1112basic_stringIcSt11char_traitsIcESaIcEEE** %_T47232200_9580.addr, align 8, !tbaa !2084, !dbg !2411
	%2 = bitcast %struct._ZNSt7__cxx1112basic_stringIcSt11char_traitsIcESaIcEEE*  %1 to i8*, !dbg !2411
	%3 = getelementptr i8, i8*  %2, i64 8, !dbg !2411
	%4 = bitcast i8*  %3 to i64*, !dbg !2411
	store i64  %0, i64*  %4, align 8, !tbaa !2085, !dbg !2411
	ret void, !dbg !2411
}
define linkonce_odr i8* @_ZNKSt7__cxx1112basic_stringIcSt11char_traitsIcESaIcEE7_M_dataEv(%struct._ZNSt7__cxx1112basic_stringIcSt11char_traitsIcESaIcEEE* %_T47232200_9582.arg) #0 inlinehint !dbg !2415 {
L.entry:
	%_T47232200_9582.addr = alloca %struct._ZNSt7__cxx1112basic_stringIcSt11char_traitsIcESaIcEEE*, align 8

	call void @llvm.dbg.declare (metadata %struct._ZNSt7__cxx1112basic_stringIcSt11char_traitsIcESaIcEEE** %_T47232200_9582.addr, metadata !2419, metadata !2077), !dbg !2416
	store %struct._ZNSt7__cxx1112basic_stringIcSt11char_traitsIcESaIcEEE* %_T47232200_9582.arg, %struct._ZNSt7__cxx1112basic_stringIcSt11char_traitsIcESaIcEEE** %_T47232200_9582.addr, align 8, !tbaa !2084
	call void @llvm.dbg.declare (metadata %struct._ZNSt7__cxx1112basic_stringIcSt11char_traitsIcESaIcEEE** %_T47232200_9582.addr, metadata !2420, metadata !2077), !dbg !2416
	%0 = load %struct._ZNSt7__cxx1112basic_stringIcSt11char_traitsIcESaIcEEE*, %struct._ZNSt7__cxx1112basic_stringIcSt11char_traitsIcESaIcEEE** %_T47232200_9582.addr, align 8, !tbaa !2084, !dbg !2421
	%1 = bitcast %struct._ZNSt7__cxx1112basic_stringIcSt11char_traitsIcESaIcEEE*  %0 to i8**, !dbg !2421
	%2 = load i8*, i8**  %1, align 8, !tbaa !2084, !dbg !2421
	ret i8*  %2, !dbg !2421
}
define linkonce_odr i8* @_ZNSt7__cxx1112basic_stringIcSt11char_traitsIcESaIcEE13_M_local_dataEv(%struct._ZNSt7__cxx1112basic_stringIcSt11char_traitsIcESaIcEEE* %_T47232200_9584.arg) #0 inlinehint !dbg !2423 {
L.entry:
	%_T47232200_9584.addr = alloca %struct._ZNSt7__cxx1112basic_stringIcSt11char_traitsIcESaIcEEE*, align 8

	call void @llvm.dbg.declare (metadata %struct._ZNSt7__cxx1112basic_stringIcSt11char_traitsIcESaIcEEE** %_T47232200_9584.addr, metadata !2439, metadata !2077), !dbg !2424
	store %struct._ZNSt7__cxx1112basic_stringIcSt11char_traitsIcESaIcEEE* %_T47232200_9584.arg, %struct._ZNSt7__cxx1112basic_stringIcSt11char_traitsIcESaIcEEE** %_T47232200_9584.addr, align 8, !tbaa !2084
	call void @llvm.dbg.declare (metadata %struct._ZNSt7__cxx1112basic_stringIcSt11char_traitsIcESaIcEEE** %_T47232200_9584.addr, metadata !2440, metadata !2077), !dbg !2424
	%0 = load %struct._ZNSt7__cxx1112basic_stringIcSt11char_traitsIcESaIcEEE*, %struct._ZNSt7__cxx1112basic_stringIcSt11char_traitsIcESaIcEEE** %_T47232200_9584.addr, align 8, !tbaa !2084, !dbg !2441
	%1 = bitcast %struct._ZNSt7__cxx1112basic_stringIcSt11char_traitsIcESaIcEEE*  %0 to i8*, !dbg !2441
	%2 = getelementptr i8, i8*  %1, i64 16, !dbg !2441
	ret i8*  %2, !dbg !2441
}
define linkonce_odr i8* @_ZNKSt7__cxx1112basic_stringIcSt11char_traitsIcESaIcEE13_M_local_dataEv(%struct._ZNSt7__cxx1112basic_stringIcSt11char_traitsIcESaIcEEE* %_T47232200_9586.arg) #0 inlinehint !dbg !2444 {
L.entry:
	%_T47232200_9586.addr = alloca %struct._ZNSt7__cxx1112basic_stringIcSt11char_traitsIcESaIcEEE*, align 8

	call void @llvm.dbg.declare (metadata %struct._ZNSt7__cxx1112basic_stringIcSt11char_traitsIcESaIcEEE** %_T47232200_9586.addr, metadata !2460, metadata !2077), !dbg !2445
	store %struct._ZNSt7__cxx1112basic_stringIcSt11char_traitsIcESaIcEEE* %_T47232200_9586.arg, %struct._ZNSt7__cxx1112basic_stringIcSt11char_traitsIcESaIcEEE** %_T47232200_9586.addr, align 8, !tbaa !2084
	call void @llvm.dbg.declare (metadata %struct._ZNSt7__cxx1112basic_stringIcSt11char_traitsIcESaIcEEE** %_T47232200_9586.addr, metadata !2461, metadata !2077), !dbg !2445
	%0 = load %struct._ZNSt7__cxx1112basic_stringIcSt11char_traitsIcESaIcEEE*, %struct._ZNSt7__cxx1112basic_stringIcSt11char_traitsIcESaIcEEE** %_T47232200_9586.addr, align 8, !tbaa !2084, !dbg !2462
	%1 = bitcast %struct._ZNSt7__cxx1112basic_stringIcSt11char_traitsIcESaIcEEE*  %0 to i8*, !dbg !2462
	%2 = getelementptr i8, i8*  %1, i64 16, !dbg !2462
	ret i8*  %2, !dbg !2462
}
define linkonce_odr void @_ZNSt7__cxx1112basic_stringIcSt11char_traitsIcESaIcEE11_M_capacityEm(%struct._ZNSt7__cxx1112basic_stringIcSt11char_traitsIcESaIcEEE* %_T47232200_9588.arg, i64 %__capacity.arg) #0 inlinehint !dbg !2465 {
L.entry:
	%_T47232200_9588.addr = alloca %struct._ZNSt7__cxx1112basic_stringIcSt11char_traitsIcESaIcEEE*, align 8
	%__capacity.addr = alloca i64, align 8

	call void @llvm.dbg.declare (metadata %struct._ZNSt7__cxx1112basic_stringIcSt11char_traitsIcESaIcEEE** %_T47232200_9588.addr, metadata !2469, metadata !2077), !dbg !2466
	store %struct._ZNSt7__cxx1112basic_stringIcSt11char_traitsIcESaIcEEE* %_T47232200_9588.arg, %struct._ZNSt7__cxx1112basic_stringIcSt11char_traitsIcESaIcEEE** %_T47232200_9588.addr, align 8, !tbaa !2084
	call void @llvm.dbg.declare (metadata %struct._ZNSt7__cxx1112basic_stringIcSt11char_traitsIcESaIcEEE** %_T47232200_9588.addr, metadata !2470, metadata !2077), !dbg !2466
	call void @llvm.dbg.declare (metadata i64* %__capacity.addr, metadata !2471, metadata !2077), !dbg !2466
	store i64 %__capacity.arg, i64* %__capacity.addr, align 8, !tbaa !2085
	call void @llvm.dbg.declare (metadata i64* %__capacity.addr, metadata !2472, metadata !2077), !dbg !2466
	%0 = load i64, i64* %__capacity.addr, align 8, !tbaa !2115, !dbg !2473
	%1 = load %struct._ZNSt7__cxx1112basic_stringIcSt11char_traitsIcESaIcEEE*, %struct._ZNSt7__cxx1112basic_stringIcSt11char_traitsIcESaIcEEE** %_T47232200_9588.addr, align 8, !tbaa !2084, !dbg !2473
	%2 = bitcast %struct._ZNSt7__cxx1112basic_stringIcSt11char_traitsIcESaIcEEE*  %1 to i8*, !dbg !2473
	%3 = getelementptr i8, i8*  %2, i64 16, !dbg !2473
	%4 = bitcast i8*  %3 to i64*, !dbg !2473
	store i64  %0, i64*  %4, align 8, !tbaa !2085, !dbg !2473
	ret void, !dbg !2473
}
define linkonce_odr void @_ZNSt7__cxx1112basic_stringIcSt11char_traitsIcESaIcEE13_M_set_lengthEm(%struct._ZNSt7__cxx1112basic_stringIcSt11char_traitsIcESaIcEEE* %_T47232200_9590.arg, i64 %__n.arg) #0 inlinehint !dbg !2475 {
L.entry:
	%_T47232200_9590.addr = alloca %struct._ZNSt7__cxx1112basic_stringIcSt11char_traitsIcESaIcEEE*, align 8
	%__n.addr = alloca i64, align 8
	%..inline.addr = alloca i8*, align 8

	call void @llvm.dbg.declare (metadata %struct._ZNSt7__cxx1112basic_stringIcSt11char_traitsIcESaIcEEE** %_T47232200_9590.addr, metadata !2491, metadata !2077), !dbg !2476
	store %struct._ZNSt7__cxx1112basic_stringIcSt11char_traitsIcESaIcEEE* %_T47232200_9590.arg, %struct._ZNSt7__cxx1112basic_stringIcSt11char_traitsIcESaIcEEE** %_T47232200_9590.addr, align 8, !tbaa !2084
	call void @llvm.dbg.declare (metadata %struct._ZNSt7__cxx1112basic_stringIcSt11char_traitsIcESaIcEEE** %_T47232200_9590.addr, metadata !2492, metadata !2077), !dbg !2476
	call void @llvm.dbg.declare (metadata i64* %__n.addr, metadata !2493, metadata !2077), !dbg !2476
	store i64 %__n.arg, i64* %__n.addr, align 8, !tbaa !2085
	call void @llvm.dbg.declare (metadata i64* %__n.addr, metadata !2494, metadata !2077), !dbg !2476
	%0 = load i64, i64* %__n.addr, align 8, !tbaa !2115, !dbg !2495
	%1 = load %struct._ZNSt7__cxx1112basic_stringIcSt11char_traitsIcESaIcEEE*, %struct._ZNSt7__cxx1112basic_stringIcSt11char_traitsIcESaIcEEE** %_T47232200_9590.addr, align 8, !tbaa !2084, !dbg !2495
	%2 = bitcast %struct._ZNSt7__cxx1112basic_stringIcSt11char_traitsIcESaIcEEE*  %1 to i8*, !dbg !2495
	%3 = getelementptr i8, i8*  %2, i64 8, !dbg !2495
	%4 = bitcast i8*  %3 to i64*, !dbg !2495
	store i64  %0, i64*  %4, align 8, !tbaa !2085, !dbg !2495
	%5 = bitcast %struct._ZNSt7__cxx1112basic_stringIcSt11char_traitsIcESaIcEEE*  %1 to i8**, !dbg !2496
	%6 = load i8*, i8**  %5, align 8, !tbaa !2084, !dbg !2496
	%7 = getelementptr i8, i8*  %6, i64  %0, !dbg !2496
	store i8 0, i8*  %7, align 1, !tbaa !2085, !dbg !2497
	ret void, !dbg !2498
}
define linkonce_odr signext i8 @_ZNKSt7__cxx1112basic_stringIcSt11char_traitsIcESaIcEE11_M_is_localEv(%struct._ZNSt7__cxx1112basic_stringIcSt11char_traitsIcESaIcEEE* %_T47232200_9591.arg) #0 inlinehint !dbg !2502 {
L.entry:
	%_T47232200_9591.addr = alloca %struct._ZNSt7__cxx1112basic_stringIcSt11char_traitsIcESaIcEEE*, align 8

	call void @llvm.dbg.declare (metadata %struct._ZNSt7__cxx1112basic_stringIcSt11char_traitsIcESaIcEEE** %_T47232200_9591.addr, metadata !2526, metadata !2077), !dbg !2503
	store %struct._ZNSt7__cxx1112basic_stringIcSt11char_traitsIcESaIcEEE* %_T47232200_9591.arg, %struct._ZNSt7__cxx1112basic_stringIcSt11char_traitsIcESaIcEEE** %_T47232200_9591.addr, align 8, !tbaa !2084
	call void @llvm.dbg.declare (metadata %struct._ZNSt7__cxx1112basic_stringIcSt11char_traitsIcESaIcEEE** %_T47232200_9591.addr, metadata !2527, metadata !2077), !dbg !2503
	%0 = load %struct._ZNSt7__cxx1112basic_stringIcSt11char_traitsIcESaIcEEE*, %struct._ZNSt7__cxx1112basic_stringIcSt11char_traitsIcESaIcEEE** %_T47232200_9591.addr, align 8, !tbaa !2084, !dbg !2528
	%1 = bitcast %struct._ZNSt7__cxx1112basic_stringIcSt11char_traitsIcESaIcEEE*  %0 to i8**, !dbg !2528
	%2 = load i8*, i8**  %1, align 8, !tbaa !2084, !dbg !2528
	%3 = bitcast %struct._ZNSt7__cxx1112basic_stringIcSt11char_traitsIcESaIcEEE*  %0 to i8*, !dbg !2528
	%4 = getelementptr i8, i8*  %3, i64 16, !dbg !2528
	%5 = icmp eq i8*  %2,  %4, !dbg !2528
	%6 = zext i1  %5 to i32, !dbg !2528
	%7 = trunc i32  %6 to i8, !dbg !2528
	ret i8  %7, !dbg !2528
}
define linkonce_odr void @_ZNSt7__cxx1112basic_stringIcSt11char_traitsIcESaIcEE10_M_disposeEv(%struct._ZNSt7__cxx1112basic_stringIcSt11char_traitsIcESaIcEEE* %_T47232200_9596.arg) #0 inlinehint !dbg !2533 {
L.entry:
	%_T47232200_9596.addr = alloca %struct._ZNSt7__cxx1112basic_stringIcSt11char_traitsIcESaIcEEE*, align 8
	%..inline.addr = alloca i8*, align 8

	call void @llvm.dbg.declare (metadata %struct._ZNSt7__cxx1112basic_stringIcSt11char_traitsIcESaIcEEE** %_T47232200_9596.addr, metadata !2581, metadata !2077), !dbg !2534
	store %struct._ZNSt7__cxx1112basic_stringIcSt11char_traitsIcESaIcEEE* %_T47232200_9596.arg, %struct._ZNSt7__cxx1112basic_stringIcSt11char_traitsIcESaIcEEE** %_T47232200_9596.addr, align 8, !tbaa !2084
	call void @llvm.dbg.declare (metadata %struct._ZNSt7__cxx1112basic_stringIcSt11char_traitsIcESaIcEEE** %_T47232200_9596.addr, metadata !2582, metadata !2077), !dbg !2534
	%0 = load %struct._ZNSt7__cxx1112basic_stringIcSt11char_traitsIcESaIcEEE*, %struct._ZNSt7__cxx1112basic_stringIcSt11char_traitsIcESaIcEEE** %_T47232200_9596.addr, align 8, !tbaa !2084, !dbg !2583
	%1 = bitcast %struct._ZNSt7__cxx1112basic_stringIcSt11char_traitsIcESaIcEEE*  %0 to i8**, !dbg !2583
	%2 = load i8*, i8**  %1, align 8, !tbaa !2084, !dbg !2583
	%3 = bitcast %struct._ZNSt7__cxx1112basic_stringIcSt11char_traitsIcESaIcEEE*  %0 to i8*, !dbg !2583
	%4 = getelementptr i8, i8*  %3, i64 16, !dbg !2583
	%5 = icmp eq i8*  %2,  %4, !dbg !2583
	br i1  %5, label %L.B0002, label %L.B0856, !dbg !2583
L.B0856:
	%6 = bitcast %struct._ZNSt7__cxx1112basic_stringIcSt11char_traitsIcESaIcEEE*  %0 to i8**, !dbg !2584
	%7 = load i8*, i8**  %6, align 8, !tbaa !2084, !dbg !2584
	call void  @_ZdlPv (i8*  %7) nounwind, !dbg !2584
	br label %L.B0002
L.B0002:
	ret void, !dbg !2585
}
define linkonce_odr void @_ZNSt7__cxx1112basic_stringIcSt11char_traitsIcESaIcEE10_M_destroyEm(%struct._ZNSt7__cxx1112basic_stringIcSt11char_traitsIcESaIcEEE* %_T47232200_9598.arg, i64 %__size.arg) #0 inlinehint !dbg !2587 {
L.entry:
	%_T47232200_9598.addr = alloca %struct._ZNSt7__cxx1112basic_stringIcSt11char_traitsIcESaIcEEE*, align 8
	%__size.addr = alloca i64, align 8
	%..inline.addr = alloca i8*, align 8

	call void @llvm.dbg.declare (metadata %struct._ZNSt7__cxx1112basic_stringIcSt11char_traitsIcESaIcEEE** %_T47232200_9598.addr, metadata !2607, metadata !2077), !dbg !2588
	store %struct._ZNSt7__cxx1112basic_stringIcSt11char_traitsIcESaIcEEE* %_T47232200_9598.arg, %struct._ZNSt7__cxx1112basic_stringIcSt11char_traitsIcESaIcEEE** %_T47232200_9598.addr, align 8, !tbaa !2084
	call void @llvm.dbg.declare (metadata %struct._ZNSt7__cxx1112basic_stringIcSt11char_traitsIcESaIcEEE** %_T47232200_9598.addr, metadata !2608, metadata !2077), !dbg !2588
	call void @llvm.dbg.declare (metadata i64* %__size.addr, metadata !2609, metadata !2077), !dbg !2588
	store i64 %__size.arg, i64* %__size.addr, align 8, !tbaa !2085
	call void @llvm.dbg.declare (metadata i64* %__size.addr, metadata !2610, metadata !2077), !dbg !2588
	%0 = load %struct._ZNSt7__cxx1112basic_stringIcSt11char_traitsIcESaIcEEE*, %struct._ZNSt7__cxx1112basic_stringIcSt11char_traitsIcESaIcEEE** %_T47232200_9598.addr, align 8, !tbaa !2084, !dbg !2611
	%1 = bitcast %struct._ZNSt7__cxx1112basic_stringIcSt11char_traitsIcESaIcEEE*  %0 to i8**, !dbg !2611
	%2 = load i8*, i8**  %1, align 8, !tbaa !2084, !dbg !2611
	call void  @_ZdlPv (i8*  %2) nounwind, !dbg !2611
	ret void, !dbg !2612
}
define linkonce_odr %struct._ZSaIcE* @_ZNSt7__cxx1112basic_stringIcSt11char_traitsIcESaIcEE16_M_get_allocatorEv(%struct._ZNSt7__cxx1112basic_stringIcSt11char_traitsIcESaIcEEE* %_T47232200_9600.arg) #0 inlinehint !dbg !2616 {
L.entry:
	%_T47232200_9600.addr = alloca %struct._ZNSt7__cxx1112basic_stringIcSt11char_traitsIcESaIcEEE*, align 8

	call void @llvm.dbg.declare (metadata %struct._ZNSt7__cxx1112basic_stringIcSt11char_traitsIcESaIcEEE** %_T47232200_9600.addr, metadata !2620, metadata !2077), !dbg !2617
	store %struct._ZNSt7__cxx1112basic_stringIcSt11char_traitsIcESaIcEEE* %_T47232200_9600.arg, %struct._ZNSt7__cxx1112basic_stringIcSt11char_traitsIcESaIcEEE** %_T47232200_9600.addr, align 8, !tbaa !2084
	call void @llvm.dbg.declare (metadata %struct._ZNSt7__cxx1112basic_stringIcSt11char_traitsIcESaIcEEE** %_T47232200_9600.addr, metadata !2621, metadata !2077), !dbg !2617
	%0 = load %struct._ZNSt7__cxx1112basic_stringIcSt11char_traitsIcESaIcEEE*, %struct._ZNSt7__cxx1112basic_stringIcSt11char_traitsIcESaIcEEE** %_T47232200_9600.addr, align 8, !tbaa !2084, !dbg !2622
	%1 = bitcast %struct._ZNSt7__cxx1112basic_stringIcSt11char_traitsIcESaIcEEE*  %0 to %struct._ZSaIcE*, !dbg !2622
	ret %struct._ZSaIcE*  %1, !dbg !2622
}
define linkonce_odr %struct._ZSaIcE* @_ZNKSt7__cxx1112basic_stringIcSt11char_traitsIcESaIcEE16_M_get_allocatorEv(%struct._ZNSt7__cxx1112basic_stringIcSt11char_traitsIcESaIcEEE* %_T47232200_9601.arg) #0 inlinehint !dbg !2624 {
L.entry:
	%_T47232200_9601.addr = alloca %struct._ZNSt7__cxx1112basic_stringIcSt11char_traitsIcESaIcEEE*, align 8

	call void @llvm.dbg.declare (metadata %struct._ZNSt7__cxx1112basic_stringIcSt11char_traitsIcESaIcEEE** %_T47232200_9601.addr, metadata !2628, metadata !2077), !dbg !2625
	store %struct._ZNSt7__cxx1112basic_stringIcSt11char_traitsIcESaIcEEE* %_T47232200_9601.arg, %struct._ZNSt7__cxx1112basic_stringIcSt11char_traitsIcESaIcEEE** %_T47232200_9601.addr, align 8, !tbaa !2084
	call void @llvm.dbg.declare (metadata %struct._ZNSt7__cxx1112basic_stringIcSt11char_traitsIcESaIcEEE** %_T47232200_9601.addr, metadata !2629, metadata !2077), !dbg !2625
	%0 = load %struct._ZNSt7__cxx1112basic_stringIcSt11char_traitsIcESaIcEEE*, %struct._ZNSt7__cxx1112basic_stringIcSt11char_traitsIcESaIcEEE** %_T47232200_9601.addr, align 8, !tbaa !2084, !dbg !2630
	%1 = bitcast %struct._ZNSt7__cxx1112basic_stringIcSt11char_traitsIcESaIcEEE*  %0 to %struct._ZSaIcE*, !dbg !2630
	ret %struct._ZSaIcE*  %1, !dbg !2630
}
define linkonce_odr void @_ZNKSt7__cxx1112basic_stringIcSt11char_traitsIcESaIcEE15_M_check_lengthEmmPKc(%struct._ZNSt7__cxx1112basic_stringIcSt11char_traitsIcESaIcEEE* %_T47232200_9604.arg, i64 %__n1.arg, i64 %__n2.arg, i8* %__s.arg) #0 inlinehint !dbg !2634 {
L.entry:
	%_T47232200_9604.addr = alloca %struct._ZNSt7__cxx1112basic_stringIcSt11char_traitsIcESaIcEEE*, align 8
	%__n1.addr = alloca i64, align 8
	%__n2.addr = alloca i64, align 8
	%__s.addr = alloca i8*, align 8

	call void @llvm.dbg.declare (metadata %struct._ZNSt7__cxx1112basic_stringIcSt11char_traitsIcESaIcEEE** %_T47232200_9604.addr, metadata !2658, metadata !2077), !dbg !2635
	store %struct._ZNSt7__cxx1112basic_stringIcSt11char_traitsIcESaIcEEE* %_T47232200_9604.arg, %struct._ZNSt7__cxx1112basic_stringIcSt11char_traitsIcESaIcEEE** %_T47232200_9604.addr, align 8, !tbaa !2084
	call void @llvm.dbg.declare (metadata %struct._ZNSt7__cxx1112basic_stringIcSt11char_traitsIcESaIcEEE** %_T47232200_9604.addr, metadata !2659, metadata !2077), !dbg !2635
	call void @llvm.dbg.declare (metadata i64* %__n1.addr, metadata !2660, metadata !2077), !dbg !2635
	store i64 %__n1.arg, i64* %__n1.addr, align 8, !tbaa !2085
	call void @llvm.dbg.declare (metadata i64* %__n1.addr, metadata !2661, metadata !2077), !dbg !2635
	call void @llvm.dbg.declare (metadata i64* %__n2.addr, metadata !2662, metadata !2077), !dbg !2635
	store i64 %__n2.arg, i64* %__n2.addr, align 8, !tbaa !2085
	call void @llvm.dbg.declare (metadata i64* %__n2.addr, metadata !2663, metadata !2077), !dbg !2635
	call void @llvm.dbg.declare (metadata i8** %__s.addr, metadata !2664, metadata !2077), !dbg !2635
	store i8* %__s.arg, i8** %__s.addr, align 8, !tbaa !2084
	call void @llvm.dbg.declare (metadata i8** %__s.addr, metadata !2665, metadata !2077), !dbg !2635
	%0 = load %struct._ZNSt7__cxx1112basic_stringIcSt11char_traitsIcESaIcEEE*, %struct._ZNSt7__cxx1112basic_stringIcSt11char_traitsIcESaIcEEE** %_T47232200_9604.addr, align 8, !tbaa !2084, !dbg !2666
	%1 = bitcast %struct._ZNSt7__cxx1112basic_stringIcSt11char_traitsIcESaIcEEE*  %0 to i8*, !dbg !2666
	%2 = getelementptr i8, i8*  %1, i64 8, !dbg !2666
	%3 = bitcast i8*  %2 to i64*, !dbg !2666
	%4 = load i64, i64*  %3, align 8, !tbaa !2085, !dbg !2666
	%5 = load i64, i64* %__n1.addr, align 8, !tbaa !2115, !dbg !2666
	%6 = sub i64  %4,  %5, !dbg !2666
	%7 = sub i64 9223372036854775807,  %6, !dbg !2666
	%8 = load i64, i64* %__n2.addr, align 8, !tbaa !2115, !dbg !2666
	%9 = icmp uge i64  %7,  %8, !dbg !2666
	br i1  %9, label %L.B0003, label %L.B0867, !dbg !2666
L.B0867:
	%10 = load i8*, i8** %__s.addr, align 8, !tbaa !2084, !dbg !2667
	call void  @_ZSt20__throw_length_errorPKc (i8*  %10) noreturn, !dbg !2667
	br label %L.B0003
L.B0003:
	ret void, !dbg !2668
}
define linkonce_odr void @_ZNSt7__cxx1112basic_stringIcSt11char_traitsIcESaIcEE7_S_copyEPcPKcm(i8* %__d.arg, i8* %__s.arg, i64 %__n.arg) #0 inlinehint !dbg !2672 {
L.entry:
	%__d.addr = alloca i8*, align 8
	%__s.addr = alloca i8*, align 8
	%__n.addr = alloca i64, align 8
	%..inline.addr = alloca i8*, align 8
	%..inline.addr.1 = alloca i8*, align 8
	%..inline.addr.2 = alloca i64, align 8
	%..inline.addr.3 = alloca i8*, align 8

	call void @llvm.dbg.declare (metadata i8** %__d.addr, metadata !2684, metadata !2077), !dbg !2673
	store i8* %__d.arg, i8** %__d.addr, align 8, !tbaa !2084
	call void @llvm.dbg.declare (metadata i8** %__d.addr, metadata !2685, metadata !2077), !dbg !2673
	call void @llvm.dbg.declare (metadata i8** %__s.addr, metadata !2686, metadata !2077), !dbg !2673
	store i8* %__s.arg, i8** %__s.addr, align 8, !tbaa !2084
	call void @llvm.dbg.declare (metadata i8** %__s.addr, metadata !2687, metadata !2077), !dbg !2673
	call void @llvm.dbg.declare (metadata i64* %__n.addr, metadata !2688, metadata !2077), !dbg !2673
	store i64 %__n.arg, i64* %__n.addr, align 8, !tbaa !2085
	call void @llvm.dbg.declare (metadata i64* %__n.addr, metadata !2689, metadata !2077), !dbg !2673
	%0 = load i64, i64* %__n.addr, align 8, !tbaa !2115, !dbg !2690
	%1 = icmp ne i64  %0, 1, !dbg !2690
	br i1  %1, label %L.B0004, label %L.B0872, !dbg !2690
L.B0872:
	%2 = load i8*, i8** %__s.addr, align 8, !tbaa !2084, !dbg !2691
	%3 = load i8, i8*  %2, align 1, !tbaa !2085, !dbg !2691
	%4 = load i8*, i8** %__d.addr, align 8, !tbaa !2084, !dbg !2691
	store i8  %3, i8*  %4, align 1, !tbaa !2085, !dbg !2691
	br label %L.B0005, !dbg !2691
L.B0004:
	%5 = load i8*, i8** %__d.addr, align 8, !tbaa !2084, !dbg !2692
	store i8*  %5, i8** %..inline.addr, align 8, !tbaa !2084, !dbg !2692
	%6 = load i8*, i8** %__s.addr, align 8, !tbaa !2084, !dbg !2692
	store i8*  %6, i8** %..inline.addr.1, align 8, !tbaa !2084, !dbg !2692
	%7 = load i64, i64* %__n.addr, align 8, !tbaa !2115, !dbg !2692
	store i64  %7, i64* %..inline.addr.2, align 8, !tbaa !2115, !dbg !2692
	%8 = icmp ne i64  %7, 0, !dbg !2692
	br i1  %8, label %L..inline.21581, label %L.B0873, !dbg !2692
L.B0873:
	br label %L..inline.21586, !dbg !2693
L..inline.21581:
	%9 = load i8*, i8** %..inline.addr, align 8, !tbaa !2084, !dbg !2694
	%10 = load i8*, i8** %..inline.addr.1, align 8, !tbaa !2084, !dbg !2694
	%11 = load i64, i64* %..inline.addr.2, align 8, !tbaa !2115, !dbg !2694
	%12 = call i8*  @memcpy (i8*  %9, i8*  %10, i64  %11) nounwind, !dbg !2694
	store i8*  %12, i8** %..inline.addr.3, align 8, !tbaa !2084, !dbg !2694
	br label %L..inline.21586
L..inline.21586:
	br label %L.B0005
L.B0005:
	ret void, !dbg !2695
}
define linkonce_odr void @_ZNSt7__cxx1112basic_stringIcSt11char_traitsIcESaIcEE13_S_copy_charsEPcS5_S5_(i8* %__p.arg, i8* %__k1.arg, i8* %__k2.arg) #0 inlinehint !dbg !2699 {
L.entry:
	%__p.addr = alloca i8*, align 8
	%__k1.addr = alloca i8*, align 8
	%__k2.addr = alloca i8*, align 8
	%..inline.addr = alloca i64, align 8
	%..inline.addr.1 = alloca i8*, align 8
	%..inline.addr.2 = alloca i8*, align 8
	%..inline.addr.3 = alloca i64, align 8
	%..inline.addr.4 = alloca i8*, align 8

	call void @llvm.dbg.declare (metadata i8** %__p.addr, metadata !2715, metadata !2077), !dbg !2700
	store i8* %__p.arg, i8** %__p.addr, align 8, !tbaa !2084
	call void @llvm.dbg.declare (metadata i8** %__p.addr, metadata !2716, metadata !2077), !dbg !2700
	call void @llvm.dbg.declare (metadata i8** %__k1.addr, metadata !2717, metadata !2077), !dbg !2700
	store i8* %__k1.arg, i8** %__k1.addr, align 8, !tbaa !2084
	call void @llvm.dbg.declare (metadata i8** %__k1.addr, metadata !2718, metadata !2077), !dbg !2700
	call void @llvm.dbg.declare (metadata i8** %__k2.addr, metadata !2719, metadata !2077), !dbg !2700
	store i8* %__k2.arg, i8** %__k2.addr, align 8, !tbaa !2084
	call void @llvm.dbg.declare (metadata i8** %__k2.addr, metadata !2720, metadata !2077), !dbg !2700
	%0 = load i8*, i8** %__k2.addr, align 8, !tbaa !2084, !dbg !2721
	%1 = load i8*, i8** %__k1.addr, align 8, !tbaa !2084, !dbg !2721
	%2 = ptrtoint i8*  %1 to i64, !dbg !2721
	%3 = sub i64 0,  %2, !dbg !2721
	%4 = getelementptr i8, i8*  %0, i64  %3, !dbg !2721
	%5 = ptrtoint i8*  %4 to i64, !dbg !2721
	store i64  %5, i64* %..inline.addr, align 8, !tbaa !2115, !dbg !2721
	%6 = icmp ne i64  %5, 1, !dbg !2721
	br i1  %6, label %L..inline.21603, label %L.B0876, !dbg !2721
L.B0876:
	%7 = load i8, i8*  %1, align 1, !tbaa !2085, !dbg !2722
	%8 = load i8*, i8** %__p.addr, align 8, !tbaa !2084, !dbg !2722
	store i8  %7, i8*  %8, align 1, !tbaa !2085, !dbg !2722
	br label %L..inline.21612, !dbg !2722
L..inline.21603:
	%9 = load i8*, i8** %__p.addr, align 8, !tbaa !2084, !dbg !2723
	store i8*  %9, i8** %..inline.addr.1, align 8, !tbaa !2084, !dbg !2723
	%10 = load i8*, i8** %__k1.addr, align 8, !tbaa !2084, !dbg !2723
	store i8*  %10, i8** %..inline.addr.2, align 8, !tbaa !2084, !dbg !2723
	%11 = load i64, i64* %..inline.addr, align 8, !tbaa !2115, !dbg !2723
	store i64  %11, i64* %..inline.addr.3, align 8, !tbaa !2115, !dbg !2723
	%12 = icmp ne i64  %11, 0, !dbg !2723
	br i1  %12, label %L..inline.21619, label %L.B0877, !dbg !2723
L.B0877:
	br label %L..inline.21621, !dbg !2723
L..inline.21619:
	%13 = load i8*, i8** %..inline.addr.1, align 8, !tbaa !2084, !dbg !2723
	%14 = load i8*, i8** %..inline.addr.2, align 8, !tbaa !2084, !dbg !2723
	%15 = load i64, i64* %..inline.addr.3, align 8, !tbaa !2115, !dbg !2723
	%16 = call i8*  @memcpy (i8*  %13, i8*  %14, i64  %15) nounwind, !dbg !2723
	store i8*  %16, i8** %..inline.addr.4, align 8, !tbaa !2084, !dbg !2723
	br label %L..inline.21621
L..inline.21621:
	br label %L..inline.21612
L..inline.21612:
	ret void, !dbg !2721
}
define linkonce_odr void @_ZNSt7__cxx1112basic_stringIcSt11char_traitsIcESaIcEE13_S_copy_charsEPcPKcS7_(i8* %__p.arg, i8* %__k1.arg, i8* %__k2.arg) #0 inlinehint !dbg !2725 {
L.entry:
	%__p.addr = alloca i8*, align 8
	%__k1.addr = alloca i8*, align 8
	%__k2.addr = alloca i8*, align 8
	%..inline.addr = alloca i64, align 8
	%..inline.addr.1 = alloca i8*, align 8
	%..inline.addr.2 = alloca i8*, align 8
	%..inline.addr.3 = alloca i64, align 8
	%..inline.addr.4 = alloca i8*, align 8

	call void @llvm.dbg.declare (metadata i8** %__p.addr, metadata !2741, metadata !2077), !dbg !2726
	store i8* %__p.arg, i8** %__p.addr, align 8, !tbaa !2084
	call void @llvm.dbg.declare (metadata i8** %__p.addr, metadata !2742, metadata !2077), !dbg !2726
	call void @llvm.dbg.declare (metadata i8** %__k1.addr, metadata !2743, metadata !2077), !dbg !2726
	store i8* %__k1.arg, i8** %__k1.addr, align 8, !tbaa !2084
	call void @llvm.dbg.declare (metadata i8** %__k1.addr, metadata !2744, metadata !2077), !dbg !2726
	call void @llvm.dbg.declare (metadata i8** %__k2.addr, metadata !2745, metadata !2077), !dbg !2726
	store i8* %__k2.arg, i8** %__k2.addr, align 8, !tbaa !2084
	call void @llvm.dbg.declare (metadata i8** %__k2.addr, metadata !2746, metadata !2077), !dbg !2726
	%0 = load i8*, i8** %__k2.addr, align 8, !tbaa !2084, !dbg !2747
	%1 = load i8*, i8** %__k1.addr, align 8, !tbaa !2084, !dbg !2747
	%2 = ptrtoint i8*  %1 to i64, !dbg !2747
	%3 = sub i64 0,  %2, !dbg !2747
	%4 = getelementptr i8, i8*  %0, i64  %3, !dbg !2747
	%5 = ptrtoint i8*  %4 to i64, !dbg !2747
	store i64  %5, i64* %..inline.addr, align 8, !tbaa !2115, !dbg !2747
	%6 = icmp ne i64  %5, 1, !dbg !2747
	br i1  %6, label %L..inline.21643, label %L.B0880, !dbg !2747
L.B0880:
	%7 = load i8, i8*  %1, align 1, !tbaa !2085, !dbg !2748
	%8 = load i8*, i8** %__p.addr, align 8, !tbaa !2084, !dbg !2748
	store i8  %7, i8*  %8, align 1, !tbaa !2085, !dbg !2748
	br label %L..inline.21652, !dbg !2748
L..inline.21643:
	%9 = load i8*, i8** %__p.addr, align 8, !tbaa !2084, !dbg !2749
	store i8*  %9, i8** %..inline.addr.1, align 8, !tbaa !2084, !dbg !2749
	%10 = load i8*, i8** %__k1.addr, align 8, !tbaa !2084, !dbg !2749
	store i8*  %10, i8** %..inline.addr.2, align 8, !tbaa !2084, !dbg !2749
	%11 = load i64, i64* %..inline.addr, align 8, !tbaa !2115, !dbg !2749
	store i64  %11, i64* %..inline.addr.3, align 8, !tbaa !2115, !dbg !2749
	%12 = icmp ne i64  %11, 0, !dbg !2749
	br i1  %12, label %L..inline.21659, label %L.B0881, !dbg !2749
L.B0881:
	br label %L..inline.21661, !dbg !2749
L..inline.21659:
	%13 = load i8*, i8** %..inline.addr.1, align 8, !tbaa !2084, !dbg !2749
	%14 = load i8*, i8** %..inline.addr.2, align 8, !tbaa !2084, !dbg !2749
	%15 = load i64, i64* %..inline.addr.3, align 8, !tbaa !2115, !dbg !2749
	%16 = call i8*  @memcpy (i8*  %13, i8*  %14, i64  %15) nounwind, !dbg !2749
	store i8*  %16, i8** %..inline.addr.4, align 8, !tbaa !2084, !dbg !2749
	br label %L..inline.21661
L..inline.21661:
	br label %L..inline.21652
L..inline.21652:
	ret void, !dbg !2747
}

%struct._ZSt26random_access_iterator_tag = type <{ [1 x i8]}> 

define linkonce_odr void @_ZNSt7__cxx1112basic_stringIcSt11char_traitsIcESaIcEEC1ERKS4_(%struct._ZNSt7__cxx1112basic_stringIcSt11char_traitsIcESaIcEEE* %_T47232200_9609.arg, %struct._ZNSt7__cxx1112basic_stringIcSt11char_traitsIcESaIcEEE* %__str.arg) #0 inlinehint !dbg !2759 {
L.entry:
	%_T47232200_9609.addr = alloca %struct._ZNSt7__cxx1112basic_stringIcSt11char_traitsIcESaIcEEE*, align 8
	%__str.addr = alloca %struct._ZNSt7__cxx1112basic_stringIcSt11char_traitsIcESaIcEEE*, align 8
	%..inline.addr = alloca %struct._ZNSt7__cxx1112basic_stringIcSt11char_traitsIcESaIcEEE*, align 8
	%..inline.addr.1 = alloca i8*, align 8
	%..inline.addr.2 = alloca i8*, align 8
	%....inline.__FILL_CHARARRAY.addr = alloca [1 x i8], align 1
	%....inline.__FILL_CHARARRAY.addr.1 = alloca [1 x i8], align 1
	%..inline.addr.3 = alloca %struct._ZSt26random_access_iterator_tag, align 1

	call void @llvm.dbg.declare (metadata %struct._ZNSt7__cxx1112basic_stringIcSt11char_traitsIcESaIcEEE** %_T47232200_9609.addr, metadata !2827, metadata !2077), !dbg !2760
	store %struct._ZNSt7__cxx1112basic_stringIcSt11char_traitsIcESaIcEEE* %_T47232200_9609.arg, %struct._ZNSt7__cxx1112basic_stringIcSt11char_traitsIcESaIcEEE** %_T47232200_9609.addr, align 8, !tbaa !2084
	call void @llvm.dbg.declare (metadata %struct._ZNSt7__cxx1112basic_stringIcSt11char_traitsIcESaIcEEE** %_T47232200_9609.addr, metadata !2828, metadata !2077), !dbg !2760
	call void @llvm.dbg.declare (metadata %struct._ZNSt7__cxx1112basic_stringIcSt11char_traitsIcESaIcEEE** %__str.addr, metadata !2829, metadata !2077), !dbg !2760
	store %struct._ZNSt7__cxx1112basic_stringIcSt11char_traitsIcESaIcEEE* %__str.arg, %struct._ZNSt7__cxx1112basic_stringIcSt11char_traitsIcESaIcEEE** %__str.addr, align 8, !tbaa !2084
	call void @llvm.dbg.declare (metadata %struct._ZNSt7__cxx1112basic_stringIcSt11char_traitsIcESaIcEEE** %__str.addr, metadata !2830, metadata !2077), !dbg !2760
	%0 = load %struct._ZNSt7__cxx1112basic_stringIcSt11char_traitsIcESaIcEEE*, %struct._ZNSt7__cxx1112basic_stringIcSt11char_traitsIcESaIcEEE** %_T47232200_9609.addr, align 8, !tbaa !2084, !dbg !2831
	%1 = bitcast %struct._ZNSt7__cxx1112basic_stringIcSt11char_traitsIcESaIcEEE*  %0 to i8*, !dbg !2831
	%2 = getelementptr i8, i8*  %1, i64 16, !dbg !2831
	%3 = bitcast %struct._ZNSt7__cxx1112basic_stringIcSt11char_traitsIcESaIcEEE*  %0 to i8**, !dbg !2831
	store i8*  %2, i8**  %3, align 8, !tbaa !2084, !dbg !2831
	%4 = bitcast %struct._ZNSt7__cxx1112basic_stringIcSt11char_traitsIcESaIcEEE** %..inline.addr to i8**, !dbg !2832
	store i8*  %1, i8**  %4, align 8, !tbaa !2084, !dbg !2832
	%5 = load %struct._ZNSt7__cxx1112basic_stringIcSt11char_traitsIcESaIcEEE*, %struct._ZNSt7__cxx1112basic_stringIcSt11char_traitsIcESaIcEEE** %__str.addr, align 8, !tbaa !2084, !dbg !2832
	%6 = bitcast %struct._ZNSt7__cxx1112basic_stringIcSt11char_traitsIcESaIcEEE*  %5 to i8**, !dbg !2832
	%7 = load i8*, i8**  %6, align 8, !tbaa !2084, !dbg !2832
	store i8*  %7, i8** %..inline.addr.1, align 8, !tbaa !2084, !dbg !2832
	%8 = bitcast %struct._ZNSt7__cxx1112basic_stringIcSt11char_traitsIcESaIcEEE*  %5 to i8*, !dbg !2832
	%9 = getelementptr i8, i8*  %8, i64 8, !dbg !2832
	%10 = bitcast i8*  %9 to i64*, !dbg !2832
	%11 = load i64, i64*  %10, align 8, !tbaa !2085, !dbg !2832
	%12 = getelementptr i8, i8*  %7, i64  %11, !dbg !2832
	store i8*  %12, i8** %..inline.addr.2, align 8, !tbaa !2084, !dbg !2832
	call void @llvm.dbg.declare (metadata [1 x i8]* %....inline.__FILL_CHARARRAY.addr, metadata !2834, metadata !2077), !dbg !2762
	%13 = bitcast [1 x i8]* %....inline.__FILL_CHARARRAY.addr to i8*, !dbg !2833
	%14 = load i8, i8*  %13, align 1, !tbaa !2085, !dbg !2833
	%15 = zext i8  %14 to i32, !dbg !2833
	%16 = trunc i32  %15 to i8, !dbg !2833
	call void @llvm.dbg.declare (metadata [1 x i8]* %....inline.__FILL_CHARARRAY.addr.1, metadata !2834, metadata !2077), !dbg !2762
	%17 = bitcast [1 x i8]* %....inline.__FILL_CHARARRAY.addr.1 to i8*, !dbg !2833
	store i8  %16, i8*  %17, align 1, !tbaa !2085, !dbg !2833
	%18 = load %struct._ZNSt7__cxx1112basic_stringIcSt11char_traitsIcESaIcEEE*, %struct._ZNSt7__cxx1112basic_stringIcSt11char_traitsIcESaIcEEE** %..inline.addr, align 8, !tbaa !2084, !dbg !2832
	%19 = load i8*, i8** %..inline.addr.1, align 8, !tbaa !2084, !dbg !2832
	%20 = load i8*, i8** %..inline.addr.2, align 8, !tbaa !2084, !dbg !2832
	%21 = bitcast %struct._ZSt26random_access_iterator_tag* %..inline.addr.3 to i8*, !dbg !2832
	%22 = load i8, i8*  %21, align 1, !tbaa !2085, !dbg !2832
	call void  @_ZNSt7__cxx1112basic_stringIcSt11char_traitsIcESaIcEE12_M_constructIPcEEvT_S7_St20forward_iterator_tag (%struct._ZNSt7__cxx1112basic_stringIcSt11char_traitsIcESaIcEEE*  %18, i8*  %19, i8*  %20, i8  %22), !dbg !2832
	ret void, !dbg !2833
}
define linkonce_odr void @_ZNSt7__cxx1112basic_stringIcSt11char_traitsIcESaIcEEC2ERKS4_(%struct._ZNSt7__cxx1112basic_stringIcSt11char_traitsIcESaIcEEE* %_T47232200_9610.arg, %struct._ZNSt7__cxx1112basic_stringIcSt11char_traitsIcESaIcEEE* %_T47232496_9610.arg) #0 inlinehint !dbg !2836 {
L.entry:
	%_T47232200_9610.addr = alloca %struct._ZNSt7__cxx1112basic_stringIcSt11char_traitsIcESaIcEEE*, align 8
	%_T47232496_9610.addr = alloca %struct._ZNSt7__cxx1112basic_stringIcSt11char_traitsIcESaIcEEE*, align 8
	%..inline.addr = alloca %struct._ZNSt7__cxx1112basic_stringIcSt11char_traitsIcESaIcEEE*, align 8
	%..inline.addr.1 = alloca %struct._ZNSt7__cxx1112basic_stringIcSt11char_traitsIcESaIcEEE*, align 8
	%..inline.addr.2 = alloca %struct._ZNSt7__cxx1112basic_stringIcSt11char_traitsIcESaIcEEE*, align 8
	%..inline.addr.3 = alloca i8*, align 8
	%..inline.addr.4 = alloca i8*, align 8
	%....inline.__FILL_CHARARRAY.addr = alloca [1 x i8], align 1
	%....inline.__FILL_CHARARRAY.addr.1 = alloca [1 x i8], align 1
	%..inline.addr.5 = alloca %struct._ZSt26random_access_iterator_tag, align 1

	store %struct._ZNSt7__cxx1112basic_stringIcSt11char_traitsIcESaIcEEE* %_T47232200_9610.arg, %struct._ZNSt7__cxx1112basic_stringIcSt11char_traitsIcESaIcEEE** %_T47232200_9610.addr, align 8, !tbaa !2084
	store %struct._ZNSt7__cxx1112basic_stringIcSt11char_traitsIcESaIcEEE* %_T47232496_9610.arg, %struct._ZNSt7__cxx1112basic_stringIcSt11char_traitsIcESaIcEEE** %_T47232496_9610.addr, align 8, !tbaa !2084
	%0 = load %struct._ZNSt7__cxx1112basic_stringIcSt11char_traitsIcESaIcEEE*, %struct._ZNSt7__cxx1112basic_stringIcSt11char_traitsIcESaIcEEE** %_T47232200_9610.addr, align 8, !tbaa !2084, !dbg !2908
	%1 = bitcast %struct._ZNSt7__cxx1112basic_stringIcSt11char_traitsIcESaIcEEE*  %0 to i8*, !dbg !2908
	%2 = bitcast %struct._ZNSt7__cxx1112basic_stringIcSt11char_traitsIcESaIcEEE** %..inline.addr to i8**, !dbg !2908
	store i8*  %1, i8**  %2, align 8, !tbaa !2084, !dbg !2908
	%3 = load %struct._ZNSt7__cxx1112basic_stringIcSt11char_traitsIcESaIcEEE*, %struct._ZNSt7__cxx1112basic_stringIcSt11char_traitsIcESaIcEEE** %_T47232496_9610.addr, align 8, !tbaa !2084, !dbg !2908
	%4 = bitcast %struct._ZNSt7__cxx1112basic_stringIcSt11char_traitsIcESaIcEEE*  %3 to i8*, !dbg !2908
	%5 = bitcast %struct._ZNSt7__cxx1112basic_stringIcSt11char_traitsIcESaIcEEE** %..inline.addr.1 to i8**, !dbg !2908
	store i8*  %4, i8**  %5, align 8, !tbaa !2084, !dbg !2908
	%6 = getelementptr i8, i8*  %1, i64 16, !dbg !2909
	%7 = bitcast %struct._ZNSt7__cxx1112basic_stringIcSt11char_traitsIcESaIcEEE*  %0 to i8**, !dbg !2909
	store i8*  %6, i8**  %7, align 8, !tbaa !2084, !dbg !2909
	%8 = load %struct._ZNSt7__cxx1112basic_stringIcSt11char_traitsIcESaIcEEE*, %struct._ZNSt7__cxx1112basic_stringIcSt11char_traitsIcESaIcEEE** %..inline.addr, align 8, !tbaa !2084, !dbg !2909
	%9 = bitcast %struct._ZNSt7__cxx1112basic_stringIcSt11char_traitsIcESaIcEEE*  %8 to i8*, !dbg !2909
	%10 = bitcast %struct._ZNSt7__cxx1112basic_stringIcSt11char_traitsIcESaIcEEE** %..inline.addr.2 to i8**, !dbg !2909
	store i8*  %9, i8**  %10, align 8, !tbaa !2084, !dbg !2909
	%11 = load %struct._ZNSt7__cxx1112basic_stringIcSt11char_traitsIcESaIcEEE*, %struct._ZNSt7__cxx1112basic_stringIcSt11char_traitsIcESaIcEEE** %..inline.addr.1, align 8, !tbaa !2084, !dbg !2909
	%12 = bitcast %struct._ZNSt7__cxx1112basic_stringIcSt11char_traitsIcESaIcEEE*  %11 to i8**, !dbg !2909
	%13 = load i8*, i8**  %12, align 8, !tbaa !2084, !dbg !2909
	store i8*  %13, i8** %..inline.addr.3, align 8, !tbaa !2084, !dbg !2909
	%14 = bitcast %struct._ZNSt7__cxx1112basic_stringIcSt11char_traitsIcESaIcEEE*  %11 to i8*, !dbg !2909
	%15 = getelementptr i8, i8*  %14, i64 8, !dbg !2909
	%16 = bitcast i8*  %15 to i64*, !dbg !2909
	%17 = load i64, i64*  %16, align 8, !tbaa !2085, !dbg !2909
	%18 = getelementptr i8, i8*  %13, i64  %17, !dbg !2909
	store i8*  %18, i8** %..inline.addr.4, align 8, !tbaa !2084, !dbg !2909
	call void @llvm.dbg.declare (metadata [1 x i8]* %....inline.__FILL_CHARARRAY.addr, metadata !2910, metadata !2077), !dbg !2839
	%19 = bitcast [1 x i8]* %....inline.__FILL_CHARARRAY.addr to i8*, !dbg !2909
	%20 = load i8, i8*  %19, align 1, !tbaa !2085, !dbg !2909
	%21 = zext i8  %20 to i32, !dbg !2909
	%22 = trunc i32  %21 to i8, !dbg !2909
	call void @llvm.dbg.declare (metadata [1 x i8]* %....inline.__FILL_CHARARRAY.addr.1, metadata !2910, metadata !2077), !dbg !2839
	%23 = bitcast [1 x i8]* %....inline.__FILL_CHARARRAY.addr.1 to i8*, !dbg !2909
	store i8  %22, i8*  %23, align 1, !tbaa !2085, !dbg !2909
	%24 = load %struct._ZNSt7__cxx1112basic_stringIcSt11char_traitsIcESaIcEEE*, %struct._ZNSt7__cxx1112basic_stringIcSt11char_traitsIcESaIcEEE** %..inline.addr.2, align 8, !tbaa !2084, !dbg !2909
	%25 = load i8*, i8** %..inline.addr.3, align 8, !tbaa !2084, !dbg !2909
	%26 = load i8*, i8** %..inline.addr.4, align 8, !tbaa !2084, !dbg !2909
	%27 = bitcast %struct._ZSt26random_access_iterator_tag* %..inline.addr.5 to i8*, !dbg !2909
	%28 = load i8, i8*  %27, align 1, !tbaa !2085, !dbg !2909
	call void  @_ZNSt7__cxx1112basic_stringIcSt11char_traitsIcESaIcEE12_M_constructIPcEEvT_S7_St20forward_iterator_tag (%struct._ZNSt7__cxx1112basic_stringIcSt11char_traitsIcESaIcEEE*  %24, i8*  %25, i8*  %26, i8  %28), !dbg !2909
	ret void, !dbg !2909
}
define linkonce_odr void @_ZNSt7__cxx1112basic_stringIcSt11char_traitsIcESaIcEEC1EPKcRKS3_(%struct._ZNSt7__cxx1112basic_stringIcSt11char_traitsIcESaIcEEE* %_T47232384_9611.arg, i8* %__s.arg, %struct._ZSaIcE* %__a.arg) #0 inlinehint !dbg !2914 {
L.entry:
	%_T47232384_9611.addr = alloca %struct._ZNSt7__cxx1112basic_stringIcSt11char_traitsIcESaIcEEE*, align 8
	%__s.addr = alloca i8*, align 8
	%__a.addr = alloca %struct._ZSaIcE*, align 8
	%..inline.addr = alloca i8*, align 8
	%..inline.addr.1 = alloca i64, align 8
	%.I0000.addr = alloca i8*, align 8
	%..inline.addr.2 = alloca %struct._ZNSt7__cxx1112basic_stringIcSt11char_traitsIcESaIcEEE*, align 8
	%..inline.addr.3 = alloca i8*, align 8
	%..inline.addr.4 = alloca i8*, align 8
	%....inline.__FILL_CHARARRAY.addr = alloca [1 x i8], align 1
	%....inline.__FILL_CHARARRAY.addr.1 = alloca [1 x i8], align 1
	%..inline.addr.5 = alloca %struct._ZSt26random_access_iterator_tag, align 1

	call void @llvm.dbg.declare (metadata %struct._ZNSt7__cxx1112basic_stringIcSt11char_traitsIcESaIcEEE** %_T47232384_9611.addr, metadata !2950, metadata !2077), !dbg !2915
	store %struct._ZNSt7__cxx1112basic_stringIcSt11char_traitsIcESaIcEEE* %_T47232384_9611.arg, %struct._ZNSt7__cxx1112basic_stringIcSt11char_traitsIcESaIcEEE** %_T47232384_9611.addr, align 8, !tbaa !2084
	call void @llvm.dbg.declare (metadata %struct._ZNSt7__cxx1112basic_stringIcSt11char_traitsIcESaIcEEE** %_T47232384_9611.addr, metadata !2951, metadata !2077), !dbg !2915
	call void @llvm.dbg.declare (metadata i8** %__s.addr, metadata !2952, metadata !2077), !dbg !2915
	store i8* %__s.arg, i8** %__s.addr, align 8, !tbaa !2084
	call void @llvm.dbg.declare (metadata i8** %__s.addr, metadata !2953, metadata !2077), !dbg !2915
	call void @llvm.dbg.declare (metadata %struct._ZSaIcE** %__a.addr, metadata !2954, metadata !2077), !dbg !2915
	store %struct._ZSaIcE* %__a.arg, %struct._ZSaIcE** %__a.addr, align 8, !tbaa !2084
	call void @llvm.dbg.declare (metadata %struct._ZSaIcE** %__a.addr, metadata !2955, metadata !2077), !dbg !2915
	%0 = load %struct._ZNSt7__cxx1112basic_stringIcSt11char_traitsIcESaIcEEE*, %struct._ZNSt7__cxx1112basic_stringIcSt11char_traitsIcESaIcEEE** %_T47232384_9611.addr, align 8, !tbaa !2084, !dbg !2956
	%1 = bitcast %struct._ZNSt7__cxx1112basic_stringIcSt11char_traitsIcESaIcEEE*  %0 to i8*, !dbg !2956
	%2 = getelementptr i8, i8*  %1, i64 16, !dbg !2956
	%3 = bitcast %struct._ZNSt7__cxx1112basic_stringIcSt11char_traitsIcESaIcEEE*  %0 to i8**, !dbg !2956
	store i8*  %2, i8**  %3, align 8, !tbaa !2084, !dbg !2956
	%4 = load i8*, i8** %__s.addr, align 8, !tbaa !2084, !dbg !2956
	%5 = icmp eq i8*  %4,  null, !dbg !2956
	br i1  %5, label %L.B0006, label %L.B0908, !dbg !2956
L.B0908:
	%6 = call i64  @strlen (i8*  %4) nounwind, !dbg !2957
	%7 = load i8*, i8** %__s.addr, align 8, !tbaa !2084, !dbg !2958
	%8 = getelementptr i8, i8*  %7, i64  %6, !dbg !2958
	store i8*  %8, i8** %.I0000.addr, align 8, !tbaa !2084, !dbg !2958
	br label %L.B0007, !dbg !2956
L.B0006:
	%9 = load i8*, i8** %__s.addr, align 8, !tbaa !2084, !dbg !2956
	%10 = getelementptr i8, i8*  %9, i64 18446744073709551615, !dbg !2956
	store i8*  %10, i8** %.I0000.addr, align 8, !tbaa !2084, !dbg !2956
	br label %L.B0007
L.B0007:
	%11 = load %struct._ZNSt7__cxx1112basic_stringIcSt11char_traitsIcESaIcEEE*, %struct._ZNSt7__cxx1112basic_stringIcSt11char_traitsIcESaIcEEE** %_T47232384_9611.addr, align 8, !tbaa !2084, !dbg !2959
	%12 = bitcast %struct._ZNSt7__cxx1112basic_stringIcSt11char_traitsIcESaIcEEE*  %11 to i8*, !dbg !2959
	%13 = bitcast %struct._ZNSt7__cxx1112basic_stringIcSt11char_traitsIcESaIcEEE** %..inline.addr.2 to i8**, !dbg !2959
	store i8*  %12, i8**  %13, align 8, !tbaa !2084, !dbg !2959
	%14 = load i8*, i8** %__s.addr, align 8, !tbaa !2084, !dbg !2959
	store i8*  %14, i8** %..inline.addr.3, align 8, !tbaa !2084, !dbg !2959
	%15 = load i8*, i8** %.I0000.addr, align 8, !tbaa !2084, !dbg !2959
	store i8*  %15, i8** %..inline.addr.4, align 8, !tbaa !2084, !dbg !2959
	call void @llvm.dbg.declare (metadata [1 x i8]* %....inline.__FILL_CHARARRAY.addr, metadata !2960, metadata !2077), !dbg !2917
	%16 = bitcast [1 x i8]* %....inline.__FILL_CHARARRAY.addr to i8*, !dbg !2956
	%17 = load i8, i8*  %16, align 1, !tbaa !2085, !dbg !2956
	%18 = zext i8  %17 to i32, !dbg !2956
	%19 = trunc i32  %18 to i8, !dbg !2956
	call void @llvm.dbg.declare (metadata [1 x i8]* %....inline.__FILL_CHARARRAY.addr.1, metadata !2960, metadata !2077), !dbg !2917
	%20 = bitcast [1 x i8]* %....inline.__FILL_CHARARRAY.addr.1 to i8*, !dbg !2956
	store i8  %19, i8*  %20, align 1, !tbaa !2085, !dbg !2956
	%21 = load %struct._ZNSt7__cxx1112basic_stringIcSt11char_traitsIcESaIcEEE*, %struct._ZNSt7__cxx1112basic_stringIcSt11char_traitsIcESaIcEEE** %..inline.addr.2, align 8, !tbaa !2084, !dbg !2959
	%22 = load i8*, i8** %..inline.addr.3, align 8, !tbaa !2084, !dbg !2959
	%23 = load i8*, i8** %..inline.addr.4, align 8, !tbaa !2084, !dbg !2959
	%24 = bitcast %struct._ZSt26random_access_iterator_tag* %..inline.addr.5 to i8*, !dbg !2959
	%25 = load i8, i8*  %24, align 1, !tbaa !2085, !dbg !2959
	call void  @_ZNSt7__cxx1112basic_stringIcSt11char_traitsIcESaIcEE12_M_constructIPKcEEvT_S8_St20forward_iterator_tag (%struct._ZNSt7__cxx1112basic_stringIcSt11char_traitsIcESaIcEEE*  %21, i8*  %22, i8*  %23, i8  %25), !dbg !2959
	ret void, !dbg !2956
}
define linkonce_odr void @_ZNSt7__cxx1112basic_stringIcSt11char_traitsIcESaIcEEC2EPKcRKS3_(%struct._ZNSt7__cxx1112basic_stringIcSt11char_traitsIcESaIcEEE* %_T47232200_9612.arg, i8* %_T47232496_9612.arg, %struct._ZSaIcE* %_T47232792_9612.arg) #0 inlinehint !dbg !2962 {
L.entry:
	%_T47232200_9612.addr = alloca %struct._ZNSt7__cxx1112basic_stringIcSt11char_traitsIcESaIcEEE*, align 8
	%_T47232496_9612.addr = alloca i8*, align 8
	%_T47232792_9612.addr = alloca %struct._ZSaIcE*, align 8
	%..inline.addr = alloca %struct._ZNSt7__cxx1112basic_stringIcSt11char_traitsIcESaIcEEE*, align 8
	%..inline.addr.1 = alloca i8*, align 8
	%..inline.addr.2 = alloca i8*, align 8
	%..inline.addr.3 = alloca i64, align 8
	%..inline.addr.4 = alloca i8*, align 8
	%..inline.addr.5 = alloca %struct._ZNSt7__cxx1112basic_stringIcSt11char_traitsIcESaIcEEE*, align 8
	%..inline.addr.6 = alloca i8*, align 8
	%..inline.addr.7 = alloca i8*, align 8
	%....inline.__FILL_CHARARRAY.addr = alloca [1 x i8], align 1
	%....inline.__FILL_CHARARRAY.addr.1 = alloca [1 x i8], align 1
	%..inline.addr.8 = alloca %struct._ZSt26random_access_iterator_tag, align 1

	store %struct._ZNSt7__cxx1112basic_stringIcSt11char_traitsIcESaIcEEE* %_T47232200_9612.arg, %struct._ZNSt7__cxx1112basic_stringIcSt11char_traitsIcESaIcEEE** %_T47232200_9612.addr, align 8, !tbaa !2084
	store i8* %_T47232496_9612.arg, i8** %_T47232496_9612.addr, align 8, !tbaa !2084
	store %struct._ZSaIcE* %_T47232792_9612.arg, %struct._ZSaIcE** %_T47232792_9612.addr, align 8, !tbaa !2084
	%0 = load %struct._ZNSt7__cxx1112basic_stringIcSt11char_traitsIcESaIcEEE*, %struct._ZNSt7__cxx1112basic_stringIcSt11char_traitsIcESaIcEEE** %_T47232200_9612.addr, align 8, !tbaa !2084, !dbg !3002
	%1 = bitcast %struct._ZNSt7__cxx1112basic_stringIcSt11char_traitsIcESaIcEEE*  %0 to i8*, !dbg !3002
	%2 = bitcast %struct._ZNSt7__cxx1112basic_stringIcSt11char_traitsIcESaIcEEE** %..inline.addr to i8**, !dbg !3002
	store i8*  %1, i8**  %2, align 8, !tbaa !2084, !dbg !3002
	%3 = load i8*, i8** %_T47232496_9612.addr, align 8, !tbaa !2084, !dbg !3002
	store i8*  %3, i8** %..inline.addr.1, align 8, !tbaa !2084, !dbg !3002
	%4 = getelementptr i8, i8*  %1, i64 16, !dbg !3002
	%5 = bitcast %struct._ZNSt7__cxx1112basic_stringIcSt11char_traitsIcESaIcEEE*  %0 to i8**, !dbg !3002
	store i8*  %4, i8**  %5, align 8, !tbaa !2084, !dbg !3002
	%6 = icmp eq i8*  %3,  null, !dbg !3002
	br i1  %6, label %L..inline.22125, label %L.B0911, !dbg !3002
L.B0911:
	%7 = call i64  @strlen (i8*  %3) nounwind, !dbg !3002
	%8 = load i8*, i8** %..inline.addr.1, align 8, !tbaa !2084, !dbg !3002
	%9 = getelementptr i8, i8*  %8, i64  %7, !dbg !3002
	store i8*  %9, i8** %..inline.addr.4, align 8, !tbaa !2084, !dbg !3002
	br label %L..inline.22133, !dbg !3002
L..inline.22125:
	%10 = load i8*, i8** %..inline.addr.1, align 8, !tbaa !2084, !dbg !3002
	%11 = getelementptr i8, i8*  %10, i64 18446744073709551615, !dbg !3002
	store i8*  %11, i8** %..inline.addr.4, align 8, !tbaa !2084, !dbg !3002
	br label %L..inline.22133
L..inline.22133:
	%12 = load %struct._ZNSt7__cxx1112basic_stringIcSt11char_traitsIcESaIcEEE*, %struct._ZNSt7__cxx1112basic_stringIcSt11char_traitsIcESaIcEEE** %..inline.addr, align 8, !tbaa !2084, !dbg !3002
	%13 = bitcast %struct._ZNSt7__cxx1112basic_stringIcSt11char_traitsIcESaIcEEE*  %12 to i8*, !dbg !3002
	%14 = bitcast %struct._ZNSt7__cxx1112basic_stringIcSt11char_traitsIcESaIcEEE** %..inline.addr.5 to i8**, !dbg !3002
	store i8*  %13, i8**  %14, align 8, !tbaa !2084, !dbg !3002
	%15 = load i8*, i8** %..inline.addr.1, align 8, !tbaa !2084, !dbg !3002
	store i8*  %15, i8** %..inline.addr.6, align 8, !tbaa !2084, !dbg !3002
	%16 = load i8*, i8** %..inline.addr.4, align 8, !tbaa !2084, !dbg !3002
	store i8*  %16, i8** %..inline.addr.7, align 8, !tbaa !2084, !dbg !3002
	call void @llvm.dbg.declare (metadata [1 x i8]* %....inline.__FILL_CHARARRAY.addr, metadata !3003, metadata !2077), !dbg !2965
	%17 = bitcast [1 x i8]* %....inline.__FILL_CHARARRAY.addr to i8*, !dbg !3002
	%18 = load i8, i8*  %17, align 1, !tbaa !2085, !dbg !3002
	%19 = zext i8  %18 to i32, !dbg !3002
	%20 = trunc i32  %19 to i8, !dbg !3002
	call void @llvm.dbg.declare (metadata [1 x i8]* %....inline.__FILL_CHARARRAY.addr.1, metadata !3003, metadata !2077), !dbg !2965
	%21 = bitcast [1 x i8]* %....inline.__FILL_CHARARRAY.addr.1 to i8*, !dbg !3002
	store i8  %20, i8*  %21, align 1, !tbaa !2085, !dbg !3002
	%22 = load %struct._ZNSt7__cxx1112basic_stringIcSt11char_traitsIcESaIcEEE*, %struct._ZNSt7__cxx1112basic_stringIcSt11char_traitsIcESaIcEEE** %..inline.addr.5, align 8, !tbaa !2084, !dbg !3002
	%23 = load i8*, i8** %..inline.addr.6, align 8, !tbaa !2084, !dbg !3002
	%24 = load i8*, i8** %..inline.addr.7, align 8, !tbaa !2084, !dbg !3002
	%25 = bitcast %struct._ZSt26random_access_iterator_tag* %..inline.addr.8 to i8*, !dbg !3002
	%26 = load i8, i8*  %25, align 1, !tbaa !2085, !dbg !3002
	call void  @_ZNSt7__cxx1112basic_stringIcSt11char_traitsIcESaIcEE12_M_constructIPKcEEvT_S8_St20forward_iterator_tag (%struct._ZNSt7__cxx1112basic_stringIcSt11char_traitsIcESaIcEEE*  %22, i8*  %23, i8*  %24, i8  %26), !dbg !3002
	ret void, !dbg !3002
}
define linkonce_odr void @_ZNSt7__cxx1112basic_stringIcSt11char_traitsIcESaIcEED1Ev(%struct._ZNSt7__cxx1112basic_stringIcSt11char_traitsIcESaIcEEE* %_T47232200_9613.arg) #0 inlinehint !dbg !3005 {
L.entry:
	%_T47232200_9613.addr = alloca %struct._ZNSt7__cxx1112basic_stringIcSt11char_traitsIcESaIcEEE*, align 8
	%..inline.addr = alloca i8*, align 8

	call void @llvm.dbg.declare (metadata %struct._ZNSt7__cxx1112basic_stringIcSt11char_traitsIcESaIcEEE** %_T47232200_9613.addr, metadata !3057, metadata !2077), !dbg !3006
	store %struct._ZNSt7__cxx1112basic_stringIcSt11char_traitsIcESaIcEEE* %_T47232200_9613.arg, %struct._ZNSt7__cxx1112basic_stringIcSt11char_traitsIcESaIcEEE** %_T47232200_9613.addr, align 8, !tbaa !2084
	call void @llvm.dbg.declare (metadata %struct._ZNSt7__cxx1112basic_stringIcSt11char_traitsIcESaIcEEE** %_T47232200_9613.addr, metadata !3058, metadata !2077), !dbg !3006
	%0 = load %struct._ZNSt7__cxx1112basic_stringIcSt11char_traitsIcESaIcEEE*, %struct._ZNSt7__cxx1112basic_stringIcSt11char_traitsIcESaIcEEE** %_T47232200_9613.addr, align 8, !tbaa !2084, !dbg !3059
	%1 = bitcast %struct._ZNSt7__cxx1112basic_stringIcSt11char_traitsIcESaIcEEE*  %0 to i8**, !dbg !3059
	%2 = load i8*, i8**  %1, align 8, !tbaa !2084, !dbg !3059
	%3 = bitcast %struct._ZNSt7__cxx1112basic_stringIcSt11char_traitsIcESaIcEEE*  %0 to i8*, !dbg !3059
	%4 = getelementptr i8, i8*  %3, i64 16, !dbg !3059
	%5 = icmp eq i8*  %2,  %4, !dbg !3059
	br i1  %5, label %L..inline.22232, label %L.B0914, !dbg !3059
L.B0914:
	%6 = bitcast %struct._ZNSt7__cxx1112basic_stringIcSt11char_traitsIcESaIcEEE*  %0 to i8**, !dbg !3060
	%7 = load i8*, i8**  %6, align 8, !tbaa !2084, !dbg !3060
	call void  @_ZdlPv (i8*  %7) nounwind, !dbg !3060
	br label %L..inline.22232
L..inline.22232:
	ret void, !dbg !3061
}
define linkonce_odr void @_ZNSt7__cxx1112basic_stringIcSt11char_traitsIcESaIcEED2Ev(%struct._ZNSt7__cxx1112basic_stringIcSt11char_traitsIcESaIcEEE* %_T47232200_9614.arg) #0 inlinehint !dbg !3063 {
L.entry:
	%_T47232200_9614.addr = alloca %struct._ZNSt7__cxx1112basic_stringIcSt11char_traitsIcESaIcEEE*, align 8
	%..inline.addr = alloca i8*, align 8

	store %struct._ZNSt7__cxx1112basic_stringIcSt11char_traitsIcESaIcEEE* %_T47232200_9614.arg, %struct._ZNSt7__cxx1112basic_stringIcSt11char_traitsIcESaIcEEE** %_T47232200_9614.addr, align 8, !tbaa !2084
	%0 = load %struct._ZNSt7__cxx1112basic_stringIcSt11char_traitsIcESaIcEEE*, %struct._ZNSt7__cxx1112basic_stringIcSt11char_traitsIcESaIcEEE** %_T47232200_9614.addr, align 8, !tbaa !2084, !dbg !3119
	%1 = bitcast %struct._ZNSt7__cxx1112basic_stringIcSt11char_traitsIcESaIcEEE*  %0 to i8**, !dbg !3119
	%2 = load i8*, i8**  %1, align 8, !tbaa !2084, !dbg !3119
	%3 = bitcast %struct._ZNSt7__cxx1112basic_stringIcSt11char_traitsIcESaIcEEE*  %0 to i8*, !dbg !3119
	%4 = getelementptr i8, i8*  %3, i64 16, !dbg !3119
	%5 = icmp eq i8*  %2,  %4, !dbg !3119
	br i1  %5, label %L..inline.22338, label %L.B0917, !dbg !3119
L.B0917:
	%6 = bitcast %struct._ZNSt7__cxx1112basic_stringIcSt11char_traitsIcESaIcEEE*  %0 to i8**, !dbg !3119
	%7 = load i8*, i8**  %6, align 8, !tbaa !2084, !dbg !3119
	call void  @_ZdlPv (i8*  %7) nounwind, !dbg !3119
	br label %L..inline.22338
L..inline.22338:
	ret void, !dbg !3119
}
define linkonce_odr i64 @_ZNKSt7__cxx1112basic_stringIcSt11char_traitsIcESaIcEE4sizeEv(%struct._ZNSt7__cxx1112basic_stringIcSt11char_traitsIcESaIcEEE* %_T47232200_9616.arg) #0 inlinehint !dbg !3123 {
L.entry:
	%_T47232200_9616.addr = alloca %struct._ZNSt7__cxx1112basic_stringIcSt11char_traitsIcESaIcEEE*, align 8

	call void @llvm.dbg.declare (metadata %struct._ZNSt7__cxx1112basic_stringIcSt11char_traitsIcESaIcEEE** %_T47232200_9616.addr, metadata !3127, metadata !2077), !dbg !3124
	store %struct._ZNSt7__cxx1112basic_stringIcSt11char_traitsIcESaIcEEE* %_T47232200_9616.arg, %struct._ZNSt7__cxx1112basic_stringIcSt11char_traitsIcESaIcEEE** %_T47232200_9616.addr, align 8, !tbaa !2084
	call void @llvm.dbg.declare (metadata %struct._ZNSt7__cxx1112basic_stringIcSt11char_traitsIcESaIcEEE** %_T47232200_9616.addr, metadata !3128, metadata !2077), !dbg !3124
	%0 = load %struct._ZNSt7__cxx1112basic_stringIcSt11char_traitsIcESaIcEEE*, %struct._ZNSt7__cxx1112basic_stringIcSt11char_traitsIcESaIcEEE** %_T47232200_9616.addr, align 8, !tbaa !2084, !dbg !3129
	%1 = bitcast %struct._ZNSt7__cxx1112basic_stringIcSt11char_traitsIcESaIcEEE*  %0 to i8*, !dbg !3129
	%2 = getelementptr i8, i8*  %1, i64 8, !dbg !3129
	%3 = bitcast i8*  %2 to i64*, !dbg !3129
	%4 = load i64, i64*  %3, align 8, !tbaa !2085, !dbg !3129
	ret i64  %4, !dbg !3129
}
define linkonce_odr i64 @_ZNKSt7__cxx1112basic_stringIcSt11char_traitsIcESaIcEE6lengthEv(%struct._ZNSt7__cxx1112basic_stringIcSt11char_traitsIcESaIcEEE* %_T47232200_9618.arg) #0 inlinehint !dbg !3131 {
L.entry:
	%_T47232200_9618.addr = alloca %struct._ZNSt7__cxx1112basic_stringIcSt11char_traitsIcESaIcEEE*, align 8

	call void @llvm.dbg.declare (metadata %struct._ZNSt7__cxx1112basic_stringIcSt11char_traitsIcESaIcEEE** %_T47232200_9618.addr, metadata !3135, metadata !2077), !dbg !3132
	store %struct._ZNSt7__cxx1112basic_stringIcSt11char_traitsIcESaIcEEE* %_T47232200_9618.arg, %struct._ZNSt7__cxx1112basic_stringIcSt11char_traitsIcESaIcEEE** %_T47232200_9618.addr, align 8, !tbaa !2084
	call void @llvm.dbg.declare (metadata %struct._ZNSt7__cxx1112basic_stringIcSt11char_traitsIcESaIcEEE** %_T47232200_9618.addr, metadata !3136, metadata !2077), !dbg !3132
	%0 = load %struct._ZNSt7__cxx1112basic_stringIcSt11char_traitsIcESaIcEEE*, %struct._ZNSt7__cxx1112basic_stringIcSt11char_traitsIcESaIcEEE** %_T47232200_9618.addr, align 8, !tbaa !2084, !dbg !3137
	%1 = bitcast %struct._ZNSt7__cxx1112basic_stringIcSt11char_traitsIcESaIcEEE*  %0 to i8*, !dbg !3137
	%2 = getelementptr i8, i8*  %1, i64 8, !dbg !3137
	%3 = bitcast i8*  %2 to i64*, !dbg !3137
	%4 = load i64, i64*  %3, align 8, !tbaa !2085, !dbg !3137
	ret i64  %4, !dbg !3137
}
define linkonce_odr i64 @_ZNKSt7__cxx1112basic_stringIcSt11char_traitsIcESaIcEE8max_sizeEv(%struct._ZNSt7__cxx1112basic_stringIcSt11char_traitsIcESaIcEEE* %_T47232200_9620.arg) #0 inlinehint !dbg !3139 {
L.entry:
	%_T47232200_9620.addr = alloca %struct._ZNSt7__cxx1112basic_stringIcSt11char_traitsIcESaIcEEE*, align 8

	call void @llvm.dbg.declare (metadata %struct._ZNSt7__cxx1112basic_stringIcSt11char_traitsIcESaIcEEE** %_T47232200_9620.addr, metadata !3155, metadata !2077), !dbg !3140
	store %struct._ZNSt7__cxx1112basic_stringIcSt11char_traitsIcESaIcEEE* %_T47232200_9620.arg, %struct._ZNSt7__cxx1112basic_stringIcSt11char_traitsIcESaIcEEE** %_T47232200_9620.addr, align 8, !tbaa !2084
	call void @llvm.dbg.declare (metadata %struct._ZNSt7__cxx1112basic_stringIcSt11char_traitsIcESaIcEEE** %_T47232200_9620.addr, metadata !3156, metadata !2077), !dbg !3140
	ret i64 9223372036854775807, !dbg !3157
}
define linkonce_odr %struct._ZNSt7__cxx1112basic_stringIcSt11char_traitsIcESaIcEEE* @_ZNSt7__cxx1112basic_stringIcSt11char_traitsIcESaIcEE6appendEPKc(%struct._ZNSt7__cxx1112basic_stringIcSt11char_traitsIcESaIcEEE* %_T47232200_9621.arg, i8* %__s.arg) #0 inlinehint !dbg !3162 {
L.entry:
	%_T47232200_9621.addr = alloca %struct._ZNSt7__cxx1112basic_stringIcSt11char_traitsIcESaIcEEE*, align 8
	%__s.addr = alloca i8*, align 8
	%..inline.addr = alloca i8*, align 8
	%..inline.addr.1 = alloca i64, align 8
	%__n.addr = alloca i64, align 8
	%.Q0003.addr = alloca %struct._ZNSt7__cxx1112basic_stringIcSt11char_traitsIcESaIcEEE*, align 8

	call void @llvm.dbg.declare (metadata %struct._ZNSt7__cxx1112basic_stringIcSt11char_traitsIcESaIcEEE** %_T47232200_9621.addr, metadata !3194, metadata !2077), !dbg !3163
	store %struct._ZNSt7__cxx1112basic_stringIcSt11char_traitsIcESaIcEEE* %_T47232200_9621.arg, %struct._ZNSt7__cxx1112basic_stringIcSt11char_traitsIcESaIcEEE** %_T47232200_9621.addr, align 8, !tbaa !2084
	call void @llvm.dbg.declare (metadata %struct._ZNSt7__cxx1112basic_stringIcSt11char_traitsIcESaIcEEE** %_T47232200_9621.addr, metadata !3195, metadata !2077), !dbg !3163
	call void @llvm.dbg.declare (metadata i8** %__s.addr, metadata !3196, metadata !2077), !dbg !3163
	store i8* %__s.arg, i8** %__s.addr, align 8, !tbaa !2084
	call void @llvm.dbg.declare (metadata i8** %__s.addr, metadata !3197, metadata !2077), !dbg !3163
	%0 = load i8*, i8** %__s.addr, align 8, !tbaa !2084, !dbg !3198
	%1 = call i64  @strlen (i8*  %0) nounwind, !dbg !3199
	store i64  %1, i64* %..inline.addr.1, align 8, !tbaa !2115, !dbg !3199
	call void @llvm.dbg.declare (metadata i64* %__n.addr, metadata !3201, metadata !2077), !dbg !3163
	store i64  %1, i64* %__n.addr, align 8, !tbaa !2115, !dbg !3200
	%2 = load %struct._ZNSt7__cxx1112basic_stringIcSt11char_traitsIcESaIcEEE*, %struct._ZNSt7__cxx1112basic_stringIcSt11char_traitsIcESaIcEEE** %_T47232200_9621.addr, align 8, !tbaa !2084, !dbg !3202
	%3 = bitcast %struct._ZNSt7__cxx1112basic_stringIcSt11char_traitsIcESaIcEEE*  %2 to i8*, !dbg !3202
	%4 = getelementptr i8, i8*  %3, i64 8, !dbg !3202
	%5 = bitcast i8*  %4 to i64*, !dbg !3202
	%6 = load i64, i64*  %5, align 8, !tbaa !2085, !dbg !3202
	%7 = sub i64 9223372036854775807,  %6, !dbg !3202
	%8 = load i64, i64* %..inline.addr.1, align 8, !tbaa !2115, !dbg !3202
	%9 = icmp uge i64  %7,  %8, !dbg !3202
	br i1  %9, label %L..inline.22481, label %L.B0926, !dbg !3202
L.B0926:
	%10 = bitcast [21 x i8]* @.S10712 to i8*, !dbg !3203
	call void  @_ZSt20__throw_length_errorPKc (i8*  %10) noreturn, !dbg !3203
	br label %L..inline.22481
L..inline.22481:
	%11 = load %struct._ZNSt7__cxx1112basic_stringIcSt11char_traitsIcESaIcEEE*, %struct._ZNSt7__cxx1112basic_stringIcSt11char_traitsIcESaIcEEE** %_T47232200_9621.addr, align 8, !tbaa !2084, !dbg !3204
	%12 = load i8*, i8** %__s.addr, align 8, !tbaa !2084, !dbg !3204
	%13 = load i64, i64* %__n.addr, align 8, !tbaa !2115, !dbg !3204
	%14 = call %struct._ZNSt7__cxx1112basic_stringIcSt11char_traitsIcESaIcEEE*  @_ZNSt7__cxx1112basic_stringIcSt11char_traitsIcESaIcEE9_M_appendEPKcm (%struct._ZNSt7__cxx1112basic_stringIcSt11char_traitsIcESaIcEEE*  %11, i8*  %12, i64  %13), !dbg !3204
	%15 = bitcast %struct._ZNSt7__cxx1112basic_stringIcSt11char_traitsIcESaIcEEE*  %14 to i8*, !dbg !3204
	%16 = bitcast %struct._ZNSt7__cxx1112basic_stringIcSt11char_traitsIcESaIcEEE** %.Q0003.addr to i8**, !dbg !3204
	store i8*  %15, i8**  %16, align 8, !tbaa !2084, !dbg !3204
	%17 = load %struct._ZNSt7__cxx1112basic_stringIcSt11char_traitsIcESaIcEEE*, %struct._ZNSt7__cxx1112basic_stringIcSt11char_traitsIcESaIcEEE** %.Q0003.addr, align 8, !tbaa !2084, !dbg !3204
	ret %struct._ZNSt7__cxx1112basic_stringIcSt11char_traitsIcESaIcEEE*  %17, !dbg !3204
}
define linkonce_odr void @_ZNSt7__cxx1112basic_stringIcSt11char_traitsIcESaIcEE12_M_constructIPKcEEvT_S8_(%struct._ZNSt7__cxx1112basic_stringIcSt11char_traitsIcESaIcEEE* %_T47232200_9624.arg, i8* %__beg.arg, i8* %__end.arg) #0 inlinehint !dbg !3209 {
L.entry:
	%_T47232200_9624.addr = alloca %struct._ZNSt7__cxx1112basic_stringIcSt11char_traitsIcESaIcEEE*, align 8
	%__beg.addr = alloca i8*, align 8
	%__end.addr = alloca i8*, align 8
	%..inline.addr = alloca %struct._ZNSt7__cxx1112basic_stringIcSt11char_traitsIcESaIcEEE*, align 8
	%..inline.addr.1 = alloca i8*, align 8
	%..inline.addr.2 = alloca i8*, align 8
	%.._T47233680_9624.__FILL_CHARARRAY.addr = alloca [1 x i8], align 1
	%....inline.__FILL_CHARARRAY.addr = alloca [1 x i8], align 1
	%..inline.addr.3 = alloca %struct._ZSt26random_access_iterator_tag, align 1

	call void @llvm.dbg.declare (metadata %struct._ZNSt7__cxx1112basic_stringIcSt11char_traitsIcESaIcEEE** %_T47232200_9624.addr, metadata !3217, metadata !2077), !dbg !3210
	store %struct._ZNSt7__cxx1112basic_stringIcSt11char_traitsIcESaIcEEE* %_T47232200_9624.arg, %struct._ZNSt7__cxx1112basic_stringIcSt11char_traitsIcESaIcEEE** %_T47232200_9624.addr, align 8, !tbaa !2084
	call void @llvm.dbg.declare (metadata %struct._ZNSt7__cxx1112basic_stringIcSt11char_traitsIcESaIcEEE** %_T47232200_9624.addr, metadata !3218, metadata !2077), !dbg !3210
	call void @llvm.dbg.declare (metadata i8** %__beg.addr, metadata !3219, metadata !2077), !dbg !3210
	store i8* %__beg.arg, i8** %__beg.addr, align 8, !tbaa !2084
	call void @llvm.dbg.declare (metadata i8** %__beg.addr, metadata !3220, metadata !2077), !dbg !3210
	call void @llvm.dbg.declare (metadata i8** %__end.addr, metadata !3221, metadata !2077), !dbg !3210
	store i8* %__end.arg, i8** %__end.addr, align 8, !tbaa !2084
	call void @llvm.dbg.declare (metadata i8** %__end.addr, metadata !3222, metadata !2077), !dbg !3210
	%0 = load %struct._ZNSt7__cxx1112basic_stringIcSt11char_traitsIcESaIcEEE*, %struct._ZNSt7__cxx1112basic_stringIcSt11char_traitsIcESaIcEEE** %_T47232200_9624.addr, align 8, !tbaa !2084, !dbg !3223
	%1 = bitcast %struct._ZNSt7__cxx1112basic_stringIcSt11char_traitsIcESaIcEEE*  %0 to i8*, !dbg !3223
	%2 = bitcast %struct._ZNSt7__cxx1112basic_stringIcSt11char_traitsIcESaIcEEE** %..inline.addr to i8**, !dbg !3223
	store i8*  %1, i8**  %2, align 8, !tbaa !2084, !dbg !3223
	%3 = load i8*, i8** %__beg.addr, align 8, !tbaa !2084, !dbg !3223
	store i8*  %3, i8** %..inline.addr.1, align 8, !tbaa !2084, !dbg !3223
	%4 = load i8*, i8** %__end.addr, align 8, !tbaa !2084, !dbg !3223
	store i8*  %4, i8** %..inline.addr.2, align 8, !tbaa !2084, !dbg !3223
	call void @llvm.dbg.declare (metadata [1 x i8]* %.._T47233680_9624.__FILL_CHARARRAY.addr, metadata !3225, metadata !2077), !dbg !3212
	%5 = bitcast [1 x i8]* %.._T47233680_9624.__FILL_CHARARRAY.addr to i8*, !dbg !3224
	%6 = load i8, i8*  %5, align 1, !tbaa !2085, !dbg !3224
	%7 = zext i8  %6 to i32, !dbg !3224
	%8 = trunc i32  %7 to i8, !dbg !3224
	call void @llvm.dbg.declare (metadata [1 x i8]* %....inline.__FILL_CHARARRAY.addr, metadata !3226, metadata !2077), !dbg !3212
	%9 = bitcast [1 x i8]* %....inline.__FILL_CHARARRAY.addr to i8*, !dbg !3224
	store i8  %8, i8*  %9, align 1, !tbaa !2085, !dbg !3224
	%10 = load %struct._ZNSt7__cxx1112basic_stringIcSt11char_traitsIcESaIcEEE*, %struct._ZNSt7__cxx1112basic_stringIcSt11char_traitsIcESaIcEEE** %..inline.addr, align 8, !tbaa !2084, !dbg !3227
	%11 = load i8*, i8** %..inline.addr.1, align 8, !tbaa !2084, !dbg !3227
	%12 = load i8*, i8** %..inline.addr.2, align 8, !tbaa !2084, !dbg !3227
	%13 = bitcast %struct._ZSt26random_access_iterator_tag* %..inline.addr.3 to i8*, !dbg !3227
	%14 = load i8, i8*  %13, align 1, !tbaa !2085, !dbg !3227
	call void  @_ZNSt7__cxx1112basic_stringIcSt11char_traitsIcESaIcEE12_M_constructIPKcEEvT_S8_St20forward_iterator_tag (%struct._ZNSt7__cxx1112basic_stringIcSt11char_traitsIcESaIcEEE*  %10, i8*  %11, i8*  %12, i8  %14), !dbg !3227
	ret void, !dbg !3224
}

%struct._ZSt12__false_type = type <{ [1 x i8]}> 

define linkonce_odr void @_ZNSt7__cxx1112basic_stringIcSt11char_traitsIcESaIcEE16_M_construct_auxIPKcEEvT_S8_St12__false_type(%struct._ZNSt7__cxx1112basic_stringIcSt11char_traitsIcESaIcEEE* %_T47232200_9625.arg, i8* %__beg.arg, i8* %__end.arg, i8 %_T47233088_9625.coerce) #0 inlinehint !dbg !3231 {
L.entry:
	%_T47232200_9625.addr = alloca %struct._ZNSt7__cxx1112basic_stringIcSt11char_traitsIcESaIcEEE*, align 8
	%__beg.addr = alloca i8*, align 8
	%__end.addr = alloca i8*, align 8
	%_T47233088_9625.addr = alloca %struct._ZSt12__false_type, align 1
	%_T47233976_9625.addr = alloca %struct._ZSt26random_access_iterator_tag, align 1

	call void @llvm.dbg.declare (metadata %struct._ZNSt7__cxx1112basic_stringIcSt11char_traitsIcESaIcEEE** %_T47232200_9625.addr, metadata !3235, metadata !2077), !dbg !3232
	store %struct._ZNSt7__cxx1112basic_stringIcSt11char_traitsIcESaIcEEE* %_T47232200_9625.arg, %struct._ZNSt7__cxx1112basic_stringIcSt11char_traitsIcESaIcEEE** %_T47232200_9625.addr, align 8, !tbaa !2084
	call void @llvm.dbg.declare (metadata %struct._ZNSt7__cxx1112basic_stringIcSt11char_traitsIcESaIcEEE** %_T47232200_9625.addr, metadata !3236, metadata !2077), !dbg !3232
	call void @llvm.dbg.declare (metadata i8** %__beg.addr, metadata !3237, metadata !2077), !dbg !3232
	store i8* %__beg.arg, i8** %__beg.addr, align 8, !tbaa !2084
	call void @llvm.dbg.declare (metadata i8** %__beg.addr, metadata !3238, metadata !2077), !dbg !3232
	call void @llvm.dbg.declare (metadata i8** %__end.addr, metadata !3239, metadata !2077), !dbg !3232
	store i8* %__end.arg, i8** %__end.addr, align 8, !tbaa !2084
	call void @llvm.dbg.declare (metadata i8** %__end.addr, metadata !3240, metadata !2077), !dbg !3232
	call void @llvm.dbg.declare (metadata %struct._ZSt12__false_type* %_T47233088_9625.addr, metadata !3241, metadata !2077), !dbg !3232
	%0 = bitcast %struct._ZSt12__false_type* %_T47233088_9625.addr to i8*
	store i8 %_T47233088_9625.coerce, i8*  %0, align 1, !tbaa !2085
	call void @llvm.dbg.declare (metadata %struct._ZSt12__false_type* %_T47233088_9625.addr, metadata !3242, metadata !2077), !dbg !3232
	%1 = load %struct._ZNSt7__cxx1112basic_stringIcSt11char_traitsIcESaIcEEE*, %struct._ZNSt7__cxx1112basic_stringIcSt11char_traitsIcESaIcEEE** %_T47232200_9625.addr, align 8, !tbaa !2084, !dbg !3243
	%2 = load i8*, i8** %__beg.addr, align 8, !tbaa !2084, !dbg !3243
	%3 = load i8*, i8** %__end.addr, align 8, !tbaa !2084, !dbg !3243
	%4 = bitcast %struct._ZSt26random_access_iterator_tag* %_T47233976_9625.addr to i8*, !dbg !3243
	%5 = load i8, i8*  %4, align 1, !tbaa !2085, !dbg !3243
	call void  @_ZNSt7__cxx1112basic_stringIcSt11char_traitsIcESaIcEE12_M_constructIPKcEEvT_S8_St20forward_iterator_tag (%struct._ZNSt7__cxx1112basic_stringIcSt11char_traitsIcESaIcEEE*  %1, i8*  %2, i8*  %3, i8  %5), !dbg !3243
	ret void, !dbg !3244
}

%struct._ZSt20forward_iterator_tag = type <{ [1 x i8]}> 
%astruct.dt64 = type <{ i8*, i32}> 

define linkonce_odr void @_ZNSt7__cxx1112basic_stringIcSt11char_traitsIcESaIcEE12_M_constructIPKcEEvT_S8_St20forward_iterator_tag(%struct._ZNSt7__cxx1112basic_stringIcSt11char_traitsIcESaIcEEE* %_T47232200_9626.arg, i8* %__beg.arg, i8* %__end.arg, i8 %_T47233088_9626.coerce) #0 inlinehint personality i8* bitcast (i32 (...)* @__gxx_personality_v0 to i8*) !dbg !3250 {
L.entry:
	%_T47232200_9626.addr = alloca %struct._ZNSt7__cxx1112basic_stringIcSt11char_traitsIcESaIcEEE*, align 8
	%__beg.addr = alloca i8*, align 8
	%__end.addr = alloca i8*, align 8
	%_T47233088_9626.addr = alloca %struct._ZSt20forward_iterator_tag, align 1
	%..inline.addr = alloca i8*, align 8
	%..inline.addr.1 = alloca i8, align 1
	%..inline.addr.2 = alloca i8*, align 8
	%..inline.addr.3 = alloca i8*, align 8
	%..inline.addr.4 = alloca %struct._ZSt26random_access_iterator_tag, align 1
	%..inline.addr.5 = alloca i8*, align 8
	%..inline.addr.6 = alloca i8*, align 8
	%..inline.addr.7 = alloca %struct._ZSt26random_access_iterator_tag, align 1
	%..inline.addr.8 = alloca i64, align 8
	%..inline.addr.9 = alloca i64, align 8
	%__dnew.addr = alloca i64, align 8
	%..inline.addr.190 = alloca %struct._ZNSt7__cxx1112basic_stringIcSt11char_traitsIcESaIcEEE*, align 8
	%.Q0004.addr = alloca i8*, align 8
	%..inline.addr.210 = alloca i8*, align 8
	%..inline.addr.220 = alloca %struct._ZNSt7__cxx1112basic_stringIcSt11char_traitsIcESaIcEEE*, align 8
	%..inline.addr.230 = alloca i64, align 8
	%..inline.addr.240 = alloca %struct._ZNSt7__cxx1112basic_stringIcSt11char_traitsIcESaIcEEE*, align 8
	%..inline.addr.250 = alloca i8*, align 8
	%..inline.addr.260 = alloca i8*, align 8
	%..inline.addr.270 = alloca i8*, align 8
	%..inline.addr.280 = alloca i8*, align 8
	%..inline.addr.290 = alloca i8*, align 8
	%..inline.addr.300 = alloca i64, align 8
	%..inline.addr.310 = alloca i8*, align 8
	%..inline.addr.320 = alloca i8*, align 8
	%..inline.addr.330 = alloca i8*, align 8
	%..inline.addr.340 = alloca i8*, align 8
	%..inline.addr.350 = alloca i64, align 8
	%..inline.addr.360 = alloca i8*, align 8
	%..inline.addr.370 = alloca %struct._ZNSt7__cxx1112basic_stringIcSt11char_traitsIcESaIcEEE*, align 8
	%..inline.addr.380 = alloca i64, align 8
	%..inline.addr.390 = alloca %struct._ZNSt7__cxx1112basic_stringIcSt11char_traitsIcESaIcEEE*, align 8
	%..inline.addr.400 = alloca i64, align 8
	%..inline.addr.410 = alloca i8, align 1
	%..inline.addr.420 = alloca %struct._ZNSt7__cxx1112basic_stringIcSt11char_traitsIcESaIcEEE*, align 8
	%..inline.addr.430 = alloca i8*, align 8
	%__caught_object_address.addr = alloca i8*, align 8
	%__catch_clause_number.addr = alloca i32, align 4
	%..inline.addr.460 = alloca %struct._ZNSt7__cxx1112basic_stringIcSt11char_traitsIcESaIcEEE*, align 8
	%..inline.addr.470 = alloca %struct._ZNSt7__cxx1112basic_stringIcSt11char_traitsIcESaIcEEE*, align 8
	%..inline.addr.480 = alloca %struct._ZNSt7__cxx1112basic_stringIcSt11char_traitsIcESaIcEEE*, align 8
	%..inline.addr.490 = alloca %struct._ZNSt7__cxx1112basic_stringIcSt11char_traitsIcESaIcEEE*, align 8
	%..inline.addr.500 = alloca i8*, align 8
	%..inline.addr.510 = alloca i8*, align 8
	%..inline.addr.520 = alloca i8*, align 8
	%..inline.addr.530 = alloca i8*, align 8
	%..inline.addr.540 = alloca i8*, align 8
	%..inline.addr.550 = alloca i8*, align 8
	%..inline.addr.560 = alloca i8, align 1
	%..inline.addr.570 = alloca %struct._ZNSt7__cxx1112basic_stringIcSt11char_traitsIcESaIcEEE*, align 8
	%..inline.addr.580 = alloca i64, align 8
	%..inline.addr.590 = alloca %struct._ZNSt7__cxx1112basic_stringIcSt11char_traitsIcESaIcEEE*, align 8
	%..inline.addr.600 = alloca %struct._ZNSt7__cxx1112basic_stringIcSt11char_traitsIcESaIcEEE*, align 8
	%..inline.addr.610 = alloca %struct._ZSaIcE*, align 8
	%..inline.addr.620 = alloca i8*, align 8
	%..inline.addr.630 = alloca i64, align 8
	%..inline.addr.640 = alloca i8*, align 8

	call void @llvm.dbg.declare (metadata %struct._ZNSt7__cxx1112basic_stringIcSt11char_traitsIcESaIcEEE** %_T47232200_9626.addr, metadata !3360, metadata !2077), !dbg !3251
	store %struct._ZNSt7__cxx1112basic_stringIcSt11char_traitsIcESaIcEEE* %_T47232200_9626.arg, %struct._ZNSt7__cxx1112basic_stringIcSt11char_traitsIcESaIcEEE** %_T47232200_9626.addr, align 8
	call void @llvm.dbg.declare (metadata %struct._ZNSt7__cxx1112basic_stringIcSt11char_traitsIcESaIcEEE** %_T47232200_9626.addr, metadata !3361, metadata !2077), !dbg !3251
	call void @llvm.dbg.declare (metadata i8** %__beg.addr, metadata !3362, metadata !2077), !dbg !3251
	store i8* %__beg.arg, i8** %__beg.addr, align 8
	call void @llvm.dbg.declare (metadata i8** %__beg.addr, metadata !3363, metadata !2077), !dbg !3251
	call void @llvm.dbg.declare (metadata i8** %__end.addr, metadata !3364, metadata !2077), !dbg !3251
	store i8* %__end.arg, i8** %__end.addr, align 8
	call void @llvm.dbg.declare (metadata i8** %__end.addr, metadata !3365, metadata !2077), !dbg !3251
	call void @llvm.dbg.declare (metadata %struct._ZSt20forward_iterator_tag* %_T47233088_9626.addr, metadata !3366, metadata !2077), !dbg !3251
	%0 = bitcast %struct._ZSt20forward_iterator_tag* %_T47233088_9626.addr to i8*
	store i8 %_T47233088_9626.coerce, i8*  %0, align 1
	call void @llvm.dbg.declare (metadata %struct._ZSt20forward_iterator_tag* %_T47233088_9626.addr, metadata !3367, metadata !2077), !dbg !3251
	%1 = load i8*, i8** %__beg.addr, align 8, !dbg !3368
	store i8*  %1, i8** %..inline.addr, align 8, !dbg !3368
	%2 = icmp eq i8*  %1,  null, !dbg !3368
	%3 = zext i1  %2 to i32, !dbg !3368
	%4 = shl i32  %3, 24, !dbg !3368
	%5 = ashr i32  %4, 24, !dbg !3368
	%6 = trunc i32  %5 to i8, !dbg !3368
	store i8  %6, i8* %..inline.addr.1, align 1, !dbg !3368
	%7 = sext i8  %6 to i32, !dbg !3369
	%8 = icmp eq i32  %7, 0, !dbg !3369
	br i1  %8, label %L.B0008, label %L.B0945, !dbg !3369
L.B0945:
	%9 = load i8*, i8** %__beg.addr, align 8, !dbg !3368
	%10 = load i8*, i8** %__end.addr, align 8, !dbg !3368
	%11 = icmp eq i8*  %9,  %10, !dbg !3368
	br i1  %11, label %L.B0008, label %L.B0946, !dbg !3368
L.B0946:
	%12 = bitcast [42 x i8]* @.S10749 to i8*, !dbg !3370
	call void  @_ZSt19__throw_logic_errorPKc (i8*  %12) noreturn, !dbg !3370
	br label %L.B0008
L.B0008:
	%13 = load i8*, i8** %__beg.addr, align 8, !dbg !3371
	store i8*  %13, i8** %..inline.addr.2, align 8, !dbg !3371
	%14 = load i8*, i8** %__end.addr, align 8, !dbg !3371
	store i8*  %14, i8** %..inline.addr.3, align 8, !dbg !3371
	%15 = bitcast %struct._ZSt26random_access_iterator_tag* %..inline.addr.4 to i8*, !dbg !3371
	store i8 0, i8*  %15, align 1, !dbg !3371
	store i8*  %13, i8** %..inline.addr.5, align 8, !dbg !3372
	store i8*  %14, i8** %..inline.addr.6, align 8, !dbg !3372
	%16 = zext i8 0 to i32, !dbg !3373
	%17 = trunc i32  %16 to i8, !dbg !3373
	%18 = bitcast %struct._ZSt26random_access_iterator_tag* %..inline.addr.7 to i8*, !dbg !3373
	store i8  %17, i8*  %18, align 1, !dbg !3373
	%19 = ptrtoint i8*  %13 to i64, !dbg !3372
	%20 = sub i64 0,  %19, !dbg !3372
	%21 = getelementptr i8, i8*  %14, i64  %20, !dbg !3372
	%22 = ptrtoint i8*  %21 to i64, !dbg !3372
	store i64  %22, i64* %..inline.addr.8, align 8, !dbg !3372
	store i64  %22, i64* %..inline.addr.9, align 8, !dbg !3372
	br label %L..inline.22567, !dbg !3372
L..inline.22567:
	%23 = load i64, i64* %..inline.addr.9, align 8, !dbg !3374
	call void @llvm.dbg.declare (metadata i64* %__dnew.addr, metadata !3375, metadata !2077), !dbg !3251
	store i64  %23, i64* %__dnew.addr, align 8, !dbg !3374
	%24 = icmp ule i64  %23, 15, !dbg !3376
	br i1  %24, label %L.B0009, label %L.B0947, !dbg !3376
L.B0947:
	%25 = load %struct._ZNSt7__cxx1112basic_stringIcSt11char_traitsIcESaIcEEE*, %struct._ZNSt7__cxx1112basic_stringIcSt11char_traitsIcESaIcEEE** %_T47232200_9626.addr, align 8, !dbg !3377
	%26 = bitcast %struct._ZNSt7__cxx1112basic_stringIcSt11char_traitsIcESaIcEEE*  %25 to i8*, !dbg !3377
	%27 = bitcast %struct._ZNSt7__cxx1112basic_stringIcSt11char_traitsIcESaIcEEE** %..inline.addr.190 to i8**, !dbg !3377
	store i8*  %26, i8**  %27, align 8, !dbg !3377
	%28 = call i8*  @_ZNSt7__cxx1112basic_stringIcSt11char_traitsIcESaIcEE9_M_createERmm (%struct._ZNSt7__cxx1112basic_stringIcSt11char_traitsIcESaIcEEE*  %25, i64* %__dnew.addr, i64 0), !dbg !3377
	store i8*  %28, i8** %.Q0004.addr, align 8, !dbg !3377
	%29 = load i8*, i8** %.Q0004.addr, align 8, !dbg !3377
	store i8*  %29, i8** %..inline.addr.210, align 8, !dbg !3377
	%30 = load %struct._ZNSt7__cxx1112basic_stringIcSt11char_traitsIcESaIcEEE*, %struct._ZNSt7__cxx1112basic_stringIcSt11char_traitsIcESaIcEEE** %..inline.addr.190, align 8, !dbg !3377
	%31 = bitcast %struct._ZNSt7__cxx1112basic_stringIcSt11char_traitsIcESaIcEEE*  %30 to i8**, !dbg !3377
	store i8*  %29, i8**  %31, align 8, !dbg !3377
	%32 = load %struct._ZNSt7__cxx1112basic_stringIcSt11char_traitsIcESaIcEEE*, %struct._ZNSt7__cxx1112basic_stringIcSt11char_traitsIcESaIcEEE** %_T47232200_9626.addr, align 8, !dbg !3378
	%33 = bitcast %struct._ZNSt7__cxx1112basic_stringIcSt11char_traitsIcESaIcEEE*  %32 to i8*, !dbg !3378
	%34 = bitcast %struct._ZNSt7__cxx1112basic_stringIcSt11char_traitsIcESaIcEEE** %..inline.addr.220 to i8**, !dbg !3378
	store i8*  %33, i8**  %34, align 8, !dbg !3378
	%35 = load i64, i64* %__dnew.addr, align 8, !dbg !3378
	store i64  %35, i64* %..inline.addr.230, align 8, !dbg !3378
	%36 = load %struct._ZNSt7__cxx1112basic_stringIcSt11char_traitsIcESaIcEEE*, %struct._ZNSt7__cxx1112basic_stringIcSt11char_traitsIcESaIcEEE** %..inline.addr.220, align 8, !dbg !3378
	%37 = bitcast %struct._ZNSt7__cxx1112basic_stringIcSt11char_traitsIcESaIcEEE*  %36 to i8*, !dbg !3378
	%38 = getelementptr i8, i8*  %37, i64 16, !dbg !3378
	%39 = bitcast i8*  %38 to i64*, !dbg !3378
	store i64  %35, i64*  %39, align 8, !dbg !3378
	br label %L.B0009
L.B0009:
	%40 = load %struct._ZNSt7__cxx1112basic_stringIcSt11char_traitsIcESaIcEEE*, %struct._ZNSt7__cxx1112basic_stringIcSt11char_traitsIcESaIcEEE** %_T47232200_9626.addr, align 8, !dbg !3379
	%41 = bitcast %struct._ZNSt7__cxx1112basic_stringIcSt11char_traitsIcESaIcEEE*  %40 to i8*, !dbg !3379
	%42 = bitcast %struct._ZNSt7__cxx1112basic_stringIcSt11char_traitsIcESaIcEEE** %..inline.addr.240 to i8**, !dbg !3379
	store i8*  %41, i8**  %42, align 8, !dbg !3379
	%43 = load %struct._ZNSt7__cxx1112basic_stringIcSt11char_traitsIcESaIcEEE*, %struct._ZNSt7__cxx1112basic_stringIcSt11char_traitsIcESaIcEEE** %..inline.addr.240, align 8, !dbg !3380
	%44 = bitcast %struct._ZNSt7__cxx1112basic_stringIcSt11char_traitsIcESaIcEEE*  %43 to i8**, !dbg !3380
	%45 = load i8*, i8**  %44, align 8, !dbg !3380
	store i8*  %45, i8** %..inline.addr.250, align 8, !dbg !3380
	%46 = load i8*, i8** %__beg.addr, align 8, !dbg !3379
	store i8*  %46, i8** %..inline.addr.260, align 8, !dbg !3379
	%47 = load i8*, i8** %__end.addr, align 8, !dbg !3379
	store i8*  %47, i8** %..inline.addr.270, align 8, !dbg !3379
	store i8*  %45, i8** %..inline.addr.280, align 8, !dbg !3381
	store i8*  %46, i8** %..inline.addr.290, align 8, !dbg !3381
	%48 = ptrtoint i8*  %46 to i64, !dbg !3381
	%49 = sub i64 0,  %48, !dbg !3381
	%50 = getelementptr i8, i8*  %47, i64  %49, !dbg !3381
	%51 = ptrtoint i8*  %50 to i64, !dbg !3381
	store i64  %51, i64* %..inline.addr.300, align 8, !dbg !3381
	%52 = icmp ne i64  %51, 1, !dbg !3381
	br i1  %52, label %L..inline.22596, label %L.B0948, !dbg !3381
L.B0948:
	%53 = load i8*, i8** %..inline.addr.280, align 8, !dbg !3381
	store i8*  %53, i8** %..inline.addr.310, align 8, !dbg !3381
	%54 = load i8*, i8** %..inline.addr.290, align 8, !dbg !3381
	store i8*  %54, i8** %..inline.addr.320, align 8, !dbg !3381
	%55 = load i8, i8*  %54, align 1, !dbg !3381
	store i8  %55, i8*  %53, align 1, !dbg !3381
	br label %L..inline.22603, !dbg !3381
L..inline.22596:
	%56 = load i8*, i8** %..inline.addr.280, align 8, !dbg !3381
	store i8*  %56, i8** %..inline.addr.330, align 8, !dbg !3381
	%57 = load i8*, i8** %..inline.addr.290, align 8, !dbg !3381
	store i8*  %57, i8** %..inline.addr.340, align 8, !dbg !3381
	%58 = load i64, i64* %..inline.addr.300, align 8, !dbg !3381
	store i64  %58, i64* %..inline.addr.350, align 8, !dbg !3381
	%59 = icmp ne i64  %58, 0, !dbg !3381
	br i1  %59, label %L..inline.22610, label %L.B0949, !dbg !3381
L.B0949:
	%60 = load i8*, i8** %..inline.addr.330, align 8, !dbg !3381
	store i8*  %60, i8** %..inline.addr.360, align 8, !dbg !3381
	br label %L..inline.22612, !dbg !3381
L..inline.22610:
	%61 = load i8*, i8** %..inline.addr.330, align 8, !dbg !3381
	%62 = load i8*, i8** %..inline.addr.340, align 8, !dbg !3381
	%63 = load i64, i64* %..inline.addr.350, align 8, !dbg !3381
	%64 = call i8*  @memcpy (i8*  %61, i8*  %62, i64  %63) nounwind, !dbg !3381
	store i8*  %64, i8** %..inline.addr.360, align 8, !dbg !3381
	br label %L..inline.22612
L..inline.22612:
	br label %L..inline.22603
L..inline.22603:
	br label %L_T47234512_9626
L_T47234512_9626:
	%65 = load %struct._ZNSt7__cxx1112basic_stringIcSt11char_traitsIcESaIcEEE*, %struct._ZNSt7__cxx1112basic_stringIcSt11char_traitsIcESaIcEEE** %_T47232200_9626.addr, align 8, !dbg !3382
	%66 = bitcast %struct._ZNSt7__cxx1112basic_stringIcSt11char_traitsIcESaIcEEE*  %65 to i8*, !dbg !3382
	%67 = bitcast %struct._ZNSt7__cxx1112basic_stringIcSt11char_traitsIcESaIcEEE** %..inline.addr.370 to i8**, !dbg !3382
	store i8*  %66, i8**  %67, align 8, !dbg !3382
	%68 = load i64, i64* %__dnew.addr, align 8, !dbg !3382
	store i64  %68, i64* %..inline.addr.380, align 8, !dbg !3382
	%69 = load %struct._ZNSt7__cxx1112basic_stringIcSt11char_traitsIcESaIcEEE*, %struct._ZNSt7__cxx1112basic_stringIcSt11char_traitsIcESaIcEEE** %..inline.addr.370, align 8, !dbg !3383
	%70 = bitcast %struct._ZNSt7__cxx1112basic_stringIcSt11char_traitsIcESaIcEEE*  %69 to i8*, !dbg !3383
	%71 = bitcast %struct._ZNSt7__cxx1112basic_stringIcSt11char_traitsIcESaIcEEE** %..inline.addr.390 to i8**, !dbg !3383
	store i8*  %70, i8**  %71, align 8, !dbg !3383
	store i64  %68, i64* %..inline.addr.400, align 8, !dbg !3383
	%72 = load %struct._ZNSt7__cxx1112basic_stringIcSt11char_traitsIcESaIcEEE*, %struct._ZNSt7__cxx1112basic_stringIcSt11char_traitsIcESaIcEEE** %..inline.addr.390, align 8, !dbg !3383
	%73 = bitcast %struct._ZNSt7__cxx1112basic_stringIcSt11char_traitsIcESaIcEEE*  %72 to i8*, !dbg !3383
	%74 = getelementptr i8, i8*  %73, i64 8, !dbg !3383
	%75 = bitcast i8*  %74 to i64*, !dbg !3383
	store i64  %68, i64*  %75, align 8, !dbg !3383
	store i8 0, i8* %..inline.addr.410, align 1, !dbg !3383
	%76 = bitcast %struct._ZNSt7__cxx1112basic_stringIcSt11char_traitsIcESaIcEEE** %..inline.addr.420 to i8**, !dbg !3376
	store i8*  %70, i8**  %76, align 8, !dbg !3376
	%77 = load %struct._ZNSt7__cxx1112basic_stringIcSt11char_traitsIcESaIcEEE*, %struct._ZNSt7__cxx1112basic_stringIcSt11char_traitsIcESaIcEEE** %..inline.addr.420, align 8, !dbg !3376
	%78 = bitcast %struct._ZNSt7__cxx1112basic_stringIcSt11char_traitsIcESaIcEEE*  %77 to i8**, !dbg !3376
	%79 = load i8*, i8**  %78, align 8, !dbg !3376
	%80 = getelementptr i8, i8*  %79, i64  %68, !dbg !3376
	store i8*  %80, i8** %..inline.addr.430, align 8, !dbg !3376
	store i8 0, i8*  %80, align 1, !dbg !3376
	br label %L.R0048, !dbg !3382
L_T47234272_9626:
	%81 = landingpad %astruct.dt64
	catch i8*  null 
	%82 = extractvalue %astruct.dt64  %81, 0, !dbg !3382
	store i8*  %82, i8** %__caught_object_address.addr, align 1, !dbg !3382
	%83 = extractvalue %astruct.dt64  %81, 1, !dbg !3382
	store i32  %83, i32* %__catch_clause_number.addr, align 1, !dbg !3382
	%84 = load i8*, i8** %__caught_object_address.addr, align 8, !dbg !3384
	%85 = call i8*  @__cxa_begin_catch (i8*  %84) nounwind, !dbg !3384
	%86 = load %struct._ZNSt7__cxx1112basic_stringIcSt11char_traitsIcESaIcEEE*, %struct._ZNSt7__cxx1112basic_stringIcSt11char_traitsIcESaIcEEE** %_T47232200_9626.addr, align 8, !dbg !3385
	%87 = bitcast %struct._ZNSt7__cxx1112basic_stringIcSt11char_traitsIcESaIcEEE*  %86 to i8*, !dbg !3385
	%88 = bitcast %struct._ZNSt7__cxx1112basic_stringIcSt11char_traitsIcESaIcEEE** %..inline.addr.460 to i8**, !dbg !3385
	store i8*  %87, i8**  %88, align 8, !dbg !3385
	%89 = load %struct._ZNSt7__cxx1112basic_stringIcSt11char_traitsIcESaIcEEE*, %struct._ZNSt7__cxx1112basic_stringIcSt11char_traitsIcESaIcEEE** %..inline.addr.460, align 8, !dbg !3386
	%90 = bitcast %struct._ZNSt7__cxx1112basic_stringIcSt11char_traitsIcESaIcEEE*  %89 to i8*, !dbg !3386
	%91 = bitcast %struct._ZNSt7__cxx1112basic_stringIcSt11char_traitsIcESaIcEEE** %..inline.addr.470 to i8**, !dbg !3386
	store i8*  %90, i8**  %91, align 8, !dbg !3386
	%92 = load %struct._ZNSt7__cxx1112basic_stringIcSt11char_traitsIcESaIcEEE*, %struct._ZNSt7__cxx1112basic_stringIcSt11char_traitsIcESaIcEEE** %..inline.addr.470, align 8, !dbg !3386
	%93 = bitcast %struct._ZNSt7__cxx1112basic_stringIcSt11char_traitsIcESaIcEEE*  %92 to i8*, !dbg !3386
	%94 = bitcast %struct._ZNSt7__cxx1112basic_stringIcSt11char_traitsIcESaIcEEE** %..inline.addr.480 to i8**, !dbg !3386
	store i8*  %93, i8**  %94, align 8, !dbg !3386
	%95 = bitcast %struct._ZNSt7__cxx1112basic_stringIcSt11char_traitsIcESaIcEEE** %..inline.addr.490 to i8**, !dbg !3386
	store i8*  %93, i8**  %95, align 8, !dbg !3386
	%96 = load %struct._ZNSt7__cxx1112basic_stringIcSt11char_traitsIcESaIcEEE*, %struct._ZNSt7__cxx1112basic_stringIcSt11char_traitsIcESaIcEEE** %..inline.addr.490, align 8, !dbg !3386
	%97 = bitcast %struct._ZNSt7__cxx1112basic_stringIcSt11char_traitsIcESaIcEEE*  %96 to i8*, !dbg !3386
	%98 = getelementptr i8, i8*  %97, i64 16, !dbg !3386
	store i8*  %98, i8** %..inline.addr.500, align 8, !dbg !3386
	store i8*  %98, i8** %..inline.addr.510, align 8, !dbg !3386
	store i8*  %98, i8** %..inline.addr.520, align 8, !dbg !3386
	store i8*  %98, i8** %..inline.addr.530, align 8, !dbg !3386
	store i8*  %98, i8** %..inline.addr.540, align 8, !dbg !3386
	store i8*  %98, i8** %..inline.addr.550, align 8, !dbg !3386
	br label %L..inline.22681, !dbg !3386
L..inline.22681:
	%99 = load %struct._ZNSt7__cxx1112basic_stringIcSt11char_traitsIcESaIcEEE*, %struct._ZNSt7__cxx1112basic_stringIcSt11char_traitsIcESaIcEEE** %..inline.addr.480, align 8, !dbg !3386
	%100 = bitcast %struct._ZNSt7__cxx1112basic_stringIcSt11char_traitsIcESaIcEEE*  %99 to i8**, !dbg !3386
	%101 = load i8*, i8**  %100, align 8, !dbg !3386
	%102 = load i8*, i8** %..inline.addr.550, align 8, !dbg !3386
	%103 = icmp eq i8*  %101,  %102, !dbg !3386
	%104 = zext i1  %103 to i32, !dbg !3386
	%105 = trunc i32  %104 to i8, !dbg !3386
	store i8  %105, i8* %..inline.addr.560, align 1, !dbg !3386
	br label %L..inline.22683, !dbg !3386
L..inline.22683:
	%106 = load i8, i8* %..inline.addr.560, align 1, !dbg !3386
	%107 = sext i8  %106 to i32, !dbg !3386
	%108 = icmp ne i32  %107, 0, !dbg !3386
	br i1  %108, label %L..inline.22684, label %L.B0950, !dbg !3386
L.B0950:
	%109 = load %struct._ZNSt7__cxx1112basic_stringIcSt11char_traitsIcESaIcEEE*, %struct._ZNSt7__cxx1112basic_stringIcSt11char_traitsIcESaIcEEE** %..inline.addr.460, align 8, !dbg !3382
	%110 = bitcast %struct._ZNSt7__cxx1112basic_stringIcSt11char_traitsIcESaIcEEE*  %109 to i8*, !dbg !3382
	%111 = bitcast %struct._ZNSt7__cxx1112basic_stringIcSt11char_traitsIcESaIcEEE** %..inline.addr.570 to i8**, !dbg !3382
	store i8*  %110, i8**  %111, align 8, !dbg !3382
	%112 = getelementptr i8, i8*  %110, i64 16, !dbg !3382
	%113 = bitcast i8*  %112 to i64*, !dbg !3382
	%114 = load i64, i64*  %113, align 8, !dbg !3382
	store i64  %114, i64* %..inline.addr.580, align 8, !dbg !3382
	%115 = load %struct._ZNSt7__cxx1112basic_stringIcSt11char_traitsIcESaIcEEE*, %struct._ZNSt7__cxx1112basic_stringIcSt11char_traitsIcESaIcEEE** %..inline.addr.570, align 8, !dbg !3382
	%116 = bitcast %struct._ZNSt7__cxx1112basic_stringIcSt11char_traitsIcESaIcEEE*  %115 to i8*, !dbg !3382
	%117 = bitcast %struct._ZNSt7__cxx1112basic_stringIcSt11char_traitsIcESaIcEEE** %..inline.addr.590 to i8**, !dbg !3382
	store i8*  %116, i8**  %117, align 8, !dbg !3382
	%118 = bitcast %struct._ZNSt7__cxx1112basic_stringIcSt11char_traitsIcESaIcEEE** %..inline.addr.600 to i8**, !dbg !3382
	store i8*  %116, i8**  %118, align 8, !dbg !3382
	%119 = load %struct._ZNSt7__cxx1112basic_stringIcSt11char_traitsIcESaIcEEE*, %struct._ZNSt7__cxx1112basic_stringIcSt11char_traitsIcESaIcEEE** %..inline.addr.590, align 8, !dbg !3382
	%120 = bitcast %struct._ZNSt7__cxx1112basic_stringIcSt11char_traitsIcESaIcEEE*  %119 to i8*, !dbg !3382
	%121 = bitcast %struct._ZSaIcE** %..inline.addr.610 to i8**, !dbg !3382
	store i8*  %120, i8**  %121, align 8, !dbg !3382
	%122 = load %struct._ZNSt7__cxx1112basic_stringIcSt11char_traitsIcESaIcEEE*, %struct._ZNSt7__cxx1112basic_stringIcSt11char_traitsIcESaIcEEE** %..inline.addr.600, align 8, !dbg !3382
	%123 = bitcast %struct._ZNSt7__cxx1112basic_stringIcSt11char_traitsIcESaIcEEE*  %122 to i8**, !dbg !3382
	%124 = load i8*, i8**  %123, align 8, !dbg !3382
	store i8*  %124, i8** %..inline.addr.620, align 8, !dbg !3382
	%125 = add i64  %114, 1, !dbg !3382
	store i64  %125, i64* %..inline.addr.630, align 8, !dbg !3382
	store i8*  %124, i8** %..inline.addr.640, align 8, !dbg !3382
	call void  @_ZdlPv (i8*  %124) nounwind, !dbg !3382
	br label %L..inline.22684
L..inline.22684:
	invoke void  @__cxa_rethrow () noreturn
		to label %L.B0951
		unwind label %L_T47234632_9626, !dbg !3387
L.B0951:
	br label %L_T47234512_9626, !dbg !3387
L_T47234632_9626:
	%126 = landingpad %astruct.dt64
	cleanup
	%127 = extractvalue %astruct.dt64  %126, 0, !dbg !3388
	store i8*  %127, i8** %__caught_object_address.addr, align 1, !dbg !3388
	%128 = extractvalue %astruct.dt64  %126, 1, !dbg !3388
	store i32  %128, i32* %__catch_clause_number.addr, align 1, !dbg !3388
	call void  @__cxa_end_catch () nounwind, !dbg !3388
	%129 = load i32, i32* %__catch_clause_number.addr, align 4, !dbg !3388
	%130 = load i8*, i8** %__caught_object_address.addr, align 8, !dbg !3388
	%131 = insertvalue %astruct.dt64 undef, i8*  %130, 0, !dbg !3388
	%132 = insertvalue %astruct.dt64  %131, i32  %129, 1, !dbg !3388
	resume %astruct.dt64  %132 , !dbg !3388
L.R0048:
	ret void, !dbg !3373
}
define linkonce_odr void @_ZNSt7__cxx1112basic_stringIcSt11char_traitsIcESaIcEE12_M_constructIPcEEvT_S7_(%struct._ZNSt7__cxx1112basic_stringIcSt11char_traitsIcESaIcEEE* %_T47232200_9627.arg, i8* %__beg.arg, i8* %__end.arg) #0 inlinehint !dbg !3390 {
L.entry:
	%_T47232200_9627.addr = alloca %struct._ZNSt7__cxx1112basic_stringIcSt11char_traitsIcESaIcEEE*, align 8
	%__beg.addr = alloca i8*, align 8
	%__end.addr = alloca i8*, align 8
	%..inline.addr = alloca %struct._ZNSt7__cxx1112basic_stringIcSt11char_traitsIcESaIcEEE*, align 8
	%..inline.addr.1 = alloca i8*, align 8
	%..inline.addr.2 = alloca i8*, align 8
	%.._T47233680_9627.__FILL_CHARARRAY.addr = alloca [1 x i8], align 1
	%....inline.__FILL_CHARARRAY.addr = alloca [1 x i8], align 1
	%..inline.addr.3 = alloca %struct._ZSt26random_access_iterator_tag, align 1

	call void @llvm.dbg.declare (metadata %struct._ZNSt7__cxx1112basic_stringIcSt11char_traitsIcESaIcEEE** %_T47232200_9627.addr, metadata !3398, metadata !2077), !dbg !3391
	store %struct._ZNSt7__cxx1112basic_stringIcSt11char_traitsIcESaIcEEE* %_T47232200_9627.arg, %struct._ZNSt7__cxx1112basic_stringIcSt11char_traitsIcESaIcEEE** %_T47232200_9627.addr, align 8, !tbaa !2084
	call void @llvm.dbg.declare (metadata %struct._ZNSt7__cxx1112basic_stringIcSt11char_traitsIcESaIcEEE** %_T47232200_9627.addr, metadata !3399, metadata !2077), !dbg !3391
	call void @llvm.dbg.declare (metadata i8** %__beg.addr, metadata !3400, metadata !2077), !dbg !3391
	store i8* %__beg.arg, i8** %__beg.addr, align 8, !tbaa !2084
	call void @llvm.dbg.declare (metadata i8** %__beg.addr, metadata !3401, metadata !2077), !dbg !3391
	call void @llvm.dbg.declare (metadata i8** %__end.addr, metadata !3402, metadata !2077), !dbg !3391
	store i8* %__end.arg, i8** %__end.addr, align 8, !tbaa !2084
	call void @llvm.dbg.declare (metadata i8** %__end.addr, metadata !3403, metadata !2077), !dbg !3391
	%0 = load %struct._ZNSt7__cxx1112basic_stringIcSt11char_traitsIcESaIcEEE*, %struct._ZNSt7__cxx1112basic_stringIcSt11char_traitsIcESaIcEEE** %_T47232200_9627.addr, align 8, !tbaa !2084, !dbg !3404
	%1 = bitcast %struct._ZNSt7__cxx1112basic_stringIcSt11char_traitsIcESaIcEEE*  %0 to i8*, !dbg !3404
	%2 = bitcast %struct._ZNSt7__cxx1112basic_stringIcSt11char_traitsIcESaIcEEE** %..inline.addr to i8**, !dbg !3404
	store i8*  %1, i8**  %2, align 8, !tbaa !2084, !dbg !3404
	%3 = load i8*, i8** %__beg.addr, align 8, !tbaa !2084, !dbg !3404
	store i8*  %3, i8** %..inline.addr.1, align 8, !tbaa !2084, !dbg !3404
	%4 = load i8*, i8** %__end.addr, align 8, !tbaa !2084, !dbg !3404
	store i8*  %4, i8** %..inline.addr.2, align 8, !tbaa !2084, !dbg !3404
	call void @llvm.dbg.declare (metadata [1 x i8]* %.._T47233680_9627.__FILL_CHARARRAY.addr, metadata !3406, metadata !2077), !dbg !3393
	%5 = bitcast [1 x i8]* %.._T47233680_9627.__FILL_CHARARRAY.addr to i8*, !dbg !3405
	%6 = load i8, i8*  %5, align 1, !tbaa !2085, !dbg !3405
	%7 = zext i8  %6 to i32, !dbg !3405
	%8 = trunc i32  %7 to i8, !dbg !3405
	call void @llvm.dbg.declare (metadata [1 x i8]* %....inline.__FILL_CHARARRAY.addr, metadata !3407, metadata !2077), !dbg !3393
	%9 = bitcast [1 x i8]* %....inline.__FILL_CHARARRAY.addr to i8*, !dbg !3405
	store i8  %8, i8*  %9, align 1, !tbaa !2085, !dbg !3405
	%10 = load %struct._ZNSt7__cxx1112basic_stringIcSt11char_traitsIcESaIcEEE*, %struct._ZNSt7__cxx1112basic_stringIcSt11char_traitsIcESaIcEEE** %..inline.addr, align 8, !tbaa !2084, !dbg !3408
	%11 = load i8*, i8** %..inline.addr.1, align 8, !tbaa !2084, !dbg !3408
	%12 = load i8*, i8** %..inline.addr.2, align 8, !tbaa !2084, !dbg !3408
	%13 = bitcast %struct._ZSt26random_access_iterator_tag* %..inline.addr.3 to i8*, !dbg !3408
	%14 = load i8, i8*  %13, align 1, !tbaa !2085, !dbg !3408
	call void  @_ZNSt7__cxx1112basic_stringIcSt11char_traitsIcESaIcEE12_M_constructIPcEEvT_S7_St20forward_iterator_tag (%struct._ZNSt7__cxx1112basic_stringIcSt11char_traitsIcESaIcEEE*  %10, i8*  %11, i8*  %12, i8  %14), !dbg !3408
	ret void, !dbg !3405
}
define linkonce_odr void @_ZNSt7__cxx1112basic_stringIcSt11char_traitsIcESaIcEE16_M_construct_auxIPcEEvT_S7_St12__false_type(%struct._ZNSt7__cxx1112basic_stringIcSt11char_traitsIcESaIcEEE* %_T47232200_9628.arg, i8* %__beg.arg, i8* %__end.arg, i8 %_T47233088_9628.coerce) #0 inlinehint !dbg !3410 {
L.entry:
	%_T47232200_9628.addr = alloca %struct._ZNSt7__cxx1112basic_stringIcSt11char_traitsIcESaIcEEE*, align 8
	%__beg.addr = alloca i8*, align 8
	%__end.addr = alloca i8*, align 8
	%_T47233088_9628.addr = alloca %struct._ZSt12__false_type, align 1
	%_T47233976_9628.addr = alloca %struct._ZSt26random_access_iterator_tag, align 1

	call void @llvm.dbg.declare (metadata %struct._ZNSt7__cxx1112basic_stringIcSt11char_traitsIcESaIcEEE** %_T47232200_9628.addr, metadata !3414, metadata !2077), !dbg !3411
	store %struct._ZNSt7__cxx1112basic_stringIcSt11char_traitsIcESaIcEEE* %_T47232200_9628.arg, %struct._ZNSt7__cxx1112basic_stringIcSt11char_traitsIcESaIcEEE** %_T47232200_9628.addr, align 8, !tbaa !2084
	call void @llvm.dbg.declare (metadata %struct._ZNSt7__cxx1112basic_stringIcSt11char_traitsIcESaIcEEE** %_T47232200_9628.addr, metadata !3415, metadata !2077), !dbg !3411
	call void @llvm.dbg.declare (metadata i8** %__beg.addr, metadata !3416, metadata !2077), !dbg !3411
	store i8* %__beg.arg, i8** %__beg.addr, align 8, !tbaa !2084
	call void @llvm.dbg.declare (metadata i8** %__beg.addr, metadata !3417, metadata !2077), !dbg !3411
	call void @llvm.dbg.declare (metadata i8** %__end.addr, metadata !3418, metadata !2077), !dbg !3411
	store i8* %__end.arg, i8** %__end.addr, align 8, !tbaa !2084
	call void @llvm.dbg.declare (metadata i8** %__end.addr, metadata !3419, metadata !2077), !dbg !3411
	call void @llvm.dbg.declare (metadata %struct._ZSt12__false_type* %_T47233088_9628.addr, metadata !3420, metadata !2077), !dbg !3411
	%0 = bitcast %struct._ZSt12__false_type* %_T47233088_9628.addr to i8*
	store i8 %_T47233088_9628.coerce, i8*  %0, align 1, !tbaa !2085
	call void @llvm.dbg.declare (metadata %struct._ZSt12__false_type* %_T47233088_9628.addr, metadata !3421, metadata !2077), !dbg !3411
	%1 = load %struct._ZNSt7__cxx1112basic_stringIcSt11char_traitsIcESaIcEEE*, %struct._ZNSt7__cxx1112basic_stringIcSt11char_traitsIcESaIcEEE** %_T47232200_9628.addr, align 8, !tbaa !2084, !dbg !3422
	%2 = load i8*, i8** %__beg.addr, align 8, !tbaa !2084, !dbg !3422
	%3 = load i8*, i8** %__end.addr, align 8, !tbaa !2084, !dbg !3422
	%4 = bitcast %struct._ZSt26random_access_iterator_tag* %_T47233976_9628.addr to i8*, !dbg !3422
	%5 = load i8, i8*  %4, align 1, !tbaa !2085, !dbg !3422
	call void  @_ZNSt7__cxx1112basic_stringIcSt11char_traitsIcESaIcEE12_M_constructIPcEEvT_S7_St20forward_iterator_tag (%struct._ZNSt7__cxx1112basic_stringIcSt11char_traitsIcESaIcEEE*  %1, i8*  %2, i8*  %3, i8  %5), !dbg !3422
	ret void, !dbg !3423
}
define linkonce_odr void @_ZNSt7__cxx1112basic_stringIcSt11char_traitsIcESaIcEE12_M_constructIPcEEvT_S7_St20forward_iterator_tag(%struct._ZNSt7__cxx1112basic_stringIcSt11char_traitsIcESaIcEEE* %_T47232200_9629.arg, i8* %__beg.arg, i8* %__end.arg, i8 %_T47233088_9629.coerce) #0 inlinehint personality i8* bitcast (i32 (...)* @__gxx_personality_v0 to i8*) !dbg !3425 {
L.entry:
	%_T47232200_9629.addr = alloca %struct._ZNSt7__cxx1112basic_stringIcSt11char_traitsIcESaIcEEE*, align 8
	%__beg.addr = alloca i8*, align 8
	%__end.addr = alloca i8*, align 8
	%_T47233088_9629.addr = alloca %struct._ZSt20forward_iterator_tag, align 1
	%..inline.addr = alloca i8*, align 8
	%..inline.addr.1 = alloca i8, align 1
	%..inline.addr.2 = alloca i8*, align 8
	%..inline.addr.3 = alloca i8*, align 8
	%..inline.addr.4 = alloca %struct._ZSt26random_access_iterator_tag, align 1
	%..inline.addr.5 = alloca i8*, align 8
	%..inline.addr.6 = alloca i8*, align 8
	%..inline.addr.7 = alloca %struct._ZSt26random_access_iterator_tag, align 1
	%..inline.addr.8 = alloca i64, align 8
	%..inline.addr.9 = alloca i64, align 8
	%__dnew.addr = alloca i64, align 8
	%..inline.addr.190 = alloca %struct._ZNSt7__cxx1112basic_stringIcSt11char_traitsIcESaIcEEE*, align 8
	%.Q0005.addr = alloca i8*, align 8
	%..inline.addr.210 = alloca i8*, align 8
	%..inline.addr.220 = alloca %struct._ZNSt7__cxx1112basic_stringIcSt11char_traitsIcESaIcEEE*, align 8
	%..inline.addr.230 = alloca i64, align 8
	%..inline.addr.240 = alloca %struct._ZNSt7__cxx1112basic_stringIcSt11char_traitsIcESaIcEEE*, align 8
	%..inline.addr.250 = alloca i8*, align 8
	%..inline.addr.260 = alloca i8*, align 8
	%..inline.addr.270 = alloca i8*, align 8
	%..inline.addr.280 = alloca i8*, align 8
	%..inline.addr.290 = alloca i8*, align 8
	%..inline.addr.300 = alloca i64, align 8
	%..inline.addr.310 = alloca i8*, align 8
	%..inline.addr.320 = alloca i8*, align 8
	%..inline.addr.330 = alloca i8*, align 8
	%..inline.addr.340 = alloca i8*, align 8
	%..inline.addr.350 = alloca i64, align 8
	%..inline.addr.360 = alloca i8*, align 8
	%..inline.addr.370 = alloca %struct._ZNSt7__cxx1112basic_stringIcSt11char_traitsIcESaIcEEE*, align 8
	%..inline.addr.380 = alloca i64, align 8
	%..inline.addr.390 = alloca %struct._ZNSt7__cxx1112basic_stringIcSt11char_traitsIcESaIcEEE*, align 8
	%..inline.addr.400 = alloca i64, align 8
	%..inline.addr.410 = alloca i8, align 1
	%..inline.addr.420 = alloca %struct._ZNSt7__cxx1112basic_stringIcSt11char_traitsIcESaIcEEE*, align 8
	%..inline.addr.430 = alloca i8*, align 8
	%__caught_object_address.addr = alloca i8*, align 8
	%__catch_clause_number.addr = alloca i32, align 4
	%..inline.addr.460 = alloca %struct._ZNSt7__cxx1112basic_stringIcSt11char_traitsIcESaIcEEE*, align 8
	%..inline.addr.470 = alloca %struct._ZNSt7__cxx1112basic_stringIcSt11char_traitsIcESaIcEEE*, align 8
	%..inline.addr.480 = alloca %struct._ZNSt7__cxx1112basic_stringIcSt11char_traitsIcESaIcEEE*, align 8
	%..inline.addr.490 = alloca %struct._ZNSt7__cxx1112basic_stringIcSt11char_traitsIcESaIcEEE*, align 8
	%..inline.addr.500 = alloca i8*, align 8
	%..inline.addr.510 = alloca i8*, align 8
	%..inline.addr.520 = alloca i8*, align 8
	%..inline.addr.530 = alloca i8*, align 8
	%..inline.addr.540 = alloca i8*, align 8
	%..inline.addr.550 = alloca i8*, align 8
	%..inline.addr.560 = alloca i8, align 1
	%..inline.addr.570 = alloca %struct._ZNSt7__cxx1112basic_stringIcSt11char_traitsIcESaIcEEE*, align 8
	%..inline.addr.580 = alloca i64, align 8
	%..inline.addr.590 = alloca %struct._ZNSt7__cxx1112basic_stringIcSt11char_traitsIcESaIcEEE*, align 8
	%..inline.addr.600 = alloca %struct._ZNSt7__cxx1112basic_stringIcSt11char_traitsIcESaIcEEE*, align 8
	%..inline.addr.610 = alloca %struct._ZSaIcE*, align 8
	%..inline.addr.620 = alloca i8*, align 8
	%..inline.addr.630 = alloca i64, align 8
	%..inline.addr.640 = alloca i8*, align 8

	call void @llvm.dbg.declare (metadata %struct._ZNSt7__cxx1112basic_stringIcSt11char_traitsIcESaIcEEE** %_T47232200_9629.addr, metadata !3535, metadata !2077), !dbg !3426
	store %struct._ZNSt7__cxx1112basic_stringIcSt11char_traitsIcESaIcEEE* %_T47232200_9629.arg, %struct._ZNSt7__cxx1112basic_stringIcSt11char_traitsIcESaIcEEE** %_T47232200_9629.addr, align 8
	call void @llvm.dbg.declare (metadata %struct._ZNSt7__cxx1112basic_stringIcSt11char_traitsIcESaIcEEE** %_T47232200_9629.addr, metadata !3536, metadata !2077), !dbg !3426
	call void @llvm.dbg.declare (metadata i8** %__beg.addr, metadata !3537, metadata !2077), !dbg !3426
	store i8* %__beg.arg, i8** %__beg.addr, align 8
	call void @llvm.dbg.declare (metadata i8** %__beg.addr, metadata !3538, metadata !2077), !dbg !3426
	call void @llvm.dbg.declare (metadata i8** %__end.addr, metadata !3539, metadata !2077), !dbg !3426
	store i8* %__end.arg, i8** %__end.addr, align 8
	call void @llvm.dbg.declare (metadata i8** %__end.addr, metadata !3540, metadata !2077), !dbg !3426
	call void @llvm.dbg.declare (metadata %struct._ZSt20forward_iterator_tag* %_T47233088_9629.addr, metadata !3541, metadata !2077), !dbg !3426
	%0 = bitcast %struct._ZSt20forward_iterator_tag* %_T47233088_9629.addr to i8*
	store i8 %_T47233088_9629.coerce, i8*  %0, align 1
	call void @llvm.dbg.declare (metadata %struct._ZSt20forward_iterator_tag* %_T47233088_9629.addr, metadata !3542, metadata !2077), !dbg !3426
	%1 = load i8*, i8** %__beg.addr, align 8, !dbg !3543
	store i8*  %1, i8** %..inline.addr, align 8, !dbg !3543
	%2 = icmp eq i8*  %1,  null, !dbg !3543
	%3 = zext i1  %2 to i32, !dbg !3543
	%4 = shl i32  %3, 24, !dbg !3543
	%5 = ashr i32  %4, 24, !dbg !3543
	%6 = trunc i32  %5 to i8, !dbg !3543
	store i8  %6, i8* %..inline.addr.1, align 1, !dbg !3543
	%7 = sext i8  %6 to i32, !dbg !3544
	%8 = icmp eq i32  %7, 0, !dbg !3544
	br i1  %8, label %L.B0012, label %L.B0970, !dbg !3544
L.B0970:
	%9 = load i8*, i8** %__beg.addr, align 8, !dbg !3543
	%10 = load i8*, i8** %__end.addr, align 8, !dbg !3543
	%11 = icmp eq i8*  %9,  %10, !dbg !3543
	br i1  %11, label %L.B0012, label %L.B0971, !dbg !3543
L.B0971:
	%12 = bitcast [42 x i8]* @.S10749 to i8*, !dbg !3545
	call void  @_ZSt19__throw_logic_errorPKc (i8*  %12) noreturn, !dbg !3545
	br label %L.B0012
L.B0012:
	%13 = load i8*, i8** %__beg.addr, align 8, !dbg !3546
	store i8*  %13, i8** %..inline.addr.2, align 8, !dbg !3546
	%14 = load i8*, i8** %__end.addr, align 8, !dbg !3546
	store i8*  %14, i8** %..inline.addr.3, align 8, !dbg !3546
	%15 = bitcast %struct._ZSt26random_access_iterator_tag* %..inline.addr.4 to i8*, !dbg !3546
	store i8 0, i8*  %15, align 1, !dbg !3546
	store i8*  %13, i8** %..inline.addr.5, align 8, !dbg !3547
	store i8*  %14, i8** %..inline.addr.6, align 8, !dbg !3547
	%16 = zext i8 0 to i32, !dbg !3548
	%17 = trunc i32  %16 to i8, !dbg !3548
	%18 = bitcast %struct._ZSt26random_access_iterator_tag* %..inline.addr.7 to i8*, !dbg !3548
	store i8  %17, i8*  %18, align 1, !dbg !3548
	%19 = ptrtoint i8*  %13 to i64, !dbg !3547
	%20 = sub i64 0,  %19, !dbg !3547
	%21 = getelementptr i8, i8*  %14, i64  %20, !dbg !3547
	%22 = ptrtoint i8*  %21 to i64, !dbg !3547
	store i64  %22, i64* %..inline.addr.8, align 8, !dbg !3547
	store i64  %22, i64* %..inline.addr.9, align 8, !dbg !3547
	br label %L..inline.22850, !dbg !3547
L..inline.22850:
	%23 = load i64, i64* %..inline.addr.9, align 8, !dbg !3549
	call void @llvm.dbg.declare (metadata i64* %__dnew.addr, metadata !3550, metadata !2077), !dbg !3426
	store i64  %23, i64* %__dnew.addr, align 8, !dbg !3549
	%24 = icmp ule i64  %23, 15, !dbg !3551
	br i1  %24, label %L.B0013, label %L.B0972, !dbg !3551
L.B0972:
	%25 = load %struct._ZNSt7__cxx1112basic_stringIcSt11char_traitsIcESaIcEEE*, %struct._ZNSt7__cxx1112basic_stringIcSt11char_traitsIcESaIcEEE** %_T47232200_9629.addr, align 8, !dbg !3552
	%26 = bitcast %struct._ZNSt7__cxx1112basic_stringIcSt11char_traitsIcESaIcEEE*  %25 to i8*, !dbg !3552
	%27 = bitcast %struct._ZNSt7__cxx1112basic_stringIcSt11char_traitsIcESaIcEEE** %..inline.addr.190 to i8**, !dbg !3552
	store i8*  %26, i8**  %27, align 8, !dbg !3552
	%28 = call i8*  @_ZNSt7__cxx1112basic_stringIcSt11char_traitsIcESaIcEE9_M_createERmm (%struct._ZNSt7__cxx1112basic_stringIcSt11char_traitsIcESaIcEEE*  %25, i64* %__dnew.addr, i64 0), !dbg !3552
	store i8*  %28, i8** %.Q0005.addr, align 8, !dbg !3552
	%29 = load i8*, i8** %.Q0005.addr, align 8, !dbg !3552
	store i8*  %29, i8** %..inline.addr.210, align 8, !dbg !3552
	%30 = load %struct._ZNSt7__cxx1112basic_stringIcSt11char_traitsIcESaIcEEE*, %struct._ZNSt7__cxx1112basic_stringIcSt11char_traitsIcESaIcEEE** %..inline.addr.190, align 8, !dbg !3552
	%31 = bitcast %struct._ZNSt7__cxx1112basic_stringIcSt11char_traitsIcESaIcEEE*  %30 to i8**, !dbg !3552
	store i8*  %29, i8**  %31, align 8, !dbg !3552
	%32 = load %struct._ZNSt7__cxx1112basic_stringIcSt11char_traitsIcESaIcEEE*, %struct._ZNSt7__cxx1112basic_stringIcSt11char_traitsIcESaIcEEE** %_T47232200_9629.addr, align 8, !dbg !3553
	%33 = bitcast %struct._ZNSt7__cxx1112basic_stringIcSt11char_traitsIcESaIcEEE*  %32 to i8*, !dbg !3553
	%34 = bitcast %struct._ZNSt7__cxx1112basic_stringIcSt11char_traitsIcESaIcEEE** %..inline.addr.220 to i8**, !dbg !3553
	store i8*  %33, i8**  %34, align 8, !dbg !3553
	%35 = load i64, i64* %__dnew.addr, align 8, !dbg !3553
	store i64  %35, i64* %..inline.addr.230, align 8, !dbg !3553
	%36 = load %struct._ZNSt7__cxx1112basic_stringIcSt11char_traitsIcESaIcEEE*, %struct._ZNSt7__cxx1112basic_stringIcSt11char_traitsIcESaIcEEE** %..inline.addr.220, align 8, !dbg !3553
	%37 = bitcast %struct._ZNSt7__cxx1112basic_stringIcSt11char_traitsIcESaIcEEE*  %36 to i8*, !dbg !3553
	%38 = getelementptr i8, i8*  %37, i64 16, !dbg !3553
	%39 = bitcast i8*  %38 to i64*, !dbg !3553
	store i64  %35, i64*  %39, align 8, !dbg !3553
	br label %L.B0013
L.B0013:
	%40 = load %struct._ZNSt7__cxx1112basic_stringIcSt11char_traitsIcESaIcEEE*, %struct._ZNSt7__cxx1112basic_stringIcSt11char_traitsIcESaIcEEE** %_T47232200_9629.addr, align 8, !dbg !3554
	%41 = bitcast %struct._ZNSt7__cxx1112basic_stringIcSt11char_traitsIcESaIcEEE*  %40 to i8*, !dbg !3554
	%42 = bitcast %struct._ZNSt7__cxx1112basic_stringIcSt11char_traitsIcESaIcEEE** %..inline.addr.240 to i8**, !dbg !3554
	store i8*  %41, i8**  %42, align 8, !dbg !3554
	%43 = load %struct._ZNSt7__cxx1112basic_stringIcSt11char_traitsIcESaIcEEE*, %struct._ZNSt7__cxx1112basic_stringIcSt11char_traitsIcESaIcEEE** %..inline.addr.240, align 8, !dbg !3555
	%44 = bitcast %struct._ZNSt7__cxx1112basic_stringIcSt11char_traitsIcESaIcEEE*  %43 to i8**, !dbg !3555
	%45 = load i8*, i8**  %44, align 8, !dbg !3555
	store i8*  %45, i8** %..inline.addr.250, align 8, !dbg !3555
	%46 = load i8*, i8** %__beg.addr, align 8, !dbg !3554
	store i8*  %46, i8** %..inline.addr.260, align 8, !dbg !3554
	%47 = load i8*, i8** %__end.addr, align 8, !dbg !3554
	store i8*  %47, i8** %..inline.addr.270, align 8, !dbg !3554
	store i8*  %45, i8** %..inline.addr.280, align 8, !dbg !3556
	store i8*  %46, i8** %..inline.addr.290, align 8, !dbg !3556
	%48 = ptrtoint i8*  %46 to i64, !dbg !3556
	%49 = sub i64 0,  %48, !dbg !3556
	%50 = getelementptr i8, i8*  %47, i64  %49, !dbg !3556
	%51 = ptrtoint i8*  %50 to i64, !dbg !3556
	store i64  %51, i64* %..inline.addr.300, align 8, !dbg !3556
	%52 = icmp ne i64  %51, 1, !dbg !3556
	br i1  %52, label %L..inline.22879, label %L.B0973, !dbg !3556
L.B0973:
	%53 = load i8*, i8** %..inline.addr.280, align 8, !dbg !3556
	store i8*  %53, i8** %..inline.addr.310, align 8, !dbg !3556
	%54 = load i8*, i8** %..inline.addr.290, align 8, !dbg !3556
	store i8*  %54, i8** %..inline.addr.320, align 8, !dbg !3556
	%55 = load i8, i8*  %54, align 1, !dbg !3556
	store i8  %55, i8*  %53, align 1, !dbg !3556
	br label %L..inline.22886, !dbg !3556
L..inline.22879:
	%56 = load i8*, i8** %..inline.addr.280, align 8, !dbg !3556
	store i8*  %56, i8** %..inline.addr.330, align 8, !dbg !3556
	%57 = load i8*, i8** %..inline.addr.290, align 8, !dbg !3556
	store i8*  %57, i8** %..inline.addr.340, align 8, !dbg !3556
	%58 = load i64, i64* %..inline.addr.300, align 8, !dbg !3556
	store i64  %58, i64* %..inline.addr.350, align 8, !dbg !3556
	%59 = icmp ne i64  %58, 0, !dbg !3556
	br i1  %59, label %L..inline.22893, label %L.B0974, !dbg !3556
L.B0974:
	%60 = load i8*, i8** %..inline.addr.330, align 8, !dbg !3556
	store i8*  %60, i8** %..inline.addr.360, align 8, !dbg !3556
	br label %L..inline.22895, !dbg !3556
L..inline.22893:
	%61 = load i8*, i8** %..inline.addr.330, align 8, !dbg !3556
	%62 = load i8*, i8** %..inline.addr.340, align 8, !dbg !3556
	%63 = load i64, i64* %..inline.addr.350, align 8, !dbg !3556
	%64 = call i8*  @memcpy (i8*  %61, i8*  %62, i64  %63) nounwind, !dbg !3556
	store i8*  %64, i8** %..inline.addr.360, align 8, !dbg !3556
	br label %L..inline.22895
L..inline.22895:
	br label %L..inline.22886
L..inline.22886:
	br label %L_T47234512_9629
L_T47234512_9629:
	%65 = load %struct._ZNSt7__cxx1112basic_stringIcSt11char_traitsIcESaIcEEE*, %struct._ZNSt7__cxx1112basic_stringIcSt11char_traitsIcESaIcEEE** %_T47232200_9629.addr, align 8, !dbg !3557
	%66 = bitcast %struct._ZNSt7__cxx1112basic_stringIcSt11char_traitsIcESaIcEEE*  %65 to i8*, !dbg !3557
	%67 = bitcast %struct._ZNSt7__cxx1112basic_stringIcSt11char_traitsIcESaIcEEE** %..inline.addr.370 to i8**, !dbg !3557
	store i8*  %66, i8**  %67, align 8, !dbg !3557
	%68 = load i64, i64* %__dnew.addr, align 8, !dbg !3557
	store i64  %68, i64* %..inline.addr.380, align 8, !dbg !3557
	%69 = load %struct._ZNSt7__cxx1112basic_stringIcSt11char_traitsIcESaIcEEE*, %struct._ZNSt7__cxx1112basic_stringIcSt11char_traitsIcESaIcEEE** %..inline.addr.370, align 8, !dbg !3558
	%70 = bitcast %struct._ZNSt7__cxx1112basic_stringIcSt11char_traitsIcESaIcEEE*  %69 to i8*, !dbg !3558
	%71 = bitcast %struct._ZNSt7__cxx1112basic_stringIcSt11char_traitsIcESaIcEEE** %..inline.addr.390 to i8**, !dbg !3558
	store i8*  %70, i8**  %71, align 8, !dbg !3558
	store i64  %68, i64* %..inline.addr.400, align 8, !dbg !3558
	%72 = load %struct._ZNSt7__cxx1112basic_stringIcSt11char_traitsIcESaIcEEE*, %struct._ZNSt7__cxx1112basic_stringIcSt11char_traitsIcESaIcEEE** %..inline.addr.390, align 8, !dbg !3558
	%73 = bitcast %struct._ZNSt7__cxx1112basic_stringIcSt11char_traitsIcESaIcEEE*  %72 to i8*, !dbg !3558
	%74 = getelementptr i8, i8*  %73, i64 8, !dbg !3558
	%75 = bitcast i8*  %74 to i64*, !dbg !3558
	store i64  %68, i64*  %75, align 8, !dbg !3558
	store i8 0, i8* %..inline.addr.410, align 1, !dbg !3558
	%76 = bitcast %struct._ZNSt7__cxx1112basic_stringIcSt11char_traitsIcESaIcEEE** %..inline.addr.420 to i8**, !dbg !3551
	store i8*  %70, i8**  %76, align 8, !dbg !3551
	%77 = load %struct._ZNSt7__cxx1112basic_stringIcSt11char_traitsIcESaIcEEE*, %struct._ZNSt7__cxx1112basic_stringIcSt11char_traitsIcESaIcEEE** %..inline.addr.420, align 8, !dbg !3551
	%78 = bitcast %struct._ZNSt7__cxx1112basic_stringIcSt11char_traitsIcESaIcEEE*  %77 to i8**, !dbg !3551
	%79 = load i8*, i8**  %78, align 8, !dbg !3551
	%80 = getelementptr i8, i8*  %79, i64  %68, !dbg !3551
	store i8*  %80, i8** %..inline.addr.430, align 8, !dbg !3551
	store i8 0, i8*  %80, align 1, !dbg !3551
	br label %L.R0051, !dbg !3557
L_T47234272_9629:
	%81 = landingpad %astruct.dt64
	catch i8*  null 
	%82 = extractvalue %astruct.dt64  %81, 0, !dbg !3557
	store i8*  %82, i8** %__caught_object_address.addr, align 1, !dbg !3557
	%83 = extractvalue %astruct.dt64  %81, 1, !dbg !3557
	store i32  %83, i32* %__catch_clause_number.addr, align 1, !dbg !3557
	%84 = load i8*, i8** %__caught_object_address.addr, align 8, !dbg !3559
	%85 = call i8*  @__cxa_begin_catch (i8*  %84) nounwind, !dbg !3559
	%86 = load %struct._ZNSt7__cxx1112basic_stringIcSt11char_traitsIcESaIcEEE*, %struct._ZNSt7__cxx1112basic_stringIcSt11char_traitsIcESaIcEEE** %_T47232200_9629.addr, align 8, !dbg !3560
	%87 = bitcast %struct._ZNSt7__cxx1112basic_stringIcSt11char_traitsIcESaIcEEE*  %86 to i8*, !dbg !3560
	%88 = bitcast %struct._ZNSt7__cxx1112basic_stringIcSt11char_traitsIcESaIcEEE** %..inline.addr.460 to i8**, !dbg !3560
	store i8*  %87, i8**  %88, align 8, !dbg !3560
	%89 = load %struct._ZNSt7__cxx1112basic_stringIcSt11char_traitsIcESaIcEEE*, %struct._ZNSt7__cxx1112basic_stringIcSt11char_traitsIcESaIcEEE** %..inline.addr.460, align 8, !dbg !3561
	%90 = bitcast %struct._ZNSt7__cxx1112basic_stringIcSt11char_traitsIcESaIcEEE*  %89 to i8*, !dbg !3561
	%91 = bitcast %struct._ZNSt7__cxx1112basic_stringIcSt11char_traitsIcESaIcEEE** %..inline.addr.470 to i8**, !dbg !3561
	store i8*  %90, i8**  %91, align 8, !dbg !3561
	%92 = load %struct._ZNSt7__cxx1112basic_stringIcSt11char_traitsIcESaIcEEE*, %struct._ZNSt7__cxx1112basic_stringIcSt11char_traitsIcESaIcEEE** %..inline.addr.470, align 8, !dbg !3561
	%93 = bitcast %struct._ZNSt7__cxx1112basic_stringIcSt11char_traitsIcESaIcEEE*  %92 to i8*, !dbg !3561
	%94 = bitcast %struct._ZNSt7__cxx1112basic_stringIcSt11char_traitsIcESaIcEEE** %..inline.addr.480 to i8**, !dbg !3561
	store i8*  %93, i8**  %94, align 8, !dbg !3561
	%95 = bitcast %struct._ZNSt7__cxx1112basic_stringIcSt11char_traitsIcESaIcEEE** %..inline.addr.490 to i8**, !dbg !3561
	store i8*  %93, i8**  %95, align 8, !dbg !3561
	%96 = load %struct._ZNSt7__cxx1112basic_stringIcSt11char_traitsIcESaIcEEE*, %struct._ZNSt7__cxx1112basic_stringIcSt11char_traitsIcESaIcEEE** %..inline.addr.490, align 8, !dbg !3561
	%97 = bitcast %struct._ZNSt7__cxx1112basic_stringIcSt11char_traitsIcESaIcEEE*  %96 to i8*, !dbg !3561
	%98 = getelementptr i8, i8*  %97, i64 16, !dbg !3561
	store i8*  %98, i8** %..inline.addr.500, align 8, !dbg !3561
	store i8*  %98, i8** %..inline.addr.510, align 8, !dbg !3561
	store i8*  %98, i8** %..inline.addr.520, align 8, !dbg !3561
	store i8*  %98, i8** %..inline.addr.530, align 8, !dbg !3561
	store i8*  %98, i8** %..inline.addr.540, align 8, !dbg !3561
	store i8*  %98, i8** %..inline.addr.550, align 8, !dbg !3561
	br label %L..inline.22964, !dbg !3561
L..inline.22964:
	%99 = load %struct._ZNSt7__cxx1112basic_stringIcSt11char_traitsIcESaIcEEE*, %struct._ZNSt7__cxx1112basic_stringIcSt11char_traitsIcESaIcEEE** %..inline.addr.480, align 8, !dbg !3561
	%100 = bitcast %struct._ZNSt7__cxx1112basic_stringIcSt11char_traitsIcESaIcEEE*  %99 to i8**, !dbg !3561
	%101 = load i8*, i8**  %100, align 8, !dbg !3561
	%102 = load i8*, i8** %..inline.addr.550, align 8, !dbg !3561
	%103 = icmp eq i8*  %101,  %102, !dbg !3561
	%104 = zext i1  %103 to i32, !dbg !3561
	%105 = trunc i32  %104 to i8, !dbg !3561
	store i8  %105, i8* %..inline.addr.560, align 1, !dbg !3561
	br label %L..inline.22966, !dbg !3561
L..inline.22966:
	%106 = load i8, i8* %..inline.addr.560, align 1, !dbg !3561
	%107 = sext i8  %106 to i32, !dbg !3561
	%108 = icmp ne i32  %107, 0, !dbg !3561
	br i1  %108, label %L..inline.22967, label %L.B0975, !dbg !3561
L.B0975:
	%109 = load %struct._ZNSt7__cxx1112basic_stringIcSt11char_traitsIcESaIcEEE*, %struct._ZNSt7__cxx1112basic_stringIcSt11char_traitsIcESaIcEEE** %..inline.addr.460, align 8, !dbg !3557
	%110 = bitcast %struct._ZNSt7__cxx1112basic_stringIcSt11char_traitsIcESaIcEEE*  %109 to i8*, !dbg !3557
	%111 = bitcast %struct._ZNSt7__cxx1112basic_stringIcSt11char_traitsIcESaIcEEE** %..inline.addr.570 to i8**, !dbg !3557
	store i8*  %110, i8**  %111, align 8, !dbg !3557
	%112 = getelementptr i8, i8*  %110, i64 16, !dbg !3557
	%113 = bitcast i8*  %112 to i64*, !dbg !3557
	%114 = load i64, i64*  %113, align 8, !dbg !3557
	store i64  %114, i64* %..inline.addr.580, align 8, !dbg !3557
	%115 = load %struct._ZNSt7__cxx1112basic_stringIcSt11char_traitsIcESaIcEEE*, %struct._ZNSt7__cxx1112basic_stringIcSt11char_traitsIcESaIcEEE** %..inline.addr.570, align 8, !dbg !3557
	%116 = bitcast %struct._ZNSt7__cxx1112basic_stringIcSt11char_traitsIcESaIcEEE*  %115 to i8*, !dbg !3557
	%117 = bitcast %struct._ZNSt7__cxx1112basic_stringIcSt11char_traitsIcESaIcEEE** %..inline.addr.590 to i8**, !dbg !3557
	store i8*  %116, i8**  %117, align 8, !dbg !3557
	%118 = bitcast %struct._ZNSt7__cxx1112basic_stringIcSt11char_traitsIcESaIcEEE** %..inline.addr.600 to i8**, !dbg !3557
	store i8*  %116, i8**  %118, align 8, !dbg !3557
	%119 = load %struct._ZNSt7__cxx1112basic_stringIcSt11char_traitsIcESaIcEEE*, %struct._ZNSt7__cxx1112basic_stringIcSt11char_traitsIcESaIcEEE** %..inline.addr.590, align 8, !dbg !3557
	%120 = bitcast %struct._ZNSt7__cxx1112basic_stringIcSt11char_traitsIcESaIcEEE*  %119 to i8*, !dbg !3557
	%121 = bitcast %struct._ZSaIcE** %..inline.addr.610 to i8**, !dbg !3557
	store i8*  %120, i8**  %121, align 8, !dbg !3557
	%122 = load %struct._ZNSt7__cxx1112basic_stringIcSt11char_traitsIcESaIcEEE*, %struct._ZNSt7__cxx1112basic_stringIcSt11char_traitsIcESaIcEEE** %..inline.addr.600, align 8, !dbg !3557
	%123 = bitcast %struct._ZNSt7__cxx1112basic_stringIcSt11char_traitsIcESaIcEEE*  %122 to i8**, !dbg !3557
	%124 = load i8*, i8**  %123, align 8, !dbg !3557
	store i8*  %124, i8** %..inline.addr.620, align 8, !dbg !3557
	%125 = add i64  %114, 1, !dbg !3557
	store i64  %125, i64* %..inline.addr.630, align 8, !dbg !3557
	store i8*  %124, i8** %..inline.addr.640, align 8, !dbg !3557
	call void  @_ZdlPv (i8*  %124) nounwind, !dbg !3557
	br label %L..inline.22967
L..inline.22967:
	invoke void  @__cxa_rethrow () noreturn
		to label %L.B0976
		unwind label %L_T47234632_9629, !dbg !3562
L.B0976:
	br label %L_T47234512_9629, !dbg !3562
L_T47234632_9629:
	%126 = landingpad %astruct.dt64
	cleanup
	%127 = extractvalue %astruct.dt64  %126, 0, !dbg !3563
	store i8*  %127, i8** %__caught_object_address.addr, align 1, !dbg !3563
	%128 = extractvalue %astruct.dt64  %126, 1, !dbg !3563
	store i32  %128, i32* %__catch_clause_number.addr, align 1, !dbg !3563
	call void  @__cxa_end_catch () nounwind, !dbg !3563
	%129 = load i32, i32* %__catch_clause_number.addr, align 4, !dbg !3563
	%130 = load i8*, i8** %__caught_object_address.addr, align 8, !dbg !3563
	%131 = insertvalue %astruct.dt64 undef, i8*  %130, 0, !dbg !3563
	%132 = insertvalue %astruct.dt64  %131, i32  %129, 1, !dbg !3563
	resume %astruct.dt64  %132 , !dbg !3563
L.R0051:
	ret void, !dbg !3548
}
define linkonce_odr void @_ZNSt7__cxx1112basic_stringIcSt11char_traitsIcESaIcEE12_Alloc_hiderC1EPcRKS3_(%struct._ZNSt7__cxx1112basic_stringIcSt11char_traitsIcESaIcEE12_Alloc_hiderE* %_T47232200_9631.arg, i8* %__dat.arg, %struct._ZSaIcE* %__a.arg) #0 inlinehint !dbg !3568 {
L.entry:
	%_T47232200_9631.addr = alloca %struct._ZNSt7__cxx1112basic_stringIcSt11char_traitsIcESaIcEE12_Alloc_hiderE*, align 8
	%__dat.addr = alloca i8*, align 8
	%__a.addr = alloca %struct._ZSaIcE*, align 8

	call void @llvm.dbg.declare (metadata %struct._ZNSt7__cxx1112basic_stringIcSt11char_traitsIcESaIcEE12_Alloc_hiderE** %_T47232200_9631.addr, metadata !3572, metadata !2077), !dbg !3569
	store %struct._ZNSt7__cxx1112basic_stringIcSt11char_traitsIcESaIcEE12_Alloc_hiderE* %_T47232200_9631.arg, %struct._ZNSt7__cxx1112basic_stringIcSt11char_traitsIcESaIcEE12_Alloc_hiderE** %_T47232200_9631.addr, align 8, !tbaa !2084
	call void @llvm.dbg.declare (metadata %struct._ZNSt7__cxx1112basic_stringIcSt11char_traitsIcESaIcEE12_Alloc_hiderE** %_T47232200_9631.addr, metadata !3573, metadata !2077), !dbg !3569
	call void @llvm.dbg.declare (metadata i8** %__dat.addr, metadata !3574, metadata !2077), !dbg !3569
	store i8* %__dat.arg, i8** %__dat.addr, align 8, !tbaa !2084
	call void @llvm.dbg.declare (metadata i8** %__dat.addr, metadata !3575, metadata !2077), !dbg !3569
	call void @llvm.dbg.declare (metadata %struct._ZSaIcE** %__a.addr, metadata !3576, metadata !2077), !dbg !3569
	store %struct._ZSaIcE* %__a.arg, %struct._ZSaIcE** %__a.addr, align 8, !tbaa !2084
	call void @llvm.dbg.declare (metadata %struct._ZSaIcE** %__a.addr, metadata !3577, metadata !2077), !dbg !3569
	%0 = load i8*, i8** %__dat.addr, align 8, !tbaa !2084, !dbg !3578
	%1 = load %struct._ZNSt7__cxx1112basic_stringIcSt11char_traitsIcESaIcEE12_Alloc_hiderE*, %struct._ZNSt7__cxx1112basic_stringIcSt11char_traitsIcESaIcEE12_Alloc_hiderE** %_T47232200_9631.addr, align 8, !tbaa !2084, !dbg !3578
	%2 = bitcast %struct._ZNSt7__cxx1112basic_stringIcSt11char_traitsIcESaIcEE12_Alloc_hiderE*  %1 to i8**, !dbg !3578
	store i8*  %0, i8**  %2, align 8, !tbaa !2084, !dbg !3578
	ret void, !dbg !3578
}
define linkonce_odr void @_ZNSt7__cxx1112basic_stringIcSt11char_traitsIcESaIcEE12_Alloc_hiderC2EPcRKS3_(%struct._ZNSt7__cxx1112basic_stringIcSt11char_traitsIcESaIcEE12_Alloc_hiderE* %_T47232200_9633.arg, i8* %_T47232496_9633.arg, %struct._ZSaIcE* %_T47232792_9633.arg) #0 inlinehint !dbg !3580 {
L.entry:
	%_T47232200_9633.addr = alloca %struct._ZNSt7__cxx1112basic_stringIcSt11char_traitsIcESaIcEE12_Alloc_hiderE*, align 8
	%_T47232496_9633.addr = alloca i8*, align 8
	%_T47232792_9633.addr = alloca %struct._ZSaIcE*, align 8

	store %struct._ZNSt7__cxx1112basic_stringIcSt11char_traitsIcESaIcEE12_Alloc_hiderE* %_T47232200_9633.arg, %struct._ZNSt7__cxx1112basic_stringIcSt11char_traitsIcESaIcEE12_Alloc_hiderE** %_T47232200_9633.addr, align 8, !tbaa !2084
	store i8* %_T47232496_9633.arg, i8** %_T47232496_9633.addr, align 8, !tbaa !2084
	store %struct._ZSaIcE* %_T47232792_9633.arg, %struct._ZSaIcE** %_T47232792_9633.addr, align 8, !tbaa !2084
	%0 = load i8*, i8** %_T47232496_9633.addr, align 8, !tbaa !2084, !dbg !3588
	%1 = load %struct._ZNSt7__cxx1112basic_stringIcSt11char_traitsIcESaIcEE12_Alloc_hiderE*, %struct._ZNSt7__cxx1112basic_stringIcSt11char_traitsIcESaIcEE12_Alloc_hiderE** %_T47232200_9633.addr, align 8, !tbaa !2084, !dbg !3588
	%2 = bitcast %struct._ZNSt7__cxx1112basic_stringIcSt11char_traitsIcESaIcEE12_Alloc_hiderE*  %1 to i8**, !dbg !3588
	store i8*  %0, i8**  %2, align 8, !tbaa !2084, !dbg !3588
	ret void, !dbg !3588
}
define linkonce_odr void @_ZNSt7__cxx1112basic_stringIcSt11char_traitsIcESaIcEE12_Alloc_hiderC1EPcOS3_(%struct._ZNSt7__cxx1112basic_stringIcSt11char_traitsIcESaIcEE12_Alloc_hiderE* %_T47232200_9635.arg, i8* %__dat.arg, %struct._ZSaIcE* %__a.arg) #0 inlinehint !dbg !3596 {
L.entry:
	%_T47232200_9635.addr = alloca %struct._ZNSt7__cxx1112basic_stringIcSt11char_traitsIcESaIcEE12_Alloc_hiderE*, align 8
	%__dat.addr = alloca i8*, align 8
	%__a.addr = alloca %struct._ZSaIcE*, align 8

	call void @llvm.dbg.declare (metadata %struct._ZNSt7__cxx1112basic_stringIcSt11char_traitsIcESaIcEE12_Alloc_hiderE** %_T47232200_9635.addr, metadata !3612, metadata !2077), !dbg !3597
	store %struct._ZNSt7__cxx1112basic_stringIcSt11char_traitsIcESaIcEE12_Alloc_hiderE* %_T47232200_9635.arg, %struct._ZNSt7__cxx1112basic_stringIcSt11char_traitsIcESaIcEE12_Alloc_hiderE** %_T47232200_9635.addr, align 8, !tbaa !2084
	call void @llvm.dbg.declare (metadata %struct._ZNSt7__cxx1112basic_stringIcSt11char_traitsIcESaIcEE12_Alloc_hiderE** %_T47232200_9635.addr, metadata !3613, metadata !2077), !dbg !3597
	call void @llvm.dbg.declare (metadata i8** %__dat.addr, metadata !3614, metadata !2077), !dbg !3597
	store i8* %__dat.arg, i8** %__dat.addr, align 8, !tbaa !2084
	call void @llvm.dbg.declare (metadata i8** %__dat.addr, metadata !3615, metadata !2077), !dbg !3597
	call void @llvm.dbg.declare (metadata %struct._ZSaIcE** %__a.addr, metadata !3616, metadata !2077), !dbg !3597
	store %struct._ZSaIcE* %__a.arg, %struct._ZSaIcE** %__a.addr, align 8, !tbaa !2084
	call void @llvm.dbg.declare (metadata %struct._ZSaIcE** %__a.addr, metadata !3617, metadata !2077), !dbg !3597
	%0 = load i8*, i8** %__dat.addr, align 8, !tbaa !2084, !dbg !3618
	%1 = load %struct._ZNSt7__cxx1112basic_stringIcSt11char_traitsIcESaIcEE12_Alloc_hiderE*, %struct._ZNSt7__cxx1112basic_stringIcSt11char_traitsIcESaIcEE12_Alloc_hiderE** %_T47232200_9635.addr, align 8, !tbaa !2084, !dbg !3618
	%2 = bitcast %struct._ZNSt7__cxx1112basic_stringIcSt11char_traitsIcESaIcEE12_Alloc_hiderE*  %1 to i8**, !dbg !3618
	store i8*  %0, i8**  %2, align 8, !tbaa !2084, !dbg !3618
	ret void, !dbg !3618
}
define linkonce_odr void @_ZNSt7__cxx1112basic_stringIcSt11char_traitsIcESaIcEE12_Alloc_hiderC2EPcOS3_(%struct._ZNSt7__cxx1112basic_stringIcSt11char_traitsIcESaIcEE12_Alloc_hiderE* %_T47232200_9637.arg, i8* %_T47232496_9637.arg, %struct._ZSaIcE* %_T47232792_9637.arg) #0 inlinehint !dbg !3620 {
L.entry:
	%_T47232200_9637.addr = alloca %struct._ZNSt7__cxx1112basic_stringIcSt11char_traitsIcESaIcEE12_Alloc_hiderE*, align 8
	%_T47232496_9637.addr = alloca i8*, align 8
	%_T47232792_9637.addr = alloca %struct._ZSaIcE*, align 8

	store %struct._ZNSt7__cxx1112basic_stringIcSt11char_traitsIcESaIcEE12_Alloc_hiderE* %_T47232200_9637.arg, %struct._ZNSt7__cxx1112basic_stringIcSt11char_traitsIcESaIcEE12_Alloc_hiderE** %_T47232200_9637.addr, align 8, !tbaa !2084
	store i8* %_T47232496_9637.arg, i8** %_T47232496_9637.addr, align 8, !tbaa !2084
	store %struct._ZSaIcE* %_T47232792_9637.arg, %struct._ZSaIcE** %_T47232792_9637.addr, align 8, !tbaa !2084
	%0 = load i8*, i8** %_T47232496_9637.addr, align 8, !tbaa !2084, !dbg !3640
	%1 = load %struct._ZNSt7__cxx1112basic_stringIcSt11char_traitsIcESaIcEE12_Alloc_hiderE*, %struct._ZNSt7__cxx1112basic_stringIcSt11char_traitsIcESaIcEE12_Alloc_hiderE** %_T47232200_9637.addr, align 8, !tbaa !2084, !dbg !3640
	%2 = bitcast %struct._ZNSt7__cxx1112basic_stringIcSt11char_traitsIcESaIcEE12_Alloc_hiderE*  %1 to i8**, !dbg !3640
	store i8*  %0, i8**  %2, align 8, !tbaa !2084, !dbg !3640
	ret void, !dbg !3640
}

%struct._ZN9__gnu_cxx13new_allocatorIcEE = type <{ [1 x i8]}> 

define linkonce_odr void @_ZN9__gnu_cxx13new_allocatorIcE10deallocateEPcm(%struct._ZN9__gnu_cxx13new_allocatorIcEE* %_T47232200_9640.arg, i8* %__p.arg, i64 %_T47232792_9640.arg) #0 inlinehint !dbg !3647 {
L.entry:
	%_T47232200_9640.addr = alloca %struct._ZN9__gnu_cxx13new_allocatorIcEE*, align 8
	%__p.addr = alloca i8*, align 8
	%_T47232792_9640.addr = alloca i64, align 8

	call void @llvm.dbg.declare (metadata %struct._ZN9__gnu_cxx13new_allocatorIcEE** %_T47232200_9640.addr, metadata !3651, metadata !2077), !dbg !3648
	store %struct._ZN9__gnu_cxx13new_allocatorIcEE* %_T47232200_9640.arg, %struct._ZN9__gnu_cxx13new_allocatorIcEE** %_T47232200_9640.addr, align 8, !tbaa !2084
	call void @llvm.dbg.declare (metadata %struct._ZN9__gnu_cxx13new_allocatorIcEE** %_T47232200_9640.addr, metadata !3652, metadata !2077), !dbg !3648
	call void @llvm.dbg.declare (metadata i8** %__p.addr, metadata !3653, metadata !2077), !dbg !3648
	store i8* %__p.arg, i8** %__p.addr, align 8, !tbaa !2084
	call void @llvm.dbg.declare (metadata i8** %__p.addr, metadata !3654, metadata !2077), !dbg !3648
	call void @llvm.dbg.declare (metadata i64* %_T47232792_9640.addr, metadata !3655, metadata !2077), !dbg !3648
	store i64 %_T47232792_9640.arg, i64* %_T47232792_9640.addr, align 8, !tbaa !2085
	call void @llvm.dbg.declare (metadata i64* %_T47232792_9640.addr, metadata !3656, metadata !2077), !dbg !3648
	%0 = load i8*, i8** %__p.addr, align 8, !tbaa !2084, !dbg !3657
	call void  @_ZdlPv (i8*  %0) nounwind, !dbg !3657
	ret void, !dbg !3658
}
define linkonce_odr i64 @_ZNK9__gnu_cxx13new_allocatorIcE8max_sizeEv(%struct._ZN9__gnu_cxx13new_allocatorIcEE* %_T47232200_9642.arg) #0 inlinehint !dbg !3662 {
L.entry:
	%_T47232200_9642.addr = alloca %struct._ZN9__gnu_cxx13new_allocatorIcEE*, align 8

	call void @llvm.dbg.declare (metadata %struct._ZN9__gnu_cxx13new_allocatorIcEE** %_T47232200_9642.addr, metadata !3666, metadata !2077), !dbg !3663
	store %struct._ZN9__gnu_cxx13new_allocatorIcEE* %_T47232200_9642.arg, %struct._ZN9__gnu_cxx13new_allocatorIcEE** %_T47232200_9642.addr, align 8, !tbaa !2084
	call void @llvm.dbg.declare (metadata %struct._ZN9__gnu_cxx13new_allocatorIcEE** %_T47232200_9642.addr, metadata !3667, metadata !2077), !dbg !3663
	ret i64 -1, !dbg !3668
}
define linkonce_odr void @_ZN9__gnu_cxx14__alloc_traitsISaIcEcE17_S_select_on_copyERKS1_(%struct._ZSaIcE* sret %_T47232200_9643.arg, %struct._ZSaIcE* %__a.arg) #0 inlinehint !dbg !3673 {
L.entry:
	%_T47232200_9643.addr = alloca %struct._ZSaIcE*, align 8
	%__a.addr = alloca %struct._ZSaIcE*, align 8

	store %struct._ZSaIcE* %_T47232200_9643.arg, %struct._ZSaIcE** %_T47232200_9643.addr, align 8, !tbaa !2084
	call void @llvm.dbg.declare (metadata %struct._ZSaIcE** %__a.addr, metadata !3681, metadata !2077), !dbg !3674
	store %struct._ZSaIcE* %__a.arg, %struct._ZSaIcE** %__a.addr, align 8, !tbaa !2084
	call void @llvm.dbg.declare (metadata %struct._ZSaIcE** %__a.addr, metadata !3682, metadata !2077), !dbg !3674
	ret void, !dbg !3683
}

%struct.ompi_datatype_t = type opaque
%struct._ZN3MPI8DatatypeE = type <{ i32 (...)* (...)*, %struct.ompi_datatype_t*}> 

define linkonce_odr void @_ZN3MPI8DatatypeD1Ev(%struct._ZN3MPI8DatatypeE* %_T47232200_9644.arg) #0 inlinehint !dbg !3687 {
L.entry:
	%_T47232200_9644.addr = alloca %struct._ZN3MPI8DatatypeE*, align 8

	call void @llvm.dbg.declare (metadata %struct._ZN3MPI8DatatypeE** %_T47232200_9644.addr, metadata !3691, metadata !2077), !dbg !3688
	store %struct._ZN3MPI8DatatypeE* %_T47232200_9644.arg, %struct._ZN3MPI8DatatypeE** %_T47232200_9644.addr, align 8, !tbaa !2084
	call void @llvm.dbg.declare (metadata %struct._ZN3MPI8DatatypeE** %_T47232200_9644.addr, metadata !3692, metadata !2077), !dbg !3688
	%0 = bitcast [32 x i32 (...)* (...)*]* @_ZTVN3MPI8DatatypeE to i8*, !dbg !3693
	%1 = getelementptr i8, i8*  %0, i64 16, !dbg !3693
	%2 = load %struct._ZN3MPI8DatatypeE*, %struct._ZN3MPI8DatatypeE** %_T47232200_9644.addr, align 8, !tbaa !2084, !dbg !3693
	%3 = bitcast %struct._ZN3MPI8DatatypeE*  %2 to i8**, !dbg !3693
	store i8*  %1, i8**  %3, align 8, !tbaa !2084, !dbg !3693
	ret void, !dbg !3693
}
define linkonce_odr void @_ZN3MPI8DatatypeD0Ev(%struct._ZN3MPI8DatatypeE* %_T47232200_9645.arg) #0 inlinehint !dbg !3698 {
L.entry:
	%_T47232200_9645.addr = alloca %struct._ZN3MPI8DatatypeE*, align 8

	store %struct._ZN3MPI8DatatypeE* %_T47232200_9645.arg, %struct._ZN3MPI8DatatypeE** %_T47232200_9645.addr, align 8, !tbaa !2084
	%0 = bitcast [32 x i32 (...)* (...)*]* @_ZTVN3MPI8DatatypeE to i8*, !dbg !3706
	%1 = getelementptr i8, i8*  %0, i64 16, !dbg !3706
	%2 = load %struct._ZN3MPI8DatatypeE*, %struct._ZN3MPI8DatatypeE** %_T47232200_9645.addr, align 8, !tbaa !2084, !dbg !3706
	%3 = bitcast %struct._ZN3MPI8DatatypeE*  %2 to i8**, !dbg !3706
	store i8*  %1, i8**  %3, align 8, !tbaa !2084, !dbg !3706
	%4 = bitcast %struct._ZN3MPI8DatatypeE*  %2 to i8*, !dbg !3706
	call void  @_ZdlPvm (i8*  %4, i64 16) nounwind, !dbg !3706
	ret void, !dbg !3706
}
define linkonce_odr void @_ZN3MPI8DatatypeD2Ev(%struct._ZN3MPI8DatatypeE* %_T47232200_9646.arg) #0 inlinehint !dbg !3708 {
L.entry:
	%_T47232200_9646.addr = alloca %struct._ZN3MPI8DatatypeE*, align 8

	store %struct._ZN3MPI8DatatypeE* %_T47232200_9646.arg, %struct._ZN3MPI8DatatypeE** %_T47232200_9646.addr, align 8, !tbaa !2084
	%0 = bitcast [32 x i32 (...)* (...)*]* @_ZTVN3MPI8DatatypeE to i8*, !dbg !3716
	%1 = getelementptr i8, i8*  %0, i64 16, !dbg !3716
	%2 = load %struct._ZN3MPI8DatatypeE*, %struct._ZN3MPI8DatatypeE** %_T47232200_9646.addr, align 8, !tbaa !2084, !dbg !3716
	%3 = bitcast %struct._ZN3MPI8DatatypeE*  %2 to i8**, !dbg !3716
	store i8*  %1, i8**  %3, align 8, !tbaa !2084, !dbg !3716
	ret void, !dbg !3716
}
define linkonce_odr void @_ZN3MPI8DatatypeC1EP15ompi_datatype_t(%struct._ZN3MPI8DatatypeE* %_T47232200_9648.arg, %struct.ompi_datatype_t* %i.arg) #0 inlinehint !dbg !3720 {
L.entry:
	%_T47232200_9648.addr = alloca %struct._ZN3MPI8DatatypeE*, align 8
	%i.addr = alloca %struct.ompi_datatype_t*, align 8

	call void @llvm.dbg.declare (metadata %struct._ZN3MPI8DatatypeE** %_T47232200_9648.addr, metadata !3724, metadata !2077), !dbg !3721
	store %struct._ZN3MPI8DatatypeE* %_T47232200_9648.arg, %struct._ZN3MPI8DatatypeE** %_T47232200_9648.addr, align 8, !tbaa !2084
	call void @llvm.dbg.declare (metadata %struct._ZN3MPI8DatatypeE** %_T47232200_9648.addr, metadata !3725, metadata !2077), !dbg !3721
	call void @llvm.dbg.declare (metadata %struct.ompi_datatype_t** %i.addr, metadata !3726, metadata !2077), !dbg !3721
	store %struct.ompi_datatype_t* %i.arg, %struct.ompi_datatype_t** %i.addr, align 8, !tbaa !2084
	call void @llvm.dbg.declare (metadata %struct.ompi_datatype_t** %i.addr, metadata !3727, metadata !2077), !dbg !3721
	%0 = bitcast [32 x i32 (...)* (...)*]* @_ZTVN3MPI8DatatypeE to i8*, !dbg !3728
	%1 = getelementptr i8, i8*  %0, i64 16, !dbg !3728
	%2 = load %struct._ZN3MPI8DatatypeE*, %struct._ZN3MPI8DatatypeE** %_T47232200_9648.addr, align 8, !tbaa !2084, !dbg !3728
	%3 = bitcast %struct._ZN3MPI8DatatypeE*  %2 to i8**, !dbg !3728
	store i8*  %1, i8**  %3, align 8, !tbaa !2084, !dbg !3728
	%4 = load %struct.ompi_datatype_t*, %struct.ompi_datatype_t** %i.addr, align 8, !tbaa !2084, !dbg !3728
	%5 = bitcast %struct.ompi_datatype_t*  %4 to i8*, !dbg !3728
	%6 = bitcast %struct._ZN3MPI8DatatypeE*  %2 to i8*, !dbg !3728
	%7 = getelementptr i8, i8*  %6, i64 8, !dbg !3728
	%8 = bitcast i8*  %7 to i8**, !dbg !3728
	store i8*  %5, i8**  %8, align 8, !tbaa !2084, !dbg !3728
	ret void, !dbg !3728
}
define linkonce_odr void @_ZN3MPI8DatatypeC2EP15ompi_datatype_t(%struct._ZN3MPI8DatatypeE* %_T47232200_9650.arg, %struct.ompi_datatype_t* %_T47232496_9650.arg) #0 inlinehint !dbg !3730 {
L.entry:
	%_T47232200_9650.addr = alloca %struct._ZN3MPI8DatatypeE*, align 8
	%_T47232496_9650.addr = alloca %struct.ompi_datatype_t*, align 8
	%..inline.addr = alloca %struct._ZN3MPI8DatatypeE*, align 8
	%..inline.addr.1 = alloca %struct.ompi_datatype_t*, align 8

	store %struct._ZN3MPI8DatatypeE* %_T47232200_9650.arg, %struct._ZN3MPI8DatatypeE** %_T47232200_9650.addr, align 8, !tbaa !2084
	store %struct.ompi_datatype_t* %_T47232496_9650.arg, %struct.ompi_datatype_t** %_T47232496_9650.addr, align 8, !tbaa !2084
	%0 = load %struct._ZN3MPI8DatatypeE*, %struct._ZN3MPI8DatatypeE** %_T47232200_9650.addr, align 8, !tbaa !2084, !dbg !3738
	%1 = bitcast %struct._ZN3MPI8DatatypeE*  %0 to i8*, !dbg !3738
	%2 = bitcast %struct._ZN3MPI8DatatypeE** %..inline.addr to i8**, !dbg !3738
	store i8*  %1, i8**  %2, align 8, !tbaa !2084, !dbg !3738
	%3 = load %struct.ompi_datatype_t*, %struct.ompi_datatype_t** %_T47232496_9650.addr, align 8, !tbaa !2084, !dbg !3738
	%4 = bitcast %struct.ompi_datatype_t*  %3 to i8*, !dbg !3738
	%5 = bitcast %struct.ompi_datatype_t** %..inline.addr.1 to i8**, !dbg !3738
	store i8*  %4, i8**  %5, align 8, !tbaa !2084, !dbg !3738
	%6 = bitcast [32 x i32 (...)* (...)*]* @_ZTVN3MPI8DatatypeE to i8*, !dbg !3738
	%7 = getelementptr i8, i8*  %6, i64 16, !dbg !3738
	%8 = load %struct._ZN3MPI8DatatypeE*, %struct._ZN3MPI8DatatypeE** %..inline.addr, align 8, !tbaa !2084, !dbg !3738
	%9 = bitcast %struct._ZN3MPI8DatatypeE*  %8 to i8**, !dbg !3738
	store i8*  %7, i8**  %9, align 8, !tbaa !2084, !dbg !3738
	%10 = load %struct.ompi_datatype_t*, %struct.ompi_datatype_t** %..inline.addr.1, align 8, !tbaa !2084, !dbg !3738
	%11 = bitcast %struct.ompi_datatype_t*  %10 to i8*, !dbg !3738
	%12 = bitcast %struct._ZN3MPI8DatatypeE*  %8 to i8*, !dbg !3738
	%13 = getelementptr i8, i8*  %12, i64 8, !dbg !3738
	%14 = bitcast i8*  %13 to i8**, !dbg !3738
	store i8*  %11, i8**  %14, align 8, !tbaa !2084, !dbg !3738
	ret void, !dbg !3738
}
define linkonce_odr %struct._ZN3MPI8DatatypeE* @_ZN3MPI8DatatypeaSERKP15ompi_datatype_t(%struct._ZN3MPI8DatatypeE* %_T47232200_9651.arg, %struct.ompi_datatype_t** %i.arg) #0 inlinehint !dbg !3746 {
L.entry:
	%_T47232200_9651.addr = alloca %struct._ZN3MPI8DatatypeE*, align 8
	%i.addr = alloca %struct.ompi_datatype_t**, align 8

	call void @llvm.dbg.declare (metadata %struct._ZN3MPI8DatatypeE** %_T47232200_9651.addr, metadata !3750, metadata !2077), !dbg !3747
	store %struct._ZN3MPI8DatatypeE* %_T47232200_9651.arg, %struct._ZN3MPI8DatatypeE** %_T47232200_9651.addr, align 8, !tbaa !2084
	call void @llvm.dbg.declare (metadata %struct._ZN3MPI8DatatypeE** %_T47232200_9651.addr, metadata !3751, metadata !2077), !dbg !3747
	call void @llvm.dbg.declare (metadata %struct.ompi_datatype_t*** %i.addr, metadata !3752, metadata !2077), !dbg !3747
	store %struct.ompi_datatype_t** %i.arg, %struct.ompi_datatype_t*** %i.addr, align 8, !tbaa !2084
	call void @llvm.dbg.declare (metadata %struct.ompi_datatype_t*** %i.addr, metadata !3753, metadata !2077), !dbg !3747
	%0 = load %struct.ompi_datatype_t**, %struct.ompi_datatype_t*** %i.addr, align 8, !tbaa !2084, !dbg !3754
	%1 = bitcast %struct.ompi_datatype_t**  %0 to i8**, !dbg !3754
	%2 = load i8*, i8**  %1, align 8, !tbaa !2084, !dbg !3754
	%3 = load %struct._ZN3MPI8DatatypeE*, %struct._ZN3MPI8DatatypeE** %_T47232200_9651.addr, align 8, !tbaa !2084, !dbg !3754
	%4 = bitcast %struct._ZN3MPI8DatatypeE*  %3 to i8*, !dbg !3754
	%5 = getelementptr i8, i8*  %4, i64 8, !dbg !3754
	%6 = bitcast i8*  %5 to i8**, !dbg !3754
	store i8*  %2, i8**  %6, align 8, !tbaa !2084, !dbg !3754
	ret %struct._ZN3MPI8DatatypeE*  %3, !dbg !3754
}
define linkonce_odr %struct.ompi_datatype_t* @_ZNK3MPI8DatatypecvP15ompi_datatype_tEv(%struct._ZN3MPI8DatatypeE* %_T47232200_9653.arg) #0 inlinehint !dbg !3758 {
L.entry:
	%_T47232200_9653.addr = alloca %struct._ZN3MPI8DatatypeE*, align 8

	call void @llvm.dbg.declare (metadata %struct._ZN3MPI8DatatypeE** %_T47232200_9653.addr, metadata !3762, metadata !2077), !dbg !3759
	store %struct._ZN3MPI8DatatypeE* %_T47232200_9653.arg, %struct._ZN3MPI8DatatypeE** %_T47232200_9653.addr, align 8, !tbaa !2084
	call void @llvm.dbg.declare (metadata %struct._ZN3MPI8DatatypeE** %_T47232200_9653.addr, metadata !3763, metadata !2077), !dbg !3759
	%0 = load %struct._ZN3MPI8DatatypeE*, %struct._ZN3MPI8DatatypeE** %_T47232200_9653.addr, align 8, !tbaa !2084, !dbg !3764
	%1 = bitcast %struct._ZN3MPI8DatatypeE*  %0 to i8*, !dbg !3764
	%2 = getelementptr i8, i8*  %1, i64 8, !dbg !3764
	%3 = bitcast i8*  %2 to %struct.ompi_datatype_t**, !dbg !3764
	%4 = load %struct.ompi_datatype_t*, %struct.ompi_datatype_t**  %3, align 8, !tbaa !2084, !dbg !3764
	ret %struct.ompi_datatype_t*  %4, !dbg !3764
}
define linkonce_odr void @_ZNK3MPI8Datatype17Create_contiguousEi(%struct._ZN3MPI8DatatypeE* sret %_T47232200_9654.arg, %struct._ZN3MPI8DatatypeE* %_T47232496_9654.arg, i32 signext %count.arg) #0 inlinehint !dbg !3768 {
L.entry:
	%_T47232200_9654.addr = alloca %struct._ZN3MPI8DatatypeE*, align 8
	%_T47232496_9654.addr = alloca %struct._ZN3MPI8DatatypeE*, align 8
	%count.addr = alloca i32, align 4
	%newtype.addr = alloca %struct.ompi_datatype_t*, align 8
	%..inline.addr = alloca %struct._ZN3MPI8DatatypeE*, align 8
	%..inline.addr.1 = alloca %struct.ompi_datatype_t*, align 8

	store %struct._ZN3MPI8DatatypeE* %_T47232200_9654.arg, %struct._ZN3MPI8DatatypeE** %_T47232200_9654.addr, align 8, !tbaa !2084
	call void @llvm.dbg.declare (metadata %struct._ZN3MPI8DatatypeE** %_T47232496_9654.addr, metadata !3776, metadata !2077), !dbg !3769
	store %struct._ZN3MPI8DatatypeE* %_T47232496_9654.arg, %struct._ZN3MPI8DatatypeE** %_T47232496_9654.addr, align 8, !tbaa !2084
	call void @llvm.dbg.declare (metadata %struct._ZN3MPI8DatatypeE** %_T47232496_9654.addr, metadata !3777, metadata !2077), !dbg !3769
	call void @llvm.dbg.declare (metadata i32* %count.addr, metadata !3778, metadata !2077), !dbg !3769
	store i32 %count.arg, i32* %count.addr, align 4, !tbaa !2085
	call void @llvm.dbg.declare (metadata i32* %count.addr, metadata !3779, metadata !2077), !dbg !3769
	%0 = load i32, i32* %count.addr, align 4, !tbaa !2256, !dbg !3780
	%1 = load %struct._ZN3MPI8DatatypeE*, %struct._ZN3MPI8DatatypeE** %_T47232496_9654.addr, align 8, !tbaa !2084, !dbg !3780
	%2 = bitcast %struct._ZN3MPI8DatatypeE*  %1 to i8*, !dbg !3780
	%3 = getelementptr i8, i8*  %2, i64 8, !dbg !3780
	%4 = bitcast i8*  %3 to %struct.ompi_datatype_t**, !dbg !3780
	%5 = load %struct.ompi_datatype_t*, %struct.ompi_datatype_t**  %4, align 8, !tbaa !2084, !dbg !3780
	call void @llvm.dbg.declare (metadata %struct.ompi_datatype_t** %newtype.addr, metadata !3781, metadata !2077), !dbg !3769
	%6 = call i32  @MPI_Type_contiguous (i32  %0, %struct.ompi_datatype_t*  %5, %struct.ompi_datatype_t** %newtype.addr) nounwind, !dbg !3780
	%7 = load %struct._ZN3MPI8DatatypeE*, %struct._ZN3MPI8DatatypeE** %_T47232200_9654.addr, align 8, !tbaa !2084, !dbg !3782
	%8 = bitcast %struct._ZN3MPI8DatatypeE*  %7 to i8*, !dbg !3782
	%9 = bitcast %struct._ZN3MPI8DatatypeE** %..inline.addr to i8**, !dbg !3782
	store i8*  %8, i8**  %9, align 8, !tbaa !2084, !dbg !3782
	%10 = load %struct.ompi_datatype_t*, %struct.ompi_datatype_t** %newtype.addr, align 8, !tbaa !2084, !dbg !3782
	%11 = bitcast %struct.ompi_datatype_t*  %10 to i8*, !dbg !3782
	%12 = bitcast %struct.ompi_datatype_t** %..inline.addr.1 to i8**, !dbg !3782
	store i8*  %11, i8**  %12, align 8, !tbaa !2084, !dbg !3782
	%13 = bitcast [32 x i32 (...)* (...)*]* @_ZTVN3MPI8DatatypeE to i8*, !dbg !3782
	%14 = getelementptr i8, i8*  %13, i64 16, !dbg !3782
	%15 = load %struct._ZN3MPI8DatatypeE*, %struct._ZN3MPI8DatatypeE** %..inline.addr, align 8, !tbaa !2084, !dbg !3782
	%16 = bitcast %struct._ZN3MPI8DatatypeE*  %15 to i8**, !dbg !3782
	store i8*  %14, i8**  %16, align 8, !tbaa !2084, !dbg !3782
	%17 = load %struct.ompi_datatype_t*, %struct.ompi_datatype_t** %..inline.addr.1, align 8, !tbaa !2084, !dbg !3783
	%18 = bitcast %struct.ompi_datatype_t*  %17 to i8*, !dbg !3783
	%19 = bitcast %struct._ZN3MPI8DatatypeE*  %15 to i8*, !dbg !3783
	%20 = getelementptr i8, i8*  %19, i64 8, !dbg !3783
	%21 = bitcast i8*  %20 to i8**, !dbg !3783
	store i8*  %18, i8**  %21, align 8, !tbaa !2084, !dbg !3783
	ret void, !dbg !3784
}
define linkonce_odr void @_ZNK3MPI8Datatype13Create_vectorEiii(%struct._ZN3MPI8DatatypeE* sret %_T47232200_9655.arg, %struct._ZN3MPI8DatatypeE* %_T47232496_9655.arg, i32 signext %count.arg, i32 signext %blocklength.arg, i32 signext %stride.arg) #0 inlinehint !dbg !3786 {
L.entry:
	%_T47232200_9655.addr = alloca %struct._ZN3MPI8DatatypeE*, align 8
	%_T47232496_9655.addr = alloca %struct._ZN3MPI8DatatypeE*, align 8
	%count.addr = alloca i32, align 4
	%blocklength.addr = alloca i32, align 4
	%stride.addr = alloca i32, align 4
	%newtype.addr = alloca %struct.ompi_datatype_t*, align 8
	%..inline.addr = alloca %struct._ZN3MPI8DatatypeE*, align 8
	%..inline.addr.1 = alloca %struct.ompi_datatype_t*, align 8

	store %struct._ZN3MPI8DatatypeE* %_T47232200_9655.arg, %struct._ZN3MPI8DatatypeE** %_T47232200_9655.addr, align 8, !tbaa !2084
	call void @llvm.dbg.declare (metadata %struct._ZN3MPI8DatatypeE** %_T47232496_9655.addr, metadata !3794, metadata !2077), !dbg !3787
	store %struct._ZN3MPI8DatatypeE* %_T47232496_9655.arg, %struct._ZN3MPI8DatatypeE** %_T47232496_9655.addr, align 8, !tbaa !2084
	call void @llvm.dbg.declare (metadata %struct._ZN3MPI8DatatypeE** %_T47232496_9655.addr, metadata !3795, metadata !2077), !dbg !3787
	call void @llvm.dbg.declare (metadata i32* %count.addr, metadata !3796, metadata !2077), !dbg !3787
	store i32 %count.arg, i32* %count.addr, align 4, !tbaa !2085
	call void @llvm.dbg.declare (metadata i32* %count.addr, metadata !3797, metadata !2077), !dbg !3787
	call void @llvm.dbg.declare (metadata i32* %blocklength.addr, metadata !3798, metadata !2077), !dbg !3787
	store i32 %blocklength.arg, i32* %blocklength.addr, align 4, !tbaa !2085
	call void @llvm.dbg.declare (metadata i32* %blocklength.addr, metadata !3799, metadata !2077), !dbg !3787
	call void @llvm.dbg.declare (metadata i32* %stride.addr, metadata !3800, metadata !2077), !dbg !3787
	store i32 %stride.arg, i32* %stride.addr, align 4, !tbaa !2085
	call void @llvm.dbg.declare (metadata i32* %stride.addr, metadata !3801, metadata !2077), !dbg !3787
	%0 = load i32, i32* %count.addr, align 4, !tbaa !2256, !dbg !3802
	%1 = load i32, i32* %blocklength.addr, align 4, !tbaa !2256, !dbg !3802
	%2 = load i32, i32* %stride.addr, align 4, !tbaa !2256, !dbg !3802
	%3 = load %struct._ZN3MPI8DatatypeE*, %struct._ZN3MPI8DatatypeE** %_T47232496_9655.addr, align 8, !tbaa !2084, !dbg !3802
	%4 = bitcast %struct._ZN3MPI8DatatypeE*  %3 to i8*, !dbg !3802
	%5 = getelementptr i8, i8*  %4, i64 8, !dbg !3802
	%6 = bitcast i8*  %5 to %struct.ompi_datatype_t**, !dbg !3802
	%7 = load %struct.ompi_datatype_t*, %struct.ompi_datatype_t**  %6, align 8, !tbaa !2084, !dbg !3802
	call void @llvm.dbg.declare (metadata %struct.ompi_datatype_t** %newtype.addr, metadata !3803, metadata !2077), !dbg !3787
	%8 = call i32  @MPI_Type_vector (i32  %0, i32  %1, i32  %2, %struct.ompi_datatype_t*  %7, %struct.ompi_datatype_t** %newtype.addr) nounwind, !dbg !3802
	%9 = load %struct._ZN3MPI8DatatypeE*, %struct._ZN3MPI8DatatypeE** %_T47232200_9655.addr, align 8, !tbaa !2084, !dbg !3804
	%10 = bitcast %struct._ZN3MPI8DatatypeE*  %9 to i8*, !dbg !3804
	%11 = bitcast %struct._ZN3MPI8DatatypeE** %..inline.addr to i8**, !dbg !3804
	store i8*  %10, i8**  %11, align 8, !tbaa !2084, !dbg !3804
	%12 = load %struct.ompi_datatype_t*, %struct.ompi_datatype_t** %newtype.addr, align 8, !tbaa !2084, !dbg !3804
	%13 = bitcast %struct.ompi_datatype_t*  %12 to i8*, !dbg !3804
	%14 = bitcast %struct.ompi_datatype_t** %..inline.addr.1 to i8**, !dbg !3804
	store i8*  %13, i8**  %14, align 8, !tbaa !2084, !dbg !3804
	%15 = bitcast [32 x i32 (...)* (...)*]* @_ZTVN3MPI8DatatypeE to i8*, !dbg !3804
	%16 = getelementptr i8, i8*  %15, i64 16, !dbg !3804
	%17 = load %struct._ZN3MPI8DatatypeE*, %struct._ZN3MPI8DatatypeE** %..inline.addr, align 8, !tbaa !2084, !dbg !3804
	%18 = bitcast %struct._ZN3MPI8DatatypeE*  %17 to i8**, !dbg !3804
	store i8*  %16, i8**  %18, align 8, !tbaa !2084, !dbg !3804
	%19 = load %struct.ompi_datatype_t*, %struct.ompi_datatype_t** %..inline.addr.1, align 8, !tbaa !2084, !dbg !3805
	%20 = bitcast %struct.ompi_datatype_t*  %19 to i8*, !dbg !3805
	%21 = bitcast %struct._ZN3MPI8DatatypeE*  %17 to i8*, !dbg !3805
	%22 = getelementptr i8, i8*  %21, i64 8, !dbg !3805
	%23 = bitcast i8*  %22 to i8**, !dbg !3805
	store i8*  %20, i8**  %23, align 8, !tbaa !2084, !dbg !3805
	ret void, !dbg !3806
}
define linkonce_odr void @_ZNK3MPI8Datatype14Create_indexedEiPKiS2_(%struct._ZN3MPI8DatatypeE* sret %_T47232200_9656.arg, %struct._ZN3MPI8DatatypeE* %_T47232496_9656.arg, i32 signext %count.arg, i32* %array_of_blocklengths.arg, i32* %array_of_displacements.arg) #0 inlinehint !dbg !3808 {
L.entry:
	%_T47232200_9656.addr = alloca %struct._ZN3MPI8DatatypeE*, align 8
	%_T47232496_9656.addr = alloca %struct._ZN3MPI8DatatypeE*, align 8
	%count.addr = alloca i32, align 4
	%array_of_blocklengths.addr = alloca i32*, align 8
	%array_of_displacements.addr = alloca i32*, align 8
	%newtype.addr = alloca %struct.ompi_datatype_t*, align 8
	%..inline.addr = alloca %struct._ZN3MPI8DatatypeE*, align 8
	%..inline.addr.1 = alloca %struct.ompi_datatype_t*, align 8

	store %struct._ZN3MPI8DatatypeE* %_T47232200_9656.arg, %struct._ZN3MPI8DatatypeE** %_T47232200_9656.addr, align 8, !tbaa !2084
	call void @llvm.dbg.declare (metadata %struct._ZN3MPI8DatatypeE** %_T47232496_9656.addr, metadata !3816, metadata !2077), !dbg !3809
	store %struct._ZN3MPI8DatatypeE* %_T47232496_9656.arg, %struct._ZN3MPI8DatatypeE** %_T47232496_9656.addr, align 8, !tbaa !2084
	call void @llvm.dbg.declare (metadata %struct._ZN3MPI8DatatypeE** %_T47232496_9656.addr, metadata !3817, metadata !2077), !dbg !3809
	call void @llvm.dbg.declare (metadata i32* %count.addr, metadata !3818, metadata !2077), !dbg !3809
	store i32 %count.arg, i32* %count.addr, align 4, !tbaa !2085
	call void @llvm.dbg.declare (metadata i32* %count.addr, metadata !3819, metadata !2077), !dbg !3809
	call void @llvm.dbg.declare (metadata i32** %array_of_blocklengths.addr, metadata !3820, metadata !2077), !dbg !3809
	store i32* %array_of_blocklengths.arg, i32** %array_of_blocklengths.addr, align 8, !tbaa !2084
	call void @llvm.dbg.declare (metadata i32** %array_of_blocklengths.addr, metadata !3821, metadata !2077), !dbg !3809
	call void @llvm.dbg.declare (metadata i32** %array_of_displacements.addr, metadata !3822, metadata !2077), !dbg !3809
	store i32* %array_of_displacements.arg, i32** %array_of_displacements.addr, align 8, !tbaa !2084
	call void @llvm.dbg.declare (metadata i32** %array_of_displacements.addr, metadata !3823, metadata !2077), !dbg !3809
	%0 = load i32, i32* %count.addr, align 4, !tbaa !2256, !dbg !3824
	%1 = load i32*, i32** %array_of_blocklengths.addr, align 8, !tbaa !2084, !dbg !3824
	%2 = load i32*, i32** %array_of_displacements.addr, align 8, !tbaa !2084, !dbg !3824
	%3 = load %struct._ZN3MPI8DatatypeE*, %struct._ZN3MPI8DatatypeE** %_T47232496_9656.addr, align 8, !tbaa !2084, !dbg !3824
	%4 = bitcast %struct._ZN3MPI8DatatypeE*  %3 to i8*, !dbg !3824
	%5 = getelementptr i8, i8*  %4, i64 8, !dbg !3824
	%6 = bitcast i8*  %5 to %struct.ompi_datatype_t**, !dbg !3824
	%7 = load %struct.ompi_datatype_t*, %struct.ompi_datatype_t**  %6, align 8, !tbaa !2084, !dbg !3824
	call void @llvm.dbg.declare (metadata %struct.ompi_datatype_t** %newtype.addr, metadata !3825, metadata !2077), !dbg !3809
	%8 = call i32  @MPI_Type_indexed (i32  %0, i32*  %1, i32*  %2, %struct.ompi_datatype_t*  %7, %struct.ompi_datatype_t** %newtype.addr) nounwind, !dbg !3824
	%9 = load %struct._ZN3MPI8DatatypeE*, %struct._ZN3MPI8DatatypeE** %_T47232200_9656.addr, align 8, !tbaa !2084, !dbg !3826
	%10 = bitcast %struct._ZN3MPI8DatatypeE*  %9 to i8*, !dbg !3826
	%11 = bitcast %struct._ZN3MPI8DatatypeE** %..inline.addr to i8**, !dbg !3826
	store i8*  %10, i8**  %11, align 8, !tbaa !2084, !dbg !3826
	%12 = load %struct.ompi_datatype_t*, %struct.ompi_datatype_t** %newtype.addr, align 8, !tbaa !2084, !dbg !3826
	%13 = bitcast %struct.ompi_datatype_t*  %12 to i8*, !dbg !3826
	%14 = bitcast %struct.ompi_datatype_t** %..inline.addr.1 to i8**, !dbg !3826
	store i8*  %13, i8**  %14, align 8, !tbaa !2084, !dbg !3826
	%15 = bitcast [32 x i32 (...)* (...)*]* @_ZTVN3MPI8DatatypeE to i8*, !dbg !3826
	%16 = getelementptr i8, i8*  %15, i64 16, !dbg !3826
	%17 = load %struct._ZN3MPI8DatatypeE*, %struct._ZN3MPI8DatatypeE** %..inline.addr, align 8, !tbaa !2084, !dbg !3826
	%18 = bitcast %struct._ZN3MPI8DatatypeE*  %17 to i8**, !dbg !3826
	store i8*  %16, i8**  %18, align 8, !tbaa !2084, !dbg !3826
	%19 = load %struct.ompi_datatype_t*, %struct.ompi_datatype_t** %..inline.addr.1, align 8, !tbaa !2084, !dbg !3827
	%20 = bitcast %struct.ompi_datatype_t*  %19 to i8*, !dbg !3827
	%21 = bitcast %struct._ZN3MPI8DatatypeE*  %17 to i8*, !dbg !3827
	%22 = getelementptr i8, i8*  %21, i64 8, !dbg !3827
	%23 = bitcast i8*  %22 to i8**, !dbg !3827
	store i8*  %20, i8**  %23, align 8, !tbaa !2084, !dbg !3827
	ret void, !dbg !3828
}
define linkonce_odr void @_ZNK3MPI8Datatype15Create_hindexedEiPKiPKl(%struct._ZN3MPI8DatatypeE* sret %_T47232200_9657.arg, %struct._ZN3MPI8DatatypeE* %_T47232496_9657.arg, i32 signext %count.arg, i32* %array_of_blocklengths.arg, i64* %array_of_displacements.arg) #0 inlinehint !dbg !3830 {
L.entry:
	%_T47232200_9657.addr = alloca %struct._ZN3MPI8DatatypeE*, align 8
	%_T47232496_9657.addr = alloca %struct._ZN3MPI8DatatypeE*, align 8
	%count.addr = alloca i32, align 4
	%array_of_blocklengths.addr = alloca i32*, align 8
	%array_of_displacements.addr = alloca i64*, align 8
	%newtype.addr = alloca %struct.ompi_datatype_t*, align 8
	%..inline.addr = alloca %struct._ZN3MPI8DatatypeE*, align 8
	%..inline.addr.1 = alloca %struct.ompi_datatype_t*, align 8

	store %struct._ZN3MPI8DatatypeE* %_T47232200_9657.arg, %struct._ZN3MPI8DatatypeE** %_T47232200_9657.addr, align 8, !tbaa !2084
	call void @llvm.dbg.declare (metadata %struct._ZN3MPI8DatatypeE** %_T47232496_9657.addr, metadata !3838, metadata !2077), !dbg !3831
	store %struct._ZN3MPI8DatatypeE* %_T47232496_9657.arg, %struct._ZN3MPI8DatatypeE** %_T47232496_9657.addr, align 8, !tbaa !2084
	call void @llvm.dbg.declare (metadata %struct._ZN3MPI8DatatypeE** %_T47232496_9657.addr, metadata !3839, metadata !2077), !dbg !3831
	call void @llvm.dbg.declare (metadata i32* %count.addr, metadata !3840, metadata !2077), !dbg !3831
	store i32 %count.arg, i32* %count.addr, align 4, !tbaa !2085
	call void @llvm.dbg.declare (metadata i32* %count.addr, metadata !3841, metadata !2077), !dbg !3831
	call void @llvm.dbg.declare (metadata i32** %array_of_blocklengths.addr, metadata !3842, metadata !2077), !dbg !3831
	store i32* %array_of_blocklengths.arg, i32** %array_of_blocklengths.addr, align 8, !tbaa !2084
	call void @llvm.dbg.declare (metadata i32** %array_of_blocklengths.addr, metadata !3843, metadata !2077), !dbg !3831
	call void @llvm.dbg.declare (metadata i64** %array_of_displacements.addr, metadata !3844, metadata !2077), !dbg !3831
	store i64* %array_of_displacements.arg, i64** %array_of_displacements.addr, align 8, !tbaa !2084
	call void @llvm.dbg.declare (metadata i64** %array_of_displacements.addr, metadata !3845, metadata !2077), !dbg !3831
	%0 = load i32, i32* %count.addr, align 4, !tbaa !2256, !dbg !3846
	%1 = load i32*, i32** %array_of_blocklengths.addr, align 8, !tbaa !2084, !dbg !3846
	%2 = load i64*, i64** %array_of_displacements.addr, align 8, !tbaa !2084, !dbg !3846
	%3 = load %struct._ZN3MPI8DatatypeE*, %struct._ZN3MPI8DatatypeE** %_T47232496_9657.addr, align 8, !tbaa !2084, !dbg !3846
	%4 = bitcast %struct._ZN3MPI8DatatypeE*  %3 to i8*, !dbg !3846
	%5 = getelementptr i8, i8*  %4, i64 8, !dbg !3846
	%6 = bitcast i8*  %5 to %struct.ompi_datatype_t**, !dbg !3846
	%7 = load %struct.ompi_datatype_t*, %struct.ompi_datatype_t**  %6, align 8, !tbaa !2084, !dbg !3846
	call void @llvm.dbg.declare (metadata %struct.ompi_datatype_t** %newtype.addr, metadata !3847, metadata !2077), !dbg !3831
	%8 = call i32  @MPI_Type_create_hindexed (i32  %0, i32*  %1, i64*  %2, %struct.ompi_datatype_t*  %7, %struct.ompi_datatype_t** %newtype.addr) nounwind, !dbg !3846
	%9 = load %struct._ZN3MPI8DatatypeE*, %struct._ZN3MPI8DatatypeE** %_T47232200_9657.addr, align 8, !tbaa !2084, !dbg !3848
	%10 = bitcast %struct._ZN3MPI8DatatypeE*  %9 to i8*, !dbg !3848
	%11 = bitcast %struct._ZN3MPI8DatatypeE** %..inline.addr to i8**, !dbg !3848
	store i8*  %10, i8**  %11, align 8, !tbaa !2084, !dbg !3848
	%12 = load %struct.ompi_datatype_t*, %struct.ompi_datatype_t** %newtype.addr, align 8, !tbaa !2084, !dbg !3848
	%13 = bitcast %struct.ompi_datatype_t*  %12 to i8*, !dbg !3848
	%14 = bitcast %struct.ompi_datatype_t** %..inline.addr.1 to i8**, !dbg !3848
	store i8*  %13, i8**  %14, align 8, !tbaa !2084, !dbg !3848
	%15 = bitcast [32 x i32 (...)* (...)*]* @_ZTVN3MPI8DatatypeE to i8*, !dbg !3848
	%16 = getelementptr i8, i8*  %15, i64 16, !dbg !3848
	%17 = load %struct._ZN3MPI8DatatypeE*, %struct._ZN3MPI8DatatypeE** %..inline.addr, align 8, !tbaa !2084, !dbg !3848
	%18 = bitcast %struct._ZN3MPI8DatatypeE*  %17 to i8**, !dbg !3848
	store i8*  %16, i8**  %18, align 8, !tbaa !2084, !dbg !3848
	%19 = load %struct.ompi_datatype_t*, %struct.ompi_datatype_t** %..inline.addr.1, align 8, !tbaa !2084, !dbg !3849
	%20 = bitcast %struct.ompi_datatype_t*  %19 to i8*, !dbg !3849
	%21 = bitcast %struct._ZN3MPI8DatatypeE*  %17 to i8*, !dbg !3849
	%22 = getelementptr i8, i8*  %21, i64 8, !dbg !3849
	%23 = bitcast i8*  %22 to i8**, !dbg !3849
	store i8*  %20, i8**  %23, align 8, !tbaa !2084, !dbg !3849
	ret void, !dbg !3850
}
define linkonce_odr void @_ZNK3MPI8Datatype14Create_hvectorEiil(%struct._ZN3MPI8DatatypeE* sret %_T47232200_9659.arg, %struct._ZN3MPI8DatatypeE* %_T47232496_9659.arg, i32 signext %count.arg, i32 signext %blocklength.arg, i64 %stride.arg) #0 inlinehint !dbg !3852 {
L.entry:
	%_T47232200_9659.addr = alloca %struct._ZN3MPI8DatatypeE*, align 8
	%_T47232496_9659.addr = alloca %struct._ZN3MPI8DatatypeE*, align 8
	%count.addr = alloca i32, align 4
	%blocklength.addr = alloca i32, align 4
	%stride.addr = alloca i64, align 8
	%newtype.addr = alloca %struct.ompi_datatype_t*, align 8
	%..inline.addr = alloca %struct._ZN3MPI8DatatypeE*, align 8
	%..inline.addr.1 = alloca %struct.ompi_datatype_t*, align 8

	store %struct._ZN3MPI8DatatypeE* %_T47232200_9659.arg, %struct._ZN3MPI8DatatypeE** %_T47232200_9659.addr, align 8, !tbaa !2084
	call void @llvm.dbg.declare (metadata %struct._ZN3MPI8DatatypeE** %_T47232496_9659.addr, metadata !3860, metadata !2077), !dbg !3853
	store %struct._ZN3MPI8DatatypeE* %_T47232496_9659.arg, %struct._ZN3MPI8DatatypeE** %_T47232496_9659.addr, align 8, !tbaa !2084
	call void @llvm.dbg.declare (metadata %struct._ZN3MPI8DatatypeE** %_T47232496_9659.addr, metadata !3861, metadata !2077), !dbg !3853
	call void @llvm.dbg.declare (metadata i32* %count.addr, metadata !3862, metadata !2077), !dbg !3853
	store i32 %count.arg, i32* %count.addr, align 4, !tbaa !2085
	call void @llvm.dbg.declare (metadata i32* %count.addr, metadata !3863, metadata !2077), !dbg !3853
	call void @llvm.dbg.declare (metadata i32* %blocklength.addr, metadata !3864, metadata !2077), !dbg !3853
	store i32 %blocklength.arg, i32* %blocklength.addr, align 4, !tbaa !2085
	call void @llvm.dbg.declare (metadata i32* %blocklength.addr, metadata !3865, metadata !2077), !dbg !3853
	call void @llvm.dbg.declare (metadata i64* %stride.addr, metadata !3866, metadata !2077), !dbg !3853
	store i64 %stride.arg, i64* %stride.addr, align 8, !tbaa !2085
	call void @llvm.dbg.declare (metadata i64* %stride.addr, metadata !3867, metadata !2077), !dbg !3853
	%0 = load i32, i32* %count.addr, align 4, !tbaa !2256, !dbg !3868
	%1 = load i32, i32* %blocklength.addr, align 4, !tbaa !2256, !dbg !3868
	%2 = load i64, i64* %stride.addr, align 8, !tbaa !2115, !dbg !3868
	%3 = load %struct._ZN3MPI8DatatypeE*, %struct._ZN3MPI8DatatypeE** %_T47232496_9659.addr, align 8, !tbaa !2084, !dbg !3868
	%4 = bitcast %struct._ZN3MPI8DatatypeE*  %3 to i8*, !dbg !3868
	%5 = getelementptr i8, i8*  %4, i64 8, !dbg !3868
	%6 = bitcast i8*  %5 to %struct.ompi_datatype_t**, !dbg !3868
	%7 = load %struct.ompi_datatype_t*, %struct.ompi_datatype_t**  %6, align 8, !tbaa !2084, !dbg !3868
	call void @llvm.dbg.declare (metadata %struct.ompi_datatype_t** %newtype.addr, metadata !3869, metadata !2077), !dbg !3853
	%8 = call i32  @MPI_Type_create_hvector (i32  %0, i32  %1, i64  %2, %struct.ompi_datatype_t*  %7, %struct.ompi_datatype_t** %newtype.addr) nounwind, !dbg !3868
	%9 = load %struct._ZN3MPI8DatatypeE*, %struct._ZN3MPI8DatatypeE** %_T47232200_9659.addr, align 8, !tbaa !2084, !dbg !3870
	%10 = bitcast %struct._ZN3MPI8DatatypeE*  %9 to i8*, !dbg !3870
	%11 = bitcast %struct._ZN3MPI8DatatypeE** %..inline.addr to i8**, !dbg !3870
	store i8*  %10, i8**  %11, align 8, !tbaa !2084, !dbg !3870
	%12 = load %struct.ompi_datatype_t*, %struct.ompi_datatype_t** %newtype.addr, align 8, !tbaa !2084, !dbg !3870
	%13 = bitcast %struct.ompi_datatype_t*  %12 to i8*, !dbg !3870
	%14 = bitcast %struct.ompi_datatype_t** %..inline.addr.1 to i8**, !dbg !3870
	store i8*  %13, i8**  %14, align 8, !tbaa !2084, !dbg !3870
	%15 = bitcast [32 x i32 (...)* (...)*]* @_ZTVN3MPI8DatatypeE to i8*, !dbg !3870
	%16 = getelementptr i8, i8*  %15, i64 16, !dbg !3870
	%17 = load %struct._ZN3MPI8DatatypeE*, %struct._ZN3MPI8DatatypeE** %..inline.addr, align 8, !tbaa !2084, !dbg !3870
	%18 = bitcast %struct._ZN3MPI8DatatypeE*  %17 to i8**, !dbg !3870
	store i8*  %16, i8**  %18, align 8, !tbaa !2084, !dbg !3870
	%19 = load %struct.ompi_datatype_t*, %struct.ompi_datatype_t** %..inline.addr.1, align 8, !tbaa !2084, !dbg !3871
	%20 = bitcast %struct.ompi_datatype_t*  %19 to i8*, !dbg !3871
	%21 = bitcast %struct._ZN3MPI8DatatypeE*  %17 to i8*, !dbg !3871
	%22 = getelementptr i8, i8*  %21, i64 8, !dbg !3871
	%23 = bitcast i8*  %22 to i8**, !dbg !3871
	store i8*  %20, i8**  %23, align 8, !tbaa !2084, !dbg !3871
	ret void, !dbg !3872
}
define linkonce_odr void @_ZNK3MPI8Datatype20Create_indexed_blockEiiPKi(%struct._ZN3MPI8DatatypeE* sret %_T47232200_9660.arg, %struct._ZN3MPI8DatatypeE* %_T47232496_9660.arg, i32 signext %count.arg, i32 signext %blocklength.arg, i32* %array_of_displacements.arg) #0 inlinehint !dbg !3874 {
L.entry:
	%_T47232200_9660.addr = alloca %struct._ZN3MPI8DatatypeE*, align 8
	%_T47232496_9660.addr = alloca %struct._ZN3MPI8DatatypeE*, align 8
	%count.addr = alloca i32, align 4
	%blocklength.addr = alloca i32, align 4
	%array_of_displacements.addr = alloca i32*, align 8
	%newtype.addr = alloca %struct.ompi_datatype_t*, align 8
	%..inline.addr = alloca %struct._ZN3MPI8DatatypeE*, align 8
	%..inline.addr.1 = alloca %struct.ompi_datatype_t*, align 8

	store %struct._ZN3MPI8DatatypeE* %_T47232200_9660.arg, %struct._ZN3MPI8DatatypeE** %_T47232200_9660.addr, align 8, !tbaa !2084
	call void @llvm.dbg.declare (metadata %struct._ZN3MPI8DatatypeE** %_T47232496_9660.addr, metadata !3882, metadata !2077), !dbg !3875
	store %struct._ZN3MPI8DatatypeE* %_T47232496_9660.arg, %struct._ZN3MPI8DatatypeE** %_T47232496_9660.addr, align 8, !tbaa !2084
	call void @llvm.dbg.declare (metadata %struct._ZN3MPI8DatatypeE** %_T47232496_9660.addr, metadata !3883, metadata !2077), !dbg !3875
	call void @llvm.dbg.declare (metadata i32* %count.addr, metadata !3884, metadata !2077), !dbg !3875
	store i32 %count.arg, i32* %count.addr, align 4, !tbaa !2085
	call void @llvm.dbg.declare (metadata i32* %count.addr, metadata !3885, metadata !2077), !dbg !3875
	call void @llvm.dbg.declare (metadata i32* %blocklength.addr, metadata !3886, metadata !2077), !dbg !3875
	store i32 %blocklength.arg, i32* %blocklength.addr, align 4, !tbaa !2085
	call void @llvm.dbg.declare (metadata i32* %blocklength.addr, metadata !3887, metadata !2077), !dbg !3875
	call void @llvm.dbg.declare (metadata i32** %array_of_displacements.addr, metadata !3888, metadata !2077), !dbg !3875
	store i32* %array_of_displacements.arg, i32** %array_of_displacements.addr, align 8, !tbaa !2084
	call void @llvm.dbg.declare (metadata i32** %array_of_displacements.addr, metadata !3889, metadata !2077), !dbg !3875
	%0 = load i32, i32* %count.addr, align 4, !tbaa !2256, !dbg !3890
	%1 = load i32, i32* %blocklength.addr, align 4, !tbaa !2256, !dbg !3890
	%2 = load i32*, i32** %array_of_displacements.addr, align 8, !tbaa !2084, !dbg !3890
	%3 = load %struct._ZN3MPI8DatatypeE*, %struct._ZN3MPI8DatatypeE** %_T47232496_9660.addr, align 8, !tbaa !2084, !dbg !3890
	%4 = bitcast %struct._ZN3MPI8DatatypeE*  %3 to i8*, !dbg !3890
	%5 = getelementptr i8, i8*  %4, i64 8, !dbg !3890
	%6 = bitcast i8*  %5 to %struct.ompi_datatype_t**, !dbg !3890
	%7 = load %struct.ompi_datatype_t*, %struct.ompi_datatype_t**  %6, align 8, !tbaa !2084, !dbg !3890
	call void @llvm.dbg.declare (metadata %struct.ompi_datatype_t** %newtype.addr, metadata !3891, metadata !2077), !dbg !3875
	%8 = call i32  @MPI_Type_create_indexed_block (i32  %0, i32  %1, i32*  %2, %struct.ompi_datatype_t*  %7, %struct.ompi_datatype_t** %newtype.addr) nounwind, !dbg !3890
	%9 = load %struct._ZN3MPI8DatatypeE*, %struct._ZN3MPI8DatatypeE** %_T47232200_9660.addr, align 8, !tbaa !2084, !dbg !3892
	%10 = bitcast %struct._ZN3MPI8DatatypeE*  %9 to i8*, !dbg !3892
	%11 = bitcast %struct._ZN3MPI8DatatypeE** %..inline.addr to i8**, !dbg !3892
	store i8*  %10, i8**  %11, align 8, !tbaa !2084, !dbg !3892
	%12 = load %struct.ompi_datatype_t*, %struct.ompi_datatype_t** %newtype.addr, align 8, !tbaa !2084, !dbg !3892
	%13 = bitcast %struct.ompi_datatype_t*  %12 to i8*, !dbg !3892
	%14 = bitcast %struct.ompi_datatype_t** %..inline.addr.1 to i8**, !dbg !3892
	store i8*  %13, i8**  %14, align 8, !tbaa !2084, !dbg !3892
	%15 = bitcast [32 x i32 (...)* (...)*]* @_ZTVN3MPI8DatatypeE to i8*, !dbg !3892
	%16 = getelementptr i8, i8*  %15, i64 16, !dbg !3892
	%17 = load %struct._ZN3MPI8DatatypeE*, %struct._ZN3MPI8DatatypeE** %..inline.addr, align 8, !tbaa !2084, !dbg !3892
	%18 = bitcast %struct._ZN3MPI8DatatypeE*  %17 to i8**, !dbg !3892
	store i8*  %16, i8**  %18, align 8, !tbaa !2084, !dbg !3892
	%19 = load %struct.ompi_datatype_t*, %struct.ompi_datatype_t** %..inline.addr.1, align 8, !tbaa !2084, !dbg !3893
	%20 = bitcast %struct.ompi_datatype_t*  %19 to i8*, !dbg !3893
	%21 = bitcast %struct._ZN3MPI8DatatypeE*  %17 to i8*, !dbg !3893
	%22 = getelementptr i8, i8*  %21, i64 8, !dbg !3893
	%23 = bitcast i8*  %22 to i8**, !dbg !3893
	store i8*  %20, i8**  %23, align 8, !tbaa !2084, !dbg !3893
	ret void, !dbg !3894
}
define linkonce_odr void @_ZNK3MPI8Datatype14Create_resizedEll(%struct._ZN3MPI8DatatypeE* sret %_T47232200_9663.arg, %struct._ZN3MPI8DatatypeE* %_T47232496_9663.arg, i64 %lb.arg, i64 %extent.arg) #0 inlinehint !dbg !3896 {
L.entry:
	%_T47232200_9663.addr = alloca %struct._ZN3MPI8DatatypeE*, align 8
	%_T47232496_9663.addr = alloca %struct._ZN3MPI8DatatypeE*, align 8
	%lb.addr = alloca i64, align 8
	%extent.addr = alloca i64, align 8
	%newtype.addr = alloca %struct.ompi_datatype_t*, align 8
	%..inline.addr = alloca %struct._ZN3MPI8DatatypeE*, align 8
	%..inline.addr.1 = alloca %struct.ompi_datatype_t*, align 8

	store %struct._ZN3MPI8DatatypeE* %_T47232200_9663.arg, %struct._ZN3MPI8DatatypeE** %_T47232200_9663.addr, align 8, !tbaa !2084
	call void @llvm.dbg.declare (metadata %struct._ZN3MPI8DatatypeE** %_T47232496_9663.addr, metadata !3904, metadata !2077), !dbg !3897
	store %struct._ZN3MPI8DatatypeE* %_T47232496_9663.arg, %struct._ZN3MPI8DatatypeE** %_T47232496_9663.addr, align 8, !tbaa !2084
	call void @llvm.dbg.declare (metadata %struct._ZN3MPI8DatatypeE** %_T47232496_9663.addr, metadata !3905, metadata !2077), !dbg !3897
	call void @llvm.dbg.declare (metadata i64* %lb.addr, metadata !3906, metadata !2077), !dbg !3897
	store i64 %lb.arg, i64* %lb.addr, align 8, !tbaa !2085
	call void @llvm.dbg.declare (metadata i64* %lb.addr, metadata !3907, metadata !2077), !dbg !3897
	call void @llvm.dbg.declare (metadata i64* %extent.addr, metadata !3908, metadata !2077), !dbg !3897
	store i64 %extent.arg, i64* %extent.addr, align 8, !tbaa !2085
	call void @llvm.dbg.declare (metadata i64* %extent.addr, metadata !3909, metadata !2077), !dbg !3897
	%0 = load %struct._ZN3MPI8DatatypeE*, %struct._ZN3MPI8DatatypeE** %_T47232496_9663.addr, align 8, !tbaa !2084, !dbg !3910
	%1 = bitcast %struct._ZN3MPI8DatatypeE*  %0 to i8*, !dbg !3910
	%2 = getelementptr i8, i8*  %1, i64 8, !dbg !3910
	%3 = bitcast i8*  %2 to %struct.ompi_datatype_t**, !dbg !3910
	%4 = load %struct.ompi_datatype_t*, %struct.ompi_datatype_t**  %3, align 8, !tbaa !2084, !dbg !3910
	%5 = load i64, i64* %lb.addr, align 8, !tbaa !2115, !dbg !3910
	%6 = load i64, i64* %extent.addr, align 8, !tbaa !2115, !dbg !3910
	call void @llvm.dbg.declare (metadata %struct.ompi_datatype_t** %newtype.addr, metadata !3911, metadata !2077), !dbg !3897
	%7 = call i32  @MPI_Type_create_resized (%struct.ompi_datatype_t*  %4, i64  %5, i64  %6, %struct.ompi_datatype_t** %newtype.addr) nounwind, !dbg !3910
	%8 = load %struct._ZN3MPI8DatatypeE*, %struct._ZN3MPI8DatatypeE** %_T47232200_9663.addr, align 8, !tbaa !2084, !dbg !3912
	%9 = bitcast %struct._ZN3MPI8DatatypeE*  %8 to i8*, !dbg !3912
	%10 = bitcast %struct._ZN3MPI8DatatypeE** %..inline.addr to i8**, !dbg !3912
	store i8*  %9, i8**  %10, align 8, !tbaa !2084, !dbg !3912
	%11 = load %struct.ompi_datatype_t*, %struct.ompi_datatype_t** %newtype.addr, align 8, !tbaa !2084, !dbg !3912
	%12 = bitcast %struct.ompi_datatype_t*  %11 to i8*, !dbg !3912
	%13 = bitcast %struct.ompi_datatype_t** %..inline.addr.1 to i8**, !dbg !3912
	store i8*  %12, i8**  %13, align 8, !tbaa !2084, !dbg !3912
	%14 = bitcast [32 x i32 (...)* (...)*]* @_ZTVN3MPI8DatatypeE to i8*, !dbg !3912
	%15 = getelementptr i8, i8*  %14, i64 16, !dbg !3912
	%16 = load %struct._ZN3MPI8DatatypeE*, %struct._ZN3MPI8DatatypeE** %..inline.addr, align 8, !tbaa !2084, !dbg !3912
	%17 = bitcast %struct._ZN3MPI8DatatypeE*  %16 to i8**, !dbg !3912
	store i8*  %15, i8**  %17, align 8, !tbaa !2084, !dbg !3912
	%18 = load %struct.ompi_datatype_t*, %struct.ompi_datatype_t** %..inline.addr.1, align 8, !tbaa !2084, !dbg !3913
	%19 = bitcast %struct.ompi_datatype_t*  %18 to i8*, !dbg !3913
	%20 = bitcast %struct._ZN3MPI8DatatypeE*  %16 to i8*, !dbg !3913
	%21 = getelementptr i8, i8*  %20, i64 8, !dbg !3913
	%22 = bitcast i8*  %21 to i8**, !dbg !3913
	store i8*  %19, i8**  %22, align 8, !tbaa !2084, !dbg !3913
	ret void, !dbg !3914
}
define linkonce_odr signext i32 @_ZNK3MPI8Datatype8Get_sizeEv(%struct._ZN3MPI8DatatypeE* %_T47232200_9664.arg) #0 inlinehint !dbg !3916 {
L.entry:
	%_T47232200_9664.addr = alloca %struct._ZN3MPI8DatatypeE*, align 8
	%size.addr = alloca i32, align 4

	call void @llvm.dbg.declare (metadata %struct._ZN3MPI8DatatypeE** %_T47232200_9664.addr, metadata !3920, metadata !2077), !dbg !3917
	store %struct._ZN3MPI8DatatypeE* %_T47232200_9664.arg, %struct._ZN3MPI8DatatypeE** %_T47232200_9664.addr, align 8, !tbaa !2084
	call void @llvm.dbg.declare (metadata %struct._ZN3MPI8DatatypeE** %_T47232200_9664.addr, metadata !3921, metadata !2077), !dbg !3917
	%0 = load %struct._ZN3MPI8DatatypeE*, %struct._ZN3MPI8DatatypeE** %_T47232200_9664.addr, align 8, !tbaa !2084, !dbg !3922
	%1 = bitcast %struct._ZN3MPI8DatatypeE*  %0 to i8*, !dbg !3922
	%2 = getelementptr i8, i8*  %1, i64 8, !dbg !3922
	%3 = bitcast i8*  %2 to %struct.ompi_datatype_t**, !dbg !3922
	%4 = load %struct.ompi_datatype_t*, %struct.ompi_datatype_t**  %3, align 8, !tbaa !2084, !dbg !3922
	call void @llvm.dbg.declare (metadata i32* %size.addr, metadata !3923, metadata !2077), !dbg !3917
	%5 = call i32  @MPI_Type_size (%struct.ompi_datatype_t*  %4, i32* %size.addr) nounwind, !dbg !3922
	%6 = load i32, i32* %size.addr, align 4, !tbaa !2256, !dbg !3924
	ret i32  %6, !dbg !3924
}
define linkonce_odr void @_ZNK3MPI8Datatype10Get_extentERlS1_(%struct._ZN3MPI8DatatypeE* %_T47232200_9665.arg, i64* %lb.arg, i64* %extent.arg) #0 inlinehint !dbg !3927 {
L.entry:
	%_T47232200_9665.addr = alloca %struct._ZN3MPI8DatatypeE*, align 8
	%lb.addr = alloca i64*, align 8
	%extent.addr = alloca i64*, align 8

	call void @llvm.dbg.declare (metadata %struct._ZN3MPI8DatatypeE** %_T47232200_9665.addr, metadata !3931, metadata !2077), !dbg !3928
	store %struct._ZN3MPI8DatatypeE* %_T47232200_9665.arg, %struct._ZN3MPI8DatatypeE** %_T47232200_9665.addr, align 8, !tbaa !2084
	call void @llvm.dbg.declare (metadata %struct._ZN3MPI8DatatypeE** %_T47232200_9665.addr, metadata !3932, metadata !2077), !dbg !3928
	call void @llvm.dbg.declare (metadata i64** %lb.addr, metadata !3933, metadata !2077), !dbg !3928
	store i64* %lb.arg, i64** %lb.addr, align 8, !tbaa !2084
	call void @llvm.dbg.declare (metadata i64** %lb.addr, metadata !3934, metadata !2077), !dbg !3928
	call void @llvm.dbg.declare (metadata i64** %extent.addr, metadata !3935, metadata !2077), !dbg !3928
	store i64* %extent.arg, i64** %extent.addr, align 8, !tbaa !2084
	call void @llvm.dbg.declare (metadata i64** %extent.addr, metadata !3936, metadata !2077), !dbg !3928
	%0 = load %struct._ZN3MPI8DatatypeE*, %struct._ZN3MPI8DatatypeE** %_T47232200_9665.addr, align 8, !tbaa !2084, !dbg !3937
	%1 = bitcast %struct._ZN3MPI8DatatypeE*  %0 to i8*, !dbg !3937
	%2 = getelementptr i8, i8*  %1, i64 8, !dbg !3937
	%3 = bitcast i8*  %2 to %struct.ompi_datatype_t**, !dbg !3937
	%4 = load %struct.ompi_datatype_t*, %struct.ompi_datatype_t**  %3, align 8, !tbaa !2084, !dbg !3937
	%5 = load i64*, i64** %lb.addr, align 8, !tbaa !2084, !dbg !3937
	%6 = load i64*, i64** %extent.addr, align 8, !tbaa !2084, !dbg !3937
	%7 = call i32  @MPI_Type_get_extent (%struct.ompi_datatype_t*  %4, i64*  %5, i64*  %6) nounwind, !dbg !3937
	ret void, !dbg !3938
}
define linkonce_odr void @_ZNK3MPI8Datatype15Get_true_extentERlS1_(%struct._ZN3MPI8DatatypeE* %_T47232200_9666.arg, i64* %lb.arg, i64* %extent.arg) #0 inlinehint !dbg !3940 {
L.entry:
	%_T47232200_9666.addr = alloca %struct._ZN3MPI8DatatypeE*, align 8
	%lb.addr = alloca i64*, align 8
	%extent.addr = alloca i64*, align 8

	call void @llvm.dbg.declare (metadata %struct._ZN3MPI8DatatypeE** %_T47232200_9666.addr, metadata !3944, metadata !2077), !dbg !3941
	store %struct._ZN3MPI8DatatypeE* %_T47232200_9666.arg, %struct._ZN3MPI8DatatypeE** %_T47232200_9666.addr, align 8, !tbaa !2084
	call void @llvm.dbg.declare (metadata %struct._ZN3MPI8DatatypeE** %_T47232200_9666.addr, metadata !3945, metadata !2077), !dbg !3941
	call void @llvm.dbg.declare (metadata i64** %lb.addr, metadata !3946, metadata !2077), !dbg !3941
	store i64* %lb.arg, i64** %lb.addr, align 8, !tbaa !2084
	call void @llvm.dbg.declare (metadata i64** %lb.addr, metadata !3947, metadata !2077), !dbg !3941
	call void @llvm.dbg.declare (metadata i64** %extent.addr, metadata !3948, metadata !2077), !dbg !3941
	store i64* %extent.arg, i64** %extent.addr, align 8, !tbaa !2084
	call void @llvm.dbg.declare (metadata i64** %extent.addr, metadata !3949, metadata !2077), !dbg !3941
	%0 = load %struct._ZN3MPI8DatatypeE*, %struct._ZN3MPI8DatatypeE** %_T47232200_9666.addr, align 8, !tbaa !2084, !dbg !3950
	%1 = bitcast %struct._ZN3MPI8DatatypeE*  %0 to i8*, !dbg !3950
	%2 = getelementptr i8, i8*  %1, i64 8, !dbg !3950
	%3 = bitcast i8*  %2 to %struct.ompi_datatype_t**, !dbg !3950
	%4 = load %struct.ompi_datatype_t*, %struct.ompi_datatype_t**  %3, align 8, !tbaa !2084, !dbg !3950
	%5 = load i64*, i64** %lb.addr, align 8, !tbaa !2084, !dbg !3950
	%6 = load i64*, i64** %extent.addr, align 8, !tbaa !2084, !dbg !3950
	%7 = call i32  @MPI_Type_get_true_extent (%struct.ompi_datatype_t*  %4, i64*  %5, i64*  %6) nounwind, !dbg !3950
	ret void, !dbg !3951
}
define linkonce_odr void @_ZN3MPI8Datatype6CommitEv(%struct._ZN3MPI8DatatypeE* %_T47232200_9667.arg) #0 inlinehint !dbg !3953 {
L.entry:
	%_T47232200_9667.addr = alloca %struct._ZN3MPI8DatatypeE*, align 8

	call void @llvm.dbg.declare (metadata %struct._ZN3MPI8DatatypeE** %_T47232200_9667.addr, metadata !3957, metadata !2077), !dbg !3954
	store %struct._ZN3MPI8DatatypeE* %_T47232200_9667.arg, %struct._ZN3MPI8DatatypeE** %_T47232200_9667.addr, align 8, !tbaa !2084
	call void @llvm.dbg.declare (metadata %struct._ZN3MPI8DatatypeE** %_T47232200_9667.addr, metadata !3958, metadata !2077), !dbg !3954
	%0 = load %struct._ZN3MPI8DatatypeE*, %struct._ZN3MPI8DatatypeE** %_T47232200_9667.addr, align 8, !tbaa !2084, !dbg !3959
	%1 = bitcast %struct._ZN3MPI8DatatypeE*  %0 to i8*, !dbg !3959
	%2 = getelementptr i8, i8*  %1, i64 8, !dbg !3959
	%3 = bitcast i8*  %2 to %struct.ompi_datatype_t**, !dbg !3959
	%4 = call i32  @MPI_Type_commit (%struct.ompi_datatype_t**  %3) nounwind, !dbg !3959
	ret void, !dbg !3960
}

%struct.ompi_communicator_t = type opaque
%struct._ZN3MPI9Comm_NullE = type <{ i32 (...)* (...)*, %struct.ompi_communicator_t*}> 
%struct._ZN3MPI4CommE = type <{ %struct._ZN3MPI9Comm_NullE}> 

define linkonce_odr void @_ZNK3MPI8Datatype4PackEPKviPviRiRKNS_4CommE(%struct._ZN3MPI8DatatypeE* %_T47232200_9669.arg, i8* %inbuf.arg, i32 signext %incount.arg, i8* %outbuf.arg, i32 signext %outsize.arg, i32* %position.arg, %struct._ZN3MPI4CommE* %comm.arg) #0 inlinehint !dbg !3962 {
L.entry:
	%_T47232200_9669.addr = alloca %struct._ZN3MPI8DatatypeE*, align 8
	%inbuf.addr = alloca i8*, align 8
	%incount.addr = alloca i32, align 4
	%outbuf.addr = alloca i8*, align 8
	%outsize.addr = alloca i32, align 4
	%position.addr = alloca i32*, align 8
	%comm.addr = alloca %struct._ZN3MPI4CommE*, align 8
	%..inline.addr = alloca %struct._ZN3MPI9Comm_NullE*, align 8

	call void @llvm.dbg.declare (metadata %struct._ZN3MPI8DatatypeE** %_T47232200_9669.addr, metadata !3970, metadata !2077), !dbg !3963
	store %struct._ZN3MPI8DatatypeE* %_T47232200_9669.arg, %struct._ZN3MPI8DatatypeE** %_T47232200_9669.addr, align 8, !tbaa !2084
	call void @llvm.dbg.declare (metadata %struct._ZN3MPI8DatatypeE** %_T47232200_9669.addr, metadata !3971, metadata !2077), !dbg !3963
	call void @llvm.dbg.declare (metadata i8** %inbuf.addr, metadata !3972, metadata !2077), !dbg !3963
	store i8* %inbuf.arg, i8** %inbuf.addr, align 8, !tbaa !2084
	call void @llvm.dbg.declare (metadata i8** %inbuf.addr, metadata !3973, metadata !2077), !dbg !3963
	call void @llvm.dbg.declare (metadata i32* %incount.addr, metadata !3974, metadata !2077), !dbg !3963
	store i32 %incount.arg, i32* %incount.addr, align 4, !tbaa !2085
	call void @llvm.dbg.declare (metadata i32* %incount.addr, metadata !3975, metadata !2077), !dbg !3963
	call void @llvm.dbg.declare (metadata i8** %outbuf.addr, metadata !3976, metadata !2077), !dbg !3963
	store i8* %outbuf.arg, i8** %outbuf.addr, align 8, !tbaa !2084
	call void @llvm.dbg.declare (metadata i8** %outbuf.addr, metadata !3977, metadata !2077), !dbg !3963
	call void @llvm.dbg.declare (metadata i32* %outsize.addr, metadata !3978, metadata !2077), !dbg !3963
	store i32 %outsize.arg, i32* %outsize.addr, align 4, !tbaa !2085
	call void @llvm.dbg.declare (metadata i32* %outsize.addr, metadata !3979, metadata !2077), !dbg !3963
	call void @llvm.dbg.declare (metadata i32** %position.addr, metadata !3980, metadata !2077), !dbg !3963
	store i32* %position.arg, i32** %position.addr, align 8, !tbaa !2084
	call void @llvm.dbg.declare (metadata i32** %position.addr, metadata !3981, metadata !2077), !dbg !3963
	call void @llvm.dbg.declare (metadata %struct._ZN3MPI4CommE** %comm.addr, metadata !3982, metadata !2077), !dbg !3963
	store %struct._ZN3MPI4CommE* %comm.arg, %struct._ZN3MPI4CommE** %comm.addr, align 8, !tbaa !2084
	call void @llvm.dbg.declare (metadata %struct._ZN3MPI4CommE** %comm.addr, metadata !3983, metadata !2077), !dbg !3963
	%0 = load %struct._ZN3MPI4CommE*, %struct._ZN3MPI4CommE** %comm.addr, align 8, !tbaa !2084, !dbg !3984
	%1 = bitcast %struct._ZN3MPI4CommE*  %0 to i8*, !dbg !3984
	%2 = bitcast %struct._ZN3MPI9Comm_NullE** %..inline.addr to i8**, !dbg !3984
	store i8*  %1, i8**  %2, align 8, !tbaa !2084, !dbg !3984
	%3 = load i8*, i8** %inbuf.addr, align 8, !tbaa !2084, !dbg !3985
	%4 = load i32, i32* %incount.addr, align 4, !tbaa !2256, !dbg !3985
	%5 = load %struct._ZN3MPI8DatatypeE*, %struct._ZN3MPI8DatatypeE** %_T47232200_9669.addr, align 8, !tbaa !2084, !dbg !3985
	%6 = bitcast %struct._ZN3MPI8DatatypeE*  %5 to i8*, !dbg !3985
	%7 = getelementptr i8, i8*  %6, i64 8, !dbg !3985
	%8 = bitcast i8*  %7 to %struct.ompi_datatype_t**, !dbg !3985
	%9 = load %struct.ompi_datatype_t*, %struct.ompi_datatype_t**  %8, align 8, !tbaa !2084, !dbg !3985
	%10 = load i8*, i8** %outbuf.addr, align 8, !tbaa !2084, !dbg !3985
	%11 = load i32, i32* %outsize.addr, align 4, !tbaa !2256, !dbg !3985
	%12 = load i32*, i32** %position.addr, align 8, !tbaa !2084, !dbg !3985
	%13 = load %struct._ZN3MPI9Comm_NullE*, %struct._ZN3MPI9Comm_NullE** %..inline.addr, align 8, !tbaa !2084, !dbg !3985
	%14 = bitcast %struct._ZN3MPI9Comm_NullE*  %13 to i8*, !dbg !3985
	%15 = getelementptr i8, i8*  %14, i64 8, !dbg !3985
	%16 = bitcast i8*  %15 to %struct.ompi_communicator_t**, !dbg !3985
	%17 = load %struct.ompi_communicator_t*, %struct.ompi_communicator_t**  %16, align 8, !tbaa !2084, !dbg !3985
	%18 = call i32  @MPI_Pack (i8*  %3, i32  %4, %struct.ompi_datatype_t*  %9, i8*  %10, i32  %11, i32*  %12, %struct.ompi_communicator_t*  %17) nounwind, !dbg !3985
	ret void, !dbg !3986
}
define linkonce_odr void @_ZNK3MPI8Datatype6UnpackEPKviPviRiRKNS_4CommE(%struct._ZN3MPI8DatatypeE* %_T47232200_9670.arg, i8* %inbuf.arg, i32 signext %insize.arg, i8* %outbuf.arg, i32 signext %outcount.arg, i32* %position.arg, %struct._ZN3MPI4CommE* %comm.arg) #0 inlinehint !dbg !3988 {
L.entry:
	%_T47232200_9670.addr = alloca %struct._ZN3MPI8DatatypeE*, align 8
	%inbuf.addr = alloca i8*, align 8
	%insize.addr = alloca i32, align 4
	%outbuf.addr = alloca i8*, align 8
	%outcount.addr = alloca i32, align 4
	%position.addr = alloca i32*, align 8
	%comm.addr = alloca %struct._ZN3MPI4CommE*, align 8
	%..inline.addr = alloca %struct._ZN3MPI9Comm_NullE*, align 8

	call void @llvm.dbg.declare (metadata %struct._ZN3MPI8DatatypeE** %_T47232200_9670.addr, metadata !3996, metadata !2077), !dbg !3989
	store %struct._ZN3MPI8DatatypeE* %_T47232200_9670.arg, %struct._ZN3MPI8DatatypeE** %_T47232200_9670.addr, align 8, !tbaa !2084
	call void @llvm.dbg.declare (metadata %struct._ZN3MPI8DatatypeE** %_T47232200_9670.addr, metadata !3997, metadata !2077), !dbg !3989
	call void @llvm.dbg.declare (metadata i8** %inbuf.addr, metadata !3998, metadata !2077), !dbg !3989
	store i8* %inbuf.arg, i8** %inbuf.addr, align 8, !tbaa !2084
	call void @llvm.dbg.declare (metadata i8** %inbuf.addr, metadata !3999, metadata !2077), !dbg !3989
	call void @llvm.dbg.declare (metadata i32* %insize.addr, metadata !4000, metadata !2077), !dbg !3989
	store i32 %insize.arg, i32* %insize.addr, align 4, !tbaa !2085
	call void @llvm.dbg.declare (metadata i32* %insize.addr, metadata !4001, metadata !2077), !dbg !3989
	call void @llvm.dbg.declare (metadata i8** %outbuf.addr, metadata !4002, metadata !2077), !dbg !3989
	store i8* %outbuf.arg, i8** %outbuf.addr, align 8, !tbaa !2084
	call void @llvm.dbg.declare (metadata i8** %outbuf.addr, metadata !4003, metadata !2077), !dbg !3989
	call void @llvm.dbg.declare (metadata i32* %outcount.addr, metadata !4004, metadata !2077), !dbg !3989
	store i32 %outcount.arg, i32* %outcount.addr, align 4, !tbaa !2085
	call void @llvm.dbg.declare (metadata i32* %outcount.addr, metadata !4005, metadata !2077), !dbg !3989
	call void @llvm.dbg.declare (metadata i32** %position.addr, metadata !4006, metadata !2077), !dbg !3989
	store i32* %position.arg, i32** %position.addr, align 8, !tbaa !2084
	call void @llvm.dbg.declare (metadata i32** %position.addr, metadata !4007, metadata !2077), !dbg !3989
	call void @llvm.dbg.declare (metadata %struct._ZN3MPI4CommE** %comm.addr, metadata !4008, metadata !2077), !dbg !3989
	store %struct._ZN3MPI4CommE* %comm.arg, %struct._ZN3MPI4CommE** %comm.addr, align 8, !tbaa !2084
	call void @llvm.dbg.declare (metadata %struct._ZN3MPI4CommE** %comm.addr, metadata !4009, metadata !2077), !dbg !3989
	%0 = load %struct._ZN3MPI4CommE*, %struct._ZN3MPI4CommE** %comm.addr, align 8, !tbaa !2084, !dbg !4010
	%1 = bitcast %struct._ZN3MPI4CommE*  %0 to i8*, !dbg !4010
	%2 = bitcast %struct._ZN3MPI9Comm_NullE** %..inline.addr to i8**, !dbg !4010
	store i8*  %1, i8**  %2, align 8, !tbaa !2084, !dbg !4010
	%3 = load i8*, i8** %inbuf.addr, align 8, !tbaa !2084, !dbg !4011
	%4 = load i32, i32* %insize.addr, align 4, !tbaa !2256, !dbg !4011
	%5 = load i32*, i32** %position.addr, align 8, !tbaa !2084, !dbg !4011
	%6 = load i8*, i8** %outbuf.addr, align 8, !tbaa !2084, !dbg !4011
	%7 = load i32, i32* %outcount.addr, align 4, !tbaa !2256, !dbg !4011
	%8 = load %struct._ZN3MPI8DatatypeE*, %struct._ZN3MPI8DatatypeE** %_T47232200_9670.addr, align 8, !tbaa !2084, !dbg !4011
	%9 = bitcast %struct._ZN3MPI8DatatypeE*  %8 to i8*, !dbg !4011
	%10 = getelementptr i8, i8*  %9, i64 8, !dbg !4011
	%11 = bitcast i8*  %10 to %struct.ompi_datatype_t**, !dbg !4011
	%12 = load %struct.ompi_datatype_t*, %struct.ompi_datatype_t**  %11, align 8, !tbaa !2084, !dbg !4011
	%13 = load %struct._ZN3MPI9Comm_NullE*, %struct._ZN3MPI9Comm_NullE** %..inline.addr, align 8, !tbaa !2084, !dbg !4011
	%14 = bitcast %struct._ZN3MPI9Comm_NullE*  %13 to i8*, !dbg !4011
	%15 = getelementptr i8, i8*  %14, i64 8, !dbg !4011
	%16 = bitcast i8*  %15 to %struct.ompi_communicator_t**, !dbg !4011
	%17 = load %struct.ompi_communicator_t*, %struct.ompi_communicator_t**  %16, align 8, !tbaa !2084, !dbg !4011
	%18 = call i32  @MPI_Unpack (i8*  %3, i32  %4, i32*  %5, i8*  %6, i32  %7, %struct.ompi_datatype_t*  %12, %struct.ompi_communicator_t*  %17) nounwind, !dbg !4011
	ret void, !dbg !4012
}
define linkonce_odr signext i32 @_ZNK3MPI8Datatype9Pack_sizeEiRKNS_4CommE(%struct._ZN3MPI8DatatypeE* %_T47232200_9671.arg, i32 signext %incount.arg, %struct._ZN3MPI4CommE* %comm.arg) #0 inlinehint !dbg !4014 {
L.entry:
	%_T47232200_9671.addr = alloca %struct._ZN3MPI8DatatypeE*, align 8
	%incount.addr = alloca i32, align 4
	%comm.addr = alloca %struct._ZN3MPI4CommE*, align 8
	%..inline.addr = alloca %struct._ZN3MPI9Comm_NullE*, align 8
	%size.addr = alloca i32, align 4

	call void @llvm.dbg.declare (metadata %struct._ZN3MPI8DatatypeE** %_T47232200_9671.addr, metadata !4022, metadata !2077), !dbg !4015
	store %struct._ZN3MPI8DatatypeE* %_T47232200_9671.arg, %struct._ZN3MPI8DatatypeE** %_T47232200_9671.addr, align 8, !tbaa !2084
	call void @llvm.dbg.declare (metadata %struct._ZN3MPI8DatatypeE** %_T47232200_9671.addr, metadata !4023, metadata !2077), !dbg !4015
	call void @llvm.dbg.declare (metadata i32* %incount.addr, metadata !4024, metadata !2077), !dbg !4015
	store i32 %incount.arg, i32* %incount.addr, align 4, !tbaa !2085
	call void @llvm.dbg.declare (metadata i32* %incount.addr, metadata !4025, metadata !2077), !dbg !4015
	call void @llvm.dbg.declare (metadata %struct._ZN3MPI4CommE** %comm.addr, metadata !4026, metadata !2077), !dbg !4015
	store %struct._ZN3MPI4CommE* %comm.arg, %struct._ZN3MPI4CommE** %comm.addr, align 8, !tbaa !2084
	call void @llvm.dbg.declare (metadata %struct._ZN3MPI4CommE** %comm.addr, metadata !4027, metadata !2077), !dbg !4015
	%0 = load %struct._ZN3MPI4CommE*, %struct._ZN3MPI4CommE** %comm.addr, align 8, !tbaa !2084, !dbg !4028
	%1 = bitcast %struct._ZN3MPI4CommE*  %0 to i8*, !dbg !4028
	%2 = bitcast %struct._ZN3MPI9Comm_NullE** %..inline.addr to i8**, !dbg !4028
	store i8*  %1, i8**  %2, align 8, !tbaa !2084, !dbg !4028
	%3 = load i32, i32* %incount.addr, align 4, !tbaa !2256, !dbg !4029
	%4 = load %struct._ZN3MPI8DatatypeE*, %struct._ZN3MPI8DatatypeE** %_T47232200_9671.addr, align 8, !tbaa !2084, !dbg !4029
	%5 = bitcast %struct._ZN3MPI8DatatypeE*  %4 to i8*, !dbg !4029
	%6 = getelementptr i8, i8*  %5, i64 8, !dbg !4029
	%7 = bitcast i8*  %6 to %struct.ompi_datatype_t**, !dbg !4029
	%8 = load %struct.ompi_datatype_t*, %struct.ompi_datatype_t**  %7, align 8, !tbaa !2084, !dbg !4029
	%9 = load %struct._ZN3MPI9Comm_NullE*, %struct._ZN3MPI9Comm_NullE** %..inline.addr, align 8, !tbaa !2084, !dbg !4029
	%10 = bitcast %struct._ZN3MPI9Comm_NullE*  %9 to i8*, !dbg !4029
	%11 = getelementptr i8, i8*  %10, i64 8, !dbg !4029
	%12 = bitcast i8*  %11 to %struct.ompi_communicator_t**, !dbg !4029
	%13 = load %struct.ompi_communicator_t*, %struct.ompi_communicator_t**  %12, align 8, !tbaa !2084, !dbg !4029
	call void @llvm.dbg.declare (metadata i32* %size.addr, metadata !4030, metadata !2077), !dbg !4015
	%14 = call i32  @MPI_Pack_size (i32  %3, %struct.ompi_datatype_t*  %8, %struct.ompi_communicator_t*  %13, i32* %size.addr) nounwind, !dbg !4029
	%15 = load i32, i32* %size.addr, align 4, !tbaa !2256, !dbg !4031
	ret i32  %15, !dbg !4031
}
define linkonce_odr void @_ZNK3MPI8Datatype13Pack_externalEPKcPKviPvlRl(%struct._ZN3MPI8DatatypeE* %_T47232200_9673.arg, i8* %datarep.arg, i8* %inbuf.arg, i32 signext %incount.arg, i8* %outbuf.arg, i64 %outsize.arg, i64* %position.arg) #0 inlinehint !dbg !4034 {
L.entry:
	%_T47232200_9673.addr = alloca %struct._ZN3MPI8DatatypeE*, align 8
	%datarep.addr = alloca i8*, align 8
	%inbuf.addr = alloca i8*, align 8
	%incount.addr = alloca i32, align 4
	%outbuf.addr = alloca i8*, align 8
	%outsize.addr = alloca i64, align 8
	%position.addr = alloca i64*, align 8

	call void @llvm.dbg.declare (metadata %struct._ZN3MPI8DatatypeE** %_T47232200_9673.addr, metadata !4038, metadata !2077), !dbg !4035
	store %struct._ZN3MPI8DatatypeE* %_T47232200_9673.arg, %struct._ZN3MPI8DatatypeE** %_T47232200_9673.addr, align 8, !tbaa !2084
	call void @llvm.dbg.declare (metadata %struct._ZN3MPI8DatatypeE** %_T47232200_9673.addr, metadata !4039, metadata !2077), !dbg !4035
	call void @llvm.dbg.declare (metadata i8** %datarep.addr, metadata !4040, metadata !2077), !dbg !4035
	store i8* %datarep.arg, i8** %datarep.addr, align 8, !tbaa !2084
	call void @llvm.dbg.declare (metadata i8** %datarep.addr, metadata !4041, metadata !2077), !dbg !4035
	call void @llvm.dbg.declare (metadata i8** %inbuf.addr, metadata !4042, metadata !2077), !dbg !4035
	store i8* %inbuf.arg, i8** %inbuf.addr, align 8, !tbaa !2084
	call void @llvm.dbg.declare (metadata i8** %inbuf.addr, metadata !4043, metadata !2077), !dbg !4035
	call void @llvm.dbg.declare (metadata i32* %incount.addr, metadata !4044, metadata !2077), !dbg !4035
	store i32 %incount.arg, i32* %incount.addr, align 4, !tbaa !2085
	call void @llvm.dbg.declare (metadata i32* %incount.addr, metadata !4045, metadata !2077), !dbg !4035
	call void @llvm.dbg.declare (metadata i8** %outbuf.addr, metadata !4046, metadata !2077), !dbg !4035
	store i8* %outbuf.arg, i8** %outbuf.addr, align 8, !tbaa !2084
	call void @llvm.dbg.declare (metadata i8** %outbuf.addr, metadata !4047, metadata !2077), !dbg !4035
	call void @llvm.dbg.declare (metadata i64* %outsize.addr, metadata !4048, metadata !2077), !dbg !4035
	store i64 %outsize.arg, i64* %outsize.addr, align 8, !tbaa !2085
	call void @llvm.dbg.declare (metadata i64* %outsize.addr, metadata !4049, metadata !2077), !dbg !4035
	call void @llvm.dbg.declare (metadata i64** %position.addr, metadata !4050, metadata !2077), !dbg !4035
	store i64* %position.arg, i64** %position.addr, align 8, !tbaa !2084
	call void @llvm.dbg.declare (metadata i64** %position.addr, metadata !4051, metadata !2077), !dbg !4035
	%0 = load i8*, i8** %datarep.addr, align 8, !tbaa !2084, !dbg !4052
	%1 = load i8*, i8** %inbuf.addr, align 8, !tbaa !2084, !dbg !4052
	%2 = load i32, i32* %incount.addr, align 4, !tbaa !2256, !dbg !4052
	%3 = load %struct._ZN3MPI8DatatypeE*, %struct._ZN3MPI8DatatypeE** %_T47232200_9673.addr, align 8, !tbaa !2084, !dbg !4052
	%4 = bitcast %struct._ZN3MPI8DatatypeE*  %3 to i8*, !dbg !4052
	%5 = getelementptr i8, i8*  %4, i64 8, !dbg !4052
	%6 = bitcast i8*  %5 to %struct.ompi_datatype_t**, !dbg !4052
	%7 = load %struct.ompi_datatype_t*, %struct.ompi_datatype_t**  %6, align 8, !tbaa !2084, !dbg !4052
	%8 = load i8*, i8** %outbuf.addr, align 8, !tbaa !2084, !dbg !4052
	%9 = load i64, i64* %outsize.addr, align 8, !tbaa !2115, !dbg !4052
	%10 = load i64*, i64** %position.addr, align 8, !tbaa !2084, !dbg !4052
	%11 = call i32  @MPI_Pack_external (i8*  %0, i8*  %1, i32  %2, %struct.ompi_datatype_t*  %7, i8*  %8, i64  %9, i64*  %10) nounwind, !dbg !4052
	ret void, !dbg !4053
}
define linkonce_odr i64 @_ZNK3MPI8Datatype18Pack_external_sizeEPKci(%struct._ZN3MPI8DatatypeE* %_T47232200_9675.arg, i8* %datarep.arg, i32 signext %incount.arg) #0 inlinehint !dbg !4055 {
L.entry:
	%_T47232200_9675.addr = alloca %struct._ZN3MPI8DatatypeE*, align 8
	%datarep.addr = alloca i8*, align 8
	%incount.addr = alloca i32, align 4
	%addr.addr = alloca i64, align 8

	call void @llvm.dbg.declare (metadata %struct._ZN3MPI8DatatypeE** %_T47232200_9675.addr, metadata !4059, metadata !2077), !dbg !4056
	store %struct._ZN3MPI8DatatypeE* %_T47232200_9675.arg, %struct._ZN3MPI8DatatypeE** %_T47232200_9675.addr, align 8, !tbaa !2084
	call void @llvm.dbg.declare (metadata %struct._ZN3MPI8DatatypeE** %_T47232200_9675.addr, metadata !4060, metadata !2077), !dbg !4056
	call void @llvm.dbg.declare (metadata i8** %datarep.addr, metadata !4061, metadata !2077), !dbg !4056
	store i8* %datarep.arg, i8** %datarep.addr, align 8, !tbaa !2084
	call void @llvm.dbg.declare (metadata i8** %datarep.addr, metadata !4062, metadata !2077), !dbg !4056
	call void @llvm.dbg.declare (metadata i32* %incount.addr, metadata !4063, metadata !2077), !dbg !4056
	store i32 %incount.arg, i32* %incount.addr, align 4, !tbaa !2085
	call void @llvm.dbg.declare (metadata i32* %incount.addr, metadata !4064, metadata !2077), !dbg !4056
	%0 = load i8*, i8** %datarep.addr, align 8, !tbaa !2084, !dbg !4065
	%1 = load i32, i32* %incount.addr, align 4, !tbaa !2256, !dbg !4065
	%2 = load %struct._ZN3MPI8DatatypeE*, %struct._ZN3MPI8DatatypeE** %_T47232200_9675.addr, align 8, !tbaa !2084, !dbg !4065
	%3 = bitcast %struct._ZN3MPI8DatatypeE*  %2 to i8*, !dbg !4065
	%4 = getelementptr i8, i8*  %3, i64 8, !dbg !4065
	%5 = bitcast i8*  %4 to %struct.ompi_datatype_t**, !dbg !4065
	%6 = load %struct.ompi_datatype_t*, %struct.ompi_datatype_t**  %5, align 8, !tbaa !2084, !dbg !4065
	call void @llvm.dbg.declare (metadata i64* %addr.addr, metadata !4066, metadata !2077), !dbg !4056
	%7 = call i32  @MPI_Pack_external_size (i8*  %0, i32  %1, %struct.ompi_datatype_t*  %6, i64* %addr.addr) nounwind, !dbg !4065
	%8 = load i64, i64* %addr.addr, align 8, !tbaa !2115, !dbg !4067
	ret i64  %8, !dbg !4067
}
define linkonce_odr void @_ZNK3MPI8Datatype15Unpack_externalEPKcPKvlRlPvi(%struct._ZN3MPI8DatatypeE* %_T47232200_9677.arg, i8* %datarep.arg, i8* %inbuf.arg, i64 %insize.arg, i64* %position.arg, i8* %outbuf.arg, i32 signext %outcount.arg) #0 inlinehint !dbg !4070 {
L.entry:
	%_T47232200_9677.addr = alloca %struct._ZN3MPI8DatatypeE*, align 8
	%datarep.addr = alloca i8*, align 8
	%inbuf.addr = alloca i8*, align 8
	%insize.addr = alloca i64, align 8
	%position.addr = alloca i64*, align 8
	%outbuf.addr = alloca i8*, align 8
	%outcount.addr = alloca i32, align 4

	call void @llvm.dbg.declare (metadata %struct._ZN3MPI8DatatypeE** %_T47232200_9677.addr, metadata !4074, metadata !2077), !dbg !4071
	store %struct._ZN3MPI8DatatypeE* %_T47232200_9677.arg, %struct._ZN3MPI8DatatypeE** %_T47232200_9677.addr, align 8, !tbaa !2084
	call void @llvm.dbg.declare (metadata %struct._ZN3MPI8DatatypeE** %_T47232200_9677.addr, metadata !4075, metadata !2077), !dbg !4071
	call void @llvm.dbg.declare (metadata i8** %datarep.addr, metadata !4076, metadata !2077), !dbg !4071
	store i8* %datarep.arg, i8** %datarep.addr, align 8, !tbaa !2084
	call void @llvm.dbg.declare (metadata i8** %datarep.addr, metadata !4077, metadata !2077), !dbg !4071
	call void @llvm.dbg.declare (metadata i8** %inbuf.addr, metadata !4078, metadata !2077), !dbg !4071
	store i8* %inbuf.arg, i8** %inbuf.addr, align 8, !tbaa !2084
	call void @llvm.dbg.declare (metadata i8** %inbuf.addr, metadata !4079, metadata !2077), !dbg !4071
	call void @llvm.dbg.declare (metadata i64* %insize.addr, metadata !4080, metadata !2077), !dbg !4071
	store i64 %insize.arg, i64* %insize.addr, align 8, !tbaa !2085
	call void @llvm.dbg.declare (metadata i64* %insize.addr, metadata !4081, metadata !2077), !dbg !4071
	call void @llvm.dbg.declare (metadata i64** %position.addr, metadata !4082, metadata !2077), !dbg !4071
	store i64* %position.arg, i64** %position.addr, align 8, !tbaa !2084
	call void @llvm.dbg.declare (metadata i64** %position.addr, metadata !4083, metadata !2077), !dbg !4071
	call void @llvm.dbg.declare (metadata i8** %outbuf.addr, metadata !4084, metadata !2077), !dbg !4071
	store i8* %outbuf.arg, i8** %outbuf.addr, align 8, !tbaa !2084
	call void @llvm.dbg.declare (metadata i8** %outbuf.addr, metadata !4085, metadata !2077), !dbg !4071
	call void @llvm.dbg.declare (metadata i32* %outcount.addr, metadata !4086, metadata !2077), !dbg !4071
	store i32 %outcount.arg, i32* %outcount.addr, align 4, !tbaa !2085
	call void @llvm.dbg.declare (metadata i32* %outcount.addr, metadata !4087, metadata !2077), !dbg !4071
	%0 = load i8*, i8** %datarep.addr, align 8, !tbaa !2084, !dbg !4088
	%1 = load i8*, i8** %inbuf.addr, align 8, !tbaa !2084, !dbg !4088
	%2 = load i64, i64* %insize.addr, align 8, !tbaa !2115, !dbg !4088
	%3 = load i64*, i64** %position.addr, align 8, !tbaa !2084, !dbg !4088
	%4 = load i8*, i8** %outbuf.addr, align 8, !tbaa !2084, !dbg !4088
	%5 = load i32, i32* %outcount.addr, align 4, !tbaa !2256, !dbg !4088
	%6 = load %struct._ZN3MPI8DatatypeE*, %struct._ZN3MPI8DatatypeE** %_T47232200_9677.addr, align 8, !tbaa !2084, !dbg !4088
	%7 = bitcast %struct._ZN3MPI8DatatypeE*  %6 to i8*, !dbg !4088
	%8 = getelementptr i8, i8*  %7, i64 8, !dbg !4088
	%9 = bitcast i8*  %8 to %struct.ompi_datatype_t**, !dbg !4088
	%10 = load %struct.ompi_datatype_t*, %struct.ompi_datatype_t**  %9, align 8, !tbaa !2084, !dbg !4088
	%11 = call i32  @MPI_Unpack_external (i8*  %0, i8*  %1, i64  %2, i64*  %3, i8*  %4, i32  %5, %struct.ompi_datatype_t*  %10) nounwind, !dbg !4088
	ret void, !dbg !4089
}
define linkonce_odr void @_ZNK3MPI8Datatype15Create_subarrayEiPKiS2_S2_i(%struct._ZN3MPI8DatatypeE* sret %_T47232200_9678.arg, %struct._ZN3MPI8DatatypeE* %_T47232496_9678.arg, i32 signext %ndims.arg, i32* %array_of_sizes.arg, i32* %array_of_subsizes.arg, i32* %array_of_starts.arg, i32 signext %order.arg) #0 inlinehint !dbg !4091 {
L.entry:
	%_T47232200_9678.addr = alloca %struct._ZN3MPI8DatatypeE*, align 8
	%_T47232496_9678.addr = alloca %struct._ZN3MPI8DatatypeE*, align 8
	%ndims.addr = alloca i32, align 4
	%array_of_sizes.addr = alloca i32*, align 8
	%array_of_subsizes.addr = alloca i32*, align 8
	%array_of_starts.addr = alloca i32*, align 8
	%order.addr = alloca i32, align 4
	%type.addr = alloca %struct.ompi_datatype_t*, align 8
	%..inline.addr = alloca %struct._ZN3MPI8DatatypeE*, align 8
	%..inline.addr.1 = alloca %struct.ompi_datatype_t*, align 8

	store %struct._ZN3MPI8DatatypeE* %_T47232200_9678.arg, %struct._ZN3MPI8DatatypeE** %_T47232200_9678.addr, align 8, !tbaa !2084
	call void @llvm.dbg.declare (metadata %struct._ZN3MPI8DatatypeE** %_T47232496_9678.addr, metadata !4099, metadata !2077), !dbg !4092
	store %struct._ZN3MPI8DatatypeE* %_T47232496_9678.arg, %struct._ZN3MPI8DatatypeE** %_T47232496_9678.addr, align 8, !tbaa !2084
	call void @llvm.dbg.declare (metadata %struct._ZN3MPI8DatatypeE** %_T47232496_9678.addr, metadata !4100, metadata !2077), !dbg !4092
	call void @llvm.dbg.declare (metadata i32* %ndims.addr, metadata !4101, metadata !2077), !dbg !4092
	store i32 %ndims.arg, i32* %ndims.addr, align 4, !tbaa !2085
	call void @llvm.dbg.declare (metadata i32* %ndims.addr, metadata !4102, metadata !2077), !dbg !4092
	call void @llvm.dbg.declare (metadata i32** %array_of_sizes.addr, metadata !4103, metadata !2077), !dbg !4092
	store i32* %array_of_sizes.arg, i32** %array_of_sizes.addr, align 8, !tbaa !2084
	call void @llvm.dbg.declare (metadata i32** %array_of_sizes.addr, metadata !4104, metadata !2077), !dbg !4092
	call void @llvm.dbg.declare (metadata i32** %array_of_subsizes.addr, metadata !4105, metadata !2077), !dbg !4092
	store i32* %array_of_subsizes.arg, i32** %array_of_subsizes.addr, align 8, !tbaa !2084
	call void @llvm.dbg.declare (metadata i32** %array_of_subsizes.addr, metadata !4106, metadata !2077), !dbg !4092
	call void @llvm.dbg.declare (metadata i32** %array_of_starts.addr, metadata !4107, metadata !2077), !dbg !4092
	store i32* %array_of_starts.arg, i32** %array_of_starts.addr, align 8, !tbaa !2084
	call void @llvm.dbg.declare (metadata i32** %array_of_starts.addr, metadata !4108, metadata !2077), !dbg !4092
	call void @llvm.dbg.declare (metadata i32* %order.addr, metadata !4109, metadata !2077), !dbg !4092
	store i32 %order.arg, i32* %order.addr, align 4, !tbaa !2085
	call void @llvm.dbg.declare (metadata i32* %order.addr, metadata !4110, metadata !2077), !dbg !4092
	%0 = load i32, i32* %ndims.addr, align 4, !tbaa !2256, !dbg !4111
	%1 = load i32*, i32** %array_of_sizes.addr, align 8, !tbaa !2084, !dbg !4111
	%2 = load i32*, i32** %array_of_subsizes.addr, align 8, !tbaa !2084, !dbg !4111
	%3 = load i32*, i32** %array_of_starts.addr, align 8, !tbaa !2084, !dbg !4111
	%4 = load i32, i32* %order.addr, align 4, !tbaa !2256, !dbg !4111
	%5 = load %struct._ZN3MPI8DatatypeE*, %struct._ZN3MPI8DatatypeE** %_T47232496_9678.addr, align 8, !tbaa !2084, !dbg !4111
	%6 = bitcast %struct._ZN3MPI8DatatypeE*  %5 to i8*, !dbg !4111
	%7 = getelementptr i8, i8*  %6, i64 8, !dbg !4111
	%8 = bitcast i8*  %7 to %struct.ompi_datatype_t**, !dbg !4111
	%9 = load %struct.ompi_datatype_t*, %struct.ompi_datatype_t**  %8, align 8, !tbaa !2084, !dbg !4111
	call void @llvm.dbg.declare (metadata %struct.ompi_datatype_t** %type.addr, metadata !4112, metadata !2077), !dbg !4092
	%10 = call i32  @MPI_Type_create_subarray (i32  %0, i32*  %1, i32*  %2, i32*  %3, i32  %4, %struct.ompi_datatype_t*  %9, %struct.ompi_datatype_t** %type.addr) nounwind, !dbg !4111
	%11 = load %struct._ZN3MPI8DatatypeE*, %struct._ZN3MPI8DatatypeE** %_T47232200_9678.addr, align 8, !tbaa !2084, !dbg !4113
	%12 = bitcast %struct._ZN3MPI8DatatypeE*  %11 to i8*, !dbg !4113
	%13 = bitcast %struct._ZN3MPI8DatatypeE** %..inline.addr to i8**, !dbg !4113
	store i8*  %12, i8**  %13, align 8, !tbaa !2084, !dbg !4113
	%14 = load %struct.ompi_datatype_t*, %struct.ompi_datatype_t** %type.addr, align 8, !tbaa !2084, !dbg !4113
	%15 = bitcast %struct.ompi_datatype_t*  %14 to i8*, !dbg !4113
	%16 = bitcast %struct.ompi_datatype_t** %..inline.addr.1 to i8**, !dbg !4113
	store i8*  %15, i8**  %16, align 8, !tbaa !2084, !dbg !4113
	%17 = bitcast [32 x i32 (...)* (...)*]* @_ZTVN3MPI8DatatypeE to i8*, !dbg !4113
	%18 = getelementptr i8, i8*  %17, i64 16, !dbg !4113
	%19 = load %struct._ZN3MPI8DatatypeE*, %struct._ZN3MPI8DatatypeE** %..inline.addr, align 8, !tbaa !2084, !dbg !4113
	%20 = bitcast %struct._ZN3MPI8DatatypeE*  %19 to i8**, !dbg !4113
	store i8*  %18, i8**  %20, align 8, !tbaa !2084, !dbg !4113
	%21 = load %struct.ompi_datatype_t*, %struct.ompi_datatype_t** %..inline.addr.1, align 8, !tbaa !2084, !dbg !4114
	%22 = bitcast %struct.ompi_datatype_t*  %21 to i8*, !dbg !4114
	%23 = bitcast %struct._ZN3MPI8DatatypeE*  %19 to i8*, !dbg !4114
	%24 = getelementptr i8, i8*  %23, i64 8, !dbg !4114
	%25 = bitcast i8*  %24 to i8**, !dbg !4114
	store i8*  %22, i8**  %25, align 8, !tbaa !2084, !dbg !4114
	ret void, !dbg !4115
}
define linkonce_odr void @_ZNK3MPI8Datatype13Create_darrayEiiiPKiS2_S2_S2_i(%struct._ZN3MPI8DatatypeE* sret %_T47232200_9679.arg, %struct._ZN3MPI8DatatypeE* %_T47232496_9679.arg, i32 signext %size.arg, i32 signext %rank.arg, i32 signext %ndims.arg, i32* %array_of_gsizes.arg, i32* %array_of_distribs.arg, i32* %array_of_dargs.arg, i32* %array_of_psizes.arg, i32 signext %order.arg) #0 inlinehint !dbg !4117 {
L.entry:
	%_T47232200_9679.addr = alloca %struct._ZN3MPI8DatatypeE*, align 8
	%_T47232496_9679.addr = alloca %struct._ZN3MPI8DatatypeE*, align 8
	%size.addr = alloca i32, align 4
	%rank.addr = alloca i32, align 4
	%ndims.addr = alloca i32, align 4
	%array_of_gsizes.addr = alloca i32*, align 8
	%array_of_distribs.addr = alloca i32*, align 8
	%array_of_dargs.addr = alloca i32*, align 8
	%array_of_psizes.addr = alloca i32*, align 8
	%order.addr = alloca i32, align 4
	%type.addr = alloca %struct.ompi_datatype_t*, align 8
	%..inline.addr = alloca %struct._ZN3MPI8DatatypeE*, align 8
	%..inline.addr.1 = alloca %struct.ompi_datatype_t*, align 8

	store %struct._ZN3MPI8DatatypeE* %_T47232200_9679.arg, %struct._ZN3MPI8DatatypeE** %_T47232200_9679.addr, align 8, !tbaa !2084
	call void @llvm.dbg.declare (metadata %struct._ZN3MPI8DatatypeE** %_T47232496_9679.addr, metadata !4125, metadata !2077), !dbg !4118
	store %struct._ZN3MPI8DatatypeE* %_T47232496_9679.arg, %struct._ZN3MPI8DatatypeE** %_T47232496_9679.addr, align 8, !tbaa !2084
	call void @llvm.dbg.declare (metadata %struct._ZN3MPI8DatatypeE** %_T47232496_9679.addr, metadata !4126, metadata !2077), !dbg !4118
	call void @llvm.dbg.declare (metadata i32* %size.addr, metadata !4127, metadata !2077), !dbg !4118
	store i32 %size.arg, i32* %size.addr, align 4, !tbaa !2085
	call void @llvm.dbg.declare (metadata i32* %size.addr, metadata !4128, metadata !2077), !dbg !4118
	call void @llvm.dbg.declare (metadata i32* %rank.addr, metadata !4129, metadata !2077), !dbg !4118
	store i32 %rank.arg, i32* %rank.addr, align 4, !tbaa !2085
	call void @llvm.dbg.declare (metadata i32* %rank.addr, metadata !4130, metadata !2077), !dbg !4118
	call void @llvm.dbg.declare (metadata i32* %ndims.addr, metadata !4131, metadata !2077), !dbg !4118
	store i32 %ndims.arg, i32* %ndims.addr, align 4, !tbaa !2085
	call void @llvm.dbg.declare (metadata i32* %ndims.addr, metadata !4132, metadata !2077), !dbg !4118
	call void @llvm.dbg.declare (metadata i32** %array_of_gsizes.addr, metadata !4133, metadata !2077), !dbg !4118
	store i32* %array_of_gsizes.arg, i32** %array_of_gsizes.addr, align 8, !tbaa !2084
	call void @llvm.dbg.declare (metadata i32** %array_of_gsizes.addr, metadata !4134, metadata !2077), !dbg !4118
	call void @llvm.dbg.declare (metadata i32** %array_of_distribs.addr, metadata !4135, metadata !2077), !dbg !4118
	store i32* %array_of_distribs.arg, i32** %array_of_distribs.addr, align 8, !tbaa !2084
	call void @llvm.dbg.declare (metadata i32** %array_of_distribs.addr, metadata !4136, metadata !2077), !dbg !4118
	call void @llvm.dbg.declare (metadata i32** %array_of_dargs.addr, metadata !4137, metadata !2077), !dbg !4118
	store i32* %array_of_dargs.arg, i32** %array_of_dargs.addr, align 8, !tbaa !2084
	call void @llvm.dbg.declare (metadata i32** %array_of_dargs.addr, metadata !4138, metadata !2077), !dbg !4118
	call void @llvm.dbg.declare (metadata i32** %array_of_psizes.addr, metadata !4139, metadata !2077), !dbg !4118
	store i32* %array_of_psizes.arg, i32** %array_of_psizes.addr, align 8, !tbaa !2084
	call void @llvm.dbg.declare (metadata i32** %array_of_psizes.addr, metadata !4140, metadata !2077), !dbg !4118
	call void @llvm.dbg.declare (metadata i32* %order.addr, metadata !4141, metadata !2077), !dbg !4118
	store i32 %order.arg, i32* %order.addr, align 4, !tbaa !2085
	call void @llvm.dbg.declare (metadata i32* %order.addr, metadata !4142, metadata !2077), !dbg !4118
	%0 = load i32, i32* %size.addr, align 4, !tbaa !2256, !dbg !4143
	%1 = load i32, i32* %rank.addr, align 4, !tbaa !2256, !dbg !4143
	%2 = load i32, i32* %ndims.addr, align 4, !tbaa !2256, !dbg !4143
	%3 = load i32*, i32** %array_of_gsizes.addr, align 8, !tbaa !2084, !dbg !4143
	%4 = load i32*, i32** %array_of_distribs.addr, align 8, !tbaa !2084, !dbg !4143
	%5 = load i32*, i32** %array_of_dargs.addr, align 8, !tbaa !2084, !dbg !4143
	%6 = load i32*, i32** %array_of_psizes.addr, align 8, !tbaa !2084, !dbg !4143
	%7 = load i32, i32* %order.addr, align 4, !tbaa !2256, !dbg !4143
	%8 = load %struct._ZN3MPI8DatatypeE*, %struct._ZN3MPI8DatatypeE** %_T47232496_9679.addr, align 8, !tbaa !2084, !dbg !4143
	%9 = bitcast %struct._ZN3MPI8DatatypeE*  %8 to i8*, !dbg !4143
	%10 = getelementptr i8, i8*  %9, i64 8, !dbg !4143
	%11 = bitcast i8*  %10 to %struct.ompi_datatype_t**, !dbg !4143
	%12 = load %struct.ompi_datatype_t*, %struct.ompi_datatype_t**  %11, align 8, !tbaa !2084, !dbg !4143
	call void @llvm.dbg.declare (metadata %struct.ompi_datatype_t** %type.addr, metadata !4144, metadata !2077), !dbg !4118
	%13 = call i32  @MPI_Type_create_darray (i32  %0, i32  %1, i32  %2, i32*  %3, i32*  %4, i32*  %5, i32*  %6, i32  %7, %struct.ompi_datatype_t*  %12, %struct.ompi_datatype_t** %type.addr) nounwind, !dbg !4143
	%14 = load %struct._ZN3MPI8DatatypeE*, %struct._ZN3MPI8DatatypeE** %_T47232200_9679.addr, align 8, !tbaa !2084, !dbg !4145
	%15 = bitcast %struct._ZN3MPI8DatatypeE*  %14 to i8*, !dbg !4145
	%16 = bitcast %struct._ZN3MPI8DatatypeE** %..inline.addr to i8**, !dbg !4145
	store i8*  %15, i8**  %16, align 8, !tbaa !2084, !dbg !4145
	%17 = load %struct.ompi_datatype_t*, %struct.ompi_datatype_t** %type.addr, align 8, !tbaa !2084, !dbg !4145
	%18 = bitcast %struct.ompi_datatype_t*  %17 to i8*, !dbg !4145
	%19 = bitcast %struct.ompi_datatype_t** %..inline.addr.1 to i8**, !dbg !4145
	store i8*  %18, i8**  %19, align 8, !tbaa !2084, !dbg !4145
	%20 = bitcast [32 x i32 (...)* (...)*]* @_ZTVN3MPI8DatatypeE to i8*, !dbg !4145
	%21 = getelementptr i8, i8*  %20, i64 16, !dbg !4145
	%22 = load %struct._ZN3MPI8DatatypeE*, %struct._ZN3MPI8DatatypeE** %..inline.addr, align 8, !tbaa !2084, !dbg !4145
	%23 = bitcast %struct._ZN3MPI8DatatypeE*  %22 to i8**, !dbg !4145
	store i8*  %21, i8**  %23, align 8, !tbaa !2084, !dbg !4145
	%24 = load %struct.ompi_datatype_t*, %struct.ompi_datatype_t** %..inline.addr.1, align 8, !tbaa !2084, !dbg !4146
	%25 = bitcast %struct.ompi_datatype_t*  %24 to i8*, !dbg !4146
	%26 = bitcast %struct._ZN3MPI8DatatypeE*  %22 to i8*, !dbg !4146
	%27 = getelementptr i8, i8*  %26, i64 8, !dbg !4146
	%28 = bitcast i8*  %27 to i8**, !dbg !4146
	store i8*  %25, i8**  %28, align 8, !tbaa !2084, !dbg !4146
	ret void, !dbg !4147
}
define linkonce_odr void @_ZNK3MPI8Datatype3DupEv(%struct._ZN3MPI8DatatypeE* sret %_T47232200_9680.arg, %struct._ZN3MPI8DatatypeE* %_T47232496_9680.arg) #0 inlinehint !dbg !4149 {
L.entry:
	%_T47232200_9680.addr = alloca %struct._ZN3MPI8DatatypeE*, align 8
	%_T47232496_9680.addr = alloca %struct._ZN3MPI8DatatypeE*, align 8
	%type.addr = alloca %struct.ompi_datatype_t*, align 8
	%..inline.addr = alloca %struct._ZN3MPI8DatatypeE*, align 8
	%..inline.addr.1 = alloca %struct.ompi_datatype_t*, align 8

	store %struct._ZN3MPI8DatatypeE* %_T47232200_9680.arg, %struct._ZN3MPI8DatatypeE** %_T47232200_9680.addr, align 8, !tbaa !2084
	call void @llvm.dbg.declare (metadata %struct._ZN3MPI8DatatypeE** %_T47232496_9680.addr, metadata !4157, metadata !2077), !dbg !4150
	store %struct._ZN3MPI8DatatypeE* %_T47232496_9680.arg, %struct._ZN3MPI8DatatypeE** %_T47232496_9680.addr, align 8, !tbaa !2084
	call void @llvm.dbg.declare (metadata %struct._ZN3MPI8DatatypeE** %_T47232496_9680.addr, metadata !4158, metadata !2077), !dbg !4150
	%0 = load %struct._ZN3MPI8DatatypeE*, %struct._ZN3MPI8DatatypeE** %_T47232496_9680.addr, align 8, !tbaa !2084, !dbg !4159
	%1 = bitcast %struct._ZN3MPI8DatatypeE*  %0 to i8*, !dbg !4159
	%2 = getelementptr i8, i8*  %1, i64 8, !dbg !4159
	%3 = bitcast i8*  %2 to %struct.ompi_datatype_t**, !dbg !4159
	%4 = load %struct.ompi_datatype_t*, %struct.ompi_datatype_t**  %3, align 8, !tbaa !2084, !dbg !4159
	call void @llvm.dbg.declare (metadata %struct.ompi_datatype_t** %type.addr, metadata !4160, metadata !2077), !dbg !4150
	%5 = call i32  @MPI_Type_dup (%struct.ompi_datatype_t*  %4, %struct.ompi_datatype_t** %type.addr) nounwind, !dbg !4159
	%6 = load %struct._ZN3MPI8DatatypeE*, %struct._ZN3MPI8DatatypeE** %_T47232200_9680.addr, align 8, !tbaa !2084, !dbg !4161
	%7 = bitcast %struct._ZN3MPI8DatatypeE*  %6 to i8*, !dbg !4161
	%8 = bitcast %struct._ZN3MPI8DatatypeE** %..inline.addr to i8**, !dbg !4161
	store i8*  %7, i8**  %8, align 8, !tbaa !2084, !dbg !4161
	%9 = load %struct.ompi_datatype_t*, %struct.ompi_datatype_t** %type.addr, align 8, !tbaa !2084, !dbg !4161
	%10 = bitcast %struct.ompi_datatype_t*  %9 to i8*, !dbg !4161
	%11 = bitcast %struct.ompi_datatype_t** %..inline.addr.1 to i8**, !dbg !4161
	store i8*  %10, i8**  %11, align 8, !tbaa !2084, !dbg !4161
	%12 = bitcast [32 x i32 (...)* (...)*]* @_ZTVN3MPI8DatatypeE to i8*, !dbg !4161
	%13 = getelementptr i8, i8*  %12, i64 16, !dbg !4161
	%14 = load %struct._ZN3MPI8DatatypeE*, %struct._ZN3MPI8DatatypeE** %..inline.addr, align 8, !tbaa !2084, !dbg !4161
	%15 = bitcast %struct._ZN3MPI8DatatypeE*  %14 to i8**, !dbg !4161
	store i8*  %13, i8**  %15, align 8, !tbaa !2084, !dbg !4161
	%16 = load %struct.ompi_datatype_t*, %struct.ompi_datatype_t** %..inline.addr.1, align 8, !tbaa !2084, !dbg !4162
	%17 = bitcast %struct.ompi_datatype_t*  %16 to i8*, !dbg !4162
	%18 = bitcast %struct._ZN3MPI8DatatypeE*  %14 to i8*, !dbg !4162
	%19 = getelementptr i8, i8*  %18, i64 8, !dbg !4162
	%20 = bitcast i8*  %19 to i8**, !dbg !4162
	store i8*  %17, i8**  %20, align 8, !tbaa !2084, !dbg !4162
	ret void, !dbg !4163
}
define linkonce_odr void @_ZN3MPI8Datatype11Delete_attrEi(%struct._ZN3MPI8DatatypeE* %_T47232200_9681.arg, i32 signext %type_keyval.arg) #0 inlinehint !dbg !4165 {
L.entry:
	%_T47232200_9681.addr = alloca %struct._ZN3MPI8DatatypeE*, align 8
	%type_keyval.addr = alloca i32, align 4

	call void @llvm.dbg.declare (metadata %struct._ZN3MPI8DatatypeE** %_T47232200_9681.addr, metadata !4169, metadata !2077), !dbg !4166
	store %struct._ZN3MPI8DatatypeE* %_T47232200_9681.arg, %struct._ZN3MPI8DatatypeE** %_T47232200_9681.addr, align 8, !tbaa !2084
	call void @llvm.dbg.declare (metadata %struct._ZN3MPI8DatatypeE** %_T47232200_9681.addr, metadata !4170, metadata !2077), !dbg !4166
	call void @llvm.dbg.declare (metadata i32* %type_keyval.addr, metadata !4171, metadata !2077), !dbg !4166
	store i32 %type_keyval.arg, i32* %type_keyval.addr, align 4, !tbaa !2085
	call void @llvm.dbg.declare (metadata i32* %type_keyval.addr, metadata !4172, metadata !2077), !dbg !4166
	%0 = load %struct._ZN3MPI8DatatypeE*, %struct._ZN3MPI8DatatypeE** %_T47232200_9681.addr, align 8, !tbaa !2084, !dbg !4173
	%1 = bitcast %struct._ZN3MPI8DatatypeE*  %0 to i8*, !dbg !4173
	%2 = getelementptr i8, i8*  %1, i64 8, !dbg !4173
	%3 = bitcast i8*  %2 to %struct.ompi_datatype_t**, !dbg !4173
	%4 = load %struct.ompi_datatype_t*, %struct.ompi_datatype_t**  %3, align 8, !tbaa !2084, !dbg !4173
	%5 = load i32, i32* %type_keyval.addr, align 4, !tbaa !2256, !dbg !4173
	%6 = call i32  @MPI_Type_delete_attr (%struct.ompi_datatype_t*  %4, i32  %5) nounwind, !dbg !4173
	ret void, !dbg !4174
}
define linkonce_odr signext i8 @_ZNK3MPI8Datatype8Get_attrEiPv(%struct._ZN3MPI8DatatypeE* %_T47232200_9682.arg, i32 signext %type_keyval.arg, i8* %attribute_val.arg) #0 inlinehint !dbg !4176 {
L.entry:
	%_T47232200_9682.addr = alloca %struct._ZN3MPI8DatatypeE*, align 8
	%type_keyval.addr = alloca i32, align 4
	%attribute_val.addr = alloca i8*, align 8
	%ret.addr = alloca i32, align 4

	call void @llvm.dbg.declare (metadata %struct._ZN3MPI8DatatypeE** %_T47232200_9682.addr, metadata !4180, metadata !2077), !dbg !4177
	store %struct._ZN3MPI8DatatypeE* %_T47232200_9682.arg, %struct._ZN3MPI8DatatypeE** %_T47232200_9682.addr, align 8, !tbaa !2084
	call void @llvm.dbg.declare (metadata %struct._ZN3MPI8DatatypeE** %_T47232200_9682.addr, metadata !4181, metadata !2077), !dbg !4177
	call void @llvm.dbg.declare (metadata i32* %type_keyval.addr, metadata !4182, metadata !2077), !dbg !4177
	store i32 %type_keyval.arg, i32* %type_keyval.addr, align 4, !tbaa !2085
	call void @llvm.dbg.declare (metadata i32* %type_keyval.addr, metadata !4183, metadata !2077), !dbg !4177
	call void @llvm.dbg.declare (metadata i8** %attribute_val.addr, metadata !4184, metadata !2077), !dbg !4177
	store i8* %attribute_val.arg, i8** %attribute_val.addr, align 8, !tbaa !2084
	call void @llvm.dbg.declare (metadata i8** %attribute_val.addr, metadata !4185, metadata !2077), !dbg !4177
	%0 = load %struct._ZN3MPI8DatatypeE*, %struct._ZN3MPI8DatatypeE** %_T47232200_9682.addr, align 8, !tbaa !2084, !dbg !4186
	%1 = bitcast %struct._ZN3MPI8DatatypeE*  %0 to i8*, !dbg !4186
	%2 = getelementptr i8, i8*  %1, i64 8, !dbg !4186
	%3 = bitcast i8*  %2 to %struct.ompi_datatype_t**, !dbg !4186
	%4 = load %struct.ompi_datatype_t*, %struct.ompi_datatype_t**  %3, align 8, !tbaa !2084, !dbg !4186
	%5 = load i32, i32* %type_keyval.addr, align 4, !tbaa !2256, !dbg !4186
	%6 = load i8*, i8** %attribute_val.addr, align 8, !tbaa !2084, !dbg !4186
	call void @llvm.dbg.declare (metadata i32* %ret.addr, metadata !4187, metadata !2077), !dbg !4177
	%7 = call i32  @MPI_Type_get_attr (%struct.ompi_datatype_t*  %4, i32  %5, i8*  %6, i32* %ret.addr) nounwind, !dbg !4186
	%8 = load i32, i32* %ret.addr, align 4, !tbaa !2256, !dbg !4188
	%9 = icmp ne i32  %8, 0, !dbg !4188
	%10 = zext i1  %9 to i32, !dbg !4188
	%11 = trunc i32  %10 to i8, !dbg !4188
	ret i8  %11, !dbg !4188
}
define linkonce_odr void @_ZNK3MPI8Datatype12Get_contentsEiiiPiPlPS0_(%struct._ZN3MPI8DatatypeE* %_T47232384_9684.arg, i32 signext %max_integers.arg, i32 signext %max_addresses.arg, i32 signext %max_datatypes.arg, i32* %array_of_integers.arg, i64* %array_of_addresses.arg, %struct._ZN3MPI8DatatypeE* %array_of_datatypes.arg) #0 inlinehint !dbg !4191 {
L.entry:
	%_T47232384_9684.addr = alloca %struct._ZN3MPI8DatatypeE*, align 8
	%max_integers.addr = alloca i32, align 4
	%max_addresses.addr = alloca i32, align 4
	%max_datatypes.addr = alloca i32, align 4
	%array_of_integers.addr = alloca i32*, align 8
	%array_of_addresses.addr = alloca i64*, align 8
	%array_of_datatypes.addr = alloca %struct._ZN3MPI8DatatypeE*, align 8
	%_T47235048_9684.addr = alloca i64, align 8
	%.Q0006.addr = alloca i8*, align 8
	%c_datatypes.addr = alloca %struct.ompi_datatype_t**, align 8
	%.ndi0002.addr = alloca i32, align 4
	%.y0089.addr = alloca i32, align 4
	%.x90113.addr = alloca i32, align 4
	%.D0000.addr = alloca i32, align 4
	%.D0001.addr = alloca i32, align 4
	%.G0003.addr = alloca i8*, align 8

	call void @llvm.dbg.declare (metadata %struct._ZN3MPI8DatatypeE** %_T47232384_9684.addr, metadata !4199, metadata !2077), !dbg !4192
	store %struct._ZN3MPI8DatatypeE* %_T47232384_9684.arg, %struct._ZN3MPI8DatatypeE** %_T47232384_9684.addr, align 8, !tbaa !2084
	call void @llvm.dbg.declare (metadata %struct._ZN3MPI8DatatypeE** %_T47232384_9684.addr, metadata !4200, metadata !2077), !dbg !4192
	call void @llvm.dbg.declare (metadata i32* %max_integers.addr, metadata !4201, metadata !2077), !dbg !4192
	store i32 %max_integers.arg, i32* %max_integers.addr, align 4, !tbaa !2085
	call void @llvm.dbg.declare (metadata i32* %max_integers.addr, metadata !4202, metadata !2077), !dbg !4192
	call void @llvm.dbg.declare (metadata i32* %max_addresses.addr, metadata !4203, metadata !2077), !dbg !4192
	store i32 %max_addresses.arg, i32* %max_addresses.addr, align 4, !tbaa !2085
	call void @llvm.dbg.declare (metadata i32* %max_addresses.addr, metadata !4204, metadata !2077), !dbg !4192
	call void @llvm.dbg.declare (metadata i32* %max_datatypes.addr, metadata !4205, metadata !2077), !dbg !4192
	store i32 %max_datatypes.arg, i32* %max_datatypes.addr, align 4, !tbaa !2085
	call void @llvm.dbg.declare (metadata i32* %max_datatypes.addr, metadata !4206, metadata !2077), !dbg !4192
	call void @llvm.dbg.declare (metadata i32** %array_of_integers.addr, metadata !4207, metadata !2077), !dbg !4192
	store i32* %array_of_integers.arg, i32** %array_of_integers.addr, align 8, !tbaa !2084
	call void @llvm.dbg.declare (metadata i32** %array_of_integers.addr, metadata !4208, metadata !2077), !dbg !4192
	call void @llvm.dbg.declare (metadata i64** %array_of_addresses.addr, metadata !4209, metadata !2077), !dbg !4192
	store i64* %array_of_addresses.arg, i64** %array_of_addresses.addr, align 8, !tbaa !2084
	call void @llvm.dbg.declare (metadata i64** %array_of_addresses.addr, metadata !4210, metadata !2077), !dbg !4192
	call void @llvm.dbg.declare (metadata %struct._ZN3MPI8DatatypeE** %array_of_datatypes.addr, metadata !4211, metadata !2077), !dbg !4192
	store %struct._ZN3MPI8DatatypeE* %array_of_datatypes.arg, %struct._ZN3MPI8DatatypeE** %array_of_datatypes.addr, align 8, !tbaa !2084
	call void @llvm.dbg.declare (metadata %struct._ZN3MPI8DatatypeE** %array_of_datatypes.addr, metadata !4212, metadata !2077), !dbg !4192
	%0 = load i32, i32* %max_datatypes.addr, align 4, !tbaa !2256, !dbg !4213
	%1 = sext i32  %0 to i64, !dbg !4213
	%2 = mul i64  %1, 8, !dbg !4213
	%3 = call i8*  @_Znam (i64  %2), !dbg !4213
	call void @llvm.dbg.declare (metadata %struct.ompi_datatype_t*** %c_datatypes.addr, metadata !4214, metadata !2077), !dbg !4192
	%4 = bitcast %struct.ompi_datatype_t*** %c_datatypes.addr to i8**, !dbg !4213
	store i8*  %3, i8**  %4, align 8, !tbaa !2084, !dbg !4213
	%5 = load %struct._ZN3MPI8DatatypeE*, %struct._ZN3MPI8DatatypeE** %_T47232384_9684.addr, align 8, !tbaa !2084, !dbg !4215
	%6 = bitcast %struct._ZN3MPI8DatatypeE*  %5 to i8*, !dbg !4215
	%7 = getelementptr i8, i8*  %6, i64 8, !dbg !4215
	%8 = bitcast i8*  %7 to %struct.ompi_datatype_t**, !dbg !4215
	%9 = load %struct.ompi_datatype_t*, %struct.ompi_datatype_t**  %8, align 8, !tbaa !2084, !dbg !4215
	%10 = load i32, i32* %max_integers.addr, align 4, !tbaa !2256, !dbg !4215
	%11 = load i32, i32* %max_addresses.addr, align 4, !tbaa !2256, !dbg !4215
	%12 = load i32, i32* %max_datatypes.addr, align 4, !tbaa !2256, !dbg !4215
	%13 = load i32*, i32** %array_of_integers.addr, align 8, !tbaa !2084, !dbg !4215
	%14 = load i64*, i64** %array_of_addresses.addr, align 8, !tbaa !2084, !dbg !4215
	%15 = load %struct.ompi_datatype_t**, %struct.ompi_datatype_t*** %c_datatypes.addr, align 8, !tbaa !2084, !dbg !4215
	%16 = call i32  @MPI_Type_get_contents (%struct.ompi_datatype_t*  %9, i32  %10, i32  %11, i32  %12, i32*  %13, i64*  %14, %struct.ompi_datatype_t**  %15) nounwind, !dbg !4215
	store i32 0, i32* %.ndi0002.addr, align 4, !tbaa !2256, !dbg !4216
	%17 = load i32, i32* %max_datatypes.addr, align 4, !tbaa !2256, !dbg !4216
	%18 = icmp sle i32  %17, 0, !dbg !4216
	br i1  %18, label %L.B1024, label %L.B1029, !dbg !4216
L.B1029:
	store i32  %17, i32* %.y0089.addr, align 4, !tbaa !2256, !dbg !4216
	%19 = icmp slt i32  %17, 4, !dbg !4216
	br i1  %19, label %L.B1025, label %L.B1030, !dbg !4216
L.B1030:
	%20 = ashr i32  %17, 1, !dbg !4216
	%21 = lshr i32  %20, 30, !dbg !4216
	%22 = add i32  %17,  %21, !dbg !4216
	%23 = ashr i32  %22, 2, !dbg !4216
	store i32  %23, i32* %.x90113.addr, align 4, !tbaa !2256, !dbg !4216
	%24 = ashr i32  %17, 1, !dbg !4216
	%25 = lshr i32  %24, 30, !dbg !4216
	%26 = add i32  %17,  %25, !dbg !4216
	%27 = ashr i32  %26, 2, !dbg !4216
	store i32  %27, i32* %.D0000.addr, align 4, !tbaa !2256, !dbg !4216
	%28 = mul i32  %27, 4, !dbg !4216
	%29 = sub i32  %17,  %28, !dbg !4216
	store i32  %29, i32* %.D0001.addr, align 4, !tbaa !2256, !dbg !4216
	%30 = load %struct.ompi_datatype_t**, %struct.ompi_datatype_t*** %c_datatypes.addr, align 8, !tbaa !2084, !dbg !4216
	%31 = bitcast %struct.ompi_datatype_t**  %30 to i8*, !dbg !4216
	%32 = getelementptr i8, i8*  %31, i64 24, !dbg !4216
	store i8*  %32, i8** %.G0003.addr, align 8, !tbaa !2084, !dbg !4216
	br label %L.B1023
L.B1023:
	%33 = load i8*, i8** %.G0003.addr, align 8, !tbaa !2084, !dbg !4216
	%34 = getelementptr i8, i8*  %33, i64 18446744073709551592, !dbg !4216
	%35 = bitcast i8*  %34 to i8**, !dbg !4216
	%36 = load i8*, i8**  %35, align 8, !tbaa !2084, !dbg !4216
	%37 = load %struct._ZN3MPI8DatatypeE*, %struct._ZN3MPI8DatatypeE** %array_of_datatypes.addr, align 8, !tbaa !2084, !dbg !4216
	%38 = bitcast %struct._ZN3MPI8DatatypeE*  %37 to i8*, !dbg !4216
	%39 = getelementptr i8, i8*  %38, i64 8, !dbg !4216
	%40 = load i32, i32* %.ndi0002.addr, align 4, !tbaa !2256, !dbg !4216
	%41 = sext i32  %40 to i64, !dbg !4216
	%42 = mul i64  %41, 16, !dbg !4216
	%43 = getelementptr i8, i8*  %39, i64  %42, !dbg !4216
	%44 = bitcast i8*  %43 to i8**, !dbg !4216
	store i8*  %36, i8**  %44, align 8, !tbaa !2084, !dbg !4216
	%45 = getelementptr i8, i8*  %33, i64 18446744073709551600, !dbg !4216
	%46 = bitcast i8*  %45 to i8**, !dbg !4216
	%47 = load i8*, i8**  %46, align 8, !tbaa !2084, !dbg !4216
	%48 = add i64  %41, 1, !dbg !4216
	%49 = mul i64  %48, 16, !dbg !4216
	%50 = getelementptr i8, i8*  %39, i64  %49, !dbg !4216
	%51 = bitcast i8*  %50 to i8**, !dbg !4216
	store i8*  %47, i8**  %51, align 8, !tbaa !2084, !dbg !4216
	%52 = getelementptr i8, i8*  %33, i64 18446744073709551608, !dbg !4216
	%53 = bitcast i8*  %52 to i8**, !dbg !4216
	%54 = load i8*, i8**  %53, align 8, !tbaa !2084, !dbg !4216
	%55 = add i64  %41, 2, !dbg !4216
	%56 = mul i64  %55, 16, !dbg !4216
	%57 = getelementptr i8, i8*  %39, i64  %56, !dbg !4216
	%58 = bitcast i8*  %57 to i8**, !dbg !4216
	store i8*  %54, i8**  %58, align 8, !tbaa !2084, !dbg !4216
	%59 = bitcast i8*  %33 to i8**, !dbg !4216
	%60 = load i8*, i8**  %59, align 8, !tbaa !2084, !dbg !4216
	%61 = add i64  %41, 3, !dbg !4216
	%62 = mul i64  %61, 16, !dbg !4216
	%63 = getelementptr i8, i8*  %39, i64  %62, !dbg !4216
	%64 = bitcast i8*  %63 to i8**, !dbg !4216
	store i8*  %60, i8**  %64, align 8, !tbaa !2084, !dbg !4216
	%65 = add i32  %40, 4, !dbg !4216
	store i32  %65, i32* %.ndi0002.addr, align 4, !tbaa !2256, !dbg !4216
	%66 = getelementptr i8, i8*  %33, i64 32, !dbg !4216
	store i8*  %66, i8** %.G0003.addr, align 8, !tbaa !2084, !dbg !4216
	%67 = load i32, i32* %.x90113.addr, align 4, !tbaa !2256, !dbg !4216
