; ModuleID = 'projects/Shock/Shock.cpp'
target datalayout = "e-p:64:64-i64:64-f80:128-n8:16:32:64-S128"
target triple = "x86_64-pc-linux-gnu"
define internal void @pgCplus_compiled.() noinline {
L.entry:
	ret void
}

%struct._ZNSt12_Vector_baseIiSaIiEE12_Vector_implE = type <{ %struct._ZNSt12_Vector_baseIiSaIiEE17_Vector_impl_dataE}> 
%struct._ZSt6vectorISt5arrayIdLm3EESaIS1_EE = type <{ %struct._ZSt12_Vector_baseISt5arrayIdLm3EESaIS1_EE}> 
%struct._ZNSt12_Vector_baseIP14ompi_request_tSaIS1_EE12_Vector_implE = type <{ %struct._ZNSt12_Vector_baseIP14ompi_request_tSaIS1_EE17_Vector_impl_dataE}> 
%struct.ompi_request_t = type opaque
%struct._ZNSt12_Vector_baseISt5arrayIdLm3EESaIS1_EE17_Vector_impl_dataE = type <{ %struct._ZSt5arrayIdLm3EE*, %struct._ZSt5arrayIdLm3EE*, %struct._ZSt5arrayIdLm3EE*}> 
%struct._ZNSt12_Vector_baseIP14ompi_request_tSaIS1_EE17_Vector_impl_dataE = type <{ %struct.ompi_request_t**, %struct.ompi_request_t**, %struct.ompi_request_t**}> 
%struct._ZSt6vectorIiSaIiEE = type <{ %struct._ZSt12_Vector_baseIiSaIiEE}> 
%struct._ZNSt12_Vector_baseIcSaIcEE12_Vector_implE = type <{ %struct._ZNSt12_Vector_baseIcSaIcEE17_Vector_impl_dataE}> 
%struct.ompi_datatype_t = type opaque
%struct._ZSt12_Vector_baseIcSaIcEE = type <{ %struct._ZNSt12_Vector_baseIcSaIcEE12_Vector_implE}> 
%struct._ZSt5arrayIP15ompi_datatype_tLm27EE = type <{ [27 x %struct.ompi_datatype_t*]}> 
%struct._ZNSt12_Vector_baseIcSaIcEE17_Vector_impl_dataE = type <{ i8*, i8*, i8*}> 
%struct._ZSt6vectorIP14ompi_request_tSaIS1_EE = type <{ %struct._ZSt12_Vector_baseIP14ompi_request_tSaIS1_EE}> 
%struct._ZNSt12_Vector_baseISt5arrayIdLm3EESaIS1_EE12_Vector_implE = type <{ %struct._ZNSt12_Vector_baseISt5arrayIdLm3EESaIS1_EE17_Vector_impl_dataE}> 
%struct.ompi_communicator_t = type opaque
%struct._ZSt5arrayIiLm27EE = type <{ [27 x i32]}> 
%struct._ZSt5arrayIdLm3EE = type <{ [3 x double]}> 
%struct._ZSt12_Vector_baseIiSaIiEE = type <{ %struct._ZNSt12_Vector_baseIiSaIiEE12_Vector_implE}> 
%struct._ZSt12_Vector_baseISt5arrayIdLm3EESaIS1_EE = type <{ %struct._ZNSt12_Vector_baseISt5arrayIdLm3EESaIS1_EE12_Vector_implE}> 
%struct._ZSt12_Vector_baseIP14ompi_request_tSaIS1_EE = type <{ %struct._ZNSt12_Vector_baseIP14ompi_request_tSaIS1_EE12_Vector_implE}> 
%struct._ZSt5arrayIbLm3EE = type <{ [3 x i8]}> 
%struct._ZSt5arrayIiLm3EE = type <{ [3 x i32]}> 
%struct._Z6FsGridISt5arrayIdLm3EELi2EE = type <{ double, double, double, %struct._ZSt5arrayIdLm3EE, %struct.ompi_communicator_t*, i32, [4 x i8], %struct._ZSt6vectorIP14ompi_request_tSaIS1_EE, i32, %struct._ZSt5arrayIiLm27EE, %struct._ZSt6vectorIcSaIcEE, %struct._ZSt5arrayIiLm3EE, %struct._ZSt5arrayIiLm3EE, %struct._ZSt5arrayIbLm3EE, i8, %struct._ZSt5arrayIiLm3EE, %struct._ZSt5arrayIiLm3EE, %struct._ZSt5arrayIiLm3EE, %struct._ZSt5arrayIiLm3EE, [4 x i8], %struct.FsGridCouplingInformation*, %struct._ZSt5arrayIP15ompi_datatype_tLm27EE, %struct._ZSt5arrayIP15ompi_datatype_tLm27EE, %struct._ZSt6vectorISt5arrayIdLm3EESaIS1_EE}> 
%struct._ZSt6vectorIcSaIcEE = type <{ %struct._ZSt12_Vector_baseIcSaIcEE}> 
%struct.FsGridCouplingInformation = type <{ %struct._ZSt6vectorIiSaIiEE}> 
%struct._ZNSt12_Vector_baseIiSaIiEE17_Vector_impl_dataE = type <{ i32*, i32*, i32*}> 



define linkonce_odr i64 @_ZN6FsGridISt5arrayIdLm3EELi2EE16LocalIDForCoordsEiii(%struct._Z6FsGridISt5arrayIdLm3EELi2EE* %_T42303136_52524.arg, i32 signext %x.arg, i32 signext %y.arg, i32 signext %z.arg) #0 inlinehint !dbg !4028 {
L.entry:
	%_T42303136_52524.addr = alloca %struct._Z6FsGridISt5arrayIdLm3EELi2EE*, align 8
	%x.addr = alloca i32, align 4
	%y.addr = alloca i32, align 4
	%z.addr = alloca i32, align 4
	%index.addr = alloca i64, align 8

	call void @llvm.dbg.declare (metadata %struct._Z6FsGridISt5arrayIdLm3EELi2EE** %_T42303136_52524.addr, metadata !4080, metadata !4081), !dbg !4029
	store %struct._Z6FsGridISt5arrayIdLm3EELi2EE* %_T42303136_52524.arg, %struct._Z6FsGridISt5arrayIdLm3EELi2EE** %_T42303136_52524.addr, align 8, !tbaa !4096
	call void @llvm.dbg.declare (metadata %struct._Z6FsGridISt5arrayIdLm3EELi2EE** %_T42303136_52524.addr, metadata !4082, metadata !4081), !dbg !4029
	call void @llvm.dbg.declare (metadata i32* %x.addr, metadata !4083, metadata !4081), !dbg !4029
	store i32 %x.arg, i32* %x.addr, align 4, !tbaa !4097
	call void @llvm.dbg.declare (metadata i32* %x.addr, metadata !4084, metadata !4081), !dbg !4029
	call void @llvm.dbg.declare (metadata i32* %y.addr, metadata !4085, metadata !4081), !dbg !4029
	store i32 %y.arg, i32* %y.addr, align 4, !tbaa !4097
	call void @llvm.dbg.declare (metadata i32* %y.addr, metadata !4086, metadata !4081), !dbg !4029
	call void @llvm.dbg.declare (metadata i32* %z.addr, metadata !4087, metadata !4081), !dbg !4029
	store i32 %z.arg, i32* %z.addr, align 4, !tbaa !4097
	call void @llvm.dbg.declare (metadata i32* %z.addr, metadata !4088, metadata !4081), !dbg !4029
	call void @llvm.dbg.declare (metadata i64* %index.addr, metadata !4090, metadata !4081), !dbg !4029
	store i64 0, i64* %index.addr, align 8, !tbaa !4099, !dbg !4089
	%0 = load %struct._Z6FsGridISt5arrayIdLm3EELi2EE*, %struct._Z6FsGridISt5arrayIdLm3EELi2EE** %_T42303136_52524.addr, align 8, !tbaa !4096, !dbg !4091
	%1 = bitcast %struct._Z6FsGridISt5arrayIdLm3EELi2EE*  %0 to i8*, !dbg !4091
	%2 = getelementptr i8, i8*  %1, i64 260, !dbg !4091
	%3 = bitcast i8*  %2 to i32*, !dbg !4091
	%4 = load i32, i32*  %3, align 4, !tbaa !4097, !dbg !4091
	%5 = icmp sle i32  %4, 1, !dbg !4091
	br i1  %5, label %L.B0000, label %L.B1033, !dbg !4091
L.B1033:
	%6 = load i32, i32* %z.addr, align 4, !tbaa !4101, !dbg !4091
	%7 = add i32  %6, 2, !dbg !4091
	%8 = bitcast %struct._Z6FsGridISt5arrayIdLm3EELi2EE*  %0 to i8*, !dbg !4091
	%9 = getelementptr i8, i8*  %8, i64 280, !dbg !4091
	%10 = bitcast i8*  %9 to i32*, !dbg !4091
	%11 = load i32, i32*  %10, align 4, !tbaa !4097, !dbg !4091
	%12 = getelementptr i8, i8*  %8, i64 276, !dbg !4091
	%13 = bitcast i8*  %12 to i32*, !dbg !4091
	%14 = load i32, i32*  %13, align 4, !tbaa !4097, !dbg !4091
	%15 = mul i32  %11,  %14, !dbg !4091
	%16 = mul i32  %7,  %15, !dbg !4091
	%17 = sext i32  %16 to i64, !dbg !4091
	store i64  %17, i64* %index.addr, align 8, !tbaa !4099, !dbg !4091
	br label %L.B0000
L.B0000:
	%18 = load %struct._Z6FsGridISt5arrayIdLm3EELi2EE*, %struct._Z6FsGridISt5arrayIdLm3EELi2EE** %_T42303136_52524.addr, align 8, !tbaa !4096, !dbg !4091
	%19 = bitcast %struct._Z6FsGridISt5arrayIdLm3EELi2EE*  %18 to i8*, !dbg !4091
	%20 = getelementptr i8, i8*  %19, i64 256, !dbg !4091
	%21 = bitcast i8*  %20 to i32*, !dbg !4091
	%22 = load i32, i32*  %21, align 4, !tbaa !4097, !dbg !4091
	%23 = icmp sle i32  %22, 1, !dbg !4091
	br i1  %23, label %L.B0001, label %L.B1034, !dbg !4091
L.B1034:
	%24 = load i64, i64* %index.addr, align 8, !tbaa !4099, !dbg !4091
	%25 = load i32, i32* %y.addr, align 4, !tbaa !4101, !dbg !4091
	%26 = add i32  %25, 2, !dbg !4091
	%27 = bitcast %struct._Z6FsGridISt5arrayIdLm3EELi2EE*  %18 to i8*, !dbg !4091
	%28 = getelementptr i8, i8*  %27, i64 276, !dbg !4091
	%29 = bitcast i8*  %28 to i32*, !dbg !4091
	%30 = load i32, i32*  %29, align 4, !tbaa !4097, !dbg !4091
	%31 = mul i32  %26,  %30, !dbg !4091
	%32 = sext i32  %31 to i64, !dbg !4091
	%33 = add i64  %24,  %32, !dbg !4091
	store i64  %33, i64* %index.addr, align 8, !tbaa !4099, !dbg !4091
	br label %L.B0001
L.B0001:
	%34 = load %struct._Z6FsGridISt5arrayIdLm3EELi2EE*, %struct._Z6FsGridISt5arrayIdLm3EELi2EE** %_T42303136_52524.addr, align 8, !tbaa !4096, !dbg !4091
	%35 = bitcast %struct._Z6FsGridISt5arrayIdLm3EELi2EE*  %34 to i8*, !dbg !4091
	%36 = getelementptr i8, i8*  %35, i64 252, !dbg !4091
	%37 = bitcast i8*  %36 to i32*, !dbg !4091
	%38 = load i32, i32*  %37, align 4, !tbaa !4097, !dbg !4091
	%39 = icmp sle i32  %38, 1, !dbg !4091
	%40 = zext i1  %39 to i32, !dbg !4091
	%41 = trunc i32  %40 to i1, !dbg !4091
	%42 = load i64, i64* %index.addr, align 8, !tbaa !4099, !dbg !4091
	%43 = load i32, i32* %x.addr, align 4, !tbaa !4101, !dbg !4091
	%44 = sext i32  %43 to i64, !dbg !4091
	%45 = add i64  %44, 2, !dbg !4091
	%46 = add i64  %42,  %45, !dbg !4091
	%47 = select i1  %41, i64  %42, i64  %46, !dbg !4091
	ret i64  %47, !dbg !4092
}
define linkonce_odr %struct._ZSt5arrayIiLm3EE* @_ZN6FsGridISt5arrayIdLm3EELi2EE12getLocalSizeEv(%struct._Z6FsGridISt5arrayIdLm3EELi2EE* %_T42301848_52525.arg) #0 inlinehint !dbg !4106 {
L.entry:
	%_T42301848_52525.addr = alloca %struct._Z6FsGridISt5arrayIdLm3EELi2EE*, align 8

	call void @llvm.dbg.declare (metadata %struct._Z6FsGridISt5arrayIdLm3EELi2EE** %_T42301848_52525.addr, metadata !4110, metadata !4081), !dbg !4107
	store %struct._Z6FsGridISt5arrayIdLm3EELi2EE* %_T42301848_52525.arg, %struct._Z6FsGridISt5arrayIdLm3EELi2EE** %_T42301848_52525.addr, align 8, !tbaa !4096
	call void @llvm.dbg.declare (metadata %struct._Z6FsGridISt5arrayIdLm3EELi2EE** %_T42301848_52525.addr, metadata !4111, metadata !4081), !dbg !4107
	%0 = load %struct._Z6FsGridISt5arrayIdLm3EELi2EE*, %struct._Z6FsGridISt5arrayIdLm3EELi2EE** %_T42301848_52525.addr, align 8, !tbaa !4096, !dbg !4112
	%1 = bitcast %struct._Z6FsGridISt5arrayIdLm3EELi2EE*  %0 to i8*, !dbg !4112
	%2 = getelementptr i8, i8*  %1, i64 264, !dbg !4112
	%3 = bitcast i8*  %2 to %struct._ZSt5arrayIiLm3EE*, !dbg !4112
	ret %struct._ZSt5arrayIiLm3EE*  %3, !dbg !4112
}
define linkonce_odr %struct._ZSt5arrayIdLm3EE* @_ZN6FsGridISt5arrayIdLm3EELi2EE3getEiii(%struct._Z6FsGridISt5arrayIdLm3EELi2EE* %_T42301896_52526.arg, i32 signext %x.arg, i32 signext %y.arg, i32 signext %z.arg) #0 inlinehint !dbg !4117 {
L.entry:
	%_T42301896_52526.addr = alloca %struct._Z6FsGridISt5arrayIdLm3EELi2EE*, align 8
	%x.addr = alloca i32, align 4
	%y.addr = alloca i32, align 4
	%z.addr = alloca i32, align 4
	%isInNeighbourDomain.addr = alloca i32, align 4
	%coord_shift.addr = alloca [3 x i32], align 4
	%..inline.addr = alloca %struct._Z6FsGridISt5arrayIdLm3EELi2EE*, align 8
	%..inline.addr.1 = alloca i64, align 8

	call void @llvm.dbg.declare (metadata %struct._Z6FsGridISt5arrayIdLm3EELi2EE** %_T42301896_52526.addr, metadata !4241, metadata !4081), !dbg !4118
	store %struct._Z6FsGridISt5arrayIdLm3EELi2EE* %_T42301896_52526.arg, %struct._Z6FsGridISt5arrayIdLm3EELi2EE** %_T42301896_52526.addr, align 8, !tbaa !4096
	call void @llvm.dbg.declare (metadata %struct._Z6FsGridISt5arrayIdLm3EELi2EE** %_T42301896_52526.addr, metadata !4242, metadata !4081), !dbg !4118
	call void @llvm.dbg.declare (metadata i32* %x.addr, metadata !4243, metadata !4081), !dbg !4118
	store i32 %x.arg, i32* %x.addr, align 4, !tbaa !4097
	call void @llvm.dbg.declare (metadata i32* %x.addr, metadata !4244, metadata !4081), !dbg !4118
	call void @llvm.dbg.declare (metadata i32* %y.addr, metadata !4245, metadata !4081), !dbg !4118
	store i32 %y.arg, i32* %y.addr, align 4, !tbaa !4097
	call void @llvm.dbg.declare (metadata i32* %y.addr, metadata !4246, metadata !4081), !dbg !4118
	call void @llvm.dbg.declare (metadata i32* %z.addr, metadata !4247, metadata !4081), !dbg !4118
	store i32 %z.arg, i32* %z.addr, align 4, !tbaa !4097
	call void @llvm.dbg.declare (metadata i32* %z.addr, metadata !4248, metadata !4081), !dbg !4118
	call void @llvm.dbg.declare (metadata i32* %isInNeighbourDomain.addr, metadata !4250, metadata !4081), !dbg !4118
	store i32 13, i32* %isInNeighbourDomain.addr, align 4, !tbaa !4101, !dbg !4249
	call void @llvm.dbg.declare (metadata [3 x i32]* %coord_shift.addr, metadata !4252, metadata !4081), !dbg !4118
	%0 = bitcast [3 x i32]* %coord_shift.addr to i32*, !dbg !4251
	store i32 0, i32*  %0, align 4, !tbaa !4097, !dbg !4251
	%1 = bitcast [3 x i32]* %coord_shift.addr to i8*, !dbg !4251
	%2 = getelementptr i8, i8*  %1, i64 4, !dbg !4251
	%3 = bitcast i8*  %2 to i32*, !dbg !4251
	store i32 0, i32*  %3, align 4, !tbaa !4097, !dbg !4251
	%4 = getelementptr i8, i8*  %1, i64 8, !dbg !4251
	%5 = bitcast i8*  %4 to i32*, !dbg !4251
	store i32 0, i32*  %5, align 4, !tbaa !4097, !dbg !4251
	%6 = load i32, i32* %x.addr, align 4, !tbaa !4101, !dbg !4253
	%7 = icmp sge i32  %6, 0, !dbg !4253
	br i1  %7, label %L.B0003, label %L.B1055, !dbg !4253
L.B1055:
	store i32 4, i32* %isInNeighbourDomain.addr, align 4, !tbaa !4101, !dbg !4254
	%8 = bitcast [3 x i32]* %coord_shift.addr to i32*, !dbg !4255
	store i32 1, i32*  %8, align 4, !tbaa !4097, !dbg !4255
	br label %L.B0003
L.B0003:
	%9 = load i32, i32* %x.addr, align 4, !tbaa !4101, !dbg !4256
	%10 = load %struct._Z6FsGridISt5arrayIdLm3EELi2EE*, %struct._Z6FsGridISt5arrayIdLm3EELi2EE** %_T42301896_52526.addr, align 8, !tbaa !4096, !dbg !4256
	%11 = bitcast %struct._Z6FsGridISt5arrayIdLm3EELi2EE*  %10 to i8*, !dbg !4256
	%12 = getelementptr i8, i8*  %11, i64 264, !dbg !4256
	%13 = bitcast i8*  %12 to i32*, !dbg !4256
	%14 = load i32, i32*  %13, align 4, !tbaa !4097, !dbg !4256
	%15 = icmp slt i32  %9,  %14, !dbg !4256
	br i1  %15, label %L.B0004, label %L.B1056, !dbg !4256
L.B1056:
	%16 = load i32, i32* %isInNeighbourDomain.addr, align 4, !tbaa !4101, !dbg !4257
	%17 = add i32  %16, 9, !dbg !4257
	store i32  %17, i32* %isInNeighbourDomain.addr, align 4, !tbaa !4101, !dbg !4257
	%18 = bitcast [3 x i32]* %coord_shift.addr to i32*, !dbg !4258
	store i32 -1, i32*  %18, align 4, !tbaa !4097, !dbg !4258
	br label %L.B0004
L.B0004:
	%19 = load i32, i32* %y.addr, align 4, !tbaa !4101, !dbg !4259
	%20 = icmp sge i32  %19, 0, !dbg !4259
	br i1  %20, label %L.B0005, label %L.B1057, !dbg !4259
L.B1057:
	%21 = load i32, i32* %isInNeighbourDomain.addr, align 4, !tbaa !4101, !dbg !4260
	%22 = sub i32  %21, 3, !dbg !4260
	store i32  %22, i32* %isInNeighbourDomain.addr, align 4, !tbaa !4101, !dbg !4260
	%23 = bitcast [3 x i32]* %coord_shift.addr to i8*, !dbg !4261
	%24 = getelementptr i8, i8*  %23, i64 4, !dbg !4261
	%25 = bitcast i8*  %24 to i32*, !dbg !4261
	store i32 1, i32*  %25, align 4, !tbaa !4097, !dbg !4261
	br label %L.B0005
L.B0005:
	%26 = load i32, i32* %y.addr, align 4, !tbaa !4101, !dbg !4256
	%27 = load %struct._Z6FsGridISt5arrayIdLm3EELi2EE*, %struct._Z6FsGridISt5arrayIdLm3EELi2EE** %_T42301896_52526.addr, align 8, !tbaa !4096, !dbg !4256
	%28 = bitcast %struct._Z6FsGridISt5arrayIdLm3EELi2EE*  %27 to i8*, !dbg !4256
	%29 = getelementptr i8, i8*  %28, i64 268, !dbg !4256
	%30 = bitcast i8*  %29 to i32*, !dbg !4256
	%31 = load i32, i32*  %30, align 4, !tbaa !4097, !dbg !4256
	%32 = icmp slt i32  %26,  %31, !dbg !4256
	br i1  %32, label %L.B0006, label %L.B1058, !dbg !4256
L.B1058:
	%33 = load i32, i32* %isInNeighbourDomain.addr, align 4, !tbaa !4101, !dbg !4262
	%34 = add i32  %33, 3, !dbg !4262
	store i32  %34, i32* %isInNeighbourDomain.addr, align 4, !tbaa !4101, !dbg !4262
	%35 = bitcast [3 x i32]* %coord_shift.addr to i8*, !dbg !4263
	%36 = getelementptr i8, i8*  %35, i64 4, !dbg !4263
	%37 = bitcast i8*  %36 to i32*, !dbg !4263
	store i32 -1, i32*  %37, align 4, !tbaa !4097, !dbg !4263
	br label %L.B0006
L.B0006:
	%38 = load i32, i32* %z.addr, align 4, !tbaa !4101, !dbg !4264
	%39 = icmp sge i32  %38, 0, !dbg !4264
	br i1  %39, label %L.B0007, label %L.B1059, !dbg !4264
L.B1059:
	%40 = load i32, i32* %isInNeighbourDomain.addr, align 4, !tbaa !4101, !dbg !4265
	%41 = sub i32  %40, 1, !dbg !4265
	store i32  %41, i32* %isInNeighbourDomain.addr, align 4, !tbaa !4101, !dbg !4265
	%42 = bitcast [3 x i32]* %coord_shift.addr to i8*, !dbg !4266
	%43 = getelementptr i8, i8*  %42, i64 8, !dbg !4266
	%44 = bitcast i8*  %43 to i32*, !dbg !4266
	store i32 1, i32*  %44, align 4, !tbaa !4097, !dbg !4266
	br label %L.B0007
L.B0007:
	%45 = load i32, i32* %z.addr, align 4, !tbaa !4101, !dbg !4256
	%46 = load %struct._Z6FsGridISt5arrayIdLm3EELi2EE*, %struct._Z6FsGridISt5arrayIdLm3EELi2EE** %_T42301896_52526.addr, align 8, !tbaa !4096, !dbg !4256
	%47 = bitcast %struct._Z6FsGridISt5arrayIdLm3EELi2EE*  %46 to i8*, !dbg !4256
	%48 = getelementptr i8, i8*  %47, i64 272, !dbg !4256
	%49 = bitcast i8*  %48 to i32*, !dbg !4256
	%50 = load i32, i32*  %49, align 4, !tbaa !4097, !dbg !4256
	%51 = icmp slt i32  %45,  %50, !dbg !4256
	br i1  %51, label %L.B0008, label %L.B1060, !dbg !4256
L.B1060:
	%52 = load i32, i32* %isInNeighbourDomain.addr, align 4, !tbaa !4101, !dbg !4267
	%53 = add i32  %52, 1, !dbg !4267
	store i32  %53, i32* %isInNeighbourDomain.addr, align 4, !tbaa !4101, !dbg !4267
	%54 = bitcast [3 x i32]* %coord_shift.addr to i8*, !dbg !4268
	%55 = getelementptr i8, i8*  %54, i64 8, !dbg !4268
	%56 = bitcast i8*  %55 to i32*, !dbg !4268
	store i32 -1, i32*  %56, align 4, !tbaa !4097, !dbg !4268
	br label %L.B0008
L.B0008:
	%57 = load i32, i32* %isInNeighbourDomain.addr, align 4, !tbaa !4101, !dbg !4269
	%58 = icmp eq i32  %57, 13, !dbg !4269
	br i1  %58, label %L.B0009, label %L.B1061, !dbg !4269
L.B1061:
	%59 = sext i32  %57 to i64, !dbg !4256
	%60 = load %struct._Z6FsGridISt5arrayIdLm3EELi2EE*, %struct._Z6FsGridISt5arrayIdLm3EELi2EE** %_T42301896_52526.addr, align 8, !tbaa !4096, !dbg !4256
	%61 = bitcast %struct._Z6FsGridISt5arrayIdLm3EELi2EE*  %60 to i8*, !dbg !4256
	%62 = getelementptr i8, i8*  %61, i64 92, !dbg !4256
	%63 = bitcast i8*  %62 to i32*, !dbg !4256
	%64 = getelementptr i32, i32*  %63, i64  %59, !dbg !4256
	%65 = load i32, i32*  %64, align 4, !tbaa !4097, !dbg !4256
	%66 = icmp ne i32  %65, -2, !dbg !4256
	br i1  %66, label %L.B0010, label %L.B1062, !dbg !4256
L.B1062:
	ret %struct._ZSt5arrayIdLm3EE*  null, !dbg !4270
L.B1063:
	br label %L.R0002, !dbg !4270
L.B0010:
	%67 = load i32, i32* %isInNeighbourDomain.addr, align 4, !tbaa !4101, !dbg !4256
	%68 = sext i32  %67 to i64, !dbg !4256
	%69 = load %struct._Z6FsGridISt5arrayIdLm3EELi2EE*, %struct._Z6FsGridISt5arrayIdLm3EELi2EE** %_T42301896_52526.addr, align 8, !tbaa !4096, !dbg !4256
	%70 = bitcast %struct._Z6FsGridISt5arrayIdLm3EELi2EE*  %69 to i8*, !dbg !4256
	%71 = getelementptr i8, i8*  %70, i64 92, !dbg !4256
	%72 = bitcast i8*  %71 to i32*, !dbg !4256
	%73 = getelementptr i32, i32*  %72, i64  %68, !dbg !4256
	%74 = load i32, i32*  %73, align 4, !tbaa !4097, !dbg !4256
	%75 = getelementptr i8, i8*  %70, i64 56, !dbg !4256
	%76 = bitcast i8*  %75 to i32*, !dbg !4256
	%77 = load i32, i32*  %76, align 4, !tbaa !4097, !dbg !4256
	%78 = icmp ne i32  %74,  %77, !dbg !4256
	br i1  %78, label %L.B0012, label %L.B1064, !dbg !4256
L.B1064:
	%79 = load i32, i32* %x.addr, align 4, !tbaa !4101, !dbg !4256
	%80 = bitcast [3 x i32]* %coord_shift.addr to i32*, !dbg !4256
	%81 = load i32, i32*  %80, align 4, !tbaa !4097, !dbg !4256
	%82 = bitcast %struct._Z6FsGridISt5arrayIdLm3EELi2EE*  %69 to i8*, !dbg !4256
	%83 = getelementptr i8, i8*  %82, i64 264, !dbg !4256
	%84 = bitcast i8*  %83 to i32*, !dbg !4256
	%85 = load i32, i32*  %84, align 4, !tbaa !4097, !dbg !4256
	%86 = mul i32  %81,  %85, !dbg !4256
	%87 = add i32  %79,  %86, !dbg !4256
	store i32  %87, i32* %x.addr, align 4, !tbaa !4101, !dbg !4256
	%88 = load i32, i32* %y.addr, align 4, !tbaa !4101, !dbg !4256
	%89 = bitcast [3 x i32]* %coord_shift.addr to i8*, !dbg !4256
	%90 = getelementptr i8, i8*  %89, i64 4, !dbg !4256
	%91 = bitcast i8*  %90 to i32*, !dbg !4256
	%92 = load i32, i32*  %91, align 4, !tbaa !4097, !dbg !4256
	%93 = getelementptr i8, i8*  %82, i64 268, !dbg !4256
	%94 = bitcast i8*  %93 to i32*, !dbg !4256
	%95 = load i32, i32*  %94, align 4, !tbaa !4097, !dbg !4256
	%96 = mul i32  %92,  %95, !dbg !4256
	%97 = add i32  %88,  %96, !dbg !4256
	store i32  %97, i32* %y.addr, align 4, !tbaa !4101, !dbg !4256
	%98 = load i32, i32* %z.addr, align 4, !tbaa !4101, !dbg !4256
	%99 = getelementptr i8, i8*  %89, i64 8, !dbg !4256
	%100 = bitcast i8*  %99 to i32*, !dbg !4256
	%101 = load i32, i32*  %100, align 4, !tbaa !4097, !dbg !4256
	%102 = getelementptr i8, i8*  %82, i64 272, !dbg !4256
	%103 = bitcast i8*  %102 to i32*, !dbg !4256
	%104 = load i32, i32*  %103, align 4, !tbaa !4097, !dbg !4256
	%105 = mul i32  %101,  %104, !dbg !4256
	%106 = add i32  %98,  %105, !dbg !4256
	store i32  %106, i32* %z.addr, align 4, !tbaa !4101, !dbg !4256
	br label %L.B0012
L.B0012:
	br label %L.B0009
L.B0009:
	%107 = load %struct._Z6FsGridISt5arrayIdLm3EELi2EE*, %struct._Z6FsGridISt5arrayIdLm3EELi2EE** %_T42301896_52526.addr, align 8, !tbaa !4096, !dbg !4271
	%108 = bitcast %struct._Z6FsGridISt5arrayIdLm3EELi2EE*  %107 to i8*, !dbg !4271
	%109 = bitcast %struct._Z6FsGridISt5arrayIdLm3EELi2EE** %..inline.addr to i8**, !dbg !4271
	store i8*  %108, i8**  %109, align 8, !tbaa !4096, !dbg !4271
	store i64 0, i64* %..inline.addr.1, align 8, !tbaa !4099, !dbg !4271
	%110 = load %struct._Z6FsGridISt5arrayIdLm3EELi2EE*, %struct._Z6FsGridISt5arrayIdLm3EELi2EE** %..inline.addr, align 8, !tbaa !4096, !dbg !4272
	%111 = bitcast %struct._Z6FsGridISt5arrayIdLm3EELi2EE*  %110 to i8*, !dbg !4272
	%112 = getelementptr i8, i8*  %111, i64 260, !dbg !4272
	%113 = bitcast i8*  %112 to i32*, !dbg !4272
	%114 = load i32, i32*  %113, align 4, !tbaa !4097, !dbg !4272
	%115 = icmp sle i32  %114, 1, !dbg !4272
	br i1  %115, label %L..inline.67383, label %L.B1065, !dbg !4272
L.B1065:
	%116 = bitcast %struct._Z6FsGridISt5arrayIdLm3EELi2EE*  %107 to i8*, !dbg !4273
	%117 = getelementptr i8, i8*  %116, i64 280, !dbg !4273
	%118 = bitcast i8*  %117 to i32*, !dbg !4273
	%119 = load i32, i32*  %118, align 4, !tbaa !4097, !dbg !4273
	%120 = getelementptr i8, i8*  %116, i64 276, !dbg !4273
	%121 = bitcast i8*  %120 to i32*, !dbg !4273
	%122 = load i32, i32*  %121, align 4, !tbaa !4097, !dbg !4273
	%123 = mul i32  %119,  %122, !dbg !4273
	%124 = load i32, i32* %z.addr, align 4, !tbaa !4101, !dbg !4273
	%125 = add i32  %124, 2, !dbg !4273
	%126 = mul i32  %123,  %125, !dbg !4273
	%127 = sext i32  %126 to i64, !dbg !4273
	store i64  %127, i64* %..inline.addr.1, align 8, !tbaa !4099, !dbg !4273
	br label %L..inline.67383
L..inline.67383:
	%128 = load %struct._Z6FsGridISt5arrayIdLm3EELi2EE*, %struct._Z6FsGridISt5arrayIdLm3EELi2EE** %..inline.addr, align 8, !tbaa !4096, !dbg !4274
	%129 = bitcast %struct._Z6FsGridISt5arrayIdLm3EELi2EE*  %128 to i8*, !dbg !4274
	%130 = getelementptr i8, i8*  %129, i64 256, !dbg !4274
	%131 = bitcast i8*  %130 to i32*, !dbg !4274
	%132 = load i32, i32*  %131, align 4, !tbaa !4097, !dbg !4274
	%133 = icmp sle i32  %132, 1, !dbg !4274
	br i1  %133, label %L..inline.67433, label %L.B1066, !dbg !4274
L.B1066:
	%134 = load %struct._Z6FsGridISt5arrayIdLm3EELi2EE*, %struct._Z6FsGridISt5arrayIdLm3EELi2EE** %_T42301896_52526.addr, align 8, !tbaa !4096, !dbg !4275
	%135 = bitcast %struct._Z6FsGridISt5arrayIdLm3EELi2EE*  %134 to i8*, !dbg !4275
	%136 = getelementptr i8, i8*  %135, i64 276, !dbg !4275
	%137 = bitcast i8*  %136 to i32*, !dbg !4275
	%138 = load i32, i32*  %137, align 4, !tbaa !4097, !dbg !4275
	%139 = load i32, i32* %y.addr, align 4, !tbaa !4101, !dbg !4275
	%140 = add i32  %139, 2, !dbg !4275
	%141 = mul i32  %138,  %140, !dbg !4275
	%142 = sext i32  %141 to i64, !dbg !4275
	%143 = load i64, i64* %..inline.addr.1, align 8, !tbaa !4099, !dbg !4275
	%144 = add i64  %142,  %143, !dbg !4275
	store i64  %144, i64* %..inline.addr.1, align 8, !tbaa !4099, !dbg !4275
	br label %L..inline.67433
L..inline.67433:
	%145 = load %struct._Z6FsGridISt5arrayIdLm3EELi2EE*, %struct._Z6FsGridISt5arrayIdLm3EELi2EE** %..inline.addr, align 8, !tbaa !4096, !dbg !4276
	%146 = bitcast %struct._Z6FsGridISt5arrayIdLm3EELi2EE*  %145 to i8*, !dbg !4276
	%147 = getelementptr i8, i8*  %146, i64 252, !dbg !4276
	%148 = bitcast i8*  %147 to i32*, !dbg !4276
	%149 = load i32, i32*  %148, align 4, !tbaa !4097, !dbg !4276
	%150 = icmp sle i32  %149, 1, !dbg !4276
	%151 = zext i1  %150 to i32, !dbg !4276
	%152 = trunc i32  %151 to i1, !dbg !4276
	%153 = load i64, i64* %..inline.addr.1, align 8, !tbaa !4099, !dbg !4276
	%154 = load i32, i32* %x.addr, align 4, !tbaa !4101, !dbg !4276
	%155 = sext i32  %154 to i64, !dbg !4276
	%156 = add i64  %155, 2, !dbg !4276
	%157 = add i64  %153,  %156, !dbg !4276
	%158 = select i1  %152, i64  %153, i64  %157, !dbg !4276
	%159 = load %struct._Z6FsGridISt5arrayIdLm3EELi2EE*, %struct._Z6FsGridISt5arrayIdLm3EELi2EE** %_T42301896_52526.addr, align 8, !tbaa !4096, !dbg !4277
	%160 = bitcast %struct._Z6FsGridISt5arrayIdLm3EELi2EE*  %159 to i8*, !dbg !4277
	%161 = getelementptr i8, i8*  %160, i64 744, !dbg !4277
	%162 = bitcast i8*  %161 to i8**, !dbg !4277
	%163 = load i8*, i8**  %162, align 8, !tbaa !4096, !dbg !4277
	%164 = mul i64  %158, 24, !dbg !4277
	%165 = getelementptr i8, i8*  %163, i64  %164, !dbg !4277
	%166 = bitcast i8*  %165 to %struct._ZSt5arrayIdLm3EE*, !dbg !4277
	ret %struct._ZSt5arrayIdLm3EE*  %166, !dbg !4277
L.R0002:
	ret %struct._ZSt5arrayIdLm3EE* null
}
define linkonce_odr void @_ZN6FsGridISt5arrayIdLm3EELi2EE17getPhysicalCoordsEiii(%struct._ZSt5arrayIdLm3EE* sret %sretaddr, %struct._Z6FsGridISt5arrayIdLm3EELi2EE* %_T42566248_52527.arg, i32 signext %x.arg, i32 signext %y.arg, i32 signext %z.arg) #0 inlinehint !dbg !4282 {
L.entry:
	%_T42566248_52527.addr = alloca %struct._Z6FsGridISt5arrayIdLm3EELi2EE*, align 8
	%x.addr = alloca i32, align 4
	%y.addr = alloca i32, align 4
	%z.addr = alloca i32, align 4
	%coords.addr = alloca %struct._ZSt5arrayIdLm3EE, align 8
	%_T42568024_52527.addr = alloca %struct._ZSt5arrayIdLm3EE, align 8

	call void @llvm.dbg.declare (metadata %struct._Z6FsGridISt5arrayIdLm3EELi2EE** %_T42566248_52527.addr, metadata !4358, metadata !4081), !dbg !4283
	store %struct._Z6FsGridISt5arrayIdLm3EELi2EE* %_T42566248_52527.arg, %struct._Z6FsGridISt5arrayIdLm3EELi2EE** %_T42566248_52527.addr, align 8, !tbaa !4096
	call void @llvm.dbg.declare (metadata %struct._Z6FsGridISt5arrayIdLm3EELi2EE** %_T42566248_52527.addr, metadata !4359, metadata !4081), !dbg !4283
	call void @llvm.dbg.declare (metadata i32* %x.addr, metadata !4360, metadata !4081), !dbg !4283
	store i32 %x.arg, i32* %x.addr, align 4, !tbaa !4097
	call void @llvm.dbg.declare (metadata i32* %x.addr, metadata !4361, metadata !4081), !dbg !4283
	call void @llvm.dbg.declare (metadata i32* %y.addr, metadata !4362, metadata !4081), !dbg !4283
	store i32 %y.arg, i32* %y.addr, align 4, !tbaa !4097
	call void @llvm.dbg.declare (metadata i32* %y.addr, metadata !4363, metadata !4081), !dbg !4283
	call void @llvm.dbg.declare (metadata i32* %z.addr, metadata !4364, metadata !4081), !dbg !4283
	store i32 %z.arg, i32* %z.addr, align 4, !tbaa !4097
	call void @llvm.dbg.declare (metadata i32* %z.addr, metadata !4365, metadata !4081), !dbg !4283
	%0 = load %struct._Z6FsGridISt5arrayIdLm3EELi2EE*, %struct._Z6FsGridISt5arrayIdLm3EELi2EE** %_T42566248_52527.addr, align 8, !tbaa !4096, !dbg !4366
	%1 = bitcast %struct._Z6FsGridISt5arrayIdLm3EELi2EE*  %0 to double*, !dbg !4366
	%2 = load double, double*  %1, align 8, !tbaa !4097, !dbg !4366
	%3 = load i32, i32* %x.addr, align 4, !tbaa !4101, !dbg !4366
	%4 = bitcast %struct._Z6FsGridISt5arrayIdLm3EELi2EE*  %0 to i8*, !dbg !4366
	%5 = getelementptr i8, i8*  %4, i64 288, !dbg !4366
	%6 = bitcast i8*  %5 to i32*, !dbg !4366
	%7 = load i32, i32*  %6, align 4, !tbaa !4097, !dbg !4366
	%8 = add i32  %3,  %7, !dbg !4366
	%9 = sitofp i32  %8 to double, !dbg !4366
	%10 = getelementptr i8, i8*  %4, i64 24, !dbg !4366
	%11 = bitcast i8*  %10 to double*, !dbg !4366
	%12 = load double, double*  %11, align 8, !tbaa !4097, !dbg !4366
	%13 = call double @llvm.fma.f64 (double  %2, double  %9, double  %12), !dbg !4366
	call void @llvm.dbg.declare (metadata %struct._ZSt5arrayIdLm3EE* %coords.addr, metadata !4367, metadata !4081), !dbg !4283
	%14 = bitcast %struct._ZSt5arrayIdLm3EE* %coords.addr to double*, !dbg !4366
	store double  %13, double*  %14, align 8, !tbaa !4097, !dbg !4366
	%15 = load %struct._Z6FsGridISt5arrayIdLm3EELi2EE*, %struct._Z6FsGridISt5arrayIdLm3EELi2EE** %_T42566248_52527.addr, align 8, !tbaa !4096, !dbg !4366
	%16 = bitcast %struct._Z6FsGridISt5arrayIdLm3EELi2EE*  %15 to i8*, !dbg !4366
	%17 = getelementptr i8, i8*  %16, i64 8, !dbg !4366
	%18 = bitcast i8*  %17 to double*, !dbg !4366
	%19 = load double, double*  %18, align 8, !tbaa !4097, !dbg !4366
	%20 = load i32, i32* %y.addr, align 4, !tbaa !4101, !dbg !4366
	%21 = getelementptr i8, i8*  %16, i64 292, !dbg !4366
	%22 = bitcast i8*  %21 to i32*, !dbg !4366
	%23 = load i32, i32*  %22, align 4, !tbaa !4097, !dbg !4366
	%24 = add i32  %20,  %23, !dbg !4366
	%25 = sitofp i32  %24 to double, !dbg !4366
	%26 = getelementptr i8, i8*  %16, i64 32, !dbg !4366
	%27 = bitcast i8*  %26 to double*, !dbg !4366
	%28 = load double, double*  %27, align 8, !tbaa !4097, !dbg !4366
	%29 = call double @llvm.fma.f64 (double  %19, double  %25, double  %28), !dbg !4366
	%30 = bitcast %struct._ZSt5arrayIdLm3EE* %coords.addr to i8*, !dbg !4366
	%31 = getelementptr i8, i8*  %30, i64 8, !dbg !4366
	%32 = bitcast i8*  %31 to double*, !dbg !4366
	store double  %29, double*  %32, align 8, !tbaa !4097, !dbg !4366
	%33 = getelementptr i8, i8*  %16, i64 16, !dbg !4366
	%34 = bitcast i8*  %33 to double*, !dbg !4366
	%35 = load double, double*  %34, align 8, !tbaa !4097, !dbg !4366
	%36 = load i32, i32* %z.addr, align 4, !tbaa !4101, !dbg !4366
	%37 = getelementptr i8, i8*  %16, i64 296, !dbg !4366
	%38 = bitcast i8*  %37 to i32*, !dbg !4366
	%39 = load i32, i32*  %38, align 4, !tbaa !4097, !dbg !4366
	%40 = add i32  %36,  %39, !dbg !4366
	%41 = sitofp i32  %40 to double, !dbg !4366
	%42 = getelementptr i8, i8*  %16, i64 40, !dbg !4366
	%43 = bitcast i8*  %42 to double*, !dbg !4366
	%44 = load double, double*  %43, align 8, !tbaa !4097, !dbg !4366
	%45 = call double @llvm.fma.f64 (double  %35, double  %41, double  %44), !dbg !4366
	%46 = getelementptr i8, i8*  %30, i64 16, !dbg !4366
	%47 = bitcast i8*  %46 to double*, !dbg !4366
	store double  %45, double*  %47, align 8, !tbaa !4097, !dbg !4366
	%48 = bitcast %struct._ZSt5arrayIdLm3EE* %coords.addr to i64*, !dbg !4368
	%49 = load i64, i64*  %48, align 8, !tbaa !4097, !dbg !4368
	%50 = bitcast %struct._ZSt5arrayIdLm3EE* %_T42568024_52527.addr to i64*, !dbg !4368
	store i64  %49, i64*  %50, align 8, !tbaa !4097, !dbg !4368
	%51 = bitcast i8*  %31 to i64*, !dbg !4368
	%52 = load i64, i64*  %51, align 8, !tbaa !4097, !dbg !4368
	%53 = bitcast %struct._ZSt5arrayIdLm3EE* %_T42568024_52527.addr to i8*, !dbg !4368
	%54 = getelementptr i8, i8*  %53, i64 8, !dbg !4368
	%55 = bitcast i8*  %54 to i64*, !dbg !4368
	store i64  %52, i64*  %55, align 8, !tbaa !4097, !dbg !4368
	%56 = bitcast i8*  %46 to i64*, !dbg !4368
	%57 = load i64, i64*  %56, align 8, !tbaa !4097, !dbg !4368
	%58 = getelementptr i8, i8*  %53, i64 16, !dbg !4368
	%59 = bitcast i8*  %58 to i64*, !dbg !4368
	store i64  %57, i64*  %59, align 8, !tbaa !4097, !dbg !4368
	%60 = load i64, i64*  %50, align 8, !tbaa !4097, !dbg !4368
	%61 = bitcast %struct._ZSt5arrayIdLm3EE* %sretaddr to i64*, !dbg !4368
	store i64  %60, i64*  %61, align 8, !tbaa !4097, !dbg !4368
	%62 = load i64, i64*  %55, align 8, !tbaa !4097, !dbg !4368
	%63 = bitcast %struct._ZSt5arrayIdLm3EE* %sretaddr to i8*, !dbg !4368
	%64 = getelementptr i8, i8*  %63, i64 8, !dbg !4368
	%65 = bitcast i8*  %64 to i64*, !dbg !4368
	store i64  %62, i64*  %65, align 8, !tbaa !4097, !dbg !4368
	%66 = getelementptr i8, i8*  %63, i64 16, !dbg !4368
	%67 = bitcast i8*  %66 to i64*, !dbg !4368
	store i64  %57, i64*  %67, align 8, !tbaa !4097, !dbg !4368
	ret void, !dbg !4368
}
define linkonce_odr void @_ZNSt11char_traitsIcE6assignERcRKc(i8* %__c1.arg, i8* %__c2.arg) #0 inlinehint !dbg !4376 {
L.entry:
	%__c1.addr = alloca i8*, align 8
	%__c2.addr = alloca i8*, align 8

	call void @llvm.dbg.declare (metadata i8** %__c1.addr, metadata !4380, metadata !4081), !dbg !4377
	store i8* %__c1.arg, i8** %__c1.addr, align 8, !tbaa !4096
	call void @llvm.dbg.declare (metadata i8** %__c1.addr, metadata !4381, metadata !4081), !dbg !4377
	call void @llvm.dbg.declare (metadata i8** %__c2.addr, metadata !4382, metadata !4081), !dbg !4377
	store i8* %__c2.arg, i8** %__c2.addr, align 8, !tbaa !4096
	call void @llvm.dbg.declare (metadata i8** %__c2.addr, metadata !4383, metadata !4081), !dbg !4377
	%0 = load i8*, i8** %__c2.addr, align 8, !tbaa !4096, !dbg !4384
	%1 = load i8, i8*  %0, align 1, !tbaa !4097, !dbg !4384
	%2 = load i8*, i8** %__c1.addr, align 8, !tbaa !4096, !dbg !4384
	store i8  %1, i8*  %2, align 1, !tbaa !4097, !dbg !4384
	ret void, !dbg !4384
}
define linkonce_odr i64 @_ZNSt11char_traitsIcE6lengthEPKc(i8* %__s.arg) #0 inlinehint !dbg !4388 {
L.entry:
	%__s.addr = alloca i8*, align 8

	call void @llvm.dbg.declare (metadata i8** %__s.addr, metadata !4392, metadata !4081), !dbg !4389
	store i8* %__s.arg, i8** %__s.addr, align 8, !tbaa !4096
	call void @llvm.dbg.declare (metadata i8** %__s.addr, metadata !4393, metadata !4081), !dbg !4389
	%0 = load i8*, i8** %__s.addr, align 8, !tbaa !4096, !dbg !4394
	%1 = call i64  @strlen (i8*  %0) nounwind, !dbg !4394
	ret i64  %1, !dbg !4394
}
define linkonce_odr i8* @_ZNSt11char_traitsIcE4copyEPcPKcm(i8* %__s1.arg, i8* %__s2.arg, i64 %__n.arg) #0 inlinehint !dbg !4399 {
L.entry:
	%__s1.addr = alloca i8*, align 8
	%__s2.addr = alloca i8*, align 8
	%__n.addr = alloca i64, align 8

	call void @llvm.dbg.declare (metadata i8** %__s1.addr, metadata !4403, metadata !4081), !dbg !4400
	store i8* %__s1.arg, i8** %__s1.addr, align 8, !tbaa !4096
	call void @llvm.dbg.declare (metadata i8** %__s1.addr, metadata !4404, metadata !4081), !dbg !4400
	call void @llvm.dbg.declare (metadata i8** %__s2.addr, metadata !4405, metadata !4081), !dbg !4400
	store i8* %__s2.arg, i8** %__s2.addr, align 8, !tbaa !4096
	call void @llvm.dbg.declare (metadata i8** %__s2.addr, metadata !4406, metadata !4081), !dbg !4400
	call void @llvm.dbg.declare (metadata i64* %__n.addr, metadata !4407, metadata !4081), !dbg !4400
	store i64 %__n.arg, i64* %__n.addr, align 8, !tbaa !4097
	call void @llvm.dbg.declare (metadata i64* %__n.addr, metadata !4408, metadata !4081), !dbg !4400
	%0 = load i64, i64* %__n.addr, align 8, !tbaa !4099, !dbg !4409
	%1 = icmp ne i64  %0, 0, !dbg !4409
	br i1  %1, label %L.B0013, label %L.B1085, !dbg !4409
L.B1085:
	%2 = load i8*, i8** %__s1.addr, align 8, !tbaa !4096, !dbg !4410
	ret i8*  %2, !dbg !4410
L.B1086:
	br label %L.R0006, !dbg !4410
L.B0013:
	%3 = load i8*, i8** %__s1.addr, align 8, !tbaa !4096, !dbg !4411
	%4 = load i8*, i8** %__s2.addr, align 8, !tbaa !4096, !dbg !4411
	%5 = load i64, i64* %__n.addr, align 8, !tbaa !4099, !dbg !4411
	%6 = call i8*  @memcpy (i8*  %3, i8*  %4, i64  %5) nounwind, !dbg !4411
	ret i8*  %6, !dbg !4411
L.R0006:
	ret i8* null
}

%struct._ZSaIcE = type <{ [1 x i8]}> 

define linkonce_odr void @_ZNSaIcEC1Ev(%struct._ZSaIcE* %_T42566248_52535.arg) #0 inlinehint !dbg !4419 {
L.entry:
	%_T42566248_52535.addr = alloca %struct._ZSaIcE*, align 8

	call void @llvm.dbg.declare (metadata %struct._ZSaIcE** %_T42566248_52535.addr, metadata !4423, metadata !4081), !dbg !4420
	store %struct._ZSaIcE* %_T42566248_52535.arg, %struct._ZSaIcE** %_T42566248_52535.addr, align 8, !tbaa !4096
	call void @llvm.dbg.declare (metadata %struct._ZSaIcE** %_T42566248_52535.addr, metadata !4424, metadata !4081), !dbg !4420
	ret void, !dbg !4425
}
define linkonce_odr void @_ZNSaIcEC2Ev(%struct._ZSaIcE* %_T42566248_52536.arg) #0 inlinehint !dbg !4427 {
L.entry:
	%_T42566248_52536.addr = alloca %struct._ZSaIcE*, align 8

	store %struct._ZSaIcE* %_T42566248_52536.arg, %struct._ZSaIcE** %_T42566248_52536.addr, align 8, !tbaa !4096
	ret void, !dbg !4435
}
define linkonce_odr void @_ZNSaIcED1Ev(%struct._ZSaIcE* %_T42566248_52537.arg) #0 inlinehint !dbg !4437 {
L.entry:
	%_T42566248_52537.addr = alloca %struct._ZSaIcE*, align 8

	call void @llvm.dbg.declare (metadata %struct._ZSaIcE** %_T42566248_52537.addr, metadata !4441, metadata !4081), !dbg !4438
	store %struct._ZSaIcE* %_T42566248_52537.arg, %struct._ZSaIcE** %_T42566248_52537.addr, align 8, !tbaa !4096
	call void @llvm.dbg.declare (metadata %struct._ZSaIcE** %_T42566248_52537.addr, metadata !4442, metadata !4081), !dbg !4438
	ret void, !dbg !4443
}
define linkonce_odr void @_ZNSaIcED2Ev(%struct._ZSaIcE* %_T42566248_52538.arg) #0 inlinehint !dbg !4445 {
L.entry:
	%_T42566248_52538.addr = alloca %struct._ZSaIcE*, align 8

	store %struct._ZSaIcE* %_T42566248_52538.arg, %struct._ZSaIcE** %_T42566248_52538.addr, align 8, !tbaa !4096
	ret void, !dbg !4453
}
define linkonce_odr void @_ZNSt16allocator_traitsISaIcEE10deallocateERS0_Pcm(%struct._ZSaIcE* %__a.arg, i8* %__p.arg, i64 %__n.arg) #0 inlinehint !dbg !4463 {
L.entry:
	%__a.addr = alloca %struct._ZSaIcE*, align 8
	%__p.addr = alloca i8*, align 8
	%__n.addr = alloca i64, align 8
	%..inline.addr = alloca i8*, align 8

	call void @llvm.dbg.declare (metadata %struct._ZSaIcE** %__a.addr, metadata !4471, metadata !4081), !dbg !4464
	store %struct._ZSaIcE* %__a.arg, %struct._ZSaIcE** %__a.addr, align 8, !tbaa !4096
	call void @llvm.dbg.declare (metadata %struct._ZSaIcE** %__a.addr, metadata !4472, metadata !4081), !dbg !4464
	call void @llvm.dbg.declare (metadata i8** %__p.addr, metadata !4473, metadata !4081), !dbg !4464
	store i8* %__p.arg, i8** %__p.addr, align 8, !tbaa !4096
	call void @llvm.dbg.declare (metadata i8** %__p.addr, metadata !4474, metadata !4081), !dbg !4464
	call void @llvm.dbg.declare (metadata i64* %__n.addr, metadata !4475, metadata !4081), !dbg !4464
	store i64 %__n.arg, i64* %__n.addr, align 8, !tbaa !4097
	call void @llvm.dbg.declare (metadata i64* %__n.addr, metadata !4476, metadata !4081), !dbg !4464
	%0 = load i8*, i8** %__p.addr, align 8, !tbaa !4096, !dbg !4477
	call void  @_ZdlPv (i8*  %0) nounwind, !dbg !4478
	ret void, !dbg !4477
}

%struct.__locale_struct = type <{ [13 x %struct.__locale_data*], i16*, i32*, i32*, [13 x i8*]}> 
%struct.__SO__NSt6locale5facetE = type <{ i32 (...)* (...)*, i32}> 
%struct._ZSt5ctypeIcE = type <{ %struct.__SO__NSt6locale5facetE, [4 x i8], %struct.__locale_struct*, i8, [7 x i8], i32*, i32*, i16*, i8, [256 x i8], [256 x i8], i8, [6 x i8]}> 
%struct.__locale_data = type opaque

define linkonce_odr signext i8 @_ZNKSt5ctypeIcE5widenEc(%struct._ZSt5ctypeIcE* %_T42566432_52546.arg, i8 signext %__c.arg) #0 inlinehint !dbg !4484 {
L.entry:
	%_T42566432_52546.addr = alloca %struct._ZSt5ctypeIcE*, align 8
	%__c.addr = alloca i8, align 1
	%.Q0000.addr = alloca i32, align 4

	call void @llvm.dbg.declare (metadata %struct._ZSt5ctypeIcE** %_T42566432_52546.addr, metadata !4488, metadata !4081), !dbg !4485
	store %struct._ZSt5ctypeIcE* %_T42566432_52546.arg, %struct._ZSt5ctypeIcE** %_T42566432_52546.addr, align 8, !tbaa !4096
	call void @llvm.dbg.declare (metadata %struct._ZSt5ctypeIcE** %_T42566432_52546.addr, metadata !4489, metadata !4081), !dbg !4485
	call void @llvm.dbg.declare (metadata i8* %__c.addr, metadata !4490, metadata !4081), !dbg !4485
	store i8 %__c.arg, i8* %__c.addr, align 1, !tbaa !4097
	call void @llvm.dbg.declare (metadata i8* %__c.addr, metadata !4491, metadata !4081), !dbg !4485
	%0 = load %struct._ZSt5ctypeIcE*, %struct._ZSt5ctypeIcE** %_T42566432_52546.addr, align 8, !tbaa !4096, !dbg !4492
	%1 = bitcast %struct._ZSt5ctypeIcE*  %0 to i8*, !dbg !4492
	%2 = getelementptr i8, i8*  %1, i64 56, !dbg !4492
	%3 = load i8, i8*  %2, align 1, !tbaa !4097, !dbg !4492
	%4 = sext i8  %3 to i32, !dbg !4492
	%5 = icmp eq i32  %4, 0, !dbg !4492
	br i1  %5, label %L.B0014, label %L.B1093, !dbg !4492
L.B1093:
	%6 = bitcast %struct._ZSt5ctypeIcE*  %0 to i8*, !dbg !4493
	%7 = getelementptr i8, i8*  %6, i64 57, !dbg !4493
	%8 = load i8, i8* %__c.addr, align 1, !tbaa !4097, !dbg !4493
	%9 = sext i8  %8 to i32, !dbg !4493
	%10 = and i32  %9, 255, !dbg !4493
	%11 = sext i32  %10 to i64, !dbg !4493
	%12 = getelementptr i8, i8*  %7, i64  %11, !dbg !4493
	%13 = load i8, i8*  %12, align 1, !tbaa !4097, !dbg !4493
	ret i8  %13, !dbg !4493
L.B1094:
	br label %L.R0012, !dbg !4493
L.B0014:
	%14 = load %struct._ZSt5ctypeIcE*, %struct._ZSt5ctypeIcE** %_T42566432_52546.addr, align 8, !tbaa !4096, !dbg !4494
	call void  @_ZNKSt5ctypeIcE13_M_widen_initEv (%struct._ZSt5ctypeIcE*  %14), !dbg !4494
	%15 = load %struct._ZSt5ctypeIcE*, %struct._ZSt5ctypeIcE** %_T42566432_52546.addr, align 8, !tbaa !4096, !dbg !4495
	%16 = load i8, i8* %__c.addr, align 1, !tbaa !4097, !dbg !4495
	%17 = bitcast %struct._ZSt5ctypeIcE*  %15 to i8**, !dbg !4495
	%18 = load i8*, i8**  %17, align 8, !tbaa !4096, !dbg !4495
	%19 = getelementptr i8, i8*  %18, i64 48, !dbg !4495
	%20 = bitcast i8*  %19 to i8 (%struct._ZSt5ctypeIcE*, i8)**, !dbg !4495
	%21 = load i8 (%struct._ZSt5ctypeIcE*, i8)*, i8 (%struct._ZSt5ctypeIcE*, i8)**  %20, align 8, !tbaa !4096, !dbg !4495
	%22 = call i8  %21 (%struct._ZSt5ctypeIcE*  %15, i8  %16), !dbg !4495
	%23 = sext i8  %22 to i32, !dbg !4495
	store i32  %23, i32* %.Q0000.addr, align 4, !tbaa !4101, !dbg !4495
	%24 = shl i32  %23, 24, !dbg !4495
	%25 = ashr i32  %24, 24, !dbg !4495
	%26 = trunc i32  %25 to i8, !dbg !4495
	ret i8  %26, !dbg !4495
L.R0012:
	ret i8 0
}

%struct._ZSt8ios_base = type <{ i32 (...)* (...)*, i64, i64, i32, i32, i32, [4 x i8], %struct._ZNSt8ios_base14_Callback_listE*, %struct._ZNSt8ios_base6_WordsE, [8 x %struct._ZNSt8ios_base6_WordsE], i32, [4 x i8], %struct._ZNSt8ios_base6_WordsE*, %struct._ZSt6locale}> 
%struct._ZNSt8ios_base6_WordsE = type <{ i8*, i64}> 
%struct._ZNSt6locale5_ImplE = type <{ i32, [4 x i8], %struct._ZNSt6locale5facetE**, i64, %struct._ZNSt6locale5facetE**, i8**}> 
%struct._ZSt6locale = type <{ %struct._ZNSt6locale5_ImplE*}> 
%struct._ZSt15basic_streambufIcSt11char_traitsIcEE = type <{ i32 (...)* (...)*, i8*, i8*, i8*, i8*, i8*, i8*, %struct._ZSt6locale}> 
%struct._ZNSt6locale5facetE = type <{ i32 (...)* (...)*, i32, [4 x i8]}> 
%struct._ZSt9basic_iosIcSt11char_traitsIcEE = type <{ %struct._ZSt8ios_base, %struct._ZSo*, i8, i8, [6 x i8], %struct._ZSt15basic_streambufIcSt11char_traitsIcEE*, %struct._ZSt5ctypeIcE*, %struct._ZSt7num_putIcSt19ostreambuf_iteratorIcSt11char_traitsIcEEE*, %struct._ZSt7num_getIcSt19istreambuf_iteratorIcSt11char_traitsIcEEE*}> 
%struct._ZSt7num_putIcSt19ostreambuf_iteratorIcSt11char_traitsIcEEE = type <{ %struct.__SO__NSt6locale5facetE, [4 x i8]}> 
%struct._ZSo = type <{ i32 (...)* (...)*, %struct._ZSt9basic_iosIcSt11char_traitsIcEE}> 
%struct._ZNSt8ios_base14_Callback_listE = type <{ %struct._ZNSt8ios_base14_Callback_listE*, void (i32, %struct._ZSt8ios_base*, i32)*, i32, i32}> 
%struct._ZSt7num_getIcSt19istreambuf_iteratorIcSt11char_traitsIcEEE = type <{ %struct.__SO__NSt6locale5facetE, [4 x i8]}> 

define linkonce_odr signext i32 @_ZNKSt9basic_iosIcSt11char_traitsIcEE7rdstateEv(%struct._ZSt9basic_iosIcSt11char_traitsIcEE* %_T42566248_52549.arg) #0 inlinehint !dbg !4503 {
L.entry:
	%_T42566248_52549.addr = alloca %struct._ZSt9basic_iosIcSt11char_traitsIcEE*, align 8

	call void @llvm.dbg.declare (metadata %struct._ZSt9basic_iosIcSt11char_traitsIcEE** %_T42566248_52549.addr, metadata !4507, metadata !4081), !dbg !4504
	store %struct._ZSt9basic_iosIcSt11char_traitsIcEE* %_T42566248_52549.arg, %struct._ZSt9basic_iosIcSt11char_traitsIcEE** %_T42566248_52549.addr, align 8, !tbaa !4096
	call void @llvm.dbg.declare (metadata %struct._ZSt9basic_iosIcSt11char_traitsIcEE** %_T42566248_52549.addr, metadata !4508, metadata !4081), !dbg !4504
	%0 = load %struct._ZSt9basic_iosIcSt11char_traitsIcEE*, %struct._ZSt9basic_iosIcSt11char_traitsIcEE** %_T42566248_52549.addr, align 8, !tbaa !4096, !dbg !4509
	%1 = bitcast %struct._ZSt9basic_iosIcSt11char_traitsIcEE*  %0 to i8*, !dbg !4509
	%2 = getelementptr i8, i8*  %1, i64 32, !dbg !4509
	%3 = bitcast i8*  %2 to i32*, !dbg !4509
	%4 = load i32, i32*  %3, align 4, !tbaa !4097, !dbg !4509
	ret i32  %4, !dbg !4509
}
define linkonce_odr void @_ZNSt9basic_iosIcSt11char_traitsIcEE8setstateESt12_Ios_Iostate(%struct._ZSt9basic_iosIcSt11char_traitsIcEE* %_T42566248_52553.arg, i32 signext %__state.arg) #0 inlinehint !dbg !4513 {
L.entry:
	%_T42566248_52553.addr = alloca %struct._ZSt9basic_iosIcSt11char_traitsIcEE*, align 8
	%__state.addr = alloca i32, align 4
	%..inline.addr = alloca i32, align 4

	call void @llvm.dbg.declare (metadata %struct._ZSt9basic_iosIcSt11char_traitsIcEE** %_T42566248_52553.addr, metadata !4525, metadata !4081), !dbg !4514
	store %struct._ZSt9basic_iosIcSt11char_traitsIcEE* %_T42566248_52553.arg, %struct._ZSt9basic_iosIcSt11char_traitsIcEE** %_T42566248_52553.addr, align 8, !tbaa !4096
	call void @llvm.dbg.declare (metadata %struct._ZSt9basic_iosIcSt11char_traitsIcEE** %_T42566248_52553.addr, metadata !4526, metadata !4081), !dbg !4514
	call void @llvm.dbg.declare (metadata i32* %__state.addr, metadata !4527, metadata !4081), !dbg !4514
	store i32 %__state.arg, i32* %__state.addr, align 4, !tbaa !4097
	call void @llvm.dbg.declare (metadata i32* %__state.addr, metadata !4528, metadata !4081), !dbg !4514
	%0 = load i32, i32* %__state.addr, align 4, !tbaa !4097, !dbg !4529
	%1 = load %struct._ZSt9basic_iosIcSt11char_traitsIcEE*, %struct._ZSt9basic_iosIcSt11char_traitsIcEE** %_T42566248_52553.addr, align 8, !tbaa !4096, !dbg !4529
	%2 = bitcast %struct._ZSt9basic_iosIcSt11char_traitsIcEE*  %1 to i8*, !dbg !4529
	%3 = getelementptr i8, i8*  %2, i64 32, !dbg !4529
	%4 = bitcast i8*  %3 to i32*, !dbg !4529
	%5 = load i32, i32*  %4, align 4, !tbaa !4097, !dbg !4529
	%6 = or i32  %0,  %5, !dbg !4529
	call void  @_ZNSt9basic_iosIcSt11char_traitsIcEE5clearESt12_Ios_Iostate (%struct._ZSt9basic_iosIcSt11char_traitsIcEE*  %1, i32  %6), !dbg !4530
	ret void, !dbg !4529
}
define linkonce_odr signext i8 @_ZNKSt9basic_iosIcSt11char_traitsIcEE5widenEc(%struct._ZSt9basic_iosIcSt11char_traitsIcEE* %_T42566248_52555.arg, i8 signext %__c.arg) #0 inlinehint !dbg !4534 {
L.entry:
	%_T42566248_52555.addr = alloca %struct._ZSt9basic_iosIcSt11char_traitsIcEE*, align 8
	%__c.addr = alloca i8, align 1
	%..inline.addr = alloca %struct._ZSt5ctypeIcE*, align 8
	%..inline.addr.1 = alloca %struct._ZSt5ctypeIcE*, align 8
	%..inline.addr.2 = alloca i8, align 1
	%..inline.addr.3 = alloca i8, align 1
	%.Q0001.addr = alloca i32, align 4

	call void @llvm.dbg.declare (metadata %struct._ZSt9basic_iosIcSt11char_traitsIcEE** %_T42566248_52555.addr, metadata !4546, metadata !4081), !dbg !4535
	store %struct._ZSt9basic_iosIcSt11char_traitsIcEE* %_T42566248_52555.arg, %struct._ZSt9basic_iosIcSt11char_traitsIcEE** %_T42566248_52555.addr, align 8, !tbaa !4096
	call void @llvm.dbg.declare (metadata %struct._ZSt9basic_iosIcSt11char_traitsIcEE** %_T42566248_52555.addr, metadata !4547, metadata !4081), !dbg !4535
	call void @llvm.dbg.declare (metadata i8* %__c.addr, metadata !4548, metadata !4081), !dbg !4535
	store i8 %__c.arg, i8* %__c.addr, align 1, !tbaa !4097
	call void @llvm.dbg.declare (metadata i8* %__c.addr, metadata !4549, metadata !4081), !dbg !4535
	%0 = load %struct._ZSt9basic_iosIcSt11char_traitsIcEE*, %struct._ZSt9basic_iosIcSt11char_traitsIcEE** %_T42566248_52555.addr, align 8, !tbaa !4096, !dbg !4550
	%1 = bitcast %struct._ZSt9basic_iosIcSt11char_traitsIcEE*  %0 to i8*, !dbg !4550
	%2 = getelementptr i8, i8*  %1, i64 240, !dbg !4550
	%3 = bitcast i8*  %2 to i8**, !dbg !4550
	%4 = load i8*, i8**  %3, align 8, !tbaa !4096, !dbg !4550
	%5 = bitcast %struct._ZSt5ctypeIcE** %..inline.addr to i8**, !dbg !4550
	store i8*  %4, i8**  %5, align 8, !tbaa !4096, !dbg !4550
	%6 = load %struct._ZSt5ctypeIcE*, %struct._ZSt5ctypeIcE** %..inline.addr, align 8, !tbaa !4096, !dbg !4550
	%7 = bitcast %struct._ZSt5ctypeIcE*  %6 to i8*, !dbg !4550
	%8 = icmp ne i8*  %7,  null, !dbg !4550
	br i1  %8, label %L..inline.67918, label %L.B1103, !dbg !4550
L.B1103:
	call void  @_ZSt16__throw_bad_castv () noreturn, !dbg !4551
	br label %L..inline.67918
L..inline.67918:
	%9 = load %struct._ZSt5ctypeIcE*, %struct._ZSt5ctypeIcE** %..inline.addr, align 8, !tbaa !4096, !dbg !4552
	%10 = bitcast %struct._ZSt5ctypeIcE*  %9 to i8*, !dbg !4552
	%11 = bitcast %struct._ZSt5ctypeIcE** %..inline.addr.1 to i8**, !dbg !4552
	store i8*  %10, i8**  %11, align 8, !tbaa !4096, !dbg !4552
	%12 = load i8, i8* %__c.addr, align 1, !tbaa !4097, !dbg !4550
	store i8  %12, i8* %..inline.addr.2, align 1, !tbaa !4097, !dbg !4550
	%13 = load %struct._ZSt5ctypeIcE*, %struct._ZSt5ctypeIcE** %..inline.addr.1, align 8, !tbaa !4096, !dbg !4550
	%14 = bitcast %struct._ZSt5ctypeIcE*  %13 to i8*, !dbg !4550
	%15 = getelementptr i8, i8*  %14, i64 56, !dbg !4550
	%16 = load i8, i8*  %15, align 1, !tbaa !4097, !dbg !4550
	%17 = sext i8  %16 to i32, !dbg !4550
	%18 = icmp eq i32  %17, 0, !dbg !4550
	br i1  %18, label %L..inline.67924, label %L.B1104, !dbg !4550
L.B1104:
	%19 = bitcast %struct._ZSt5ctypeIcE*  %13 to i8*, !dbg !4553
	%20 = getelementptr i8, i8*  %19, i64 57, !dbg !4553
	%21 = sext i8  %12 to i32, !dbg !4553
	%22 = and i32  %21, 255, !dbg !4553
	%23 = sext i32  %22 to i64, !dbg !4553
	%24 = getelementptr i8, i8*  %20, i64  %23, !dbg !4553
	%25 = load i8, i8*  %24, align 1, !tbaa !4097, !dbg !4553
	store i8  %25, i8* %..inline.addr.3, align 1, !tbaa !4097, !dbg !4553
	br label %L..inline.67928, !dbg !4554
L..inline.67924:
	%26 = load %struct._ZSt5ctypeIcE*, %struct._ZSt5ctypeIcE** %..inline.addr.1, align 8, !tbaa !4096, !dbg !4555
	call void  @_ZNKSt5ctypeIcE13_M_widen_initEv (%struct._ZSt5ctypeIcE*  %26), !dbg !4555
	%27 = load %struct._ZSt5ctypeIcE*, %struct._ZSt5ctypeIcE** %..inline.addr.1, align 8, !tbaa !4096, !dbg !4556
	%28 = load i8, i8* %..inline.addr.2, align 1, !tbaa !4097, !dbg !4556
	%29 = bitcast %struct._ZSt5ctypeIcE*  %27 to i8**, !dbg !4556
	%30 = load i8*, i8**  %29, align 8, !tbaa !4096, !dbg !4556
	%31 = getelementptr i8, i8*  %30, i64 48, !dbg !4556
	%32 = bitcast i8*  %31 to i8 (%struct._ZSt5ctypeIcE*, i8)**, !dbg !4556
	%33 = load i8 (%struct._ZSt5ctypeIcE*, i8)*, i8 (%struct._ZSt5ctypeIcE*, i8)**  %32, align 8, !tbaa !4096, !dbg !4556
	%34 = call i8  %33 (%struct._ZSt5ctypeIcE*  %27, i8  %28), !dbg !4556
	%35 = sext i8  %34 to i32, !dbg !4556
	store i32  %35, i32* %.Q0001.addr, align 4, !tbaa !4101, !dbg !4556
	%36 = shl i32  %35, 24, !dbg !4556
	%37 = ashr i32  %36, 24, !dbg !4556
	%38 = trunc i32  %37 to i8, !dbg !4556
	store i8  %38, i8* %..inline.addr.3, align 1, !tbaa !4097, !dbg !4556
	br label %L..inline.67928
L..inline.67928:
	%39 = load i8, i8* %..inline.addr.3, align 1, !tbaa !4097, !dbg !4557
	ret i8  %39, !dbg !4557
}
define linkonce_odr %struct._ZSo* @_ZNSolsEPFRSoS_E(%struct._ZSo* %_T42566248_52557.arg, %struct._ZSo* (%struct._ZSo*)* %__pf.arg) #0 inlinehint !dbg !4566 {
L.entry:
	%_T42566248_52557.addr = alloca %struct._ZSo*, align 8
	%__pf.addr = alloca %struct._ZSo* (%struct._ZSo*)*, align 8
	%.Q0002.addr = alloca %struct._ZSo*, align 8

	call void @llvm.dbg.declare (metadata %struct._ZSo** %_T42566248_52557.addr, metadata !4570, metadata !4081), !dbg !4567
	store %struct._ZSo* %_T42566248_52557.arg, %struct._ZSo** %_T42566248_52557.addr, align 8, !tbaa !4096
	call void @llvm.dbg.declare (metadata %struct._ZSo** %_T42566248_52557.addr, metadata !4571, metadata !4081), !dbg !4567
	call void @llvm.dbg.declare (metadata %struct._ZSo* (%struct._ZSo*)** %__pf.addr, metadata !4572, metadata !4081), !dbg !4567
	store %struct._ZSo* (%struct._ZSo*)* %__pf.arg, %struct._ZSo* (%struct._ZSo*)** %__pf.addr, align 8, !tbaa !4096
	call void @llvm.dbg.declare (metadata %struct._ZSo* (%struct._ZSo*)** %__pf.addr, metadata !4573, metadata !4081), !dbg !4567
	%0 = load %struct._ZSo*, %struct._ZSo** %_T42566248_52557.addr, align 8, !tbaa !4096, !dbg !4574
	%1 = load %struct._ZSo* (%struct._ZSo*)*, %struct._ZSo* (%struct._ZSo*)** %__pf.addr, align 8, !tbaa !4096, !dbg !4574
	%2 = call %struct._ZSo*  %1 (%struct._ZSo*  %0), !dbg !4574
	%3 = bitcast %struct._ZSo*  %2 to i8*, !dbg !4574
	%4 = bitcast %struct._ZSo** %.Q0002.addr to i8**, !dbg !4574
	store i8*  %3, i8**  %4, align 8, !tbaa !4096, !dbg !4574
	%5 = load %struct._ZSo*, %struct._ZSo** %.Q0002.addr, align 8, !tbaa !4096, !dbg !4574
	ret %struct._ZSo*  %5, !dbg !4574
}
define linkonce_odr void @_ZNSt12_Destroy_auxILb1EE9__destroyIPjEEvT_S3_(i32* %_T42566248_52564.arg, i32* %_T42566544_52564.arg) #0 inlinehint !dbg !4581 {
L.entry:
	%_T42566248_52564.addr = alloca i32*, align 8
	%_T42566544_52564.addr = alloca i32*, align 8

	call void @llvm.dbg.declare (metadata i32** %_T42566248_52564.addr, metadata !4585, metadata !4081), !dbg !4582
	store i32* %_T42566248_52564.arg, i32** %_T42566248_52564.addr, align 8, !tbaa !4096
	call void @llvm.dbg.declare (metadata i32** %_T42566248_52564.addr, metadata !4586, metadata !4081), !dbg !4582
	call void @llvm.dbg.declare (metadata i32** %_T42566544_52564.addr, metadata !4587, metadata !4081), !dbg !4582
	store i32* %_T42566544_52564.arg, i32** %_T42566544_52564.addr, align 8, !tbaa !4096
	call void @llvm.dbg.declare (metadata i32** %_T42566544_52564.addr, metadata !4588, metadata !4081), !dbg !4582
	ret void, !dbg !4589
}
define linkonce_odr void @_ZNSt12_Destroy_auxILb1EE9__destroyIPdEEvT_S3_(double* %_T42566248_52567.arg, double* %_T42566544_52567.arg) #0 inlinehint !dbg !4593 {
L.entry:
	%_T42566248_52567.addr = alloca double*, align 8
	%_T42566544_52567.addr = alloca double*, align 8

	call void @llvm.dbg.declare (metadata double** %_T42566248_52567.addr, metadata !4597, metadata !4081), !dbg !4594
	store double* %_T42566248_52567.arg, double** %_T42566248_52567.addr, align 8, !tbaa !4096
	call void @llvm.dbg.declare (metadata double** %_T42566248_52567.addr, metadata !4598, metadata !4081), !dbg !4594
	call void @llvm.dbg.declare (metadata double** %_T42566544_52567.addr, metadata !4599, metadata !4081), !dbg !4594
	store double* %_T42566544_52567.arg, double** %_T42566544_52567.addr, align 8, !tbaa !4096
	call void @llvm.dbg.declare (metadata double** %_T42566544_52567.addr, metadata !4600, metadata !4081), !dbg !4594
	ret void, !dbg !4601
}

%struct._ZSaIjE = type <{ [1 x i8]}> 

define linkonce_odr void @_ZNSaIjED1Ev(%struct._ZSaIjE* %_T42566248_52568.arg) #0 inlinehint !dbg !4609 {
L.entry:
	%_T42566248_52568.addr = alloca %struct._ZSaIjE*, align 8

	call void @llvm.dbg.declare (metadata %struct._ZSaIjE** %_T42566248_52568.addr, metadata !4613, metadata !4081), !dbg !4610
	store %struct._ZSaIjE* %_T42566248_52568.arg, %struct._ZSaIjE** %_T42566248_52568.addr, align 8, !tbaa !4096
	call void @llvm.dbg.declare (metadata %struct._ZSaIjE** %_T42566248_52568.addr, metadata !4614, metadata !4081), !dbg !4610
	ret void, !dbg !4615
}
define linkonce_odr void @_ZNSaIjED2Ev(%struct._ZSaIjE* %_T42566248_52569.arg) #0 inlinehint !dbg !4617 {
L.entry:
	%_T42566248_52569.addr = alloca %struct._ZSaIjE*, align 8

	store %struct._ZSaIjE* %_T42566248_52569.arg, %struct._ZSaIjE** %_T42566248_52569.addr, align 8, !tbaa !4096
	ret void, !dbg !4625
}
define linkonce_odr void @_ZNSt16allocator_traitsISaIjEE10deallocateERS0_Pjm(%struct._ZSaIjE* %__a.arg, i32* %__p.arg, i64 %__n.arg) #0 inlinehint !dbg !4633 {
L.entry:
	%__a.addr = alloca %struct._ZSaIjE*, align 8
	%__p.addr = alloca i32*, align 8
	%__n.addr = alloca i64, align 8
	%..inline.addr = alloca i32*, align 8

	call void @llvm.dbg.declare (metadata %struct._ZSaIjE** %__a.addr, metadata !4641, metadata !4081), !dbg !4634
	store %struct._ZSaIjE* %__a.arg, %struct._ZSaIjE** %__a.addr, align 8, !tbaa !4096
	call void @llvm.dbg.declare (metadata %struct._ZSaIjE** %__a.addr, metadata !4642, metadata !4081), !dbg !4634
	call void @llvm.dbg.declare (metadata i32** %__p.addr, metadata !4643, metadata !4081), !dbg !4634
	store i32* %__p.arg, i32** %__p.addr, align 8, !tbaa !4096
	call void @llvm.dbg.declare (metadata i32** %__p.addr, metadata !4644, metadata !4081), !dbg !4634
	call void @llvm.dbg.declare (metadata i64* %__n.addr, metadata !4645, metadata !4081), !dbg !4634
	store i64 %__n.arg, i64* %__n.addr, align 8, !tbaa !4097
	call void @llvm.dbg.declare (metadata i64* %__n.addr, metadata !4646, metadata !4081), !dbg !4634
	%0 = load i32*, i32** %__p.addr, align 8, !tbaa !4096, !dbg !4647
	%1 = bitcast i32*  %0 to i8*, !dbg !4647
	%2 = bitcast i32** %..inline.addr to i8**, !dbg !4647
	store i8*  %1, i8**  %2, align 8, !tbaa !4096, !dbg !4647
	%3 = load i32*, i32** %..inline.addr, align 8, !tbaa !4096, !dbg !4648
	%4 = bitcast i32*  %3 to i8*, !dbg !4648
	call void  @_ZdlPv (i8*  %4) nounwind, !dbg !4648
	ret void, !dbg !4647
}

%struct._ZNSt12_Vector_baseIjSaIjEE12_Vector_implE = type <{ %struct._ZNSt12_Vector_baseIjSaIjEE17_Vector_impl_dataE}> 
%struct._ZSt12_Vector_baseIjSaIjEE = type <{ %struct._ZNSt12_Vector_baseIjSaIjEE12_Vector_implE}> 
%struct._ZNSt12_Vector_baseIjSaIjEE17_Vector_impl_dataE = type <{ i32*, i32*, i32*}> 

define linkonce_odr %struct._ZSaIjE* @_ZNSt12_Vector_baseIjSaIjEE19_M_get_Tp_allocatorEv(%struct._ZSt12_Vector_baseIjSaIjEE* %_T42566248_52575.arg) #0 inlinehint !dbg !4656 {
L.entry:
	%_T42566248_52575.addr = alloca %struct._ZSt12_Vector_baseIjSaIjEE*, align 8

	call void @llvm.dbg.declare (metadata %struct._ZSt12_Vector_baseIjSaIjEE** %_T42566248_52575.addr, metadata !4660, metadata !4081), !dbg !4657
	store %struct._ZSt12_Vector_baseIjSaIjEE* %_T42566248_52575.arg, %struct._ZSt12_Vector_baseIjSaIjEE** %_T42566248_52575.addr, align 8, !tbaa !4096
	call void @llvm.dbg.declare (metadata %struct._ZSt12_Vector_baseIjSaIjEE** %_T42566248_52575.addr, metadata !4661, metadata !4081), !dbg !4657
	%0 = load %struct._ZSt12_Vector_baseIjSaIjEE*, %struct._ZSt12_Vector_baseIjSaIjEE** %_T42566248_52575.addr, align 8, !tbaa !4096, !dbg !4662
	%1 = bitcast %struct._ZSt12_Vector_baseIjSaIjEE*  %0 to %struct._ZSaIjE*, !dbg !4662
	ret %struct._ZSaIjE*  %1, !dbg !4662
}
define linkonce_odr void @_ZNSt12_Vector_baseIjSaIjEED1Ev(%struct._ZSt12_Vector_baseIjSaIjEE* %_T42566248_52576.arg) #0 inlinehint !dbg !4666 {
L.entry:
	%_T42566248_52576.addr = alloca %struct._ZSt12_Vector_baseIjSaIjEE*, align 8
	%..inline.addr = alloca i32*, align 8

	call void @llvm.dbg.declare (metadata %struct._ZSt12_Vector_baseIjSaIjEE** %_T42566248_52576.addr, metadata !4694, metadata !4081), !dbg !4667
	store %struct._ZSt12_Vector_baseIjSaIjEE* %_T42566248_52576.arg, %struct._ZSt12_Vector_baseIjSaIjEE** %_T42566248_52576.addr, align 8, !tbaa !4096
	call void @llvm.dbg.declare (metadata %struct._ZSt12_Vector_baseIjSaIjEE** %_T42566248_52576.addr, metadata !4695, metadata !4081), !dbg !4667
	%0 = load %struct._ZSt12_Vector_baseIjSaIjEE*, %struct._ZSt12_Vector_baseIjSaIjEE** %_T42566248_52576.addr, align 8, !tbaa !4096, !dbg !4696
	%1 = bitcast %struct._ZSt12_Vector_baseIjSaIjEE*  %0 to i8**, !dbg !4696
	%2 = load i8*, i8**  %1, align 8, !tbaa !4096, !dbg !4696
	%3 = icmp eq i8*  %2,  null, !dbg !4696
	br i1  %3, label %L..inline.67987, label %L.B1113, !dbg !4696
L.B1113:
	%4 = bitcast %struct._ZSt12_Vector_baseIjSaIjEE*  %0 to i8**, !dbg !4697
	%5 = load i8*, i8**  %4, align 8, !tbaa !4096, !dbg !4697
	%6 = bitcast i32** %..inline.addr to i8**, !dbg !4697
	store i8*  %5, i8**  %6, align 8, !tbaa !4096, !dbg !4697
	%7 = load i32*, i32** %..inline.addr, align 8, !tbaa !4096, !dbg !4697
	%8 = bitcast i32*  %7 to i8*, !dbg !4697
	call void  @_ZdlPv (i8*  %8) nounwind, !dbg !4697
	br label %L..inline.67987
L..inline.67987:
	ret void, !dbg !4698
}
define linkonce_odr void @_ZNSt12_Vector_baseIjSaIjEED2Ev(%struct._ZSt12_Vector_baseIjSaIjEE* %_T42566248_52577.arg) #0 inlinehint !dbg !4700 {
L.entry:
	%_T42566248_52577.addr = alloca %struct._ZSt12_Vector_baseIjSaIjEE*, align 8
	%..inline.addr = alloca %struct._ZSt12_Vector_baseIjSaIjEE*, align 8
	%..inline.addr.1 = alloca i32*, align 8

	store %struct._ZSt12_Vector_baseIjSaIjEE* %_T42566248_52577.arg, %struct._ZSt12_Vector_baseIjSaIjEE** %_T42566248_52577.addr, align 8, !tbaa !4096
	%0 = load %struct._ZSt12_Vector_baseIjSaIjEE*, %struct._ZSt12_Vector_baseIjSaIjEE** %_T42566248_52577.addr, align 8, !tbaa !4096, !dbg !4732
	%1 = bitcast %struct._ZSt12_Vector_baseIjSaIjEE*  %0 to i8*, !dbg !4732
	%2 = bitcast %struct._ZSt12_Vector_baseIjSaIjEE** %..inline.addr to i8**, !dbg !4732
	store i8*  %1, i8**  %2, align 8, !tbaa !4096, !dbg !4732
	%3 = load %struct._ZSt12_Vector_baseIjSaIjEE*, %struct._ZSt12_Vector_baseIjSaIjEE** %..inline.addr, align 8, !tbaa !4096, !dbg !4732
	%4 = bitcast %struct._ZSt12_Vector_baseIjSaIjEE*  %3 to i8**, !dbg !4732
	%5 = load i8*, i8**  %4, align 8, !tbaa !4096, !dbg !4732
	%6 = icmp eq i8*  %5,  null, !dbg !4732
	br i1  %6, label %L..inline.68046, label %L.B1116, !dbg !4732
L.B1116:
	%7 = bitcast %struct._ZSt12_Vector_baseIjSaIjEE*  %3 to i8**, !dbg !4732
	%8 = load i8*, i8**  %7, align 8, !tbaa !4096, !dbg !4732
	%9 = bitcast i32** %..inline.addr.1 to i8**, !dbg !4732
	store i8*  %8, i8**  %9, align 8, !tbaa !4096, !dbg !4732
	%10 = load i32*, i32** %..inline.addr.1, align 8, !tbaa !4096, !dbg !4732
	%11 = bitcast i32*  %10 to i8*, !dbg !4732
	call void  @_ZdlPv (i8*  %11) nounwind, !dbg !4732
	br label %L..inline.68046
L..inline.68046:
	ret void, !dbg !4733
}
define linkonce_odr void @_ZNSt12_Vector_baseIjSaIjEE13_M_deallocateEPjm(%struct._ZSt12_Vector_baseIjSaIjEE* %_T42566248_52580.arg, i32* %__p.arg, i64 %__n.arg) #0 inlinehint !dbg !4737 {
L.entry:
	%_T42566248_52580.addr = alloca %struct._ZSt12_Vector_baseIjSaIjEE*, align 8
	%__p.addr = alloca i32*, align 8
	%__n.addr = alloca i64, align 8
	%..inline.addr = alloca i32*, align 8

	call void @llvm.dbg.declare (metadata %struct._ZSt12_Vector_baseIjSaIjEE** %_T42566248_52580.addr, metadata !4749, metadata !4081), !dbg !4738
	store %struct._ZSt12_Vector_baseIjSaIjEE* %_T42566248_52580.arg, %struct._ZSt12_Vector_baseIjSaIjEE** %_T42566248_52580.addr, align 8, !tbaa !4096
	call void @llvm.dbg.declare (metadata %struct._ZSt12_Vector_baseIjSaIjEE** %_T42566248_52580.addr, metadata !4750, metadata !4081), !dbg !4738
	call void @llvm.dbg.declare (metadata i32** %__p.addr, metadata !4751, metadata !4081), !dbg !4738
	store i32* %__p.arg, i32** %__p.addr, align 8, !tbaa !4096
	call void @llvm.dbg.declare (metadata i32** %__p.addr, metadata !4752, metadata !4081), !dbg !4738
	call void @llvm.dbg.declare (metadata i64* %__n.addr, metadata !4753, metadata !4081), !dbg !4738
	store i64 %__n.arg, i64* %__n.addr, align 8, !tbaa !4097
	call void @llvm.dbg.declare (metadata i64* %__n.addr, metadata !4754, metadata !4081), !dbg !4738
	%0 = load i32*, i32** %__p.addr, align 8, !tbaa !4096, !dbg !4755
	%1 = bitcast i32*  %0 to i8*, !dbg !4755
	%2 = icmp eq i8*  %1,  null, !dbg !4755
	br i1  %2, label %L.B0015, label %L.B1119, !dbg !4755
L.B1119:
	%3 = bitcast i32*  %0 to i8*, !dbg !4756
	%4 = bitcast i32** %..inline.addr to i8**, !dbg !4756
	store i8*  %3, i8**  %4, align 8, !tbaa !4096, !dbg !4756
	%5 = load i32*, i32** %..inline.addr, align 8, !tbaa !4096, !dbg !4756
	%6 = bitcast i32*  %5 to i8*, !dbg !4756
	call void  @_ZdlPv (i8*  %6) nounwind, !dbg !4756
	br label %L.B0015
L.B0015:
	ret void, !dbg !4757
}
define linkonce_odr void @_ZNSt12_Vector_baseIjSaIjEE12_Vector_implD1Ev(%struct._ZNSt12_Vector_baseIjSaIjEE12_Vector_implE* %_T42566248_52581.arg) #0 inlinehint !dbg !4762 {
L.entry:
	%_T42566248_52581.addr = alloca %struct._ZNSt12_Vector_baseIjSaIjEE12_Vector_implE*, align 8

	call void @llvm.dbg.declare (metadata %struct._ZNSt12_Vector_baseIjSaIjEE12_Vector_implE** %_T42566248_52581.addr, metadata !4774, metadata !4081), !dbg !4763
	store %struct._ZNSt12_Vector_baseIjSaIjEE12_Vector_implE* %_T42566248_52581.arg, %struct._ZNSt12_Vector_baseIjSaIjEE12_Vector_implE** %_T42566248_52581.addr, align 8, !tbaa !4096
	call void @llvm.dbg.declare (metadata %struct._ZNSt12_Vector_baseIjSaIjEE12_Vector_implE** %_T42566248_52581.addr, metadata !4775, metadata !4081), !dbg !4763
	ret void, !dbg !4776
}
define linkonce_odr void @_ZNSt12_Vector_baseIjSaIjEE12_Vector_implD2Ev(%struct._ZNSt12_Vector_baseIjSaIjEE12_Vector_implE* %_T42566248_52582.arg) #0 inlinehint !dbg !4778 {
L.entry:
	%_T42566248_52582.addr = alloca %struct._ZNSt12_Vector_baseIjSaIjEE12_Vector_implE*, align 8

	store %struct._ZNSt12_Vector_baseIjSaIjEE12_Vector_implE* %_T42566248_52582.arg, %struct._ZNSt12_Vector_baseIjSaIjEE12_Vector_implE** %_T42566248_52582.addr, align 8, !tbaa !4096
	ret void, !dbg !4794
}

%struct._ZSt6vectorIjSaIjEE = type <{ %struct._ZSt12_Vector_baseIjSaIjEE}> 

define linkonce_odr void @_ZNSt6vectorIjSaIjEED1Ev(%struct._ZSt6vectorIjSaIjEE* %_T42566248_52583.arg) #0 inlinehint !dbg !4798 {
L.entry:
	%_T42566248_52583.addr = alloca %struct._ZSt6vectorIjSaIjEE*, align 8
	%..inline.addr = alloca %struct._ZSt12_Vector_baseIjSaIjEE*, align 8
	%..inline.addr.1 = alloca i32*, align 8

	call void @llvm.dbg.declare (metadata %struct._ZSt6vectorIjSaIjEE** %_T42566248_52583.addr, metadata !4850, metadata !4081), !dbg !4799
	store %struct._ZSt6vectorIjSaIjEE* %_T42566248_52583.arg, %struct._ZSt6vectorIjSaIjEE** %_T42566248_52583.addr, align 8, !tbaa !4096
	call void @llvm.dbg.declare (metadata %struct._ZSt6vectorIjSaIjEE** %_T42566248_52583.addr, metadata !4851, metadata !4081), !dbg !4799
	%0 = load %struct._ZSt6vectorIjSaIjEE*, %struct._ZSt6vectorIjSaIjEE** %_T42566248_52583.addr, align 8, !tbaa !4096, !dbg !4852
	%1 = bitcast %struct._ZSt6vectorIjSaIjEE*  %0 to i8*, !dbg !4852
	%2 = bitcast %struct._ZSt12_Vector_baseIjSaIjEE** %..inline.addr to i8**, !dbg !4852
	store i8*  %1, i8**  %2, align 8, !tbaa !4096, !dbg !4852
	%3 = load %struct._ZSt12_Vector_baseIjSaIjEE*, %struct._ZSt12_Vector_baseIjSaIjEE** %..inline.addr, align 8, !tbaa !4096, !dbg !4853
	%4 = bitcast %struct._ZSt12_Vector_baseIjSaIjEE*  %3 to i8**, !dbg !4853
	%5 = load i8*, i8**  %4, align 8, !tbaa !4096, !dbg !4853
	%6 = icmp eq i8*  %5,  null, !dbg !4853
	br i1  %6, label %L..inline.68197, label %L.B1130, !dbg !4853
L.B1130:
	%7 = bitcast %struct._ZSt12_Vector_baseIjSaIjEE*  %3 to i8**, !dbg !4853
	%8 = load i8*, i8**  %7, align 8, !tbaa !4096, !dbg !4853
	%9 = bitcast i32** %..inline.addr.1 to i8**, !dbg !4853
	store i8*  %8, i8**  %9, align 8, !tbaa !4096, !dbg !4853
	%10 = load i32*, i32** %..inline.addr.1, align 8, !tbaa !4096, !dbg !4853
	%11 = bitcast i32*  %10 to i8*, !dbg !4853
	call void  @_ZdlPv (i8*  %11) nounwind, !dbg !4853
	br label %L..inline.68197
L..inline.68197:
	ret void, !dbg !4852
}
define linkonce_odr void @_ZNSt6vectorIjSaIjEED2Ev(%struct._ZSt6vectorIjSaIjEE* %_T42566248_52584.arg) #0 inlinehint !dbg !4855 {
L.entry:
	%_T42566248_52584.addr = alloca %struct._ZSt6vectorIjSaIjEE*, align 8
	%..inline.addr = alloca %struct._ZSt12_Vector_baseIjSaIjEE*, align 8
	%..inline.addr.1 = alloca i32*, align 8

	store %struct._ZSt6vectorIjSaIjEE* %_T42566248_52584.arg, %struct._ZSt6vectorIjSaIjEE** %_T42566248_52584.addr, align 8, !tbaa !4096
	%0 = load %struct._ZSt6vectorIjSaIjEE*, %struct._ZSt6vectorIjSaIjEE** %_T42566248_52584.addr, align 8, !tbaa !4096, !dbg !4911
	%1 = bitcast %struct._ZSt6vectorIjSaIjEE*  %0 to i8*, !dbg !4911
	%2 = bitcast %struct._ZSt12_Vector_baseIjSaIjEE** %..inline.addr to i8**, !dbg !4911
	store i8*  %1, i8**  %2, align 8, !tbaa !4096, !dbg !4911
	%3 = load %struct._ZSt12_Vector_baseIjSaIjEE*, %struct._ZSt12_Vector_baseIjSaIjEE** %..inline.addr, align 8, !tbaa !4096, !dbg !4911
	%4 = bitcast %struct._ZSt12_Vector_baseIjSaIjEE*  %3 to i8**, !dbg !4911
	%5 = load i8*, i8**  %4, align 8, !tbaa !4096, !dbg !4911
	%6 = icmp eq i8*  %5,  null, !dbg !4911
	br i1  %6, label %L..inline.68301, label %L.B1133, !dbg !4911
L.B1133:
	%7 = bitcast %struct._ZSt12_Vector_baseIjSaIjEE*  %3 to i8**, !dbg !4911
	%8 = load i8*, i8**  %7, align 8, !tbaa !4096, !dbg !4911
	%9 = bitcast i32** %..inline.addr.1 to i8**, !dbg !4911
	store i8*  %8, i8**  %9, align 8, !tbaa !4096, !dbg !4911
	%10 = load i32*, i32** %..inline.addr.1, align 8, !tbaa !4096, !dbg !4911
	%11 = bitcast i32*  %10 to i8*, !dbg !4911
	call void  @_ZdlPv (i8*  %11) nounwind, !dbg !4911
	br label %L..inline.68301
L..inline.68301:
	ret void, !dbg !4911
}

%struct._ZSaIdE = type <{ [1 x i8]}> 

define linkonce_odr void @_ZNSaIdED1Ev(%struct._ZSaIdE* %_T42566248_52585.arg) #0 inlinehint !dbg !4919 {
L.entry:
	%_T42566248_52585.addr = alloca %struct._ZSaIdE*, align 8

	call void @llvm.dbg.declare (metadata %struct._ZSaIdE** %_T42566248_52585.addr, metadata !4923, metadata !4081), !dbg !4920
	store %struct._ZSaIdE* %_T42566248_52585.arg, %struct._ZSaIdE** %_T42566248_52585.addr, align 8, !tbaa !4096
	call void @llvm.dbg.declare (metadata %struct._ZSaIdE** %_T42566248_52585.addr, metadata !4924, metadata !4081), !dbg !4920
	ret void, !dbg !4925
}
define linkonce_odr void @_ZNSaIdED2Ev(%struct._ZSaIdE* %_T42566248_52586.arg) #0 inlinehint !dbg !4927 {
L.entry:
	%_T42566248_52586.addr = alloca %struct._ZSaIdE*, align 8

	store %struct._ZSaIdE* %_T42566248_52586.arg, %struct._ZSaIdE** %_T42566248_52586.addr, align 8, !tbaa !4096
	ret void, !dbg !4935
}
define linkonce_odr void @_ZNSt16allocator_traitsISaIdEE10deallocateERS0_Pdm(%struct._ZSaIdE* %__a.arg, double* %__p.arg, i64 %__n.arg) #0 inlinehint !dbg !4943 {
L.entry:
	%__a.addr = alloca %struct._ZSaIdE*, align 8
	%__p.addr = alloca double*, align 8
	%__n.addr = alloca i64, align 8
	%..inline.addr = alloca double*, align 8

	call void @llvm.dbg.declare (metadata %struct._ZSaIdE** %__a.addr, metadata !4951, metadata !4081), !dbg !4944
	store %struct._ZSaIdE* %__a.arg, %struct._ZSaIdE** %__a.addr, align 8, !tbaa !4096
	call void @llvm.dbg.declare (metadata %struct._ZSaIdE** %__a.addr, metadata !4952, metadata !4081), !dbg !4944
	call void @llvm.dbg.declare (metadata double** %__p.addr, metadata !4953, metadata !4081), !dbg !4944
	store double* %__p.arg, double** %__p.addr, align 8, !tbaa !4096
	call void @llvm.dbg.declare (metadata double** %__p.addr, metadata !4954, metadata !4081), !dbg !4944
	call void @llvm.dbg.declare (metadata i64* %__n.addr, metadata !4955, metadata !4081), !dbg !4944
	store i64 %__n.arg, i64* %__n.addr, align 8, !tbaa !4097
	call void @llvm.dbg.declare (metadata i64* %__n.addr, metadata !4956, metadata !4081), !dbg !4944
	%0 = load double*, double** %__p.addr, align 8, !tbaa !4096, !dbg !4957
	%1 = bitcast double*  %0 to i8*, !dbg !4957
	%2 = bitcast double** %..inline.addr to i8**, !dbg !4957
	store i8*  %1, i8**  %2, align 8, !tbaa !4096, !dbg !4957
	%3 = load double*, double** %..inline.addr, align 8, !tbaa !4096, !dbg !4958
	%4 = bitcast double*  %3 to i8*, !dbg !4958
	call void  @_ZdlPv (i8*  %4) nounwind, !dbg !4958
	ret void, !dbg !4957
}

%struct._ZSt12_Vector_baseIdSaIdEE = type <{ %struct._ZNSt12_Vector_baseIdSaIdEE12_Vector_implE}> 
%struct._ZNSt12_Vector_baseIdSaIdEE17_Vector_impl_dataE = type <{ double*, double*, double*}> 
%struct._ZNSt12_Vector_baseIdSaIdEE12_Vector_implE = type <{ %struct._ZNSt12_Vector_baseIdSaIdEE17_Vector_impl_dataE}> 

define linkonce_odr %struct._ZSaIdE* @_ZNSt12_Vector_baseIdSaIdEE19_M_get_Tp_allocatorEv(%struct._ZSt12_Vector_baseIdSaIdEE* %_T42566248_52592.arg) #0 inlinehint !dbg !4964 {
L.entry:
	%_T42566248_52592.addr = alloca %struct._ZSt12_Vector_baseIdSaIdEE*, align 8

	call void @llvm.dbg.declare (metadata %struct._ZSt12_Vector_baseIdSaIdEE** %_T42566248_52592.addr, metadata !4968, metadata !4081), !dbg !4965
	store %struct._ZSt12_Vector_baseIdSaIdEE* %_T42566248_52592.arg, %struct._ZSt12_Vector_baseIdSaIdEE** %_T42566248_52592.addr, align 8, !tbaa !4096
	call void @llvm.dbg.declare (metadata %struct._ZSt12_Vector_baseIdSaIdEE** %_T42566248_52592.addr, metadata !4969, metadata !4081), !dbg !4965
	%0 = load %struct._ZSt12_Vector_baseIdSaIdEE*, %struct._ZSt12_Vector_baseIdSaIdEE** %_T42566248_52592.addr, align 8, !tbaa !4096, !dbg !4970
	%1 = bitcast %struct._ZSt12_Vector_baseIdSaIdEE*  %0 to %struct._ZSaIdE*, !dbg !4970
	ret %struct._ZSaIdE*  %1, !dbg !4970
}
define linkonce_odr void @_ZNSt12_Vector_baseIdSaIdEED1Ev(%struct._ZSt12_Vector_baseIdSaIdEE* %_T42566248_52593.arg) #0 inlinehint !dbg !4974 {
L.entry:
	%_T42566248_52593.addr = alloca %struct._ZSt12_Vector_baseIdSaIdEE*, align 8
	%..inline.addr = alloca double*, align 8

	call void @llvm.dbg.declare (metadata %struct._ZSt12_Vector_baseIdSaIdEE** %_T42566248_52593.addr, metadata !5002, metadata !4081), !dbg !4975
	store %struct._ZSt12_Vector_baseIdSaIdEE* %_T42566248_52593.arg, %struct._ZSt12_Vector_baseIdSaIdEE** %_T42566248_52593.addr, align 8, !tbaa !4096
	call void @llvm.dbg.declare (metadata %struct._ZSt12_Vector_baseIdSaIdEE** %_T42566248_52593.addr, metadata !5003, metadata !4081), !dbg !4975
	%0 = load %struct._ZSt12_Vector_baseIdSaIdEE*, %struct._ZSt12_Vector_baseIdSaIdEE** %_T42566248_52593.addr, align 8, !tbaa !4096, !dbg !5004
	%1 = bitcast %struct._ZSt12_Vector_baseIdSaIdEE*  %0 to i8**, !dbg !5004
	%2 = load i8*, i8**  %1, align 8, !tbaa !4096, !dbg !5004
	%3 = icmp eq i8*  %2,  null, !dbg !5004
	br i1  %3, label %L..inline.68397, label %L.B1142, !dbg !5004
L.B1142:
	%4 = bitcast %struct._ZSt12_Vector_baseIdSaIdEE*  %0 to i8**, !dbg !5005
	%5 = load i8*, i8**  %4, align 8, !tbaa !4096, !dbg !5005
	%6 = bitcast double** %..inline.addr to i8**, !dbg !5005
	store i8*  %5, i8**  %6, align 8, !tbaa !4096, !dbg !5005
	%7 = load double*, double** %..inline.addr, align 8, !tbaa !4096, !dbg !5005
	%8 = bitcast double*  %7 to i8*, !dbg !5005
	call void  @_ZdlPv (i8*  %8) nounwind, !dbg !5005
	br label %L..inline.68397
L..inline.68397:
	ret void, !dbg !5006
}
define linkonce_odr void @_ZNSt12_Vector_baseIdSaIdEED2Ev(%struct._ZSt12_Vector_baseIdSaIdEE* %_T42566248_52594.arg) #0 inlinehint !dbg !5008 {
L.entry:
	%_T42566248_52594.addr = alloca %struct._ZSt12_Vector_baseIdSaIdEE*, align 8
	%..inline.addr = alloca %struct._ZSt12_Vector_baseIdSaIdEE*, align 8
	%..inline.addr.1 = alloca double*, align 8

	store %struct._ZSt12_Vector_baseIdSaIdEE* %_T42566248_52594.arg, %struct._ZSt12_Vector_baseIdSaIdEE** %_T42566248_52594.addr, align 8, !tbaa !4096
	%0 = load %struct._ZSt12_Vector_baseIdSaIdEE*, %struct._ZSt12_Vector_baseIdSaIdEE** %_T42566248_52594.addr, align 8, !tbaa !4096, !dbg !5040
	%1 = bitcast %struct._ZSt12_Vector_baseIdSaIdEE*  %0 to i8*, !dbg !5040
	%2 = bitcast %struct._ZSt12_Vector_baseIdSaIdEE** %..inline.addr to i8**, !dbg !5040
	store i8*  %1, i8**  %2, align 8, !tbaa !4096, !dbg !5040
	%3 = load %struct._ZSt12_Vector_baseIdSaIdEE*, %struct._ZSt12_Vector_baseIdSaIdEE** %..inline.addr, align 8, !tbaa !4096, !dbg !5040
	%4 = bitcast %struct._ZSt12_Vector_baseIdSaIdEE*  %3 to i8**, !dbg !5040
	%5 = load i8*, i8**  %4, align 8, !tbaa !4096, !dbg !5040
	%6 = icmp eq i8*  %5,  null, !dbg !5040
	br i1  %6, label %L..inline.68457, label %L.B1145, !dbg !5040
L.B1145:
	%7 = bitcast %struct._ZSt12_Vector_baseIdSaIdEE*  %3 to i8**, !dbg !5040
	%8 = load i8*, i8**  %7, align 8, !tbaa !4096, !dbg !5040
	%9 = bitcast double** %..inline.addr.1 to i8**, !dbg !5040
	store i8*  %8, i8**  %9, align 8, !tbaa !4096, !dbg !5040
	%10 = load double*, double** %..inline.addr.1, align 8, !tbaa !4096, !dbg !5040
	%11 = bitcast double*  %10 to i8*, !dbg !5040
	call void  @_ZdlPv (i8*  %11) nounwind, !dbg !5040
	br label %L..inline.68457
L..inline.68457:
	ret void, !dbg !5041
}
define linkonce_odr void @_ZNSt12_Vector_baseIdSaIdEE13_M_deallocateEPdm(%struct._ZSt12_Vector_baseIdSaIdEE* %_T42566248_52597.arg, double* %__p.arg, i64 %__n.arg) #0 inlinehint !dbg !5045 {
L.entry:
	%_T42566248_52597.addr = alloca %struct._ZSt12_Vector_baseIdSaIdEE*, align 8
	%__p.addr = alloca double*, align 8
	%__n.addr = alloca i64, align 8
	%..inline.addr = alloca double*, align 8

	call void @llvm.dbg.declare (metadata %struct._ZSt12_Vector_baseIdSaIdEE** %_T42566248_52597.addr, metadata !5057, metadata !4081), !dbg !5046
	store %struct._ZSt12_Vector_baseIdSaIdEE* %_T42566248_52597.arg, %struct._ZSt12_Vector_baseIdSaIdEE** %_T42566248_52597.addr, align 8, !tbaa !4096
	call void @llvm.dbg.declare (metadata %struct._ZSt12_Vector_baseIdSaIdEE** %_T42566248_52597.addr, metadata !5058, metadata !4081), !dbg !5046
	call void @llvm.dbg.declare (metadata double** %__p.addr, metadata !5059, metadata !4081), !dbg !5046
	store double* %__p.arg, double** %__p.addr, align 8, !tbaa !4096
	call void @llvm.dbg.declare (metadata double** %__p.addr, metadata !5060, metadata !4081), !dbg !5046
	call void @llvm.dbg.declare (metadata i64* %__n.addr, metadata !5061, metadata !4081), !dbg !5046
	store i64 %__n.arg, i64* %__n.addr, align 8, !tbaa !4097
	call void @llvm.dbg.declare (metadata i64* %__n.addr, metadata !5062, metadata !4081), !dbg !5046
	%0 = load double*, double** %__p.addr, align 8, !tbaa !4096, !dbg !5063
	%1 = bitcast double*  %0 to i8*, !dbg !5063
	%2 = icmp eq i8*  %1,  null, !dbg !5063
	br i1  %2, label %L.B0016, label %L.B1148, !dbg !5063
L.B1148:
	%3 = bitcast double*  %0 to i8*, !dbg !5064
	%4 = bitcast double** %..inline.addr to i8**, !dbg !5064
	store i8*  %3, i8**  %4, align 8, !tbaa !4096, !dbg !5064
	%5 = load double*, double** %..inline.addr, align 8, !tbaa !4096, !dbg !5064
	%6 = bitcast double*  %5 to i8*, !dbg !5064
	call void  @_ZdlPv (i8*  %6) nounwind, !dbg !5064
	br label %L.B0016
L.B0016:
	ret void, !dbg !5065
}
define linkonce_odr void @_ZNSt12_Vector_baseIdSaIdEE12_Vector_implD1Ev(%struct._ZNSt12_Vector_baseIdSaIdEE12_Vector_implE* %_T42566248_52598.arg) #0 inlinehint !dbg !5070 {
L.entry:
	%_T42566248_52598.addr = alloca %struct._ZNSt12_Vector_baseIdSaIdEE12_Vector_implE*, align 8

	call void @llvm.dbg.declare (metadata %struct._ZNSt12_Vector_baseIdSaIdEE12_Vector_implE** %_T42566248_52598.addr, metadata !5082, metadata !4081), !dbg !5071
	store %struct._ZNSt12_Vector_baseIdSaIdEE12_Vector_implE* %_T42566248_52598.arg, %struct._ZNSt12_Vector_baseIdSaIdEE12_Vector_implE** %_T42566248_52598.addr, align 8, !tbaa !4096
	call void @llvm.dbg.declare (metadata %struct._ZNSt12_Vector_baseIdSaIdEE12_Vector_implE** %_T42566248_52598.addr, metadata !5083, metadata !4081), !dbg !5071
	ret void, !dbg !5084
}
define linkonce_odr void @_ZNSt12_Vector_baseIdSaIdEE12_Vector_implD2Ev(%struct._ZNSt12_Vector_baseIdSaIdEE12_Vector_implE* %_T42566248_52599.arg) #0 inlinehint !dbg !5086 {
L.entry:
	%_T42566248_52599.addr = alloca %struct._ZNSt12_Vector_baseIdSaIdEE12_Vector_implE*, align 8

	store %struct._ZNSt12_Vector_baseIdSaIdEE12_Vector_implE* %_T42566248_52599.arg, %struct._ZNSt12_Vector_baseIdSaIdEE12_Vector_implE** %_T42566248_52599.addr, align 8, !tbaa !4096
	ret void, !dbg !5102
}

%struct._ZSt6vectorIdSaIdEE = type <{ %struct._ZSt12_Vector_baseIdSaIdEE}> 

define linkonce_odr void @_ZNSt6vectorIdSaIdEED1Ev(%struct._ZSt6vectorIdSaIdEE* %_T42566248_52600.arg) #0 inlinehint !dbg !5107 {
L.entry:
	%_T42566248_52600.addr = alloca %struct._ZSt6vectorIdSaIdEE*, align 8
	%..inline.addr = alloca %struct._ZSt12_Vector_baseIdSaIdEE*, align 8
	%..inline.addr.1 = alloca double*, align 8

	call void @llvm.dbg.declare (metadata %struct._ZSt6vectorIdSaIdEE** %_T42566248_52600.addr, metadata !5159, metadata !4081), !dbg !5108
	store %struct._ZSt6vectorIdSaIdEE* %_T42566248_52600.arg, %struct._ZSt6vectorIdSaIdEE** %_T42566248_52600.addr, align 8, !tbaa !4096
	call void @llvm.dbg.declare (metadata %struct._ZSt6vectorIdSaIdEE** %_T42566248_52600.addr, metadata !5160, metadata !4081), !dbg !5108
	%0 = load %struct._ZSt6vectorIdSaIdEE*, %struct._ZSt6vectorIdSaIdEE** %_T42566248_52600.addr, align 8, !tbaa !4096, !dbg !5161
	%1 = bitcast %struct._ZSt6vectorIdSaIdEE*  %0 to i8*, !dbg !5161
	%2 = bitcast %struct._ZSt12_Vector_baseIdSaIdEE** %..inline.addr to i8**, !dbg !5161
	store i8*  %1, i8**  %2, align 8, !tbaa !4096, !dbg !5161
	%3 = load %struct._ZSt12_Vector_baseIdSaIdEE*, %struct._ZSt12_Vector_baseIdSaIdEE** %..inline.addr, align 8, !tbaa !4096, !dbg !5162
	%4 = bitcast %struct._ZSt12_Vector_baseIdSaIdEE*  %3 to i8**, !dbg !5162
	%5 = load i8*, i8**  %4, align 8, !tbaa !4096, !dbg !5162
	%6 = icmp eq i8*  %5,  null, !dbg !5162
	br i1  %6, label %L..inline.68608, label %L.B1159, !dbg !5162
L.B1159:
	%7 = bitcast %struct._ZSt12_Vector_baseIdSaIdEE*  %3 to i8**, !dbg !5162
	%8 = load i8*, i8**  %7, align 8, !tbaa !4096, !dbg !5162
	%9 = bitcast double** %..inline.addr.1 to i8**, !dbg !5162
	store i8*  %8, i8**  %9, align 8, !tbaa !4096, !dbg !5162
	%10 = load double*, double** %..inline.addr.1, align 8, !tbaa !4096, !dbg !5162
	%11 = bitcast double*  %10 to i8*, !dbg !5162
	call void  @_ZdlPv (i8*  %11) nounwind, !dbg !5162
	br label %L..inline.68608
L..inline.68608:
	ret void, !dbg !5161
}
define linkonce_odr void @_ZNSt6vectorIdSaIdEED2Ev(%struct._ZSt6vectorIdSaIdEE* %_T42566248_52601.arg) #0 inlinehint !dbg !5164 {
L.entry:
	%_T42566248_52601.addr = alloca %struct._ZSt6vectorIdSaIdEE*, align 8
	%..inline.addr = alloca %struct._ZSt12_Vector_baseIdSaIdEE*, align 8
	%..inline.addr.1 = alloca double*, align 8

	store %struct._ZSt6vectorIdSaIdEE* %_T42566248_52601.arg, %struct._ZSt6vectorIdSaIdEE** %_T42566248_52601.addr, align 8, !tbaa !4096
	%0 = load %struct._ZSt6vectorIdSaIdEE*, %struct._ZSt6vectorIdSaIdEE** %_T42566248_52601.addr, align 8, !tbaa !4096, !dbg !5220
	%1 = bitcast %struct._ZSt6vectorIdSaIdEE*  %0 to i8*, !dbg !5220
	%2 = bitcast %struct._ZSt12_Vector_baseIdSaIdEE** %..inline.addr to i8**, !dbg !5220
	store i8*  %1, i8**  %2, align 8, !tbaa !4096, !dbg !5220
	%3 = load %struct._ZSt12_Vector_baseIdSaIdEE*, %struct._ZSt12_Vector_baseIdSaIdEE** %..inline.addr, align 8, !tbaa !4096, !dbg !5220
	%4 = bitcast %struct._ZSt12_Vector_baseIdSaIdEE*  %3 to i8**, !dbg !5220
	%5 = load i8*, i8**  %4, align 8, !tbaa !4096, !dbg !5220
	%6 = icmp eq i8*  %5,  null, !dbg !5220
	br i1  %6, label %L..inline.68712, label %L.B1162, !dbg !5220
L.B1162:
	%7 = bitcast %struct._ZSt12_Vector_baseIdSaIdEE*  %3 to i8**, !dbg !5220
	%8 = load i8*, i8**  %7, align 8, !tbaa !4096, !dbg !5220
	%9 = bitcast double** %..inline.addr.1 to i8**, !dbg !5220
	store i8*  %8, i8**  %9, align 8, !tbaa !4096, !dbg !5220
	%10 = load double*, double** %..inline.addr.1, align 8, !tbaa !4096, !dbg !5220
	%11 = bitcast double*  %10 to i8*, !dbg !5220
	call void  @_ZdlPv (i8*  %11) nounwind, !dbg !5220
	br label %L..inline.68712
L..inline.68712:
	ret void, !dbg !5220
}

%struct._ZSaIN5vmesh14MeshParametersEE = type <{ [1 x i8]}> 

define linkonce_odr void @_ZNSaIN5vmesh14MeshParametersEED1Ev(%struct._ZSaIN5vmesh14MeshParametersEE* %_T42566248_52602.arg) #0 inlinehint !dbg !5225 {
L.entry:
	%_T42566248_52602.addr = alloca %struct._ZSaIN5vmesh14MeshParametersEE*, align 8

	call void @llvm.dbg.declare (metadata %struct._ZSaIN5vmesh14MeshParametersEE** %_T42566248_52602.addr, metadata !5229, metadata !4081), !dbg !5226
	store %struct._ZSaIN5vmesh14MeshParametersEE* %_T42566248_52602.arg, %struct._ZSaIN5vmesh14MeshParametersEE** %_T42566248_52602.addr, align 8, !tbaa !4096
	call void @llvm.dbg.declare (metadata %struct._ZSaIN5vmesh14MeshParametersEE** %_T42566248_52602.addr, metadata !5230, metadata !4081), !dbg !5226
	ret void, !dbg !5231
}
define linkonce_odr void @_ZNSaIN5vmesh14MeshParametersEED2Ev(%struct._ZSaIN5vmesh14MeshParametersEE* %_T42566248_52603.arg) #0 inlinehint !dbg !5233 {
L.entry:
	%_T42566248_52603.addr = alloca %struct._ZSaIN5vmesh14MeshParametersEE*, align 8

	store %struct._ZSaIN5vmesh14MeshParametersEE* %_T42566248_52603.arg, %struct._ZSaIN5vmesh14MeshParametersEE** %_T42566248_52603.addr, align 8, !tbaa !4096
	ret void, !dbg !5241
}

%struct._ZNSt7__cxx1112basic_stringIcSt11char_traitsIcESaIcEEE = type <{ %struct._ZNSt7__cxx1112basic_stringIcSt11char_traitsIcESaIcEE12_Alloc_hiderE, i64, %union.__C6}> 
%struct._ZNSt7__cxx1112basic_stringIcSt11char_traitsIcESaIcEE12_Alloc_hiderE = type <{ i8*}> 
%union.__C6 = type <{ [16 x i8]}> 
%struct._ZN5vmesh14MeshParametersE = type <{ %struct._ZNSt7__cxx1112basic_stringIcSt11char_traitsIcESaIcEEE, i32, [4 x i8], [6 x double], [3 x i32], [3 x i32], i8, i8, [6 x i8], [3 x double], [3 x double], [3 x double], [3 x double], [3 x double], %struct._ZSt6vectorIjSaIjEE, %struct._ZSt6vectorIdSaIdEE, %struct._ZSt6vectorIdSaIdEE, %struct._ZSt6vectorIjSaIjEE}> 

define linkonce_odr void @_ZNSt16allocator_traitsISaIN5vmesh14MeshParametersEEE10deallocateERS2_PS1_m(%struct._ZSaIN5vmesh14MeshParametersEE* %__a.arg, %struct._ZN5vmesh14MeshParametersE* %__p.arg, i64 %__n.arg) #0 inlinehint !dbg !5249 {
L.entry:
	%__a.addr = alloca %struct._ZSaIN5vmesh14MeshParametersEE*, align 8
	%__p.addr = alloca %struct._ZN5vmesh14MeshParametersE*, align 8
	%__n.addr = alloca i64, align 8
	%..inline.addr = alloca %struct._ZN5vmesh14MeshParametersE*, align 8

	call void @llvm.dbg.declare (metadata %struct._ZSaIN5vmesh14MeshParametersEE** %__a.addr, metadata !5257, metadata !4081), !dbg !5250
	store %struct._ZSaIN5vmesh14MeshParametersEE* %__a.arg, %struct._ZSaIN5vmesh14MeshParametersEE** %__a.addr, align 8, !tbaa !4096
	call void @llvm.dbg.declare (metadata %struct._ZSaIN5vmesh14MeshParametersEE** %__a.addr, metadata !5258, metadata !4081), !dbg !5250
	call void @llvm.dbg.declare (metadata %struct._ZN5vmesh14MeshParametersE** %__p.addr, metadata !5259, metadata !4081), !dbg !5250
	store %struct._ZN5vmesh14MeshParametersE* %__p.arg, %struct._ZN5vmesh14MeshParametersE** %__p.addr, align 8, !tbaa !4096
	call void @llvm.dbg.declare (metadata %struct._ZN5vmesh14MeshParametersE** %__p.addr, metadata !5260, metadata !4081), !dbg !5250
	call void @llvm.dbg.declare (metadata i64* %__n.addr, metadata !5261, metadata !4081), !dbg !5250
	store i64 %__n.arg, i64* %__n.addr, align 8, !tbaa !4097
	call void @llvm.dbg.declare (metadata i64* %__n.addr, metadata !5262, metadata !4081), !dbg !5250
	%0 = load %struct._ZN5vmesh14MeshParametersE*, %struct._ZN5vmesh14MeshParametersE** %__p.addr, align 8, !tbaa !4096, !dbg !5263
	%1 = bitcast %struct._ZN5vmesh14MeshParametersE*  %0 to i8*, !dbg !5263
	%2 = bitcast %struct._ZN5vmesh14MeshParametersE** %..inline.addr to i8**, !dbg !5263
	store i8*  %1, i8**  %2, align 8, !tbaa !4096, !dbg !5263
	%3 = load %struct._ZN5vmesh14MeshParametersE*, %struct._ZN5vmesh14MeshParametersE** %..inline.addr, align 8, !tbaa !4096, !dbg !5264
	%4 = bitcast %struct._ZN5vmesh14MeshParametersE*  %3 to i8*, !dbg !5264
	call void  @_ZdlPv (i8*  %4) nounwind, !dbg !5264
	ret void, !dbg !5263
}

%struct._ZNSt12_Vector_baseIN5vmesh14MeshParametersESaIS1_EE12_Vector_implE = type <{ %struct._ZNSt12_Vector_baseIN5vmesh14MeshParametersESaIS1_EE17_Vector_impl_dataE}> 
%struct._ZNSt12_Vector_baseIN5vmesh14MeshParametersESaIS1_EE17_Vector_impl_dataE = type <{ %struct._ZN5vmesh14MeshParametersE*, %struct._ZN5vmesh14MeshParametersE*, %struct._ZN5vmesh14MeshParametersE*}> 
%struct._ZSt12_Vector_baseIN5vmesh14MeshParametersESaIS1_EE = type <{ %struct._ZNSt12_Vector_baseIN5vmesh14MeshParametersESaIS1_EE12_Vector_implE}> 

define linkonce_odr %struct._ZSaIN5vmesh14MeshParametersEE* @_ZNSt12_Vector_baseIN5vmesh14MeshParametersESaIS1_EE19_M_get_Tp_allocatorEv(%struct._ZSt12_Vector_baseIN5vmesh14MeshParametersESaIS1_EE* %_T42566248_52609.arg) #0 inlinehint !dbg !5270 {
L.entry:
	%_T42566248_52609.addr = alloca %struct._ZSt12_Vector_baseIN5vmesh14MeshParametersESaIS1_EE*, align 8

	call void @llvm.dbg.declare (metadata %struct._ZSt12_Vector_baseIN5vmesh14MeshParametersESaIS1_EE** %_T42566248_52609.addr, metadata !5274, metadata !4081), !dbg !5271
	store %struct._ZSt12_Vector_baseIN5vmesh14MeshParametersESaIS1_EE* %_T42566248_52609.arg, %struct._ZSt12_Vector_baseIN5vmesh14MeshParametersESaIS1_EE** %_T42566248_52609.addr, align 8, !tbaa !4096
	call void @llvm.dbg.declare (metadata %struct._ZSt12_Vector_baseIN5vmesh14MeshParametersESaIS1_EE** %_T42566248_52609.addr, metadata !5275, metadata !4081), !dbg !5271
	%0 = load %struct._ZSt12_Vector_baseIN5vmesh14MeshParametersESaIS1_EE*, %struct._ZSt12_Vector_baseIN5vmesh14MeshParametersESaIS1_EE** %_T42566248_52609.addr, align 8, !tbaa !4096, !dbg !5276
	%1 = bitcast %struct._ZSt12_Vector_baseIN5vmesh14MeshParametersESaIS1_EE*  %0 to %struct._ZSaIN5vmesh14MeshParametersEE*, !dbg !5276
	ret %struct._ZSaIN5vmesh14MeshParametersEE*  %1, !dbg !5276
}
define linkonce_odr void @_ZNSt12_Vector_baseIN5vmesh14MeshParametersESaIS1_EEC1Ev(%struct._ZSt12_Vector_baseIN5vmesh14MeshParametersESaIS1_EE* %_T42566248_52610.arg) #0 inlinehint !dbg !5280 {
L.entry:
	%_T42566248_52610.addr = alloca %struct._ZSt12_Vector_baseIN5vmesh14MeshParametersESaIS1_EE*, align 8
	%..inline.addr = alloca %struct._ZNSt12_Vector_baseIN5vmesh14MeshParametersESaIS1_EE17_Vector_impl_dataE*, align 8

	call void @llvm.dbg.declare (metadata %struct._ZSt12_Vector_baseIN5vmesh14MeshParametersESaIS1_EE** %_T42566248_52610.addr, metadata !5296, metadata !4081), !dbg !5281
	store %struct._ZSt12_Vector_baseIN5vmesh14MeshParametersESaIS1_EE* %_T42566248_52610.arg, %struct._ZSt12_Vector_baseIN5vmesh14MeshParametersESaIS1_EE** %_T42566248_52610.addr, align 8, !tbaa !4096
	call void @llvm.dbg.declare (metadata %struct._ZSt12_Vector_baseIN5vmesh14MeshParametersESaIS1_EE** %_T42566248_52610.addr, metadata !5297, metadata !4081), !dbg !5281
	%0 = load %struct._ZSt12_Vector_baseIN5vmesh14MeshParametersESaIS1_EE*, %struct._ZSt12_Vector_baseIN5vmesh14MeshParametersESaIS1_EE** %_T42566248_52610.addr, align 8, !tbaa !4096, !dbg !5298
	%1 = bitcast %struct._ZSt12_Vector_baseIN5vmesh14MeshParametersESaIS1_EE*  %0 to i8*, !dbg !5298
	%2 = bitcast %struct._ZNSt12_Vector_baseIN5vmesh14MeshParametersESaIS1_EE17_Vector_impl_dataE** %..inline.addr to i8**, !dbg !5298
	store i8*  %1, i8**  %2, align 8, !tbaa !4096, !dbg !5298
	%3 = load %struct._ZNSt12_Vector_baseIN5vmesh14MeshParametersESaIS1_EE17_Vector_impl_dataE*, %struct._ZNSt12_Vector_baseIN5vmesh14MeshParametersESaIS1_EE17_Vector_impl_dataE** %..inline.addr, align 8, !tbaa !4096, !dbg !5298
	%4 = bitcast %struct._ZNSt12_Vector_baseIN5vmesh14MeshParametersESaIS1_EE17_Vector_impl_dataE*  %3 to i8**, !dbg !5298
	store i8* null, i8**  %4, align 8, !tbaa !4096, !dbg !5298
	%5 = bitcast %struct._ZNSt12_Vector_baseIN5vmesh14MeshParametersESaIS1_EE17_Vector_impl_dataE*  %3 to i8*, !dbg !5298
	%6 = getelementptr i8, i8*  %5, i64 8, !dbg !5298
	%7 = bitcast i8*  %6 to i8**, !dbg !5298
	store i8* null, i8**  %7, align 8, !tbaa !4096, !dbg !5298
	%8 = getelementptr i8, i8*  %5, i64 16, !dbg !5298
	%9 = bitcast i8*  %8 to i8**, !dbg !5298
	store i8* null, i8**  %9, align 8, !tbaa !4096, !dbg !5298
	ret void, !dbg !5298
}
define linkonce_odr void @_ZNSt12_Vector_baseIN5vmesh14MeshParametersESaIS1_EEC2Ev(%struct._ZSt12_Vector_baseIN5vmesh14MeshParametersESaIS1_EE* %_T42566248_52611.arg) #0 inlinehint !dbg !5300 {
L.entry:
	%_T42566248_52611.addr = alloca %struct._ZSt12_Vector_baseIN5vmesh14MeshParametersESaIS1_EE*, align 8
	%..inline.addr = alloca %struct._ZNSt12_Vector_baseIN5vmesh14MeshParametersESaIS1_EE17_Vector_impl_dataE*, align 8

	store %struct._ZSt12_Vector_baseIN5vmesh14MeshParametersESaIS1_EE* %_T42566248_52611.arg, %struct._ZSt12_Vector_baseIN5vmesh14MeshParametersESaIS1_EE** %_T42566248_52611.addr, align 8, !tbaa !4096
	%0 = load %struct._ZSt12_Vector_baseIN5vmesh14MeshParametersESaIS1_EE*, %struct._ZSt12_Vector_baseIN5vmesh14MeshParametersESaIS1_EE** %_T42566248_52611.addr, align 8, !tbaa !4096, !dbg !5320
	%1 = bitcast %struct._ZSt12_Vector_baseIN5vmesh14MeshParametersESaIS1_EE*  %0 to i8*, !dbg !5320
	%2 = bitcast %struct._ZNSt12_Vector_baseIN5vmesh14MeshParametersESaIS1_EE17_Vector_impl_dataE** %..inline.addr to i8**, !dbg !5320
	store i8*  %1, i8**  %2, align 8, !tbaa !4096, !dbg !5320
	%3 = load %struct._ZNSt12_Vector_baseIN5vmesh14MeshParametersESaIS1_EE17_Vector_impl_dataE*, %struct._ZNSt12_Vector_baseIN5vmesh14MeshParametersESaIS1_EE17_Vector_impl_dataE** %..inline.addr, align 8, !tbaa !4096, !dbg !5320
	%4 = bitcast %struct._ZNSt12_Vector_baseIN5vmesh14MeshParametersESaIS1_EE17_Vector_impl_dataE*  %3 to i8**, !dbg !5320
	store i8* null, i8**  %4, align 8, !tbaa !4096, !dbg !5320
	%5 = bitcast %struct._ZNSt12_Vector_baseIN5vmesh14MeshParametersESaIS1_EE17_Vector_impl_dataE*  %3 to i8*, !dbg !5320
	%6 = getelementptr i8, i8*  %5, i64 8, !dbg !5320
	%7 = bitcast i8*  %6 to i8**, !dbg !5320
	store i8* null, i8**  %7, align 8, !tbaa !4096, !dbg !5320
	%8 = getelementptr i8, i8*  %5, i64 16, !dbg !5320
	%9 = bitcast i8*  %8 to i8**, !dbg !5320
	store i8* null, i8**  %9, align 8, !tbaa !4096, !dbg !5320
	ret void, !dbg !5320
}
define linkonce_odr void @_ZNSt12_Vector_baseIN5vmesh14MeshParametersESaIS1_EED1Ev(%struct._ZSt12_Vector_baseIN5vmesh14MeshParametersESaIS1_EE* %_T42566248_52612.arg) #0 inlinehint !dbg !5322 {
L.entry:
	%_T42566248_52612.addr = alloca %struct._ZSt12_Vector_baseIN5vmesh14MeshParametersESaIS1_EE*, align 8
	%..inline.addr = alloca %struct._ZN5vmesh14MeshParametersE*, align 8

	call void @llvm.dbg.declare (metadata %struct._ZSt12_Vector_baseIN5vmesh14MeshParametersESaIS1_EE** %_T42566248_52612.addr, metadata !5350, metadata !4081), !dbg !5323
	store %struct._ZSt12_Vector_baseIN5vmesh14MeshParametersESaIS1_EE* %_T42566248_52612.arg, %struct._ZSt12_Vector_baseIN5vmesh14MeshParametersESaIS1_EE** %_T42566248_52612.addr, align 8, !tbaa !4096
	call void @llvm.dbg.declare (metadata %struct._ZSt12_Vector_baseIN5vmesh14MeshParametersESaIS1_EE** %_T42566248_52612.addr, metadata !5351, metadata !4081), !dbg !5323
	%0 = load %struct._ZSt12_Vector_baseIN5vmesh14MeshParametersESaIS1_EE*, %struct._ZSt12_Vector_baseIN5vmesh14MeshParametersESaIS1_EE** %_T42566248_52612.addr, align 8, !tbaa !4096, !dbg !5352
	%1 = bitcast %struct._ZSt12_Vector_baseIN5vmesh14MeshParametersESaIS1_EE*  %0 to i8**, !dbg !5352
	%2 = load i8*, i8**  %1, align 8, !tbaa !4096, !dbg !5352
	%3 = icmp eq i8*  %2,  null, !dbg !5352
	br i1  %3, label %L..inline.68856, label %L.B1175, !dbg !5352
L.B1175:
	%4 = bitcast %struct._ZSt12_Vector_baseIN5vmesh14MeshParametersESaIS1_EE*  %0 to i8**, !dbg !5353
	%5 = load i8*, i8**  %4, align 8, !tbaa !4096, !dbg !5353
	%6 = bitcast %struct._ZN5vmesh14MeshParametersE** %..inline.addr to i8**, !dbg !5353
	store i8*  %5, i8**  %6, align 8, !tbaa !4096, !dbg !5353
	%7 = load %struct._ZN5vmesh14MeshParametersE*, %struct._ZN5vmesh14MeshParametersE** %..inline.addr, align 8, !tbaa !4096, !dbg !5353
	%8 = bitcast %struct._ZN5vmesh14MeshParametersE*  %7 to i8*, !dbg !5353
	call void  @_ZdlPv (i8*  %8) nounwind, !dbg !5353
	br label %L..inline.68856
L..inline.68856:
	ret void, !dbg !5354
}
define linkonce_odr void @_ZNSt12_Vector_baseIN5vmesh14MeshParametersESaIS1_EED2Ev(%struct._ZSt12_Vector_baseIN5vmesh14MeshParametersESaIS1_EE* %_T42566248_52613.arg) #0 inlinehint !dbg !5356 {
L.entry:
	%_T42566248_52613.addr = alloca %struct._ZSt12_Vector_baseIN5vmesh14MeshParametersESaIS1_EE*, align 8
	%..inline.addr = alloca %struct._ZSt12_Vector_baseIN5vmesh14MeshParametersESaIS1_EE*, align 8
	%..inline.addr.1 = alloca %struct._ZN5vmesh14MeshParametersE*, align 8

	store %struct._ZSt12_Vector_baseIN5vmesh14MeshParametersESaIS1_EE* %_T42566248_52613.arg, %struct._ZSt12_Vector_baseIN5vmesh14MeshParametersESaIS1_EE** %_T42566248_52613.addr, align 8, !tbaa !4096
	%0 = load %struct._ZSt12_Vector_baseIN5vmesh14MeshParametersESaIS1_EE*, %struct._ZSt12_Vector_baseIN5vmesh14MeshParametersESaIS1_EE** %_T42566248_52613.addr, align 8, !tbaa !4096, !dbg !5388
	%1 = bitcast %struct._ZSt12_Vector_baseIN5vmesh14MeshParametersESaIS1_EE*  %0 to i8*, !dbg !5388
	%2 = bitcast %struct._ZSt12_Vector_baseIN5vmesh14MeshParametersESaIS1_EE** %..inline.addr to i8**, !dbg !5388
	store i8*  %1, i8**  %2, align 8, !tbaa !4096, !dbg !5388
	%3 = load %struct._ZSt12_Vector_baseIN5vmesh14MeshParametersESaIS1_EE*, %struct._ZSt12_Vector_baseIN5vmesh14MeshParametersESaIS1_EE** %..inline.addr, align 8, !tbaa !4096, !dbg !5388
	%4 = bitcast %struct._ZSt12_Vector_baseIN5vmesh14MeshParametersESaIS1_EE*  %3 to i8**, !dbg !5388
	%5 = load i8*, i8**  %4, align 8, !tbaa !4096, !dbg !5388
	%6 = icmp eq i8*  %5,  null, !dbg !5388
	br i1  %6, label %L..inline.68919, label %L.B1178, !dbg !5388
L.B1178:
	%7 = bitcast %struct._ZSt12_Vector_baseIN5vmesh14MeshParametersESaIS1_EE*  %3 to i8**, !dbg !5388
	%8 = load i8*, i8**  %7, align 8, !tbaa !4096, !dbg !5388
	%9 = bitcast %struct._ZN5vmesh14MeshParametersE** %..inline.addr.1 to i8**, !dbg !5388
	store i8*  %8, i8**  %9, align 8, !tbaa !4096, !dbg !5388
	%10 = load %struct._ZN5vmesh14MeshParametersE*, %struct._ZN5vmesh14MeshParametersE** %..inline.addr.1, align 8, !tbaa !4096, !dbg !5388
	%11 = bitcast %struct._ZN5vmesh14MeshParametersE*  %10 to i8*, !dbg !5388
	call void  @_ZdlPv (i8*  %11) nounwind, !dbg !5388
	br label %L..inline.68919
L..inline.68919:
	ret void, !dbg !5389
}
define linkonce_odr void @_ZNSt12_Vector_baseIN5vmesh14MeshParametersESaIS1_EE13_M_deallocateEPS1_m(%struct._ZSt12_Vector_baseIN5vmesh14MeshParametersESaIS1_EE* %_T42566248_52616.arg, %struct._ZN5vmesh14MeshParametersE* %__p.arg, i64 %__n.arg) #0 inlinehint !dbg !5393 {
L.entry:
	%_T42566248_52616.addr = alloca %struct._ZSt12_Vector_baseIN5vmesh14MeshParametersESaIS1_EE*, align 8
	%__p.addr = alloca %struct._ZN5vmesh14MeshParametersE*, align 8
	%__n.addr = alloca i64, align 8
	%..inline.addr = alloca %struct._ZN5vmesh14MeshParametersE*, align 8

	call void @llvm.dbg.declare (metadata %struct._ZSt12_Vector_baseIN5vmesh14MeshParametersESaIS1_EE** %_T42566248_52616.addr, metadata !5405, metadata !4081), !dbg !5394
	store %struct._ZSt12_Vector_baseIN5vmesh14MeshParametersESaIS1_EE* %_T42566248_52616.arg, %struct._ZSt12_Vector_baseIN5vmesh14MeshParametersESaIS1_EE** %_T42566248_52616.addr, align 8, !tbaa !4096
	call void @llvm.dbg.declare (metadata %struct._ZSt12_Vector_baseIN5vmesh14MeshParametersESaIS1_EE** %_T42566248_52616.addr, metadata !5406, metadata !4081), !dbg !5394
	call void @llvm.dbg.declare (metadata %struct._ZN5vmesh14MeshParametersE** %__p.addr, metadata !5407, metadata !4081), !dbg !5394
	store %struct._ZN5vmesh14MeshParametersE* %__p.arg, %struct._ZN5vmesh14MeshParametersE** %__p.addr, align 8, !tbaa !4096
	call void @llvm.dbg.declare (metadata %struct._ZN5vmesh14MeshParametersE** %__p.addr, metadata !5408, metadata !4081), !dbg !5394
	call void @llvm.dbg.declare (metadata i64* %__n.addr, metadata !5409, metadata !4081), !dbg !5394
	store i64 %__n.arg, i64* %__n.addr, align 8, !tbaa !4097
	call void @llvm.dbg.declare (metadata i64* %__n.addr, metadata !5410, metadata !4081), !dbg !5394
	%0 = load %struct._ZN5vmesh14MeshParametersE*, %struct._ZN5vmesh14MeshParametersE** %__p.addr, align 8, !tbaa !4096, !dbg !5411
	%1 = bitcast %struct._ZN5vmesh14MeshParametersE*  %0 to i8*, !dbg !5411
	%2 = icmp eq i8*  %1,  null, !dbg !5411
	br i1  %2, label %L.B0017, label %L.B1181, !dbg !5411
L.B1181:
	%3 = bitcast %struct._ZN5vmesh14MeshParametersE*  %0 to i8*, !dbg !5412
	%4 = bitcast %struct._ZN5vmesh14MeshParametersE** %..inline.addr to i8**, !dbg !5412
	store i8*  %3, i8**  %4, align 8, !tbaa !4096, !dbg !5412
	%5 = load %struct._ZN5vmesh14MeshParametersE*, %struct._ZN5vmesh14MeshParametersE** %..inline.addr, align 8, !tbaa !4096, !dbg !5412
	%6 = bitcast %struct._ZN5vmesh14MeshParametersE*  %5 to i8*, !dbg !5412
	call void  @_ZdlPv (i8*  %6) nounwind, !dbg !5412
	br label %L.B0017
L.B0017:
	ret void, !dbg !5413
}
define linkonce_odr void @_ZNSt12_Vector_baseIN5vmesh14MeshParametersESaIS1_EE17_Vector_impl_dataC1Ev(%struct._ZNSt12_Vector_baseIN5vmesh14MeshParametersESaIS1_EE17_Vector_impl_dataE* %_T42566248_52617.arg) #0 inlinehint !dbg !5418 {
L.entry:
	%_T42566248_52617.addr = alloca %struct._ZNSt12_Vector_baseIN5vmesh14MeshParametersESaIS1_EE17_Vector_impl_dataE*, align 8

	call void @llvm.dbg.declare (metadata %struct._ZNSt12_Vector_baseIN5vmesh14MeshParametersESaIS1_EE17_Vector_impl_dataE** %_T42566248_52617.addr, metadata !5422, metadata !4081), !dbg !5419
	store %struct._ZNSt12_Vector_baseIN5vmesh14MeshParametersESaIS1_EE17_Vector_impl_dataE* %_T42566248_52617.arg, %struct._ZNSt12_Vector_baseIN5vmesh14MeshParametersESaIS1_EE17_Vector_impl_dataE** %_T42566248_52617.addr, align 8, !tbaa !4096
	call void @llvm.dbg.declare (metadata %struct._ZNSt12_Vector_baseIN5vmesh14MeshParametersESaIS1_EE17_Vector_impl_dataE** %_T42566248_52617.addr, metadata !5423, metadata !4081), !dbg !5419
	%0 = load %struct._ZNSt12_Vector_baseIN5vmesh14MeshParametersESaIS1_EE17_Vector_impl_dataE*, %struct._ZNSt12_Vector_baseIN5vmesh14MeshParametersESaIS1_EE17_Vector_impl_dataE** %_T42566248_52617.addr, align 8, !tbaa !4096, !dbg !5424
	%1 = bitcast %struct._ZNSt12_Vector_baseIN5vmesh14MeshParametersESaIS1_EE17_Vector_impl_dataE*  %0 to i8**, !dbg !5424
	store i8* null, i8**  %1, align 8, !tbaa !4096, !dbg !5424
	%2 = bitcast %struct._ZNSt12_Vector_baseIN5vmesh14MeshParametersESaIS1_EE17_Vector_impl_dataE*  %0 to i8*, !dbg !5424
	%3 = getelementptr i8, i8*  %2, i64 8, !dbg !5424
	%4 = bitcast i8*  %3 to i8**, !dbg !5424
	store i8* null, i8**  %4, align 8, !tbaa !4096, !dbg !5424
	%5 = getelementptr i8, i8*  %2, i64 16, !dbg !5424
	%6 = bitcast i8*  %5 to i8**, !dbg !5424
	store i8* null, i8**  %6, align 8, !tbaa !4096, !dbg !5424
	ret void, !dbg !5424
}
define linkonce_odr void @_ZNSt12_Vector_baseIN5vmesh14MeshParametersESaIS1_EE17_Vector_impl_dataC2Ev(%struct._ZNSt12_Vector_baseIN5vmesh14MeshParametersESaIS1_EE17_Vector_impl_dataE* %_T42566248_52618.arg) #0 inlinehint !dbg !5426 {
L.entry:
	%_T42566248_52618.addr = alloca %struct._ZNSt12_Vector_baseIN5vmesh14MeshParametersESaIS1_EE17_Vector_impl_dataE*, align 8
	%..inline.addr = alloca %struct._ZNSt12_Vector_baseIN5vmesh14MeshParametersESaIS1_EE17_Vector_impl_dataE*, align 8

	store %struct._ZNSt12_Vector_baseIN5vmesh14MeshParametersESaIS1_EE17_Vector_impl_dataE* %_T42566248_52618.arg, %struct._ZNSt12_Vector_baseIN5vmesh14MeshParametersESaIS1_EE17_Vector_impl_dataE** %_T42566248_52618.addr, align 8, !tbaa !4096
	%0 = load %struct._ZNSt12_Vector_baseIN5vmesh14MeshParametersESaIS1_EE17_Vector_impl_dataE*, %struct._ZNSt12_Vector_baseIN5vmesh14MeshParametersESaIS1_EE17_Vector_impl_dataE** %_T42566248_52618.addr, align 8, !tbaa !4096, !dbg !5434
	%1 = bitcast %struct._ZNSt12_Vector_baseIN5vmesh14MeshParametersESaIS1_EE17_Vector_impl_dataE*  %0 to i8*, !dbg !5434
	%2 = bitcast %struct._ZNSt12_Vector_baseIN5vmesh14MeshParametersESaIS1_EE17_Vector_impl_dataE** %..inline.addr to i8**, !dbg !5434
	store i8*  %1, i8**  %2, align 8, !tbaa !4096, !dbg !5434
	%3 = load %struct._ZNSt12_Vector_baseIN5vmesh14MeshParametersESaIS1_EE17_Vector_impl_dataE*, %struct._ZNSt12_Vector_baseIN5vmesh14MeshParametersESaIS1_EE17_Vector_impl_dataE** %..inline.addr, align 8, !tbaa !4096, !dbg !5434
	%4 = bitcast %struct._ZNSt12_Vector_baseIN5vmesh14MeshParametersESaIS1_EE17_Vector_impl_dataE*  %3 to i8**, !dbg !5434
	store i8* null, i8**  %4, align 8, !tbaa !4096, !dbg !5434
	%5 = bitcast %struct._ZNSt12_Vector_baseIN5vmesh14MeshParametersESaIS1_EE17_Vector_impl_dataE*  %3 to i8*, !dbg !5434
	%6 = getelementptr i8, i8*  %5, i64 8, !dbg !5434
	%7 = bitcast i8*  %6 to i8**, !dbg !5434
	store i8* null, i8**  %7, align 8, !tbaa !4096, !dbg !5434
	%8 = getelementptr i8, i8*  %5, i64 16, !dbg !5434
	%9 = bitcast i8*  %8 to i8**, !dbg !5434
	store i8* null, i8**  %9, align 8, !tbaa !4096, !dbg !5434
	ret void, !dbg !5434
}
define linkonce_odr void @_ZNSt12_Vector_baseIN5vmesh14MeshParametersESaIS1_EE12_Vector_implC1Ev(%struct._ZNSt12_Vector_baseIN5vmesh14MeshParametersESaIS1_EE12_Vector_implE* %_T42566248_52619.arg) #0 inlinehint !dbg !5439 {
L.entry:
	%_T42566248_52619.addr = alloca %struct._ZNSt12_Vector_baseIN5vmesh14MeshParametersESaIS1_EE12_Vector_implE*, align 8
	%..inline.addr = alloca %struct._ZNSt12_Vector_baseIN5vmesh14MeshParametersESaIS1_EE17_Vector_impl_dataE*, align 8

	call void @llvm.dbg.declare (metadata %struct._ZNSt12_Vector_baseIN5vmesh14MeshParametersESaIS1_EE12_Vector_implE** %_T42566248_52619.addr, metadata !5451, metadata !4081), !dbg !5440
	store %struct._ZNSt12_Vector_baseIN5vmesh14MeshParametersESaIS1_EE12_Vector_implE* %_T42566248_52619.arg, %struct._ZNSt12_Vector_baseIN5vmesh14MeshParametersESaIS1_EE12_Vector_implE** %_T42566248_52619.addr, align 8, !tbaa !4096
	call void @llvm.dbg.declare (metadata %struct._ZNSt12_Vector_baseIN5vmesh14MeshParametersESaIS1_EE12_Vector_implE** %_T42566248_52619.addr, metadata !5452, metadata !4081), !dbg !5440
	%0 = load %struct._ZNSt12_Vector_baseIN5vmesh14MeshParametersESaIS1_EE12_Vector_implE*, %struct._ZNSt12_Vector_baseIN5vmesh14MeshParametersESaIS1_EE12_Vector_implE** %_T42566248_52619.addr, align 8, !tbaa !4096, !dbg !5453
	%1 = bitcast %struct._ZNSt12_Vector_baseIN5vmesh14MeshParametersESaIS1_EE12_Vector_implE*  %0 to i8*, !dbg !5453
	%2 = bitcast %struct._ZNSt12_Vector_baseIN5vmesh14MeshParametersESaIS1_EE17_Vector_impl_dataE** %..inline.addr to i8**, !dbg !5453
	store i8*  %1, i8**  %2, align 8, !tbaa !4096, !dbg !5453
	%3 = load %struct._ZNSt12_Vector_baseIN5vmesh14MeshParametersESaIS1_EE17_Vector_impl_dataE*, %struct._ZNSt12_Vector_baseIN5vmesh14MeshParametersESaIS1_EE17_Vector_impl_dataE** %..inline.addr, align 8, !tbaa !4096, !dbg !5453
	%4 = bitcast %struct._ZNSt12_Vector_baseIN5vmesh14MeshParametersESaIS1_EE17_Vector_impl_dataE*  %3 to i8**, !dbg !5453
	store i8* null, i8**  %4, align 8, !tbaa !4096, !dbg !5453
	%5 = bitcast %struct._ZNSt12_Vector_baseIN5vmesh14MeshParametersESaIS1_EE17_Vector_impl_dataE*  %3 to i8*, !dbg !5454
	%6 = getelementptr i8, i8*  %5, i64 8, !dbg !5454
	%7 = bitcast i8*  %6 to i8**, !dbg !5454
	store i8* null, i8**  %7, align 8, !tbaa !4096, !dbg !5454
	%8 = getelementptr i8, i8*  %5, i64 16, !dbg !5454
	%9 = bitcast i8*  %8 to i8**, !dbg !5454
	store i8* null, i8**  %9, align 8, !tbaa !4096, !dbg !5454
	ret void, !dbg !5453
}
define linkonce_odr void @_ZNSt12_Vector_baseIN5vmesh14MeshParametersESaIS1_EE12_Vector_implC2Ev(%struct._ZNSt12_Vector_baseIN5vmesh14MeshParametersESaIS1_EE12_Vector_implE* %_T42566248_52620.arg) #0 inlinehint !dbg !5456 {
L.entry:
	%_T42566248_52620.addr = alloca %struct._ZNSt12_Vector_baseIN5vmesh14MeshParametersESaIS1_EE12_Vector_implE*, align 8
	%..inline.addr = alloca %struct._ZNSt12_Vector_baseIN5vmesh14MeshParametersESaIS1_EE17_Vector_impl_dataE*, align 8

	store %struct._ZNSt12_Vector_baseIN5vmesh14MeshParametersESaIS1_EE12_Vector_implE* %_T42566248_52620.arg, %struct._ZNSt12_Vector_baseIN5vmesh14MeshParametersESaIS1_EE12_Vector_implE** %_T42566248_52620.addr, align 8, !tbaa !4096
	%0 = load %struct._ZNSt12_Vector_baseIN5vmesh14MeshParametersESaIS1_EE12_Vector_implE*, %struct._ZNSt12_Vector_baseIN5vmesh14MeshParametersESaIS1_EE12_Vector_implE** %_T42566248_52620.addr, align 8, !tbaa !4096, !dbg !5472
	%1 = bitcast %struct._ZNSt12_Vector_baseIN5vmesh14MeshParametersESaIS1_EE12_Vector_implE*  %0 to i8*, !dbg !5472
	%2 = bitcast %struct._ZNSt12_Vector_baseIN5vmesh14MeshParametersESaIS1_EE17_Vector_impl_dataE** %..inline.addr to i8**, !dbg !5472
	store i8*  %1, i8**  %2, align 8, !tbaa !4096, !dbg !5472
	%3 = load %struct._ZNSt12_Vector_baseIN5vmesh14MeshParametersESaIS1_EE17_Vector_impl_dataE*, %struct._ZNSt12_Vector_baseIN5vmesh14MeshParametersESaIS1_EE17_Vector_impl_dataE** %..inline.addr, align 8, !tbaa !4096, !dbg !5472
	%4 = bitcast %struct._ZNSt12_Vector_baseIN5vmesh14MeshParametersESaIS1_EE17_Vector_impl_dataE*  %3 to i8**, !dbg !5472
	store i8* null, i8**  %4, align 8, !tbaa !4096, !dbg !5472
	%5 = bitcast %struct._ZNSt12_Vector_baseIN5vmesh14MeshParametersESaIS1_EE17_Vector_impl_dataE*  %3 to i8*, !dbg !5472
	%6 = getelementptr i8, i8*  %5, i64 8, !dbg !5472
	%7 = bitcast i8*  %6 to i8**, !dbg !5472
	store i8* null, i8**  %7, align 8, !tbaa !4096, !dbg !5472
	%8 = getelementptr i8, i8*  %5, i64 16, !dbg !5472
	%9 = bitcast i8*  %8 to i8**, !dbg !5472
	store i8* null, i8**  %9, align 8, !tbaa !4096, !dbg !5472
	ret void, !dbg !5472
}
define linkonce_odr void @_ZNSt12_Vector_baseIN5vmesh14MeshParametersESaIS1_EE12_Vector_implD1Ev(%struct._ZNSt12_Vector_baseIN5vmesh14MeshParametersESaIS1_EE12_Vector_implE* %_T42566248_52621.arg) #0 inlinehint !dbg !5474 {
L.entry:
	%_T42566248_52621.addr = alloca %struct._ZNSt12_Vector_baseIN5vmesh14MeshParametersESaIS1_EE12_Vector_implE*, align 8

	call void @llvm.dbg.declare (metadata %struct._ZNSt12_Vector_baseIN5vmesh14MeshParametersESaIS1_EE12_Vector_implE** %_T42566248_52621.addr, metadata !5486, metadata !4081), !dbg !5475
	store %struct._ZNSt12_Vector_baseIN5vmesh14MeshParametersESaIS1_EE12_Vector_implE* %_T42566248_52621.arg, %struct._ZNSt12_Vector_baseIN5vmesh14MeshParametersESaIS1_EE12_Vector_implE** %_T42566248_52621.addr, align 8, !tbaa !4096
	call void @llvm.dbg.declare (metadata %struct._ZNSt12_Vector_baseIN5vmesh14MeshParametersESaIS1_EE12_Vector_implE** %_T42566248_52621.addr, metadata !5487, metadata !4081), !dbg !5475
	ret void, !dbg !5488
}
define linkonce_odr void @_ZNSt12_Vector_baseIN5vmesh14MeshParametersESaIS1_EE12_Vector_implD2Ev(%struct._ZNSt12_Vector_baseIN5vmesh14MeshParametersESaIS1_EE12_Vector_implE* %_T42566248_52622.arg) #0 inlinehint !dbg !5490 {
L.entry:
	%_T42566248_52622.addr = alloca %struct._ZNSt12_Vector_baseIN5vmesh14MeshParametersESaIS1_EE12_Vector_implE*, align 8

	store %struct._ZNSt12_Vector_baseIN5vmesh14MeshParametersESaIS1_EE12_Vector_implE* %_T42566248_52622.arg, %struct._ZNSt12_Vector_baseIN5vmesh14MeshParametersESaIS1_EE12_Vector_implE** %_T42566248_52622.addr, align 8, !tbaa !4096
	ret void, !dbg !5506
}

%struct._ZSt6vectorIN5vmesh14MeshParametersESaIS1_EE = type <{ %struct._ZSt12_Vector_baseIN5vmesh14MeshParametersESaIS1_EE}> 

define linkonce_odr void @_ZNSt6vectorIN5vmesh14MeshParametersESaIS1_EEC1Ev(%struct._ZSt6vectorIN5vmesh14MeshParametersESaIS1_EE* %_T42566248_52623.arg) #0 inlinehint !dbg !5511 {
L.entry:
	%_T42566248_52623.addr = alloca %struct._ZSt6vectorIN5vmesh14MeshParametersESaIS1_EE*, align 8
	%..inline.addr = alloca %struct._ZNSt12_Vector_baseIN5vmesh14MeshParametersESaIS1_EE17_Vector_impl_dataE*, align 8

	call void @llvm.dbg.declare (metadata %struct._ZSt6vectorIN5vmesh14MeshParametersESaIS1_EE** %_T42566248_52623.addr, metadata !5535, metadata !4081), !dbg !5512
	store %struct._ZSt6vectorIN5vmesh14MeshParametersESaIS1_EE* %_T42566248_52623.arg, %struct._ZSt6vectorIN5vmesh14MeshParametersESaIS1_EE** %_T42566248_52623.addr, align 8, !tbaa !4096
	call void @llvm.dbg.declare (metadata %struct._ZSt6vectorIN5vmesh14MeshParametersESaIS1_EE** %_T42566248_52623.addr, metadata !5536, metadata !4081), !dbg !5512
	%0 = load %struct._ZSt6vectorIN5vmesh14MeshParametersESaIS1_EE*, %struct._ZSt6vectorIN5vmesh14MeshParametersESaIS1_EE** %_T42566248_52623.addr, align 8, !tbaa !4096, !dbg !5537
	%1 = bitcast %struct._ZSt6vectorIN5vmesh14MeshParametersESaIS1_EE*  %0 to i8*, !dbg !5537
	%2 = bitcast %struct._ZNSt12_Vector_baseIN5vmesh14MeshParametersESaIS1_EE17_Vector_impl_dataE** %..inline.addr to i8**, !dbg !5537
	store i8*  %1, i8**  %2, align 8, !tbaa !4096, !dbg !5537
	%3 = load %struct._ZNSt12_Vector_baseIN5vmesh14MeshParametersESaIS1_EE17_Vector_impl_dataE*, %struct._ZNSt12_Vector_baseIN5vmesh14MeshParametersESaIS1_EE17_Vector_impl_dataE** %..inline.addr, align 8, !tbaa !4096, !dbg !5537
	%4 = bitcast %struct._ZNSt12_Vector_baseIN5vmesh14MeshParametersESaIS1_EE17_Vector_impl_dataE*  %3 to i8**, !dbg !5537
	store i8* null, i8**  %4, align 8, !tbaa !4096, !dbg !5537
	%5 = bitcast %struct._ZNSt12_Vector_baseIN5vmesh14MeshParametersESaIS1_EE17_Vector_impl_dataE*  %3 to i8*, !dbg !5537
	%6 = getelementptr i8, i8*  %5, i64 8, !dbg !5537
	%7 = bitcast i8*  %6 to i8**, !dbg !5537
	store i8* null, i8**  %7, align 8, !tbaa !4096, !dbg !5537
	%8 = getelementptr i8, i8*  %5, i64 16, !dbg !5537
	%9 = bitcast i8*  %8 to i8**, !dbg !5537
	store i8* null, i8**  %9, align 8, !tbaa !4096, !dbg !5537
	ret void, !dbg !5537
}
define linkonce_odr void @_ZNSt6vectorIN5vmesh14MeshParametersESaIS1_EEC2Ev(%struct._ZSt6vectorIN5vmesh14MeshParametersESaIS1_EE* %_T42566248_52624.arg) #0 inlinehint !dbg !5539 {
L.entry:
	%_T42566248_52624.addr = alloca %struct._ZSt6vectorIN5vmesh14MeshParametersESaIS1_EE*, align 8
	%..inline.addr = alloca %struct._ZNSt12_Vector_baseIN5vmesh14MeshParametersESaIS1_EE17_Vector_impl_dataE*, align 8

	store %struct._ZSt6vectorIN5vmesh14MeshParametersESaIS1_EE* %_T42566248_52624.arg, %struct._ZSt6vectorIN5vmesh14MeshParametersESaIS1_EE** %_T42566248_52624.addr, align 8, !tbaa !4096
	%0 = load %struct._ZSt6vectorIN5vmesh14MeshParametersESaIS1_EE*, %struct._ZSt6vectorIN5vmesh14MeshParametersESaIS1_EE** %_T42566248_52624.addr, align 8, !tbaa !4096, !dbg !5567
	%1 = bitcast %struct._ZSt6vectorIN5vmesh14MeshParametersESaIS1_EE*  %0 to i8*, !dbg !5567
	%2 = bitcast %struct._ZNSt12_Vector_baseIN5vmesh14MeshParametersESaIS1_EE17_Vector_impl_dataE** %..inline.addr to i8**, !dbg !5567
	store i8*  %1, i8**  %2, align 8, !tbaa !4096, !dbg !5567
	%3 = load %struct._ZNSt12_Vector_baseIN5vmesh14MeshParametersESaIS1_EE17_Vector_impl_dataE*, %struct._ZNSt12_Vector_baseIN5vmesh14MeshParametersESaIS1_EE17_Vector_impl_dataE** %..inline.addr, align 8, !tbaa !4096, !dbg !5567
	%4 = bitcast %struct._ZNSt12_Vector_baseIN5vmesh14MeshParametersESaIS1_EE17_Vector_impl_dataE*  %3 to i8**, !dbg !5567
	store i8* null, i8**  %4, align 8, !tbaa !4096, !dbg !5567
	%5 = bitcast %struct._ZNSt12_Vector_baseIN5vmesh14MeshParametersESaIS1_EE17_Vector_impl_dataE*  %3 to i8*, !dbg !5567
	%6 = getelementptr i8, i8*  %5, i64 8, !dbg !5567
	%7 = bitcast i8*  %6 to i8**, !dbg !5567
	store i8* null, i8**  %7, align 8, !tbaa !4096, !dbg !5567
	%8 = getelementptr i8, i8*  %5, i64 16, !dbg !5567
	%9 = bitcast i8*  %8 to i8**, !dbg !5567
	store i8* null, i8**  %9, align 8, !tbaa !4096, !dbg !5567
	ret void, !dbg !5567
}
define linkonce_odr void @_ZNSt6vectorIN5vmesh14MeshParametersESaIS1_EED1Ev(%struct._ZSt6vectorIN5vmesh14MeshParametersESaIS1_EE* %_T42566248_52625.arg) #0 inlinehint !dbg !5569 {
L.entry:
	%_T42566248_52625.addr = alloca %struct._ZSt6vectorIN5vmesh14MeshParametersESaIS1_EE*, align 8
	%..inline.addr = alloca %struct._ZN5vmesh14MeshParametersE*, align 8
	%..inline.addr.1 = alloca %struct._ZN5vmesh14MeshParametersE*, align 8
	%.lcr4459393.addr = alloca i8*, align 8
	%..inline.addr.2 = alloca %struct._ZN5vmesh14MeshParametersE*, align 8
	%..inline.addr.3 = alloca %struct._ZSt12_Vector_baseIN5vmesh14MeshParametersESaIS1_EE*, align 8
	%..inline.addr.4 = alloca %struct._ZN5vmesh14MeshParametersE*, align 8

	call void @llvm.dbg.declare (metadata %struct._ZSt6vectorIN5vmesh14MeshParametersESaIS1_EE** %_T42566248_52625.addr, metadata !5629, metadata !4081), !dbg !5570
	store %struct._ZSt6vectorIN5vmesh14MeshParametersESaIS1_EE* %_T42566248_52625.arg, %struct._ZSt6vectorIN5vmesh14MeshParametersESaIS1_EE** %_T42566248_52625.addr, align 8, !tbaa !4096
	call void @llvm.dbg.declare (metadata %struct._ZSt6vectorIN5vmesh14MeshParametersESaIS1_EE** %_T42566248_52625.addr, metadata !5630, metadata !4081), !dbg !5570
	%0 = load %struct._ZSt6vectorIN5vmesh14MeshParametersESaIS1_EE*, %struct._ZSt6vectorIN5vmesh14MeshParametersESaIS1_EE** %_T42566248_52625.addr, align 8, !tbaa !4096, !dbg !5631
	%1 = bitcast %struct._ZSt6vectorIN5vmesh14MeshParametersESaIS1_EE*  %0 to i8**, !dbg !5631
	%2 = load i8*, i8**  %1, align 8, !tbaa !4096, !dbg !5631
	%3 = bitcast %struct._ZN5vmesh14MeshParametersE** %..inline.addr to i8**, !dbg !5631
	store i8*  %2, i8**  %3, align 8, !tbaa !4096, !dbg !5631
	%4 = bitcast %struct._ZSt6vectorIN5vmesh14MeshParametersESaIS1_EE*  %0 to i8*, !dbg !5631
	%5 = getelementptr i8, i8*  %4, i64 8, !dbg !5631
	%6 = bitcast i8*  %5 to i8**, !dbg !5631
	%7 = load i8*, i8**  %6, align 8, !tbaa !4096, !dbg !5631
	%8 = bitcast %struct._ZN5vmesh14MeshParametersE** %..inline.addr.1 to i8**, !dbg !5631
	store i8*  %7, i8**  %8, align 8, !tbaa !4096, !dbg !5631
	%9 = load %struct._ZN5vmesh14MeshParametersE*, %struct._ZN5vmesh14MeshParametersE** %..inline.addr, align 8, !tbaa !4096, !dbg !5631
	%10 = bitcast %struct._ZN5vmesh14MeshParametersE*  %9 to i8*, !dbg !5631
	%11 = load %struct._ZN5vmesh14MeshParametersE*, %struct._ZN5vmesh14MeshParametersE** %..inline.addr.1, align 8, !tbaa !4096, !dbg !5631
	%12 = bitcast %struct._ZN5vmesh14MeshParametersE*  %11 to i8*, !dbg !5631
	%13 = icmp eq i8*  %10,  %12, !dbg !5631
	br i1  %13, label %L..inline.69172, label %L.B1202, !dbg !5631
L.B1202:
	%14 = bitcast %struct._ZN5vmesh14MeshParametersE*  %9 to i8*, !dbg !5631
	%15 = bitcast %struct._ZN5vmesh14MeshParametersE*  %11 to i8*, !dbg !5631
	%16 = ptrtoint i8*  %14 to i64, !dbg !5631
	%17 = sub i64 0,  %16, !dbg !5631
	%18 = getelementptr i8, i8*  %15, i64  %17, !dbg !5631
	%19 = ptrtoint i8*  %18 to i64, !dbg !5631
	%20 = add i64  %19, 335, !dbg !5631
	%21 = sub i64 0,  %16, !dbg !5631
	%22 = getelementptr i8, i8*  %15, i64  %21, !dbg !5631
	%23 = ptrtoint i8*  %22 to i64, !dbg !5631
	%24 = add i64  %23, 335, !dbg !5631
	%25 = sext i64 -4392081922311798003 to i128, !dbg !5631
	%26 = sext i64  %24 to i128, !dbg !5631
	%27 = mul i128  %25,  %26, !dbg !5631
	%28 = ashr i128  %27, 64, !dbg !5631
	%29 = trunc i128  %28 to i64, !dbg !5631
	%30 = add i64  %20,  %29, !dbg !5631
	%31 = sext i32 8 to i64, !dbg !5631
	%32 = ashr i64  %30,  %31, !dbg !5631
	%33 = sub i64 0,  %16, !dbg !5631
	%34 = getelementptr i8, i8*  %15, i64  %33, !dbg !5631
	%35 = ptrtoint i8*  %34 to i64, !dbg !5631
	%36 = add i64  %35, 335, !dbg !5631
	%37 = sext i32 63 to i64, !dbg !5631
	%38 = ashr i64  %36,  %37, !dbg !5631
	%39 = sub i64  %32,  %38, !dbg !5631
	%40 = mul i64  %39, 336, !dbg !5631
	%41 = getelementptr i8, i8*  %14, i64  %40, !dbg !5631
	store i8*  %41, i8** %.lcr4459393.addr, align 8, !tbaa !4096, !dbg !5631
	br label %L..inline.69171
L..inline.69171:
	%42 = load %struct._ZN5vmesh14MeshParametersE*, %struct._ZN5vmesh14MeshParametersE** %..inline.addr, align 8, !tbaa !4096, !dbg !5631
	%43 = bitcast %struct._ZN5vmesh14MeshParametersE*  %42 to i8*, !dbg !5631
	%44 = bitcast %struct._ZN5vmesh14MeshParametersE** %..inline.addr.2 to i8**, !dbg !5631
	store i8*  %43, i8**  %44, align 8, !tbaa !4096, !dbg !5631
	%45 = load %struct._ZN5vmesh14MeshParametersE*, %struct._ZN5vmesh14MeshParametersE** %..inline.addr.2, align 8, !tbaa !4096, !dbg !5631
	call void  @_ZN5vmesh14MeshParametersD1Ev (%struct._ZN5vmesh14MeshParametersE*  %45) nounwind, !dbg !5631
	%46 = load %struct._ZN5vmesh14MeshParametersE*, %struct._ZN5vmesh14MeshParametersE** %..inline.addr, align 8, !tbaa !4096, !dbg !5631
	%47 = bitcast %struct._ZN5vmesh14MeshParametersE*  %46 to i8*, !dbg !5631
	%48 = getelementptr i8, i8*  %47, i64 336, !dbg !5631
	%49 = bitcast %struct._ZN5vmesh14MeshParametersE** %..inline.addr to i8**, !dbg !5631
	store i8*  %48, i8**  %49, align 8, !tbaa !4096, !dbg !5631
	%50 = load %struct._ZN5vmesh14MeshParametersE*, %struct._ZN5vmesh14MeshParametersE** %..inline.addr, align 8, !tbaa !4096, !dbg !5631
	%51 = bitcast %struct._ZN5vmesh14MeshParametersE*  %50 to i8*, !dbg !5631
	%52 = load i8*, i8** %.lcr4459393.addr, align 8, !tbaa !4096, !dbg !5631
	%53 = icmp ult i8*  %51,  %52, !dbg !5631
	br i1  %53, label %L..inline.69171, label %L..inline.69172, !dbg !5631
L..inline.69172:
	%54 = load %struct._ZSt6vectorIN5vmesh14MeshParametersESaIS1_EE*, %struct._ZSt6vectorIN5vmesh14MeshParametersESaIS1_EE** %_T42566248_52625.addr, align 8, !tbaa !4096, !dbg !5632
	%55 = bitcast %struct._ZSt6vectorIN5vmesh14MeshParametersESaIS1_EE*  %54 to i8*, !dbg !5632
	%56 = bitcast %struct._ZSt12_Vector_baseIN5vmesh14MeshParametersESaIS1_EE** %..inline.addr.3 to i8**, !dbg !5632
	store i8*  %55, i8**  %56, align 8, !tbaa !4096, !dbg !5632
	%57 = load %struct._ZSt12_Vector_baseIN5vmesh14MeshParametersESaIS1_EE*, %struct._ZSt12_Vector_baseIN5vmesh14MeshParametersESaIS1_EE** %..inline.addr.3, align 8, !tbaa !4096, !dbg !5633
	%58 = bitcast %struct._ZSt12_Vector_baseIN5vmesh14MeshParametersESaIS1_EE*  %57 to i8**, !dbg !5633
	%59 = load i8*, i8**  %58, align 8, !tbaa !4096, !dbg !5633
	%60 = icmp eq i8*  %59,  null, !dbg !5633
	br i1  %60, label %L..inline.69204, label %L.B1203, !dbg !5633
L.B1203:
	%61 = bitcast %struct._ZSt12_Vector_baseIN5vmesh14MeshParametersESaIS1_EE*  %57 to i8**, !dbg !5633
	%62 = load i8*, i8**  %61, align 8, !tbaa !4096, !dbg !5633
	%63 = bitcast %struct._ZN5vmesh14MeshParametersE** %..inline.addr.4 to i8**, !dbg !5633
	store i8*  %62, i8**  %63, align 8, !tbaa !4096, !dbg !5633
	%64 = load %struct._ZN5vmesh14MeshParametersE*, %struct._ZN5vmesh14MeshParametersE** %..inline.addr.4, align 8, !tbaa !4096, !dbg !5633
	%65 = bitcast %struct._ZN5vmesh14MeshParametersE*  %64 to i8*, !dbg !5633
	call void  @_ZdlPv (i8*  %65) nounwind, !dbg !5633
	br label %L..inline.69204
L..inline.69204:
	ret void, !dbg !5632
}
define linkonce_odr void @_ZNSt6vectorIN5vmesh14MeshParametersESaIS1_EED2Ev(%struct._ZSt6vectorIN5vmesh14MeshParametersESaIS1_EE* %_T42566248_52626.arg) #0 inlinehint !dbg !5635 {
L.entry:
	%_T42566248_52626.addr = alloca %struct._ZSt6vectorIN5vmesh14MeshParametersESaIS1_EE*, align 8
	%..inline.addr = alloca %struct._ZSt6vectorIN5vmesh14MeshParametersESaIS1_EE*, align 8
	%..inline.addr.1 = alloca %struct._ZN5vmesh14MeshParametersE*, align 8
	%..inline.addr.2 = alloca %struct._ZN5vmesh14MeshParametersE*, align 8
	%.lcr4460417.addr = alloca i8*, align 8
	%..inline.addr.3 = alloca %struct._ZN5vmesh14MeshParametersE*, align 8
	%..inline.addr.4 = alloca %struct._ZN5vmesh14MeshParametersE*, align 8

	store %struct._ZSt6vectorIN5vmesh14MeshParametersESaIS1_EE* %_T42566248_52626.arg, %struct._ZSt6vectorIN5vmesh14MeshParametersESaIS1_EE** %_T42566248_52626.addr, align 8, !tbaa !4096
	%0 = load %struct._ZSt6vectorIN5vmesh14MeshParametersESaIS1_EE*, %struct._ZSt6vectorIN5vmesh14MeshParametersESaIS1_EE** %_T42566248_52626.addr, align 8, !tbaa !4096, !dbg !5699
	%1 = bitcast %struct._ZSt6vectorIN5vmesh14MeshParametersESaIS1_EE*  %0 to i8*, !dbg !5699
	%2 = bitcast %struct._ZSt6vectorIN5vmesh14MeshParametersESaIS1_EE** %..inline.addr to i8**, !dbg !5699
	store i8*  %1, i8**  %2, align 8, !tbaa !4096, !dbg !5699
	%3 = load %struct._ZSt6vectorIN5vmesh14MeshParametersESaIS1_EE*, %struct._ZSt6vectorIN5vmesh14MeshParametersESaIS1_EE** %..inline.addr, align 8, !tbaa !4096, !dbg !5700
	%4 = bitcast %struct._ZSt6vectorIN5vmesh14MeshParametersESaIS1_EE*  %3 to i8**, !dbg !5700
	%5 = load i8*, i8**  %4, align 8, !tbaa !4096, !dbg !5700
	%6 = bitcast %struct._ZN5vmesh14MeshParametersE** %..inline.addr.1 to i8**, !dbg !5700
	store i8*  %5, i8**  %6, align 8, !tbaa !4096, !dbg !5700
	%7 = bitcast %struct._ZSt6vectorIN5vmesh14MeshParametersESaIS1_EE*  %3 to i8*, !dbg !5700
	%8 = getelementptr i8, i8*  %7, i64 8, !dbg !5700
	%9 = bitcast i8*  %8 to i8**, !dbg !5700
	%10 = load i8*, i8**  %9, align 8, !tbaa !4096, !dbg !5700
	%11 = bitcast %struct._ZN5vmesh14MeshParametersE** %..inline.addr.2 to i8**, !dbg !5700
	store i8*  %10, i8**  %11, align 8, !tbaa !4096, !dbg !5700
	%12 = load %struct._ZN5vmesh14MeshParametersE*, %struct._ZN5vmesh14MeshParametersE** %..inline.addr.1, align 8, !tbaa !4096, !dbg !5700
	%13 = bitcast %struct._ZN5vmesh14MeshParametersE*  %12 to i8*, !dbg !5700
	%14 = load %struct._ZN5vmesh14MeshParametersE*, %struct._ZN5vmesh14MeshParametersE** %..inline.addr.2, align 8, !tbaa !4096, !dbg !5700
	%15 = bitcast %struct._ZN5vmesh14MeshParametersE*  %14 to i8*, !dbg !5700
	%16 = icmp eq i8*  %13,  %15, !dbg !5700
	br i1  %16, label %L..inline.69303, label %L.B1206, !dbg !5700
L.B1206:
	%17 = bitcast %struct._ZN5vmesh14MeshParametersE*  %12 to i8*, !dbg !5700
	%18 = bitcast %struct._ZN5vmesh14MeshParametersE*  %14 to i8*, !dbg !5700
	%19 = ptrtoint i8*  %17 to i64, !dbg !5700
	%20 = sub i64 0,  %19, !dbg !5700
	%21 = getelementptr i8, i8*  %18, i64  %20, !dbg !5700
	%22 = ptrtoint i8*  %21 to i64, !dbg !5700
	%23 = add i64  %22, 335, !dbg !5700
	%24 = sub i64 0,  %19, !dbg !5700
	%25 = getelementptr i8, i8*  %18, i64  %24, !dbg !5700
	%26 = ptrtoint i8*  %25 to i64, !dbg !5700
	%27 = add i64  %26, 335, !dbg !5700
	%28 = sext i64 -4392081922311798003 to i128, !dbg !5700
	%29 = sext i64  %27 to i128, !dbg !5700
	%30 = mul i128  %28,  %29, !dbg !5700
	%31 = ashr i128  %30, 64, !dbg !5700
	%32 = trunc i128  %31 to i64, !dbg !5700
	%33 = add i64  %23,  %32, !dbg !5700
	%34 = sext i32 8 to i64, !dbg !5700
	%35 = ashr i64  %33,  %34, !dbg !5700
	%36 = sub i64 0,  %19, !dbg !5700
	%37 = getelementptr i8, i8*  %18, i64  %36, !dbg !5700
	%38 = ptrtoint i8*  %37 to i64, !dbg !5700
	%39 = add i64  %38, 335, !dbg !5700
	%40 = sext i32 63 to i64, !dbg !5700
	%41 = ashr i64  %39,  %40, !dbg !5700
	%42 = sub i64  %35,  %41, !dbg !5700
	%43 = mul i64  %42, 336, !dbg !5700
	%44 = getelementptr i8, i8*  %17, i64  %43, !dbg !5700
	store i8*  %44, i8** %.lcr4460417.addr, align 8, !tbaa !4096, !dbg !5700
	br label %L..inline.69302
L..inline.69302:
	%45 = load %struct._ZN5vmesh14MeshParametersE*, %struct._ZN5vmesh14MeshParametersE** %..inline.addr.1, align 8, !tbaa !4096, !dbg !5700
	%46 = bitcast %struct._ZN5vmesh14MeshParametersE*  %45 to i8*, !dbg !5700
	%47 = bitcast %struct._ZN5vmesh14MeshParametersE** %..inline.addr.3 to i8**, !dbg !5700
	store i8*  %46, i8**  %47, align 8, !tbaa !4096, !dbg !5700
	%48 = load %struct._ZN5vmesh14MeshParametersE*, %struct._ZN5vmesh14MeshParametersE** %..inline.addr.3, align 8, !tbaa !4096, !dbg !5700
	call void  @_ZN5vmesh14MeshParametersD1Ev (%struct._ZN5vmesh14MeshParametersE*  %48) nounwind, !dbg !5700
	%49 = load %struct._ZN5vmesh14MeshParametersE*, %struct._ZN5vmesh14MeshParametersE** %..inline.addr.1, align 8, !tbaa !4096, !dbg !5700
	%50 = bitcast %struct._ZN5vmesh14MeshParametersE*  %49 to i8*, !dbg !5700
	%51 = getelementptr i8, i8*  %50, i64 336, !dbg !5700
	%52 = bitcast %struct._ZN5vmesh14MeshParametersE** %..inline.addr.1 to i8**, !dbg !5700
	store i8*  %51, i8**  %52, align 8, !tbaa !4096, !dbg !5700
	%53 = load %struct._ZN5vmesh14MeshParametersE*, %struct._ZN5vmesh14MeshParametersE** %..inline.addr.1, align 8, !tbaa !4096, !dbg !5700
	%54 = bitcast %struct._ZN5vmesh14MeshParametersE*  %53 to i8*, !dbg !5700
	%55 = load i8*, i8** %.lcr4460417.addr, align 8, !tbaa !4096, !dbg !5700
	%56 = icmp ult i8*  %54,  %55, !dbg !5700
	br i1  %56, label %L..inline.69302, label %L..inline.69303, !dbg !5700
L..inline.69303:
	%57 = load %struct._ZSt6vectorIN5vmesh14MeshParametersESaIS1_EE*, %struct._ZSt6vectorIN5vmesh14MeshParametersESaIS1_EE** %..inline.addr, align 8, !tbaa !4096, !dbg !5701
	%58 = bitcast %struct._ZSt6vectorIN5vmesh14MeshParametersESaIS1_EE*  %57 to i8**, !dbg !5701
	%59 = load i8*, i8**  %58, align 8, !tbaa !4096, !dbg !5701
	%60 = icmp eq i8*  %59,  null, !dbg !5701
	br i1  %60, label %L..inline.69333, label %L.B1207, !dbg !5701
L.B1207:
	%61 = bitcast %struct._ZSt6vectorIN5vmesh14MeshParametersESaIS1_EE*  %57 to i8**, !dbg !5701
	%62 = load i8*, i8**  %61, align 8, !tbaa !4096, !dbg !5701
	%63 = bitcast %struct._ZN5vmesh14MeshParametersE** %..inline.addr.4 to i8**, !dbg !5701
	store i8*  %62, i8**  %63, align 8, !tbaa !4096, !dbg !5701
	%64 = load %struct._ZN5vmesh14MeshParametersE*, %struct._ZN5vmesh14MeshParametersE** %..inline.addr.4, align 8, !tbaa !4096, !dbg !5701
	%65 = bitcast %struct._ZN5vmesh14MeshParametersE*  %64 to i8*, !dbg !5701
	call void  @_ZdlPv (i8*  %65) nounwind, !dbg !5701
	br label %L..inline.69333
L..inline.69333:
	ret void, !dbg !5701
}
define linkonce_odr %struct._ZN5vmesh14MeshParametersE* @_ZNSt6vectorIN5vmesh14MeshParametersESaIS1_EEixEm(%struct._ZSt6vectorIN5vmesh14MeshParametersESaIS1_EE* %_T42566248_52629.arg, i64 %__n.arg) #0 inlinehint !dbg !5705 {
L.entry:
	%_T42566248_52629.addr = alloca %struct._ZSt6vectorIN5vmesh14MeshParametersESaIS1_EE*, align 8
	%__n.addr = alloca i64, align 8

	call void @llvm.dbg.declare (metadata %struct._ZSt6vectorIN5vmesh14MeshParametersESaIS1_EE** %_T42566248_52629.addr, metadata !5709, metadata !4081), !dbg !5706
	store %struct._ZSt6vectorIN5vmesh14MeshParametersESaIS1_EE* %_T42566248_52629.arg, %struct._ZSt6vectorIN5vmesh14MeshParametersESaIS1_EE** %_T42566248_52629.addr, align 8, !tbaa !4096
	call void @llvm.dbg.declare (metadata %struct._ZSt6vectorIN5vmesh14MeshParametersESaIS1_EE** %_T42566248_52629.addr, metadata !5710, metadata !4081), !dbg !5706
	call void @llvm.dbg.declare (metadata i64* %__n.addr, metadata !5711, metadata !4081), !dbg !5706
	store i64 %__n.arg, i64* %__n.addr, align 8, !tbaa !4097
	call void @llvm.dbg.declare (metadata i64* %__n.addr, metadata !5712, metadata !4081), !dbg !5706
	%0 = load %struct._ZSt6vectorIN5vmesh14MeshParametersESaIS1_EE*, %struct._ZSt6vectorIN5vmesh14MeshParametersESaIS1_EE** %_T42566248_52629.addr, align 8, !tbaa !4096, !dbg !5713
	%1 = bitcast %struct._ZSt6vectorIN5vmesh14MeshParametersESaIS1_EE*  %0 to i8**, !dbg !5713
	%2 = load i8*, i8**  %1, align 8, !tbaa !4096, !dbg !5713
	%3 = load i64, i64* %__n.addr, align 8, !tbaa !4099, !dbg !5713
	%4 = mul i64  %3, 336, !dbg !5713
	%5 = getelementptr i8, i8*  %2, i64  %4, !dbg !5713
	%6 = bitcast i8*  %5 to %struct._ZN5vmesh14MeshParametersE*, !dbg !5713
	ret %struct._ZN5vmesh14MeshParametersE*  %6, !dbg !5713
}
define linkonce_odr double* @_ZNSt14__array_traitsIdLm3EE6_S_refERA3_Kdm([3 x double]* %__t.arg, i64 %__n.arg) #0 inlinehint !dbg !5721 {
L.entry:
	%__t.addr = alloca [3 x double]*, align 8
	%__n.addr = alloca i64, align 8

	call void @llvm.dbg.declare (metadata [3 x double]** %__t.addr, metadata !5725, metadata !4081), !dbg !5722
	store [3 x double]* %__t.arg, [3 x double]** %__t.addr, align 8, !tbaa !4096
	call void @llvm.dbg.declare (metadata [3 x double]** %__t.addr, metadata !5726, metadata !4081), !dbg !5722
	call void @llvm.dbg.declare (metadata i64* %__n.addr, metadata !5727, metadata !4081), !dbg !5722
	store i64 %__n.arg, i64* %__n.addr, align 8, !tbaa !4097
	call void @llvm.dbg.declare (metadata i64* %__n.addr, metadata !5728, metadata !4081), !dbg !5722
	%0 = load [3 x double]*, [3 x double]** %__t.addr, align 8, !tbaa !4096, !dbg !5729
	%1 = bitcast [3 x double]*  %0 to i8*, !dbg !5729
	%2 = load i64, i64* %__n.addr, align 8, !tbaa !4099, !dbg !5729
	%3 = mul i64  %2, 8, !dbg !5729
	%4 = getelementptr i8, i8*  %1, i64  %3, !dbg !5729
	%5 = bitcast i8*  %4 to double*, !dbg !5729
	ret double*  %5, !dbg !5729
}
define linkonce_odr double* @_ZNSt5arrayIdLm3EEixEm(%struct._ZSt5arrayIdLm3EE* %_T42566248_52634.arg, i64 %__n.arg) #0 inlinehint !dbg !5733 {
L.entry:
	%_T42566248_52634.addr = alloca %struct._ZSt5arrayIdLm3EE*, align 8
	%__n.addr = alloca i64, align 8

	call void @llvm.dbg.declare (metadata %struct._ZSt5arrayIdLm3EE** %_T42566248_52634.addr, metadata !5741, metadata !4081), !dbg !5734
	store %struct._ZSt5arrayIdLm3EE* %_T42566248_52634.arg, %struct._ZSt5arrayIdLm3EE** %_T42566248_52634.addr, align 8, !tbaa !4096
	call void @llvm.dbg.declare (metadata %struct._ZSt5arrayIdLm3EE** %_T42566248_52634.addr, metadata !5742, metadata !4081), !dbg !5734
	call void @llvm.dbg.declare (metadata i64* %__n.addr, metadata !5743, metadata !4081), !dbg !5734
	store i64 %__n.arg, i64* %__n.addr, align 8, !tbaa !4097
	call void @llvm.dbg.declare (metadata i64* %__n.addr, metadata !5744, metadata !4081), !dbg !5734
	%0 = load %struct._ZSt5arrayIdLm3EE*, %struct._ZSt5arrayIdLm3EE** %_T42566248_52634.addr, align 8, !tbaa !4096, !dbg !5745
	%1 = bitcast %struct._ZSt5arrayIdLm3EE*  %0 to i8*, !dbg !5745
	%2 = load i64, i64* %__n.addr, align 8, !tbaa !4099, !dbg !5745
	%3 = mul i64  %2, 8, !dbg !5745
	%4 = getelementptr i8, i8*  %1, i64  %3, !dbg !5745
	%5 = bitcast i8*  %4 to double*, !dbg !5745
	ret double*  %5, !dbg !5745
}
define linkonce_odr double* @_ZNKSt5arrayIdLm3EEixEm(%struct._ZSt5arrayIdLm3EE* %_T42566248_52637.arg, i64 %__n.arg) #0 inlinehint !dbg !5747 {
L.entry:
	%_T42566248_52637.addr = alloca %struct._ZSt5arrayIdLm3EE*, align 8
	%__n.addr = alloca i64, align 8

	call void @llvm.dbg.declare (metadata %struct._ZSt5arrayIdLm3EE** %_T42566248_52637.addr, metadata !5755, metadata !4081), !dbg !5748
	store %struct._ZSt5arrayIdLm3EE* %_T42566248_52637.arg, %struct._ZSt5arrayIdLm3EE** %_T42566248_52637.addr, align 8, !tbaa !4096
	call void @llvm.dbg.declare (metadata %struct._ZSt5arrayIdLm3EE** %_T42566248_52637.addr, metadata !5756, metadata !4081), !dbg !5748
	call void @llvm.dbg.declare (metadata i64* %__n.addr, metadata !5757, metadata !4081), !dbg !5748
	store i64 %__n.arg, i64* %__n.addr, align 8, !tbaa !4097
	call void @llvm.dbg.declare (metadata i64* %__n.addr, metadata !5758, metadata !4081), !dbg !5748
	%0 = load %struct._ZSt5arrayIdLm3EE*, %struct._ZSt5arrayIdLm3EE** %_T42566248_52637.addr, align 8, !tbaa !4096, !dbg !5759
	%1 = bitcast %struct._ZSt5arrayIdLm3EE*  %0 to i8*, !dbg !5759
	%2 = load i64, i64* %__n.addr, align 8, !tbaa !4099, !dbg !5759
	%3 = mul i64  %2, 8, !dbg !5759
	%4 = getelementptr i8, i8*  %1, i64  %3, !dbg !5759
	%5 = bitcast i8*  %4 to double*, !dbg !5759
	ret double*  %5, !dbg !5759
}
define linkonce_odr double* @_ZNSt5arrayIdLm3EE2atEm(%struct._ZSt5arrayIdLm3EE* %_T42566248_52640.arg, i64 %__n.arg) #0 inlinehint !dbg !5761 {
L.entry:
	%_T42566248_52640.addr = alloca %struct._ZSt5arrayIdLm3EE*, align 8
	%__n.addr = alloca i64, align 8

	call void @llvm.dbg.declare (metadata %struct._ZSt5arrayIdLm3EE** %_T42566248_52640.addr, metadata !5769, metadata !4081), !dbg !5762
	store %struct._ZSt5arrayIdLm3EE* %_T42566248_52640.arg, %struct._ZSt5arrayIdLm3EE** %_T42566248_52640.addr, align 8, !tbaa !4096
	call void @llvm.dbg.declare (metadata %struct._ZSt5arrayIdLm3EE** %_T42566248_52640.addr, metadata !5770, metadata !4081), !dbg !5762
	call void @llvm.dbg.declare (metadata i64* %__n.addr, metadata !5771, metadata !4081), !dbg !5762
	store i64 %__n.arg, i64* %__n.addr, align 8, !tbaa !4097
	call void @llvm.dbg.declare (metadata i64* %__n.addr, metadata !5772, metadata !4081), !dbg !5762
	%0 = load i64, i64* %__n.addr, align 8, !tbaa !4099, !dbg !5773
	%1 = icmp ult i64  %0, 3, !dbg !5773
	br i1  %1, label %L.B0018, label %L.B1214, !dbg !5773
L.B1214:
	%2 = bitcast [52 x i8]* @.S54266 to i8*, !dbg !5774
	call void (i8*, ...)  @_ZSt24__throw_out_of_range_fmtPKcz (i8*  %2, i64  %0, i64 3) noreturn, !dbg !5774
	br label %L.B0018
L.B0018:
	%3 = load %struct._ZSt5arrayIdLm3EE*, %struct._ZSt5arrayIdLm3EE** %_T42566248_52640.addr, align 8, !tbaa !4096, !dbg !5775
	%4 = bitcast %struct._ZSt5arrayIdLm3EE*  %3 to i8*, !dbg !5775
	%5 = load i64, i64* %__n.addr, align 8, !tbaa !4099, !dbg !5775
	%6 = mul i64  %5, 8, !dbg !5775
	%7 = getelementptr i8, i8*  %4, i64  %6, !dbg !5775
	%8 = bitcast i8*  %7 to double*, !dbg !5775
	ret double*  %8, !dbg !5775
}
define linkonce_odr i32* @_ZNSt14__array_traitsIiLm27EE6_S_refERA27_Kim([27 x i32]* %__t.arg, i64 %__n.arg) #0 inlinehint !dbg !5781 {
L.entry:
	%__t.addr = alloca [27 x i32]*, align 8
	%__n.addr = alloca i64, align 8

	call void @llvm.dbg.declare (metadata [27 x i32]** %__t.addr, metadata !5785, metadata !4081), !dbg !5782
	store [27 x i32]* %__t.arg, [27 x i32]** %__t.addr, align 8, !tbaa !4096
	call void @llvm.dbg.declare (metadata [27 x i32]** %__t.addr, metadata !5786, metadata !4081), !dbg !5782
	call void @llvm.dbg.declare (metadata i64* %__n.addr, metadata !5787, metadata !4081), !dbg !5782
	store i64 %__n.arg, i64* %__n.addr, align 8, !tbaa !4097
	call void @llvm.dbg.declare (metadata i64* %__n.addr, metadata !5788, metadata !4081), !dbg !5782
	%0 = load [27 x i32]*, [27 x i32]** %__t.addr, align 8, !tbaa !4096, !dbg !5789
	%1 = bitcast [27 x i32]*  %0 to i8*, !dbg !5789
	%2 = load i64, i64* %__n.addr, align 8, !tbaa !4099, !dbg !5789
	%3 = mul i64  %2, 4, !dbg !5789
	%4 = getelementptr i8, i8*  %1, i64  %3, !dbg !5789
	%5 = bitcast i8*  %4 to i32*, !dbg !5789
	ret i32*  %5, !dbg !5789
}
define linkonce_odr i32* @_ZNSt5arrayIiLm27EEixEm(%struct._ZSt5arrayIiLm27EE* %_T42566248_52645.arg, i64 %__n.arg) #0 inlinehint !dbg !5794 {
L.entry:
	%_T42566248_52645.addr = alloca %struct._ZSt5arrayIiLm27EE*, align 8
	%__n.addr = alloca i64, align 8

	call void @llvm.dbg.declare (metadata %struct._ZSt5arrayIiLm27EE** %_T42566248_52645.addr, metadata !5802, metadata !4081), !dbg !5795
	store %struct._ZSt5arrayIiLm27EE* %_T42566248_52645.arg, %struct._ZSt5arrayIiLm27EE** %_T42566248_52645.addr, align 8, !tbaa !4096
	call void @llvm.dbg.declare (metadata %struct._ZSt5arrayIiLm27EE** %_T42566248_52645.addr, metadata !5803, metadata !4081), !dbg !5795
	call void @llvm.dbg.declare (metadata i64* %__n.addr, metadata !5804, metadata !4081), !dbg !5795
	store i64 %__n.arg, i64* %__n.addr, align 8, !tbaa !4097
	call void @llvm.dbg.declare (metadata i64* %__n.addr, metadata !5805, metadata !4081), !dbg !5795
	%0 = load %struct._ZSt5arrayIiLm27EE*, %struct._ZSt5arrayIiLm27EE** %_T42566248_52645.addr, align 8, !tbaa !4096, !dbg !5806
	%1 = bitcast %struct._ZSt5arrayIiLm27EE*  %0 to i8*, !dbg !5806
	%2 = load i64, i64* %__n.addr, align 8, !tbaa !4099, !dbg !5806
	%3 = mul i64  %2, 4, !dbg !5806
	%4 = getelementptr i8, i8*  %1, i64  %3, !dbg !5806
	%5 = bitcast i8*  %4 to i32*, !dbg !5806
	ret i32*  %5, !dbg !5806
}
define linkonce_odr i32* @_ZNSt14__array_traitsIiLm3EE6_S_refERA3_Kim([3 x i32]* %__t.arg, i64 %__n.arg) #0 inlinehint !dbg !5811 {
L.entry:
	%__t.addr = alloca [3 x i32]*, align 8
	%__n.addr = alloca i64, align 8

	call void @llvm.dbg.declare (metadata [3 x i32]** %__t.addr, metadata !5815, metadata !4081), !dbg !5812
	store [3 x i32]* %__t.arg, [3 x i32]** %__t.addr, align 8, !tbaa !4096
	call void @llvm.dbg.declare (metadata [3 x i32]** %__t.addr, metadata !5816, metadata !4081), !dbg !5812
	call void @llvm.dbg.declare (metadata i64* %__n.addr, metadata !5817, metadata !4081), !dbg !5812
	store i64 %__n.arg, i64* %__n.addr, align 8, !tbaa !4097
	call void @llvm.dbg.declare (metadata i64* %__n.addr, metadata !5818, metadata !4081), !dbg !5812
	%0 = load [3 x i32]*, [3 x i32]** %__t.addr, align 8, !tbaa !4096, !dbg !5819
	%1 = bitcast [3 x i32]*  %0 to i8*, !dbg !5819
	%2 = load i64, i64* %__n.addr, align 8, !tbaa !4099, !dbg !5819
	%3 = mul i64  %2, 4, !dbg !5819
	%4 = getelementptr i8, i8*  %1, i64  %3, !dbg !5819
	%5 = bitcast i8*  %4 to i32*, !dbg !5819
	ret i32*  %5, !dbg !5819
}
define linkonce_odr i32* @_ZNSt14__array_traitsIiLm3EE6_S_ptrERA3_Ki([3 x i32]* %__t.arg) #0 inlinehint !dbg !5823 {
L.entry:
	%__t.addr = alloca [3 x i32]*, align 8

	call void @llvm.dbg.declare (metadata [3 x i32]** %__t.addr, metadata !5827, metadata !4081), !dbg !5824
	store [3 x i32]* %__t.arg, [3 x i32]** %__t.addr, align 8, !tbaa !4096
	call void @llvm.dbg.declare (metadata [3 x i32]** %__t.addr, metadata !5828, metadata !4081), !dbg !5824
	%0 = load [3 x i32]*, [3 x i32]** %__t.addr, align 8, !tbaa !4096, !dbg !5829
	%1 = bitcast [3 x i32]*  %0 to i32*, !dbg !5829
	ret i32*  %1, !dbg !5829
}
define linkonce_odr i32* @_ZNSt5arrayIiLm3EEixEm(%struct._ZSt5arrayIiLm3EE* %_T42566248_52651.arg, i64 %__n.arg) #0 inlinehint !dbg !5833 {
L.entry:
	%_T42566248_52651.addr = alloca %struct._ZSt5arrayIiLm3EE*, align 8
	%__n.addr = alloca i64, align 8

	call void @llvm.dbg.declare (metadata %struct._ZSt5arrayIiLm3EE** %_T42566248_52651.addr, metadata !5841, metadata !4081), !dbg !5834
	store %struct._ZSt5arrayIiLm3EE* %_T42566248_52651.arg, %struct._ZSt5arrayIiLm3EE** %_T42566248_52651.addr, align 8, !tbaa !4096
	call void @llvm.dbg.declare (metadata %struct._ZSt5arrayIiLm3EE** %_T42566248_52651.addr, metadata !5842, metadata !4081), !dbg !5834
	call void @llvm.dbg.declare (metadata i64* %__n.addr, metadata !5843, metadata !4081), !dbg !5834
	store i64 %__n.arg, i64* %__n.addr, align 8, !tbaa !4097
	call void @llvm.dbg.declare (metadata i64* %__n.addr, metadata !5844, metadata !4081), !dbg !5834
	%0 = load %struct._ZSt5arrayIiLm3EE*, %struct._ZSt5arrayIiLm3EE** %_T42566248_52651.addr, align 8, !tbaa !4096, !dbg !5845
	%1 = bitcast %struct._ZSt5arrayIiLm3EE*  %0 to i8*, !dbg !5845
	%2 = load i64, i64* %__n.addr, align 8, !tbaa !4099, !dbg !5845
	%3 = mul i64  %2, 4, !dbg !5845
	%4 = getelementptr i8, i8*  %1, i64  %3, !dbg !5845
	%5 = bitcast i8*  %4 to i32*, !dbg !5845
	ret i32*  %5, !dbg !5845
}
define linkonce_odr i32* @_ZNSt5arrayIiLm3EE4dataEv(%struct._ZSt5arrayIiLm3EE* %_T42566248_52653.arg) #0 inlinehint !dbg !5849 {
L.entry:
	%_T42566248_52653.addr = alloca %struct._ZSt5arrayIiLm3EE*, align 8

	call void @llvm.dbg.declare (metadata %struct._ZSt5arrayIiLm3EE** %_T42566248_52653.addr, metadata !5857, metadata !4081), !dbg !5850
	store %struct._ZSt5arrayIiLm3EE* %_T42566248_52653.arg, %struct._ZSt5arrayIiLm3EE** %_T42566248_52653.addr, align 8, !tbaa !4096
	call void @llvm.dbg.declare (metadata %struct._ZSt5arrayIiLm3EE** %_T42566248_52653.addr, metadata !5858, metadata !4081), !dbg !5850
	%0 = load %struct._ZSt5arrayIiLm3EE*, %struct._ZSt5arrayIiLm3EE** %_T42566248_52653.addr, align 8, !tbaa !4096, !dbg !5859
	%1 = bitcast %struct._ZSt5arrayIiLm3EE*  %0 to i32*, !dbg !5859
	ret i32*  %1, !dbg !5859
}

%struct._ZNSt12_Vector_baseIN7species7SpeciesESaIS1_EE17_Vector_impl_dataE = type <{ %struct._ZN7species7SpeciesE*, %struct._ZN7species7SpeciesE*, %struct._ZN7species7SpeciesE*}> 
%struct._ZN7species7SpeciesE = type <{ %struct._ZNSt7__cxx1112basic_stringIcSt11char_traitsIcESaIcEEE, double, double, double, i64, i32, i8, [3 x i8], i32, [4 x i8], double, double, double, double, double, %struct._ZSt5arrayIdLm3EE, double, double, double, double, i32, [4 x i8], double, double, double}> 
%struct._ZSt6vectorIN7species7SpeciesESaIS1_EE = type <{ %struct._ZSt12_Vector_baseIN7species7SpeciesESaIS1_EE}> 
%struct._ZNSt12_Vector_baseIN7species7SpeciesESaIS1_EE12_Vector_implE = type <{ %struct._ZNSt12_Vector_baseIN7species7SpeciesESaIS1_EE17_Vector_impl_dataE}> 
%struct._ZSt12_Vector_baseIN7species7SpeciesESaIS1_EE = type <{ %struct._ZNSt12_Vector_baseIN7species7SpeciesESaIS1_EE12_Vector_implE}> 

define linkonce_odr i64 @_ZNKSt6vectorIN7species7SpeciesESaIS1_EE4sizeEv(%struct._ZSt6vectorIN7species7SpeciesESaIS1_EE* %_T42566248_52655.arg) #0 inlinehint !dbg !5864 {
L.entry:
	%_T42566248_52655.addr = alloca %struct._ZSt6vectorIN7species7SpeciesESaIS1_EE*, align 8
	%_T42567136_52655.addr = alloca i64, align 8

	call void @llvm.dbg.declare (metadata %struct._ZSt6vectorIN7species7SpeciesESaIS1_EE** %_T42566248_52655.addr, metadata !5868, metadata !4081), !dbg !5865
	store %struct._ZSt6vectorIN7species7SpeciesESaIS1_EE* %_T42566248_52655.arg, %struct._ZSt6vectorIN7species7SpeciesESaIS1_EE** %_T42566248_52655.addr, align 8, !tbaa !4096
	call void @llvm.dbg.declare (metadata %struct._ZSt6vectorIN7species7SpeciesESaIS1_EE** %_T42566248_52655.addr, metadata !5869, metadata !4081), !dbg !5865
	%0 = load %struct._ZSt6vectorIN7species7SpeciesESaIS1_EE*, %struct._ZSt6vectorIN7species7SpeciesESaIS1_EE** %_T42566248_52655.addr, align 8, !tbaa !4096, !dbg !5870
	%1 = bitcast %struct._ZSt6vectorIN7species7SpeciesESaIS1_EE*  %0 to i8*, !dbg !5870
	%2 = getelementptr i8, i8*  %1, i64 8, !dbg !5870
	%3 = bitcast i8*  %2 to i8**, !dbg !5870
	%4 = load i8*, i8**  %3, align 8, !tbaa !4096, !dbg !5870
	%5 = bitcast %struct._ZSt6vectorIN7species7SpeciesESaIS1_EE*  %0 to i8**, !dbg !5870
	%6 = load i8*, i8**  %5, align 8, !tbaa !4096, !dbg !5870
	%7 = ptrtoint i8*  %6 to i64, !dbg !5870
	%8 = sub i64 0,  %7, !dbg !5870
	%9 = getelementptr i8, i8*  %4, i64  %8, !dbg !5870
	%10 = ptrtoint i8*  %9 to i64, !dbg !5870
	%11 = sext i64 5675921253449092805 to i128, !dbg !5870
	%12 = sext i64  %10 to i128, !dbg !5870
	%13 = mul i128  %11,  %12, !dbg !5870
	%14 = ashr i128  %13, 64, !dbg !5870
	%15 = trunc i128  %14 to i64, !dbg !5870
	%16 = sext i32 6 to i64, !dbg !5870
	%17 = ashr i64  %15,  %16, !dbg !5870
	%18 = sub i64 0,  %7, !dbg !5870
	%19 = getelementptr i8, i8*  %4, i64  %18, !dbg !5870
	%20 = ptrtoint i8*  %19 to i64, !dbg !5870
	%21 = sext i32 63 to i64, !dbg !5870
	%22 = ashr i64  %20,  %21, !dbg !5870
	%23 = sub i64  %17,  %22, !dbg !5870
	ret i64  %23, !dbg !5870
}
define linkonce_odr %struct._ZN7species7SpeciesE* @_ZNSt6vectorIN7species7SpeciesESaIS1_EEixEm(%struct._ZSt6vectorIN7species7SpeciesESaIS1_EE* %_T42566248_52658.arg, i64 %__n.arg) #0 inlinehint !dbg !5874 {
L.entry:
	%_T42566248_52658.addr = alloca %struct._ZSt6vectorIN7species7SpeciesESaIS1_EE*, align 8
	%__n.addr = alloca i64, align 8

	call void @llvm.dbg.declare (metadata %struct._ZSt6vectorIN7species7SpeciesESaIS1_EE** %_T42566248_52658.addr, metadata !5878, metadata !4081), !dbg !5875
	store %struct._ZSt6vectorIN7species7SpeciesESaIS1_EE* %_T42566248_52658.arg, %struct._ZSt6vectorIN7species7SpeciesESaIS1_EE** %_T42566248_52658.addr, align 8, !tbaa !4096
	call void @llvm.dbg.declare (metadata %struct._ZSt6vectorIN7species7SpeciesESaIS1_EE** %_T42566248_52658.addr, metadata !5879, metadata !4081), !dbg !5875
	call void @llvm.dbg.declare (metadata i64* %__n.addr, metadata !5880, metadata !4081), !dbg !5875
	store i64 %__n.arg, i64* %__n.addr, align 8, !tbaa !4097
	call void @llvm.dbg.declare (metadata i64* %__n.addr, metadata !5881, metadata !4081), !dbg !5875
	%0 = load %struct._ZSt6vectorIN7species7SpeciesESaIS1_EE*, %struct._ZSt6vectorIN7species7SpeciesESaIS1_EE** %_T42566248_52658.addr, align 8, !tbaa !4096, !dbg !5882
	%1 = bitcast %struct._ZSt6vectorIN7species7SpeciesESaIS1_EE*  %0 to i8**, !dbg !5882
	%2 = load i8*, i8**  %1, align 8, !tbaa !4096, !dbg !5882
	%3 = load i64, i64* %__n.addr, align 8, !tbaa !4099, !dbg !5882
	%4 = mul i64  %3, 208, !dbg !5882
	%5 = getelementptr i8, i8*  %2, i64  %4, !dbg !5882
	%6 = bitcast i8*  %5 to %struct._ZN7species7SpeciesE*, !dbg !5882
	ret %struct._ZN7species7SpeciesE*  %6, !dbg !5882
}
define linkonce_odr %struct._ZSt5arrayIdLm3EE* @_ZNSt6vectorISt5arrayIdLm3EESaIS1_EEixEm(%struct._ZSt6vectorISt5arrayIdLm3EESaIS1_EE* %_T42566248_52661.arg, i64 %__n.arg) #0 inlinehint !dbg !5888 {
L.entry:
	%_T42566248_52661.addr = alloca %struct._ZSt6vectorISt5arrayIdLm3EESaIS1_EE*, align 8
	%__n.addr = alloca i64, align 8

	call void @llvm.dbg.declare (metadata %struct._ZSt6vectorISt5arrayIdLm3EESaIS1_EE** %_T42566248_52661.addr, metadata !5892, metadata !4081), !dbg !5889
	store %struct._ZSt6vectorISt5arrayIdLm3EESaIS1_EE* %_T42566248_52661.arg, %struct._ZSt6vectorISt5arrayIdLm3EESaIS1_EE** %_T42566248_52661.addr, align 8, !tbaa !4096
	call void @llvm.dbg.declare (metadata %struct._ZSt6vectorISt5arrayIdLm3EESaIS1_EE** %_T42566248_52661.addr, metadata !5893, metadata !4081), !dbg !5889
	call void @llvm.dbg.declare (metadata i64* %__n.addr, metadata !5894, metadata !4081), !dbg !5889
	store i64 %__n.arg, i64* %__n.addr, align 8, !tbaa !4097
	call void @llvm.dbg.declare (metadata i64* %__n.addr, metadata !5895, metadata !4081), !dbg !5889
	%0 = load %struct._ZSt6vectorISt5arrayIdLm3EESaIS1_EE*, %struct._ZSt6vectorISt5arrayIdLm3EESaIS1_EE** %_T42566248_52661.addr, align 8, !tbaa !4096, !dbg !5896
	%1 = bitcast %struct._ZSt6vectorISt5arrayIdLm3EESaIS1_EE*  %0 to i8**, !dbg !5896
	%2 = load i8*, i8**  %1, align 8, !tbaa !4096, !dbg !5896
	%3 = load i64, i64* %__n.addr, align 8, !tbaa !4099, !dbg !5896
	%4 = mul i64  %3, 24, !dbg !5896
	%5 = getelementptr i8, i8*  %2, i64  %4, !dbg !5896
	%6 = bitcast i8*  %5 to %struct._ZSt5arrayIdLm3EE*, !dbg !5896
	ret %struct._ZSt5arrayIdLm3EE*  %6, !dbg !5896
}
define linkonce_odr i8* @_ZNSt14pointer_traitsIPcE10pointer_toERc(i8* %__r.arg) #0 inlinehint !dbg !5903 {
L.entry:
	%__r.addr = alloca i8*, align 8

	call void @llvm.dbg.declare (metadata i8** %__r.addr, metadata !5915, metadata !4081), !dbg !5904
	store i8* %__r.arg, i8** %__r.addr, align 8, !tbaa !4096
	call void @llvm.dbg.declare (metadata i8** %__r.addr, metadata !5916, metadata !4081), !dbg !5904
	%0 = load i8*, i8** %__r.addr, align 8, !tbaa !4096, !dbg !5917
	ret i8*  %0, !dbg !5917
}
define linkonce_odr i8* @_ZNSt14pointer_traitsIPKcE10pointer_toERS0_(i8* %__r.arg) #0 inlinehint !dbg !5919 {
L.entry:
	%__r.addr = alloca i8*, align 8

	call void @llvm.dbg.declare (metadata i8** %__r.addr, metadata !5931, metadata !4081), !dbg !5920
	store i8* %__r.arg, i8** %__r.addr, align 8, !tbaa !4096
	call void @llvm.dbg.declare (metadata i8** %__r.addr, metadata !5932, metadata !4081), !dbg !5920
	%0 = load i8*, i8** %__r.addr, align 8, !tbaa !4096, !dbg !5933
	ret i8*  %0, !dbg !5933
}
define linkonce_odr void @_ZNSt12_Destroy_auxILb0EE9__destroyIPN5vmesh14MeshParametersEEEvT_S5_(%struct._ZN5vmesh14MeshParametersE* %__first.arg, %struct._ZN5vmesh14MeshParametersE* %__last.arg) #0 inlinehint !dbg !5937 {
L.entry:
	%__first.addr = alloca %struct._ZN5vmesh14MeshParametersE*, align 8
	%__last.addr = alloca %struct._ZN5vmesh14MeshParametersE*, align 8
	%.lcr4477825.addr = alloca i8*, align 8
	%..inline.addr = alloca %struct._ZN5vmesh14MeshParametersE*, align 8

	call void @llvm.dbg.declare (metadata %struct._ZN5vmesh14MeshParametersE** %__first.addr, metadata !5949, metadata !4081), !dbg !5938
	store %struct._ZN5vmesh14MeshParametersE* %__first.arg, %struct._ZN5vmesh14MeshParametersE** %__first.addr, align 8, !tbaa !4096
	call void @llvm.dbg.declare (metadata %struct._ZN5vmesh14MeshParametersE** %__first.addr, metadata !5950, metadata !4081), !dbg !5938
	call void @llvm.dbg.declare (metadata %struct._ZN5vmesh14MeshParametersE** %__last.addr, metadata !5951, metadata !4081), !dbg !5938
	store %struct._ZN5vmesh14MeshParametersE* %__last.arg, %struct._ZN5vmesh14MeshParametersE** %__last.addr, align 8, !tbaa !4096
	call void @llvm.dbg.declare (metadata %struct._ZN5vmesh14MeshParametersE** %__last.addr, metadata !5952, metadata !4081), !dbg !5938
	%0 = load %struct._ZN5vmesh14MeshParametersE*, %struct._ZN5vmesh14MeshParametersE** %__first.addr, align 8, !tbaa !4096, !dbg !5953
	%1 = bitcast %struct._ZN5vmesh14MeshParametersE*  %0 to i8*, !dbg !5953
	%2 = load %struct._ZN5vmesh14MeshParametersE*, %struct._ZN5vmesh14MeshParametersE** %__last.addr, align 8, !tbaa !4096, !dbg !5953
	%3 = bitcast %struct._ZN5vmesh14MeshParametersE*  %2 to i8*, !dbg !5953
	%4 = icmp eq i8*  %1,  %3, !dbg !5953
	br i1  %4, label %L.B0020, label %L.B1229, !dbg !5953
L.B1229:
	%5 = bitcast %struct._ZN5vmesh14MeshParametersE*  %0 to i8*, !dbg !5953
	%6 = bitcast %struct._ZN5vmesh14MeshParametersE*  %2 to i8*, !dbg !5953
	%7 = ptrtoint i8*  %5 to i64, !dbg !5953
	%8 = sub i64 0,  %7, !dbg !5953
	%9 = getelementptr i8, i8*  %6, i64  %8, !dbg !5953
	%10 = ptrtoint i8*  %9 to i64, !dbg !5953
	%11 = add i64  %10, 335, !dbg !5953
	%12 = sub i64 0,  %7, !dbg !5953
	%13 = getelementptr i8, i8*  %6, i64  %12, !dbg !5953
	%14 = ptrtoint i8*  %13 to i64, !dbg !5953
	%15 = add i64  %14, 335, !dbg !5953
	%16 = sext i64 -4392081922311798003 to i128, !dbg !5953
	%17 = sext i64  %15 to i128, !dbg !5953
	%18 = mul i128  %16,  %17, !dbg !5953
	%19 = ashr i128  %18, 64, !dbg !5953
	%20 = trunc i128  %19 to i64, !dbg !5953
	%21 = add i64  %11,  %20, !dbg !5953
	%22 = sext i32 8 to i64, !dbg !5953
	%23 = ashr i64  %21,  %22, !dbg !5953
	%24 = sub i64 0,  %7, !dbg !5953
	%25 = getelementptr i8, i8*  %6, i64  %24, !dbg !5953
	%26 = ptrtoint i8*  %25 to i64, !dbg !5953
	%27 = add i64  %26, 335, !dbg !5953
	%28 = sext i32 63 to i64, !dbg !5953
	%29 = ashr i64  %27,  %28, !dbg !5953
	%30 = sub i64  %23,  %29, !dbg !5953
	%31 = mul i64  %30, 336, !dbg !5953
	%32 = getelementptr i8, i8*  %5, i64  %31, !dbg !5953
	store i8*  %32, i8** %.lcr4477825.addr, align 8, !tbaa !4096, !dbg !5953
	br label %L.B0019
L.B0019:
	%33 = load %struct._ZN5vmesh14MeshParametersE*, %struct._ZN5vmesh14MeshParametersE** %__first.addr, align 8, !tbaa !4096, !dbg !5954
	%34 = bitcast %struct._ZN5vmesh14MeshParametersE*  %33 to i8*, !dbg !5954
	%35 = bitcast %struct._ZN5vmesh14MeshParametersE** %..inline.addr to i8**, !dbg !5954
	store i8*  %34, i8**  %35, align 8, !tbaa !4096, !dbg !5954
	%36 = load %struct._ZN5vmesh14MeshParametersE*, %struct._ZN5vmesh14MeshParametersE** %..inline.addr, align 8, !tbaa !4096, !dbg !5955
	call void  @_ZN5vmesh14MeshParametersD1Ev (%struct._ZN5vmesh14MeshParametersE*  %36) nounwind, !dbg !5955
	%37 = load %struct._ZN5vmesh14MeshParametersE*, %struct._ZN5vmesh14MeshParametersE** %__first.addr, align 8, !tbaa !4096, !dbg !5956
	%38 = bitcast %struct._ZN5vmesh14MeshParametersE*  %37 to i8*, !dbg !5956
	%39 = getelementptr i8, i8*  %38, i64 336, !dbg !5956
	%40 = bitcast %struct._ZN5vmesh14MeshParametersE** %__first.addr to i8**, !dbg !5956
	store i8*  %39, i8**  %40, align 8, !tbaa !4096, !dbg !5956
	%41 = load %struct._ZN5vmesh14MeshParametersE*, %struct._ZN5vmesh14MeshParametersE** %__first.addr, align 8, !tbaa !4096, !dbg !5956
	%42 = bitcast %struct._ZN5vmesh14MeshParametersE*  %41 to i8*, !dbg !5956
	%43 = load i8*, i8** %.lcr4477825.addr, align 8, !tbaa !4096, !dbg !5956
	%44 = icmp ult i8*  %42,  %43, !dbg !5956
	br i1  %44, label %L.B0019, label %L.B0020, !dbg !5956
L.B0020:
	ret void, !dbg !5957
}
define linkonce_odr void @_ZNSt7__cxx1112basic_stringIcSt11char_traitsIcESaIcEE7_M_dataEPc(%struct._ZNSt7__cxx1112basic_stringIcSt11char_traitsIcESaIcEEE* %_T42566248_52672.arg, i8* %__p.arg) #0 inlinehint !dbg !5964 {
L.entry:
	%_T42566248_52672.addr = alloca %struct._ZNSt7__cxx1112basic_stringIcSt11char_traitsIcESaIcEEE*, align 8
	%__p.addr = alloca i8*, align 8

	call void @llvm.dbg.declare (metadata %struct._ZNSt7__cxx1112basic_stringIcSt11char_traitsIcESaIcEEE** %_T42566248_52672.addr, metadata !5968, metadata !4081), !dbg !5965
	store %struct._ZNSt7__cxx1112basic_stringIcSt11char_traitsIcESaIcEEE* %_T42566248_52672.arg, %struct._ZNSt7__cxx1112basic_stringIcSt11char_traitsIcESaIcEEE** %_T42566248_52672.addr, align 8, !tbaa !4096
	call void @llvm.dbg.declare (metadata %struct._ZNSt7__cxx1112basic_stringIcSt11char_traitsIcESaIcEEE** %_T42566248_52672.addr, metadata !5969, metadata !4081), !dbg !5965
	call void @llvm.dbg.declare (metadata i8** %__p.addr, metadata !5970, metadata !4081), !dbg !5965
	store i8* %__p.arg, i8** %__p.addr, align 8, !tbaa !4096
	call void @llvm.dbg.declare (metadata i8** %__p.addr, metadata !5971, metadata !4081), !dbg !5965
	%0 = load i8*, i8** %__p.addr, align 8, !tbaa !4096, !dbg !5972
	%1 = load %struct._ZNSt7__cxx1112basic_stringIcSt11char_traitsIcESaIcEEE*, %struct._ZNSt7__cxx1112basic_stringIcSt11char_traitsIcESaIcEEE** %_T42566248_52672.addr, align 8, !tbaa !4096, !dbg !5972
	%2 = bitcast %struct._ZNSt7__cxx1112basic_stringIcSt11char_traitsIcESaIcEEE*  %1 to i8**, !dbg !5972
	store i8*  %0, i8**  %2, align 8, !tbaa !4096, !dbg !5972
	ret void, !dbg !5972
}
define linkonce_odr void @_ZNSt7__cxx1112basic_stringIcSt11char_traitsIcESaIcEE9_M_lengthEm(%struct._ZNSt7__cxx1112basic_stringIcSt11char_traitsIcESaIcEEE* %_T42566248_52674.arg, i64 %__length.arg) #0 inlinehint !dbg !5976 {
L.entry:
	%_T42566248_52674.addr = alloca %struct._ZNSt7__cxx1112basic_stringIcSt11char_traitsIcESaIcEEE*, align 8
	%__length.addr = alloca i64, align 8

	call void @llvm.dbg.declare (metadata %struct._ZNSt7__cxx1112basic_stringIcSt11char_traitsIcESaIcEEE** %_T42566248_52674.addr, metadata !5980, metadata !4081), !dbg !5977
	store %struct._ZNSt7__cxx1112basic_stringIcSt11char_traitsIcESaIcEEE* %_T42566248_52674.arg, %struct._ZNSt7__cxx1112basic_stringIcSt11char_traitsIcESaIcEEE** %_T42566248_52674.addr, align 8, !tbaa !4096
	call void @llvm.dbg.declare (metadata %struct._ZNSt7__cxx1112basic_stringIcSt11char_traitsIcESaIcEEE** %_T42566248_52674.addr, metadata !5981, metadata !4081), !dbg !5977
	call void @llvm.dbg.declare (metadata i64* %__length.addr, metadata !5982, metadata !4081), !dbg !5977
	store i64 %__length.arg, i64* %__length.addr, align 8, !tbaa !4097
	call void @llvm.dbg.declare (metadata i64* %__length.addr, metadata !5983, metadata !4081), !dbg !5977
	%0 = load i64, i64* %__length.addr, align 8, !tbaa !4099, !dbg !5984
	%1 = load %struct._ZNSt7__cxx1112basic_stringIcSt11char_traitsIcESaIcEEE*, %struct._ZNSt7__cxx1112basic_stringIcSt11char_traitsIcESaIcEEE** %_T42566248_52674.addr, align 8, !tbaa !4096, !dbg !5984
	%2 = bitcast %struct._ZNSt7__cxx1112basic_stringIcSt11char_traitsIcESaIcEEE*  %1 to i8*, !dbg !5984
	%3 = getelementptr i8, i8*  %2, i64 8, !dbg !5984
	%4 = bitcast i8*  %3 to i64*, !dbg !5984
	store i64  %0, i64*  %4, align 8, !tbaa !4097, !dbg !5984
	ret void, !dbg !5984
}
define linkonce_odr i8* @_ZNKSt7__cxx1112basic_stringIcSt11char_traitsIcESaIcEE7_M_dataEv(%struct._ZNSt7__cxx1112basic_stringIcSt11char_traitsIcESaIcEEE* %_T42566248_52676.arg) #0 inlinehint !dbg !5988 {
L.entry:
	%_T42566248_52676.addr = alloca %struct._ZNSt7__cxx1112basic_stringIcSt11char_traitsIcESaIcEEE*, align 8

	call void @llvm.dbg.declare (metadata %struct._ZNSt7__cxx1112basic_stringIcSt11char_traitsIcESaIcEEE** %_T42566248_52676.addr, metadata !5992, metadata !4081), !dbg !5989
	store %struct._ZNSt7__cxx1112basic_stringIcSt11char_traitsIcESaIcEEE* %_T42566248_52676.arg, %struct._ZNSt7__cxx1112basic_stringIcSt11char_traitsIcESaIcEEE** %_T42566248_52676.addr, align 8, !tbaa !4096
	call void @llvm.dbg.declare (metadata %struct._ZNSt7__cxx1112basic_stringIcSt11char_traitsIcESaIcEEE** %_T42566248_52676.addr, metadata !5993, metadata !4081), !dbg !5989
	%0 = load %struct._ZNSt7__cxx1112basic_stringIcSt11char_traitsIcESaIcEEE*, %struct._ZNSt7__cxx1112basic_stringIcSt11char_traitsIcESaIcEEE** %_T42566248_52676.addr, align 8, !tbaa !4096, !dbg !5994
	%1 = bitcast %struct._ZNSt7__cxx1112basic_stringIcSt11char_traitsIcESaIcEEE*  %0 to i8**, !dbg !5994
	%2 = load i8*, i8**  %1, align 8, !tbaa !4096, !dbg !5994
	ret i8*  %2, !dbg !5994
}
define linkonce_odr i8* @_ZNSt7__cxx1112basic_stringIcSt11char_traitsIcESaIcEE13_M_local_dataEv(%struct._ZNSt7__cxx1112basic_stringIcSt11char_traitsIcESaIcEEE* %_T42566248_52678.arg) #0 inlinehint !dbg !5996 {
L.entry:
	%_T42566248_52678.addr = alloca %struct._ZNSt7__cxx1112basic_stringIcSt11char_traitsIcESaIcEEE*, align 8

	call void @llvm.dbg.declare (metadata %struct._ZNSt7__cxx1112basic_stringIcSt11char_traitsIcESaIcEEE** %_T42566248_52678.addr, metadata !6012, metadata !4081), !dbg !5997
	store %struct._ZNSt7__cxx1112basic_stringIcSt11char_traitsIcESaIcEEE* %_T42566248_52678.arg, %struct._ZNSt7__cxx1112basic_stringIcSt11char_traitsIcESaIcEEE** %_T42566248_52678.addr, align 8, !tbaa !4096
	call void @llvm.dbg.declare (metadata %struct._ZNSt7__cxx1112basic_stringIcSt11char_traitsIcESaIcEEE** %_T42566248_52678.addr, metadata !6013, metadata !4081), !dbg !5997
	%0 = load %struct._ZNSt7__cxx1112basic_stringIcSt11char_traitsIcESaIcEEE*, %struct._ZNSt7__cxx1112basic_stringIcSt11char_traitsIcESaIcEEE** %_T42566248_52678.addr, align 8, !tbaa !4096, !dbg !6014
	%1 = bitcast %struct._ZNSt7__cxx1112basic_stringIcSt11char_traitsIcESaIcEEE*  %0 to i8*, !dbg !6014
	%2 = getelementptr i8, i8*  %1, i64 16, !dbg !6014
	ret i8*  %2, !dbg !6014
}
define linkonce_odr i8* @_ZNKSt7__cxx1112basic_stringIcSt11char_traitsIcESaIcEE13_M_local_dataEv(%struct._ZNSt7__cxx1112basic_stringIcSt11char_traitsIcESaIcEEE* %_T42566248_52680.arg) #0 inlinehint !dbg !6017 {
L.entry:
	%_T42566248_52680.addr = alloca %struct._ZNSt7__cxx1112basic_stringIcSt11char_traitsIcESaIcEEE*, align 8

	call void @llvm.dbg.declare (metadata %struct._ZNSt7__cxx1112basic_stringIcSt11char_traitsIcESaIcEEE** %_T42566248_52680.addr, metadata !6033, metadata !4081), !dbg !6018
	store %struct._ZNSt7__cxx1112basic_stringIcSt11char_traitsIcESaIcEEE* %_T42566248_52680.arg, %struct._ZNSt7__cxx1112basic_stringIcSt11char_traitsIcESaIcEEE** %_T42566248_52680.addr, align 8, !tbaa !4096
	call void @llvm.dbg.declare (metadata %struct._ZNSt7__cxx1112basic_stringIcSt11char_traitsIcESaIcEEE** %_T42566248_52680.addr, metadata !6034, metadata !4081), !dbg !6018
	%0 = load %struct._ZNSt7__cxx1112basic_stringIcSt11char_traitsIcESaIcEEE*, %struct._ZNSt7__cxx1112basic_stringIcSt11char_traitsIcESaIcEEE** %_T42566248_52680.addr, align 8, !tbaa !4096, !dbg !6035
	%1 = bitcast %struct._ZNSt7__cxx1112basic_stringIcSt11char_traitsIcESaIcEEE*  %0 to i8*, !dbg !6035
	%2 = getelementptr i8, i8*  %1, i64 16, !dbg !6035
	ret i8*  %2, !dbg !6035
}
define linkonce_odr void @_ZNSt7__cxx1112basic_stringIcSt11char_traitsIcESaIcEE11_M_capacityEm(%struct._ZNSt7__cxx1112basic_stringIcSt11char_traitsIcESaIcEEE* %_T42566248_52682.arg, i64 %__capacity.arg) #0 inlinehint !dbg !6038 {
L.entry:
	%_T42566248_52682.addr = alloca %struct._ZNSt7__cxx1112basic_stringIcSt11char_traitsIcESaIcEEE*, align 8
	%__capacity.addr = alloca i64, align 8

	call void @llvm.dbg.declare (metadata %struct._ZNSt7__cxx1112basic_stringIcSt11char_traitsIcESaIcEEE** %_T42566248_52682.addr, metadata !6042, metadata !4081), !dbg !6039
	store %struct._ZNSt7__cxx1112basic_stringIcSt11char_traitsIcESaIcEEE* %_T42566248_52682.arg, %struct._ZNSt7__cxx1112basic_stringIcSt11char_traitsIcESaIcEEE** %_T42566248_52682.addr, align 8, !tbaa !4096
	call void @llvm.dbg.declare (metadata %struct._ZNSt7__cxx1112basic_stringIcSt11char_traitsIcESaIcEEE** %_T42566248_52682.addr, metadata !6043, metadata !4081), !dbg !6039
	call void @llvm.dbg.declare (metadata i64* %__capacity.addr, metadata !6044, metadata !4081), !dbg !6039
	store i64 %__capacity.arg, i64* %__capacity.addr, align 8, !tbaa !4097
	call void @llvm.dbg.declare (metadata i64* %__capacity.addr, metadata !6045, metadata !4081), !dbg !6039
	%0 = load i64, i64* %__capacity.addr, align 8, !tbaa !4099, !dbg !6046
	%1 = load %struct._ZNSt7__cxx1112basic_stringIcSt11char_traitsIcESaIcEEE*, %struct._ZNSt7__cxx1112basic_stringIcSt11char_traitsIcESaIcEEE** %_T42566248_52682.addr, align 8, !tbaa !4096, !dbg !6046
	%2 = bitcast %struct._ZNSt7__cxx1112basic_stringIcSt11char_traitsIcESaIcEEE*  %1 to i8*, !dbg !6046
	%3 = getelementptr i8, i8*  %2, i64 16, !dbg !6046
	%4 = bitcast i8*  %3 to i64*, !dbg !6046
	store i64  %0, i64*  %4, align 8, !tbaa !4097, !dbg !6046
	ret void, !dbg !6046
}
define linkonce_odr void @_ZNSt7__cxx1112basic_stringIcSt11char_traitsIcESaIcEE13_M_set_lengthEm(%struct._ZNSt7__cxx1112basic_stringIcSt11char_traitsIcESaIcEEE* %_T42566248_52684.arg, i64 %__n.arg) #0 inlinehint !dbg !6048 {
L.entry:
	%_T42566248_52684.addr = alloca %struct._ZNSt7__cxx1112basic_stringIcSt11char_traitsIcESaIcEEE*, align 8
	%__n.addr = alloca i64, align 8
	%..inline.addr = alloca i8*, align 8

	call void @llvm.dbg.declare (metadata %struct._ZNSt7__cxx1112basic_stringIcSt11char_traitsIcESaIcEEE** %_T42566248_52684.addr, metadata !6064, metadata !4081), !dbg !6049
	store %struct._ZNSt7__cxx1112basic_stringIcSt11char_traitsIcESaIcEEE* %_T42566248_52684.arg, %struct._ZNSt7__cxx1112basic_stringIcSt11char_traitsIcESaIcEEE** %_T42566248_52684.addr, align 8, !tbaa !4096
	call void @llvm.dbg.declare (metadata %struct._ZNSt7__cxx1112basic_stringIcSt11char_traitsIcESaIcEEE** %_T42566248_52684.addr, metadata !6065, metadata !4081), !dbg !6049
	call void @llvm.dbg.declare (metadata i64* %__n.addr, metadata !6066, metadata !4081), !dbg !6049
	store i64 %__n.arg, i64* %__n.addr, align 8, !tbaa !4097
	call void @llvm.dbg.declare (metadata i64* %__n.addr, metadata !6067, metadata !4081), !dbg !6049
	%0 = load i64, i64* %__n.addr, align 8, !tbaa !4099, !dbg !6068
	%1 = load %struct._ZNSt7__cxx1112basic_stringIcSt11char_traitsIcESaIcEEE*, %struct._ZNSt7__cxx1112basic_stringIcSt11char_traitsIcESaIcEEE** %_T42566248_52684.addr, align 8, !tbaa !4096, !dbg !6068
	%2 = bitcast %struct._ZNSt7__cxx1112basic_stringIcSt11char_traitsIcESaIcEEE*  %1 to i8*, !dbg !6068
	%3 = getelementptr i8, i8*  %2, i64 8, !dbg !6068
	%4 = bitcast i8*  %3 to i64*, !dbg !6068
	store i64  %0, i64*  %4, align 8, !tbaa !4097, !dbg !6068
	%5 = bitcast %struct._ZNSt7__cxx1112basic_stringIcSt11char_traitsIcESaIcEEE*  %1 to i8**, !dbg !6069
	%6 = load i8*, i8**  %5, align 8, !tbaa !4096, !dbg !6069
	%7 = getelementptr i8, i8*  %6, i64  %0, !dbg !6069
	store i8 0, i8*  %7, align 1, !tbaa !4097, !dbg !6070
	ret void, !dbg !6071
}
define linkonce_odr signext i8 @_ZNKSt7__cxx1112basic_stringIcSt11char_traitsIcESaIcEE11_M_is_localEv(%struct._ZNSt7__cxx1112basic_stringIcSt11char_traitsIcESaIcEEE* %_T42566248_52685.arg) #0 inlinehint !dbg !6075 {
L.entry:
	%_T42566248_52685.addr = alloca %struct._ZNSt7__cxx1112basic_stringIcSt11char_traitsIcESaIcEEE*, align 8

	call void @llvm.dbg.declare (metadata %struct._ZNSt7__cxx1112basic_stringIcSt11char_traitsIcESaIcEEE** %_T42566248_52685.addr, metadata !6099, metadata !4081), !dbg !6076
	store %struct._ZNSt7__cxx1112basic_stringIcSt11char_traitsIcESaIcEEE* %_T42566248_52685.arg, %struct._ZNSt7__cxx1112basic_stringIcSt11char_traitsIcESaIcEEE** %_T42566248_52685.addr, align 8, !tbaa !4096
	call void @llvm.dbg.declare (metadata %struct._ZNSt7__cxx1112basic_stringIcSt11char_traitsIcESaIcEEE** %_T42566248_52685.addr, metadata !6100, metadata !4081), !dbg !6076
	%0 = load %struct._ZNSt7__cxx1112basic_stringIcSt11char_traitsIcESaIcEEE*, %struct._ZNSt7__cxx1112basic_stringIcSt11char_traitsIcESaIcEEE** %_T42566248_52685.addr, align 8, !tbaa !4096, !dbg !6101
	%1 = bitcast %struct._ZNSt7__cxx1112basic_stringIcSt11char_traitsIcESaIcEEE*  %0 to i8**, !dbg !6101
	%2 = load i8*, i8**  %1, align 8, !tbaa !4096, !dbg !6101
	%3 = bitcast %struct._ZNSt7__cxx1112basic_stringIcSt11char_traitsIcESaIcEEE*  %0 to i8*, !dbg !6101
	%4 = getelementptr i8, i8*  %3, i64 16, !dbg !6101
	%5 = icmp eq i8*  %2,  %4, !dbg !6101
	%6 = zext i1  %5 to i32, !dbg !6101
	%7 = trunc i32  %6 to i8, !dbg !6101
	ret i8  %7, !dbg !6101
}
define linkonce_odr void @_ZNSt7__cxx1112basic_stringIcSt11char_traitsIcESaIcEE10_M_disposeEv(%struct._ZNSt7__cxx1112basic_stringIcSt11char_traitsIcESaIcEEE* %_T42566248_52690.arg) #0 inlinehint !dbg !6106 {
L.entry:
	%_T42566248_52690.addr = alloca %struct._ZNSt7__cxx1112basic_stringIcSt11char_traitsIcESaIcEEE*, align 8
	%..inline.addr = alloca i8*, align 8

	call void @llvm.dbg.declare (metadata %struct._ZNSt7__cxx1112basic_stringIcSt11char_traitsIcESaIcEEE** %_T42566248_52690.addr, metadata !6154, metadata !4081), !dbg !6107
	store %struct._ZNSt7__cxx1112basic_stringIcSt11char_traitsIcESaIcEEE* %_T42566248_52690.arg, %struct._ZNSt7__cxx1112basic_stringIcSt11char_traitsIcESaIcEEE** %_T42566248_52690.addr, align 8, !tbaa !4096
	call void @llvm.dbg.declare (metadata %struct._ZNSt7__cxx1112basic_stringIcSt11char_traitsIcESaIcEEE** %_T42566248_52690.addr, metadata !6155, metadata !4081), !dbg !6107
	%0 = load %struct._ZNSt7__cxx1112basic_stringIcSt11char_traitsIcESaIcEEE*, %struct._ZNSt7__cxx1112basic_stringIcSt11char_traitsIcESaIcEEE** %_T42566248_52690.addr, align 8, !tbaa !4096, !dbg !6156
	%1 = bitcast %struct._ZNSt7__cxx1112basic_stringIcSt11char_traitsIcESaIcEEE*  %0 to i8**, !dbg !6156
	%2 = load i8*, i8**  %1, align 8, !tbaa !4096, !dbg !6156
	%3 = bitcast %struct._ZNSt7__cxx1112basic_stringIcSt11char_traitsIcESaIcEEE*  %0 to i8*, !dbg !6156
	%4 = getelementptr i8, i8*  %3, i64 16, !dbg !6156
	%5 = icmp eq i8*  %2,  %4, !dbg !6156
	br i1  %5, label %L.B0021, label %L.B1248, !dbg !6156
L.B1248:
	%6 = bitcast %struct._ZNSt7__cxx1112basic_stringIcSt11char_traitsIcESaIcEEE*  %0 to i8**, !dbg !6157
	%7 = load i8*, i8**  %6, align 8, !tbaa !4096, !dbg !6157
	call void  @_ZdlPv (i8*  %7) nounwind, !dbg !6157
	br label %L.B0021
L.B0021:
	ret void, !dbg !6158
}
define linkonce_odr void @_ZNSt7__cxx1112basic_stringIcSt11char_traitsIcESaIcEE10_M_destroyEm(%struct._ZNSt7__cxx1112basic_stringIcSt11char_traitsIcESaIcEEE* %_T42566248_52692.arg, i64 %__size.arg) #0 inlinehint !dbg !6160 {
L.entry:
	%_T42566248_52692.addr = alloca %struct._ZNSt7__cxx1112basic_stringIcSt11char_traitsIcESaIcEEE*, align 8
	%__size.addr = alloca i64, align 8
	%..inline.addr = alloca i8*, align 8

	call void @llvm.dbg.declare (metadata %struct._ZNSt7__cxx1112basic_stringIcSt11char_traitsIcESaIcEEE** %_T42566248_52692.addr, metadata !6180, metadata !4081), !dbg !6161
	store %struct._ZNSt7__cxx1112basic_stringIcSt11char_traitsIcESaIcEEE* %_T42566248_52692.arg, %struct._ZNSt7__cxx1112basic_stringIcSt11char_traitsIcESaIcEEE** %_T42566248_52692.addr, align 8, !tbaa !4096
	call void @llvm.dbg.declare (metadata %struct._ZNSt7__cxx1112basic_stringIcSt11char_traitsIcESaIcEEE** %_T42566248_52692.addr, metadata !6181, metadata !4081), !dbg !6161
	call void @llvm.dbg.declare (metadata i64* %__size.addr, metadata !6182, metadata !4081), !dbg !6161
	store i64 %__size.arg, i64* %__size.addr, align 8, !tbaa !4097
	call void @llvm.dbg.declare (metadata i64* %__size.addr, metadata !6183, metadata !4081), !dbg !6161
	%0 = load %struct._ZNSt7__cxx1112basic_stringIcSt11char_traitsIcESaIcEEE*, %struct._ZNSt7__cxx1112basic_stringIcSt11char_traitsIcESaIcEEE** %_T42566248_52692.addr, align 8, !tbaa !4096, !dbg !6184
	%1 = bitcast %struct._ZNSt7__cxx1112basic_stringIcSt11char_traitsIcESaIcEEE*  %0 to i8**, !dbg !6184
	%2 = load i8*, i8**  %1, align 8, !tbaa !4096, !dbg !6184
	call void  @_ZdlPv (i8*  %2) nounwind, !dbg !6184
	ret void, !dbg !6185
}
define linkonce_odr %struct._ZSaIcE* @_ZNSt7__cxx1112basic_stringIcSt11char_traitsIcESaIcEE16_M_get_allocatorEv(%struct._ZNSt7__cxx1112basic_stringIcSt11char_traitsIcESaIcEEE* %_T42566248_52694.arg) #0 inlinehint !dbg !6190 {
L.entry:
	%_T42566248_52694.addr = alloca %struct._ZNSt7__cxx1112basic_stringIcSt11char_traitsIcESaIcEEE*, align 8

	call void @llvm.dbg.declare (metadata %struct._ZNSt7__cxx1112basic_stringIcSt11char_traitsIcESaIcEEE** %_T42566248_52694.addr, metadata !6194, metadata !4081), !dbg !6191
	store %struct._ZNSt7__cxx1112basic_stringIcSt11char_traitsIcESaIcEEE* %_T42566248_52694.arg, %struct._ZNSt7__cxx1112basic_stringIcSt11char_traitsIcESaIcEEE** %_T42566248_52694.addr, align 8, !tbaa !4096
	call void @llvm.dbg.declare (metadata %struct._ZNSt7__cxx1112basic_stringIcSt11char_traitsIcESaIcEEE** %_T42566248_52694.addr, metadata !6195, metadata !4081), !dbg !6191
	%0 = load %struct._ZNSt7__cxx1112basic_stringIcSt11char_traitsIcESaIcEEE*, %struct._ZNSt7__cxx1112basic_stringIcSt11char_traitsIcESaIcEEE** %_T42566248_52694.addr, align 8, !tbaa !4096, !dbg !6196
	%1 = bitcast %struct._ZNSt7__cxx1112basic_stringIcSt11char_traitsIcESaIcEEE*  %0 to %struct._ZSaIcE*, !dbg !6196
	ret %struct._ZSaIcE*  %1, !dbg !6196
}
define linkonce_odr void @_ZNSt7__cxx1112basic_stringIcSt11char_traitsIcESaIcEE7_S_copyEPcPKcm(i8* %__d.arg, i8* %__s.arg, i64 %__n.arg) #0 inlinehint !dbg !6200 {
L.entry:
	%__d.addr = alloca i8*, align 8
	%__s.addr = alloca i8*, align 8
	%__n.addr = alloca i64, align 8
	%..inline.addr = alloca i8*, align 8
	%..inline.addr.1 = alloca i8*, align 8
	%..inline.addr.2 = alloca i64, align 8
	%..inline.addr.3 = alloca i8*, align 8

	call void @llvm.dbg.declare (metadata i8** %__d.addr, metadata !6212, metadata !4081), !dbg !6201
	store i8* %__d.arg, i8** %__d.addr, align 8, !tbaa !4096
	call void @llvm.dbg.declare (metadata i8** %__d.addr, metadata !6213, metadata !4081), !dbg !6201
	call void @llvm.dbg.declare (metadata i8** %__s.addr, metadata !6214, metadata !4081), !dbg !6201
	store i8* %__s.arg, i8** %__s.addr, align 8, !tbaa !4096
	call void @llvm.dbg.declare (metadata i8** %__s.addr, metadata !6215, metadata !4081), !dbg !6201
	call void @llvm.dbg.declare (metadata i64* %__n.addr, metadata !6216, metadata !4081), !dbg !6201
	store i64 %__n.arg, i64* %__n.addr, align 8, !tbaa !4097
	call void @llvm.dbg.declare (metadata i64* %__n.addr, metadata !6217, metadata !4081), !dbg !6201
	%0 = load i64, i64* %__n.addr, align 8, !tbaa !4099, !dbg !6218
	%1 = icmp ne i64  %0, 1, !dbg !6218
	br i1  %1, label %L.B0022, label %L.B1259, !dbg !6218
L.B1259:
	%2 = load i8*, i8** %__s.addr, align 8, !tbaa !4096, !dbg !6219
	%3 = load i8, i8*  %2, align 1, !tbaa !4097, !dbg !6219
	%4 = load i8*, i8** %__d.addr, align 8, !tbaa !4096, !dbg !6219
	store i8  %3, i8*  %4, align 1, !tbaa !4097, !dbg !6219
	br label %L.B0023, !dbg !6219
L.B0022:
	%5 = load i8*, i8** %__d.addr, align 8, !tbaa !4096, !dbg !6220
	store i8*  %5, i8** %..inline.addr, align 8, !tbaa !4096, !dbg !6220
	%6 = load i8*, i8** %__s.addr, align 8, !tbaa !4096, !dbg !6220
	store i8*  %6, i8** %..inline.addr.1, align 8, !tbaa !4096, !dbg !6220
	%7 = load i64, i64* %__n.addr, align 8, !tbaa !4099, !dbg !6220
	store i64  %7, i64* %..inline.addr.2, align 8, !tbaa !4099, !dbg !6220
	%8 = icmp ne i64  %7, 0, !dbg !6220
	br i1  %8, label %L..inline.69898, label %L.B1260, !dbg !6220
L.B1260:
	br label %L..inline.69903, !dbg !6221
L..inline.69898:
	%9 = load i8*, i8** %..inline.addr, align 8, !tbaa !4096, !dbg !6222
	%10 = load i8*, i8** %..inline.addr.1, align 8, !tbaa !4096, !dbg !6222
	%11 = load i64, i64* %..inline.addr.2, align 8, !tbaa !4099, !dbg !6222
	%12 = call i8*  @memcpy (i8*  %9, i8*  %10, i64  %11) nounwind, !dbg !6222
	store i8*  %12, i8** %..inline.addr.3, align 8, !tbaa !4096, !dbg !6222
	br label %L..inline.69903
L..inline.69903:
	br label %L.B0023
L.B0023:
	ret void, !dbg !6223
}
define linkonce_odr void @_ZNSt7__cxx1112basic_stringIcSt11char_traitsIcESaIcEE13_S_copy_charsEPcPKcS7_(i8* %__p.arg, i8* %__k1.arg, i8* %__k2.arg) #0 inlinehint !dbg !6227 {
L.entry:
	%__p.addr = alloca i8*, align 8
	%__k1.addr = alloca i8*, align 8
	%__k2.addr = alloca i8*, align 8
	%..inline.addr = alloca i64, align 8
	%..inline.addr.1 = alloca i8*, align 8
	%..inline.addr.2 = alloca i8*, align 8
	%..inline.addr.3 = alloca i64, align 8
	%..inline.addr.4 = alloca i8*, align 8

	call void @llvm.dbg.declare (metadata i8** %__p.addr, metadata !6243, metadata !4081), !dbg !6228
	store i8* %__p.arg, i8** %__p.addr, align 8, !tbaa !4096
	call void @llvm.dbg.declare (metadata i8** %__p.addr, metadata !6244, metadata !4081), !dbg !6228
	call void @llvm.dbg.declare (metadata i8** %__k1.addr, metadata !6245, metadata !4081), !dbg !6228
	store i8* %__k1.arg, i8** %__k1.addr, align 8, !tbaa !4096
	call void @llvm.dbg.declare (metadata i8** %__k1.addr, metadata !6246, metadata !4081), !dbg !6228
	call void @llvm.dbg.declare (metadata i8** %__k2.addr, metadata !6247, metadata !4081), !dbg !6228
	store i8* %__k2.arg, i8** %__k2.addr, align 8, !tbaa !4096
	call void @llvm.dbg.declare (metadata i8** %__k2.addr, metadata !6248, metadata !4081), !dbg !6228
	%0 = load i8*, i8** %__k2.addr, align 8, !tbaa !4096, !dbg !6249
	%1 = load i8*, i8** %__k1.addr, align 8, !tbaa !4096, !dbg !6249
	%2 = ptrtoint i8*  %1 to i64, !dbg !6249
	%3 = sub i64 0,  %2, !dbg !6249
	%4 = getelementptr i8, i8*  %0, i64  %3, !dbg !6249
	%5 = ptrtoint i8*  %4 to i64, !dbg !6249
	store i64  %5, i64* %..inline.addr, align 8, !tbaa !4099, !dbg !6249
	%6 = icmp ne i64  %5, 1, !dbg !6249
	br i1  %6, label %L..inline.69920, label %L.B1263, !dbg !6249
L.B1263:
	%7 = load i8, i8*  %1, align 1, !tbaa !4097, !dbg !6250
	%8 = load i8*, i8** %__p.addr, align 8, !tbaa !4096, !dbg !6250
	store i8  %7, i8*  %8, align 1, !tbaa !4097, !dbg !6250
	br label %L..inline.69929, !dbg !6250
L..inline.69920:
	%9 = load i8*, i8** %__p.addr, align 8, !tbaa !4096, !dbg !6251
	store i8*  %9, i8** %..inline.addr.1, align 8, !tbaa !4096, !dbg !6251
	%10 = load i8*, i8** %__k1.addr, align 8, !tbaa !4096, !dbg !6251
	store i8*  %10, i8** %..inline.addr.2, align 8, !tbaa !4096, !dbg !6251
	%11 = load i64, i64* %..inline.addr, align 8, !tbaa !4099, !dbg !6251
	store i64  %11, i64* %..inline.addr.3, align 8, !tbaa !4099, !dbg !6251
	%12 = icmp ne i64  %11, 0, !dbg !6251
	br i1  %12, label %L..inline.69936, label %L.B1264, !dbg !6251
L.B1264:
	br label %L..inline.69938, !dbg !6251
L..inline.69936:
	%13 = load i8*, i8** %..inline.addr.1, align 8, !tbaa !4096, !dbg !6251
	%14 = load i8*, i8** %..inline.addr.2, align 8, !tbaa !4096, !dbg !6251
	%15 = load i64, i64* %..inline.addr.3, align 8, !tbaa !4099, !dbg !6251
	%16 = call i8*  @memcpy (i8*  %13, i8*  %14, i64  %15) nounwind, !dbg !6251
	store i8*  %16, i8** %..inline.addr.4, align 8, !tbaa !4096, !dbg !6251
	br label %L..inline.69938
L..inline.69938:
	br label %L..inline.69929
L..inline.69929:
	ret void, !dbg !6249
}

%struct._ZSt26random_access_iterator_tag = type <{ [1 x i8]}> 

define linkonce_odr void @_ZNSt7__cxx1112basic_stringIcSt11char_traitsIcESaIcEEC1EPKcRKS3_(%struct._ZNSt7__cxx1112basic_stringIcSt11char_traitsIcESaIcEEE* %_T42566432_52698.arg, i8* %__s.arg, %struct._ZSaIcE* %__a.arg) #0 inlinehint !dbg !6259 {
L.entry:
	%_T42566432_52698.addr = alloca %struct._ZNSt7__cxx1112basic_stringIcSt11char_traitsIcESaIcEEE*, align 8
	%__s.addr = alloca i8*, align 8
	%__a.addr = alloca %struct._ZSaIcE*, align 8
	%..inline.addr = alloca i8*, align 8
	%..inline.addr.1 = alloca i64, align 8
	%.I0000.addr = alloca i8*, align 8
	%..inline.addr.2 = alloca %struct._ZNSt7__cxx1112basic_stringIcSt11char_traitsIcESaIcEEE*, align 8
	%..inline.addr.3 = alloca i8*, align 8
	%..inline.addr.4 = alloca i8*, align 8
	%....inline.__FILL_CHARARRAY.addr = alloca [1 x i8], align 1
	%....inline.__FILL_CHARARRAY.addr.1 = alloca [1 x i8], align 1
	%..inline.addr.5 = alloca %struct._ZSt26random_access_iterator_tag, align 1

	call void @llvm.dbg.declare (metadata %struct._ZNSt7__cxx1112basic_stringIcSt11char_traitsIcESaIcEEE** %_T42566432_52698.addr, metadata !6295, metadata !4081), !dbg !6260
	store %struct._ZNSt7__cxx1112basic_stringIcSt11char_traitsIcESaIcEEE* %_T42566432_52698.arg, %struct._ZNSt7__cxx1112basic_stringIcSt11char_traitsIcESaIcEEE** %_T42566432_52698.addr, align 8, !tbaa !4096
	call void @llvm.dbg.declare (metadata %struct._ZNSt7__cxx1112basic_stringIcSt11char_traitsIcESaIcEEE** %_T42566432_52698.addr, metadata !6296, metadata !4081), !dbg !6260
	call void @llvm.dbg.declare (metadata i8** %__s.addr, metadata !6297, metadata !4081), !dbg !6260
	store i8* %__s.arg, i8** %__s.addr, align 8, !tbaa !4096
	call void @llvm.dbg.declare (metadata i8** %__s.addr, metadata !6298, metadata !4081), !dbg !6260
	call void @llvm.dbg.declare (metadata %struct._ZSaIcE** %__a.addr, metadata !6299, metadata !4081), !dbg !6260
	store %struct._ZSaIcE* %__a.arg, %struct._ZSaIcE** %__a.addr, align 8, !tbaa !4096
	call void @llvm.dbg.declare (metadata %struct._ZSaIcE** %__a.addr, metadata !6300, metadata !4081), !dbg !6260
	%0 = load %struct._ZNSt7__cxx1112basic_stringIcSt11char_traitsIcESaIcEEE*, %struct._ZNSt7__cxx1112basic_stringIcSt11char_traitsIcESaIcEEE** %_T42566432_52698.addr, align 8, !tbaa !4096, !dbg !6301
	%1 = bitcast %struct._ZNSt7__cxx1112basic_stringIcSt11char_traitsIcESaIcEEE*  %0 to i8*, !dbg !6301
	%2 = getelementptr i8, i8*  %1, i64 16, !dbg !6301
	%3 = bitcast %struct._ZNSt7__cxx1112basic_stringIcSt11char_traitsIcESaIcEEE*  %0 to i8**, !dbg !6301
	store i8*  %2, i8**  %3, align 8, !tbaa !4096, !dbg !6301
	%4 = load i8*, i8** %__s.addr, align 8, !tbaa !4096, !dbg !6301
	%5 = icmp eq i8*  %4,  null, !dbg !6301
	br i1  %5, label %L.B0024, label %L.B1273, !dbg !6301
L.B1273:
	%6 = call i64  @strlen (i8*  %4) nounwind, !dbg !6302
	%7 = load i8*, i8** %__s.addr, align 8, !tbaa !4096, !dbg !6303
	%8 = getelementptr i8, i8*  %7, i64  %6, !dbg !6303
	store i8*  %8, i8** %.I0000.addr, align 8, !tbaa !4096, !dbg !6303
	br label %L.B0025, !dbg !6301
L.B0024:
	%9 = load i8*, i8** %__s.addr, align 8, !tbaa !4096, !dbg !6301
	%10 = getelementptr i8, i8*  %9, i64 18446744073709551615, !dbg !6301
	store i8*  %10, i8** %.I0000.addr, align 8, !tbaa !4096, !dbg !6301
	br label %L.B0025
L.B0025:
	%11 = load %struct._ZNSt7__cxx1112basic_stringIcSt11char_traitsIcESaIcEEE*, %struct._ZNSt7__cxx1112basic_stringIcSt11char_traitsIcESaIcEEE** %_T42566432_52698.addr, align 8, !tbaa !4096, !dbg !6304
	%12 = bitcast %struct._ZNSt7__cxx1112basic_stringIcSt11char_traitsIcESaIcEEE*  %11 to i8*, !dbg !6304
	%13 = bitcast %struct._ZNSt7__cxx1112basic_stringIcSt11char_traitsIcESaIcEEE** %..inline.addr.2 to i8**, !dbg !6304
	store i8*  %12, i8**  %13, align 8, !tbaa !4096, !dbg !6304
	%14 = load i8*, i8** %__s.addr, align 8, !tbaa !4096, !dbg !6304
	store i8*  %14, i8** %..inline.addr.3, align 8, !tbaa !4096, !dbg !6304
	%15 = load i8*, i8** %.I0000.addr, align 8, !tbaa !4096, !dbg !6304
	store i8*  %15, i8** %..inline.addr.4, align 8, !tbaa !4096, !dbg !6304
	call void @llvm.dbg.declare (metadata [1 x i8]* %....inline.__FILL_CHARARRAY.addr, metadata !6305, metadata !4081), !dbg !6262
	%16 = bitcast [1 x i8]* %....inline.__FILL_CHARARRAY.addr to i8*, !dbg !6301
	%17 = load i8, i8*  %16, align 1, !tbaa !4097, !dbg !6301
	%18 = zext i8  %17 to i32, !dbg !6301
	%19 = trunc i32  %18 to i8, !dbg !6301
	call void @llvm.dbg.declare (metadata [1 x i8]* %....inline.__FILL_CHARARRAY.addr.1, metadata !6305, metadata !4081), !dbg !6262
	%20 = bitcast [1 x i8]* %....inline.__FILL_CHARARRAY.addr.1 to i8*, !dbg !6301
	store i8  %19, i8*  %20, align 1, !tbaa !4097, !dbg !6301
	%21 = load %struct._ZNSt7__cxx1112basic_stringIcSt11char_traitsIcESaIcEEE*, %struct._ZNSt7__cxx1112basic_stringIcSt11char_traitsIcESaIcEEE** %..inline.addr.2, align 8, !tbaa !4096, !dbg !6304
	%22 = load i8*, i8** %..inline.addr.3, align 8, !tbaa !4096, !dbg !6304
	%23 = load i8*, i8** %..inline.addr.4, align 8, !tbaa !4096, !dbg !6304
	%24 = bitcast %struct._ZSt26random_access_iterator_tag* %..inline.addr.5 to i8*, !dbg !6304
	%25 = load i8, i8*  %24, align 1, !tbaa !4097, !dbg !6304
	call void  @_ZNSt7__cxx1112basic_stringIcSt11char_traitsIcESaIcEE12_M_constructIPKcEEvT_S8_St20forward_iterator_tag (%struct._ZNSt7__cxx1112basic_stringIcSt11char_traitsIcESaIcEEE*  %21, i8*  %22, i8*  %23, i8  %25), !dbg !6304
	ret void, !dbg !6301
}
define linkonce_odr void @_ZNSt7__cxx1112basic_stringIcSt11char_traitsIcESaIcEEC2EPKcRKS3_(%struct._ZNSt7__cxx1112basic_stringIcSt11char_traitsIcESaIcEEE* %_T42566248_52699.arg, i8* %_T42566544_52699.arg, %struct._ZSaIcE* %_T42566840_52699.arg) #0 inlinehint !dbg !6307 {
L.entry:
	%_T42566248_52699.addr = alloca %struct._ZNSt7__cxx1112basic_stringIcSt11char_traitsIcESaIcEEE*, align 8
	%_T42566544_52699.addr = alloca i8*, align 8
	%_T42566840_52699.addr = alloca %struct._ZSaIcE*, align 8
	%..inline.addr = alloca %struct._ZNSt7__cxx1112basic_stringIcSt11char_traitsIcESaIcEEE*, align 8
	%..inline.addr.1 = alloca i8*, align 8
	%..inline.addr.2 = alloca i8*, align 8
	%..inline.addr.3 = alloca i64, align 8
	%..inline.addr.4 = alloca i8*, align 8
	%..inline.addr.5 = alloca %struct._ZNSt7__cxx1112basic_stringIcSt11char_traitsIcESaIcEEE*, align 8
	%..inline.addr.6 = alloca i8*, align 8
	%..inline.addr.7 = alloca i8*, align 8
	%....inline.__FILL_CHARARRAY.addr = alloca [1 x i8], align 1
	%....inline.__FILL_CHARARRAY.addr.1 = alloca [1 x i8], align 1
	%..inline.addr.8 = alloca %struct._ZSt26random_access_iterator_tag, align 1

	store %struct._ZNSt7__cxx1112basic_stringIcSt11char_traitsIcESaIcEEE* %_T42566248_52699.arg, %struct._ZNSt7__cxx1112basic_stringIcSt11char_traitsIcESaIcEEE** %_T42566248_52699.addr, align 8, !tbaa !4096
	store i8* %_T42566544_52699.arg, i8** %_T42566544_52699.addr, align 8, !tbaa !4096
	store %struct._ZSaIcE* %_T42566840_52699.arg, %struct._ZSaIcE** %_T42566840_52699.addr, align 8, !tbaa !4096
	%0 = load %struct._ZNSt7__cxx1112basic_stringIcSt11char_traitsIcESaIcEEE*, %struct._ZNSt7__cxx1112basic_stringIcSt11char_traitsIcESaIcEEE** %_T42566248_52699.addr, align 8, !tbaa !4096, !dbg !6347
	%1 = bitcast %struct._ZNSt7__cxx1112basic_stringIcSt11char_traitsIcESaIcEEE*  %0 to i8*, !dbg !6347
	%2 = bitcast %struct._ZNSt7__cxx1112basic_stringIcSt11char_traitsIcESaIcEEE** %..inline.addr to i8**, !dbg !6347
	store i8*  %1, i8**  %2, align 8, !tbaa !4096, !dbg !6347
	%3 = load i8*, i8** %_T42566544_52699.addr, align 8, !tbaa !4096, !dbg !6347
	store i8*  %3, i8** %..inline.addr.1, align 8, !tbaa !4096, !dbg !6347
	%4 = getelementptr i8, i8*  %1, i64 16, !dbg !6347
	%5 = bitcast %struct._ZNSt7__cxx1112basic_stringIcSt11char_traitsIcESaIcEEE*  %0 to i8**, !dbg !6347
	store i8*  %4, i8**  %5, align 8, !tbaa !4096, !dbg !6347
	%6 = icmp eq i8*  %3,  null, !dbg !6347
	br i1  %6, label %L..inline.70090, label %L.B1276, !dbg !6347
L.B1276:
	%7 = call i64  @strlen (i8*  %3) nounwind, !dbg !6347
	%8 = load i8*, i8** %..inline.addr.1, align 8, !tbaa !4096, !dbg !6347
	%9 = getelementptr i8, i8*  %8, i64  %7, !dbg !6347
	store i8*  %9, i8** %..inline.addr.4, align 8, !tbaa !4096, !dbg !6347
	br label %L..inline.70098, !dbg !6347
L..inline.70090:
	%10 = load i8*, i8** %..inline.addr.1, align 8, !tbaa !4096, !dbg !6347
	%11 = getelementptr i8, i8*  %10, i64 18446744073709551615, !dbg !6347
	store i8*  %11, i8** %..inline.addr.4, align 8, !tbaa !4096, !dbg !6347
	br label %L..inline.70098
L..inline.70098:
	%12 = load %struct._ZNSt7__cxx1112basic_stringIcSt11char_traitsIcESaIcEEE*, %struct._ZNSt7__cxx1112basic_stringIcSt11char_traitsIcESaIcEEE** %..inline.addr, align 8, !tbaa !4096, !dbg !6347
	%13 = bitcast %struct._ZNSt7__cxx1112basic_stringIcSt11char_traitsIcESaIcEEE*  %12 to i8*, !dbg !6347
	%14 = bitcast %struct._ZNSt7__cxx1112basic_stringIcSt11char_traitsIcESaIcEEE** %..inline.addr.5 to i8**, !dbg !6347
	store i8*  %13, i8**  %14, align 8, !tbaa !4096, !dbg !6347
	%15 = load i8*, i8** %..inline.addr.1, align 8, !tbaa !4096, !dbg !6347
	store i8*  %15, i8** %..inline.addr.6, align 8, !tbaa !4096, !dbg !6347
	%16 = load i8*, i8** %..inline.addr.4, align 8, !tbaa !4096, !dbg !6347
	store i8*  %16, i8** %..inline.addr.7, align 8, !tbaa !4096, !dbg !6347
	call void @llvm.dbg.declare (metadata [1 x i8]* %....inline.__FILL_CHARARRAY.addr, metadata !6348, metadata !4081), !dbg !6310
	%17 = bitcast [1 x i8]* %....inline.__FILL_CHARARRAY.addr to i8*, !dbg !6347
	%18 = load i8, i8*  %17, align 1, !tbaa !4097, !dbg !6347
	%19 = zext i8  %18 to i32, !dbg !6347
	%20 = trunc i32  %19 to i8, !dbg !6347
	call void @llvm.dbg.declare (metadata [1 x i8]* %....inline.__FILL_CHARARRAY.addr.1, metadata !6348, metadata !4081), !dbg !6310
	%21 = bitcast [1 x i8]* %....inline.__FILL_CHARARRAY.addr.1 to i8*, !dbg !6347
	store i8  %20, i8*  %21, align 1, !tbaa !4097, !dbg !6347
	%22 = load %struct._ZNSt7__cxx1112basic_stringIcSt11char_traitsIcESaIcEEE*, %struct._ZNSt7__cxx1112basic_stringIcSt11char_traitsIcESaIcEEE** %..inline.addr.5, align 8, !tbaa !4096, !dbg !6347
	%23 = load i8*, i8** %..inline.addr.6, align 8, !tbaa !4096, !dbg !6347
	%24 = load i8*, i8** %..inline.addr.7, align 8, !tbaa !4096, !dbg !6347
	%25 = bitcast %struct._ZSt26random_access_iterator_tag* %..inline.addr.8 to i8*, !dbg !6347
	%26 = load i8, i8*  %25, align 1, !tbaa !4097, !dbg !6347
	call void  @_ZNSt7__cxx1112basic_stringIcSt11char_traitsIcESaIcEE12_M_constructIPKcEEvT_S8_St20forward_iterator_tag (%struct._ZNSt7__cxx1112basic_stringIcSt11char_traitsIcESaIcEEE*  %22, i8*  %23, i8*  %24, i8  %26), !dbg !6347
	ret void, !dbg !6347
}
define linkonce_odr void @_ZNSt7__cxx1112basic_stringIcSt11char_traitsIcESaIcEED1Ev(%struct._ZNSt7__cxx1112basic_stringIcSt11char_traitsIcESaIcEEE* %_T42566248_52700.arg) #0 inlinehint !dbg !6350 {
L.entry:
	%_T42566248_52700.addr = alloca %struct._ZNSt7__cxx1112basic_stringIcSt11char_traitsIcESaIcEEE*, align 8
	%..inline.addr = alloca i8*, align 8

	call void @llvm.dbg.declare (metadata %struct._ZNSt7__cxx1112basic_stringIcSt11char_traitsIcESaIcEEE** %_T42566248_52700.addr, metadata !6402, metadata !4081), !dbg !6351
	store %struct._ZNSt7__cxx1112basic_stringIcSt11char_traitsIcESaIcEEE* %_T42566248_52700.arg, %struct._ZNSt7__cxx1112basic_stringIcSt11char_traitsIcESaIcEEE** %_T42566248_52700.addr, align 8, !tbaa !4096
	call void @llvm.dbg.declare (metadata %struct._ZNSt7__cxx1112basic_stringIcSt11char_traitsIcESaIcEEE** %_T42566248_52700.addr, metadata !6403, metadata !4081), !dbg !6351
	%0 = load %struct._ZNSt7__cxx1112basic_stringIcSt11char_traitsIcESaIcEEE*, %struct._ZNSt7__cxx1112basic_stringIcSt11char_traitsIcESaIcEEE** %_T42566248_52700.addr, align 8, !tbaa !4096, !dbg !6404
	%1 = bitcast %struct._ZNSt7__cxx1112basic_stringIcSt11char_traitsIcESaIcEEE*  %0 to i8**, !dbg !6404
	%2 = load i8*, i8**  %1, align 8, !tbaa !4096, !dbg !6404
	%3 = bitcast %struct._ZNSt7__cxx1112basic_stringIcSt11char_traitsIcESaIcEEE*  %0 to i8*, !dbg !6404
	%4 = getelementptr i8, i8*  %3, i64 16, !dbg !6404
	%5 = icmp eq i8*  %2,  %4, !dbg !6404
	br i1  %5, label %L..inline.70197, label %L.B1279, !dbg !6404
L.B1279:
	%6 = bitcast %struct._ZNSt7__cxx1112basic_stringIcSt11char_traitsIcESaIcEEE*  %0 to i8**, !dbg !6405
	%7 = load i8*, i8**  %6, align 8, !tbaa !4096, !dbg !6405
	call void  @_ZdlPv (i8*  %7) nounwind, !dbg !6405
	br label %L..inline.70197
L..inline.70197:
	ret void, !dbg !6406
}
define linkonce_odr void @_ZNSt7__cxx1112basic_stringIcSt11char_traitsIcESaIcEED2Ev(%struct._ZNSt7__cxx1112basic_stringIcSt11char_traitsIcESaIcEEE* %_T42566248_52701.arg) #0 inlinehint !dbg !6408 {
L.entry:
	%_T42566248_52701.addr = alloca %struct._ZNSt7__cxx1112basic_stringIcSt11char_traitsIcESaIcEEE*, align 8
	%..inline.addr = alloca i8*, align 8

	store %struct._ZNSt7__cxx1112basic_stringIcSt11char_traitsIcESaIcEEE* %_T42566248_52701.arg, %struct._ZNSt7__cxx1112basic_stringIcSt11char_traitsIcESaIcEEE** %_T42566248_52701.addr, align 8, !tbaa !4096
	%0 = load %struct._ZNSt7__cxx1112basic_stringIcSt11char_traitsIcESaIcEEE*, %struct._ZNSt7__cxx1112basic_stringIcSt11char_traitsIcESaIcEEE** %_T42566248_52701.addr, align 8, !tbaa !4096, !dbg !6464
	%1 = bitcast %struct._ZNSt7__cxx1112basic_stringIcSt11char_traitsIcESaIcEEE*  %0 to i8**, !dbg !6464
	%2 = load i8*, i8**  %1, align 8, !tbaa !4096, !dbg !6464
	%3 = bitcast %struct._ZNSt7__cxx1112basic_stringIcSt11char_traitsIcESaIcEEE*  %0 to i8*, !dbg !6464
	%4 = getelementptr i8, i8*  %3, i64 16, !dbg !6464
	%5 = icmp eq i8*  %2,  %4, !dbg !6464
	br i1  %5, label %L..inline.70303, label %L.B1282, !dbg !6464
L.B1282:
	%6 = bitcast %struct._ZNSt7__cxx1112basic_stringIcSt11char_traitsIcESaIcEEE*  %0 to i8**, !dbg !6464
	%7 = load i8*, i8**  %6, align 8, !tbaa !4096, !dbg !6464
	call void  @_ZdlPv (i8*  %7) nounwind, !dbg !6464
	br label %L..inline.70303
L..inline.70303:
	ret void, !dbg !6464
}
define linkonce_odr void @_ZNSt7__cxx1112basic_stringIcSt11char_traitsIcESaIcEE12_M_constructIPKcEEvT_S8_(%struct._ZNSt7__cxx1112basic_stringIcSt11char_traitsIcESaIcEEE* %_T42566248_52702.arg, i8* %__beg.arg, i8* %__end.arg) #0 inlinehint !dbg !6468 {
L.entry:
	%_T42566248_52702.addr = alloca %struct._ZNSt7__cxx1112basic_stringIcSt11char_traitsIcESaIcEEE*, align 8
	%__beg.addr = alloca i8*, align 8
	%__end.addr = alloca i8*, align 8
	%..inline.addr = alloca %struct._ZNSt7__cxx1112basic_stringIcSt11char_traitsIcESaIcEEE*, align 8
	%..inline.addr.1 = alloca i8*, align 8
	%..inline.addr.2 = alloca i8*, align 8
	%.._T42567728_52702.__FILL_CHARARRAY.addr = alloca [1 x i8], align 1
	%....inline.__FILL_CHARARRAY.addr = alloca [1 x i8], align 1
	%..inline.addr.3 = alloca %struct._ZSt26random_access_iterator_tag, align 1

	call void @llvm.dbg.declare (metadata %struct._ZNSt7__cxx1112basic_stringIcSt11char_traitsIcESaIcEEE** %_T42566248_52702.addr, metadata !6476, metadata !4081), !dbg !6469
	store %struct._ZNSt7__cxx1112basic_stringIcSt11char_traitsIcESaIcEEE* %_T42566248_52702.arg, %struct._ZNSt7__cxx1112basic_stringIcSt11char_traitsIcESaIcEEE** %_T42566248_52702.addr, align 8, !tbaa !4096
	call void @llvm.dbg.declare (metadata %struct._ZNSt7__cxx1112basic_stringIcSt11char_traitsIcESaIcEEE** %_T42566248_52702.addr, metadata !6477, metadata !4081), !dbg !6469
	call void @llvm.dbg.declare (metadata i8** %__beg.addr, metadata !6478, metadata !4081), !dbg !6469
	store i8* %__beg.arg, i8** %__beg.addr, align 8, !tbaa !4096
	call void @llvm.dbg.declare (metadata i8** %__beg.addr, metadata !6479, metadata !4081), !dbg !6469
	call void @llvm.dbg.declare (metadata i8** %__end.addr, metadata !6480, metadata !4081), !dbg !6469
	store i8* %__end.arg, i8** %__end.addr, align 8, !tbaa !4096
	call void @llvm.dbg.declare (metadata i8** %__end.addr, metadata !6481, metadata !4081), !dbg !6469
	%0 = load %struct._ZNSt7__cxx1112basic_stringIcSt11char_traitsIcESaIcEEE*, %struct._ZNSt7__cxx1112basic_stringIcSt11char_traitsIcESaIcEEE** %_T42566248_52702.addr, align 8, !tbaa !4096, !dbg !6482
	%1 = bitcast %struct._ZNSt7__cxx1112basic_stringIcSt11char_traitsIcESaIcEEE*  %0 to i8*, !dbg !6482
	%2 = bitcast %struct._ZNSt7__cxx1112basic_stringIcSt11char_traitsIcESaIcEEE** %..inline.addr to i8**, !dbg !6482
	store i8*  %1, i8**  %2, align 8, !tbaa !4096, !dbg !6482
	%3 = load i8*, i8** %__beg.addr, align 8, !tbaa !4096, !dbg !6482
	store i8*  %3, i8** %..inline.addr.1, align 8, !tbaa !4096, !dbg !6482
	%4 = load i8*, i8** %__end.addr, align 8, !tbaa !4096, !dbg !6482
	store i8*  %4, i8** %..inline.addr.2, align 8, !tbaa !4096, !dbg !6482
	call void @llvm.dbg.declare (metadata [1 x i8]* %.._T42567728_52702.__FILL_CHARARRAY.addr, metadata !6484, metadata !4081), !dbg !6471
	%5 = bitcast [1 x i8]* %.._T42567728_52702.__FILL_CHARARRAY.addr to i8*, !dbg !6483
	%6 = load i8, i8*  %5, align 1, !tbaa !4097, !dbg !6483
	%7 = zext i8  %6 to i32, !dbg !6483
	%8 = trunc i32  %7 to i8, !dbg !6483
	call void @llvm.dbg.declare (metadata [1 x i8]* %....inline.__FILL_CHARARRAY.addr, metadata !6485, metadata !4081), !dbg !6471
	%9 = bitcast [1 x i8]* %....inline.__FILL_CHARARRAY.addr to i8*, !dbg !6483
	store i8  %8, i8*  %9, align 1, !tbaa !4097, !dbg !6483
	%10 = load %struct._ZNSt7__cxx1112basic_stringIcSt11char_traitsIcESaIcEEE*, %struct._ZNSt7__cxx1112basic_stringIcSt11char_traitsIcESaIcEEE** %..inline.addr, align 8, !tbaa !4096, !dbg !6486
	%11 = load i8*, i8** %..inline.addr.1, align 8, !tbaa !4096, !dbg !6486
	%12 = load i8*, i8** %..inline.addr.2, align 8, !tbaa !4096, !dbg !6486
	%13 = bitcast %struct._ZSt26random_access_iterator_tag* %..inline.addr.3 to i8*, !dbg !6486
	%14 = load i8, i8*  %13, align 1, !tbaa !4097, !dbg !6486
	call void  @_ZNSt7__cxx1112basic_stringIcSt11char_traitsIcESaIcEE12_M_constructIPKcEEvT_S8_St20forward_iterator_tag (%struct._ZNSt7__cxx1112basic_stringIcSt11char_traitsIcESaIcEEE*  %10, i8*  %11, i8*  %12, i8  %14), !dbg !6486
	ret void, !dbg !6483
}

%struct._ZSt12__false_type = type <{ [1 x i8]}> 

define linkonce_odr void @_ZNSt7__cxx1112basic_stringIcSt11char_traitsIcESaIcEE16_M_construct_auxIPKcEEvT_S8_St12__false_type(%struct._ZNSt7__cxx1112basic_stringIcSt11char_traitsIcESaIcEEE* %_T42566248_52703.arg, i8* %__beg.arg, i8* %__end.arg, i8 %_T42567136_52703.coerce) #0 inlinehint !dbg !6490 {
L.entry:
	%_T42566248_52703.addr = alloca %struct._ZNSt7__cxx1112basic_stringIcSt11char_traitsIcESaIcEEE*, align 8
	%__beg.addr = alloca i8*, align 8
	%__end.addr = alloca i8*, align 8
	%_T42567136_52703.addr = alloca %struct._ZSt12__false_type, align 1
	%_T42568024_52703.addr = alloca %struct._ZSt26random_access_iterator_tag, align 1

	call void @llvm.dbg.declare (metadata %struct._ZNSt7__cxx1112basic_stringIcSt11char_traitsIcESaIcEEE** %_T42566248_52703.addr, metadata !6494, metadata !4081), !dbg !6491
	store %struct._ZNSt7__cxx1112basic_stringIcSt11char_traitsIcESaIcEEE* %_T42566248_52703.arg, %struct._ZNSt7__cxx1112basic_stringIcSt11char_traitsIcESaIcEEE** %_T42566248_52703.addr, align 8, !tbaa !4096
	call void @llvm.dbg.declare (metadata %struct._ZNSt7__cxx1112basic_stringIcSt11char_traitsIcESaIcEEE** %_T42566248_52703.addr, metadata !6495, metadata !4081), !dbg !6491
	call void @llvm.dbg.declare (metadata i8** %__beg.addr, metadata !6496, metadata !4081), !dbg !6491
	store i8* %__beg.arg, i8** %__beg.addr, align 8, !tbaa !4096
	call void @llvm.dbg.declare (metadata i8** %__beg.addr, metadata !6497, metadata !4081), !dbg !6491
	call void @llvm.dbg.declare (metadata i8** %__end.addr, metadata !6498, metadata !4081), !dbg !6491
	store i8* %__end.arg, i8** %__end.addr, align 8, !tbaa !4096
	call void @llvm.dbg.declare (metadata i8** %__end.addr, metadata !6499, metadata !4081), !dbg !6491
	call void @llvm.dbg.declare (metadata %struct._ZSt12__false_type* %_T42567136_52703.addr, metadata !6500, metadata !4081), !dbg !6491
	%0 = bitcast %struct._ZSt12__false_type* %_T42567136_52703.addr to i8*
	store i8 %_T42567136_52703.coerce, i8*  %0, align 1, !tbaa !4097
	call void @llvm.dbg.declare (metadata %struct._ZSt12__false_type* %_T42567136_52703.addr, metadata !6501, metadata !4081), !dbg !6491
	%1 = load %struct._ZNSt7__cxx1112basic_stringIcSt11char_traitsIcESaIcEEE*, %struct._ZNSt7__cxx1112basic_stringIcSt11char_traitsIcESaIcEEE** %_T42566248_52703.addr, align 8, !tbaa !4096, !dbg !6502
	%2 = load i8*, i8** %__beg.addr, align 8, !tbaa !4096, !dbg !6502
	%3 = load i8*, i8** %__end.addr, align 8, !tbaa !4096, !dbg !6502
	%4 = bitcast %struct._ZSt26random_access_iterator_tag* %_T42568024_52703.addr to i8*, !dbg !6502
	%5 = load i8, i8*  %4, align 1, !tbaa !4097, !dbg !6502
	call void  @_ZNSt7__cxx1112basic_stringIcSt11char_traitsIcESaIcEE12_M_constructIPKcEEvT_S8_St20forward_iterator_tag (%struct._ZNSt7__cxx1112basic_stringIcSt11char_traitsIcESaIcEEE*  %1, i8*  %2, i8*  %3, i8  %5), !dbg !6502
	ret void, !dbg !6503
}

%astruct.dt64 = type <{ i8*, i32}> 
%struct._ZSt20forward_iterator_tag = type <{ [1 x i8]}> 

define linkonce_odr void @_ZNSt7__cxx1112basic_stringIcSt11char_traitsIcESaIcEE12_M_constructIPKcEEvT_S8_St20forward_iterator_tag(%struct._ZNSt7__cxx1112basic_stringIcSt11char_traitsIcESaIcEEE* %_T42566248_52704.arg, i8* %__beg.arg, i8* %__end.arg, i8 %_T42567136_52704.coerce) #0 inlinehint personality i8* bitcast (i32 (...)* @__gxx_personality_v0 to i8*) !dbg !6509 {
L.entry:
	%_T42566248_52704.addr = alloca %struct._ZNSt7__cxx1112basic_stringIcSt11char_traitsIcESaIcEEE*, align 8
	%__beg.addr = alloca i8*, align 8
	%__end.addr = alloca i8*, align 8
	%_T42567136_52704.addr = alloca %struct._ZSt20forward_iterator_tag, align 1
	%..inline.addr = alloca i8*, align 8
	%..inline.addr.1 = alloca i8, align 1
	%..inline.addr.2 = alloca i8*, align 8
	%..inline.addr.3 = alloca i8*, align 8
	%..inline.addr.4 = alloca %struct._ZSt26random_access_iterator_tag, align 1
	%..inline.addr.5 = alloca i8*, align 8
	%..inline.addr.6 = alloca i8*, align 8
	%..inline.addr.7 = alloca %struct._ZSt26random_access_iterator_tag, align 1
	%..inline.addr.8 = alloca i64, align 8
	%..inline.addr.9 = alloca i64, align 8
	%__dnew.addr = alloca i64, align 8
	%..inline.addr.190 = alloca %struct._ZNSt7__cxx1112basic_stringIcSt11char_traitsIcESaIcEEE*, align 8
	%.Q0003.addr = alloca i8*, align 8
	%..inline.addr.210 = alloca i8*, align 8
	%..inline.addr.220 = alloca %struct._ZNSt7__cxx1112basic_stringIcSt11char_traitsIcESaIcEEE*, align 8
	%..inline.addr.230 = alloca i64, align 8
	%..inline.addr.240 = alloca %struct._ZNSt7__cxx1112basic_stringIcSt11char_traitsIcESaIcEEE*, align 8
	%..inline.addr.250 = alloca i8*, align 8
	%..inline.addr.260 = alloca i8*, align 8
	%..inline.addr.270 = alloca i8*, align 8
	%..inline.addr.280 = alloca i8*, align 8
	%..inline.addr.290 = alloca i8*, align 8
	%..inline.addr.300 = alloca i64, align 8
	%..inline.addr.310 = alloca i8*, align 8
	%..inline.addr.320 = alloca i8*, align 8
	%..inline.addr.330 = alloca i8*, align 8
	%..inline.addr.340 = alloca i8*, align 8
	%..inline.addr.350 = alloca i64, align 8
	%..inline.addr.360 = alloca i8*, align 8
	%..inline.addr.370 = alloca %struct._ZNSt7__cxx1112basic_stringIcSt11char_traitsIcESaIcEEE*, align 8
	%..inline.addr.380 = alloca i64, align 8
	%..inline.addr.390 = alloca %struct._ZNSt7__cxx1112basic_stringIcSt11char_traitsIcESaIcEEE*, align 8
	%..inline.addr.400 = alloca i64, align 8
	%..inline.addr.410 = alloca i8, align 1
	%..inline.addr.420 = alloca %struct._ZNSt7__cxx1112basic_stringIcSt11char_traitsIcESaIcEEE*, align 8
	%..inline.addr.430 = alloca i8*, align 8
	%__caught_object_address.addr = alloca i8*, align 8
	%__catch_clause_number.addr = alloca i32, align 4
	%..inline.addr.460 = alloca %struct._ZNSt7__cxx1112basic_stringIcSt11char_traitsIcESaIcEEE*, align 8
	%..inline.addr.470 = alloca %struct._ZNSt7__cxx1112basic_stringIcSt11char_traitsIcESaIcEEE*, align 8
	%..inline.addr.480 = alloca %struct._ZNSt7__cxx1112basic_stringIcSt11char_traitsIcESaIcEEE*, align 8
	%..inline.addr.490 = alloca %struct._ZNSt7__cxx1112basic_stringIcSt11char_traitsIcESaIcEEE*, align 8
	%..inline.addr.500 = alloca i8*, align 8
	%..inline.addr.510 = alloca i8*, align 8
	%..inline.addr.520 = alloca i8*, align 8
	%..inline.addr.530 = alloca i8*, align 8
	%..inline.addr.540 = alloca i8*, align 8
	%..inline.addr.550 = alloca i8*, align 8
	%..inline.addr.560 = alloca i8, align 1
	%..inline.addr.570 = alloca %struct._ZNSt7__cxx1112basic_stringIcSt11char_traitsIcESaIcEEE*, align 8
	%..inline.addr.580 = alloca i64, align 8
	%..inline.addr.590 = alloca %struct._ZNSt7__cxx1112basic_stringIcSt11char_traitsIcESaIcEEE*, align 8
	%..inline.addr.600 = alloca %struct._ZNSt7__cxx1112basic_stringIcSt11char_traitsIcESaIcEEE*, align 8
	%..inline.addr.610 = alloca %struct._ZSaIcE*, align 8
	%..inline.addr.620 = alloca i8*, align 8
	%..inline.addr.630 = alloca i64, align 8
	%..inline.addr.640 = alloca i8*, align 8

	call void @llvm.dbg.declare (metadata %struct._ZNSt7__cxx1112basic_stringIcSt11char_traitsIcESaIcEEE** %_T42566248_52704.addr, metadata !6619, metadata !4081), !dbg !6510
	store %struct._ZNSt7__cxx1112basic_stringIcSt11char_traitsIcESaIcEEE* %_T42566248_52704.arg, %struct._ZNSt7__cxx1112basic_stringIcSt11char_traitsIcESaIcEEE** %_T42566248_52704.addr, align 8
	call void @llvm.dbg.declare (metadata %struct._ZNSt7__cxx1112basic_stringIcSt11char_traitsIcESaIcEEE** %_T42566248_52704.addr, metadata !6620, metadata !4081), !dbg !6510
	call void @llvm.dbg.declare (metadata i8** %__beg.addr, metadata !6621, metadata !4081), !dbg !6510
	store i8* %__beg.arg, i8** %__beg.addr, align 8
	call void @llvm.dbg.declare (metadata i8** %__beg.addr, metadata !6622, metadata !4081), !dbg !6510
	call void @llvm.dbg.declare (metadata i8** %__end.addr, metadata !6623, metadata !4081), !dbg !6510
	store i8* %__end.arg, i8** %__end.addr, align 8
	call void @llvm.dbg.declare (metadata i8** %__end.addr, metadata !6624, metadata !4081), !dbg !6510
	call void @llvm.dbg.declare (metadata %struct._ZSt20forward_iterator_tag* %_T42567136_52704.addr, metadata !6625, metadata !4081), !dbg !6510
	%0 = bitcast %struct._ZSt20forward_iterator_tag* %_T42567136_52704.addr to i8*
	store i8 %_T42567136_52704.coerce, i8*  %0, align 1
	call void @llvm.dbg.declare (metadata %struct._ZSt20forward_iterator_tag* %_T42567136_52704.addr, metadata !6626, metadata !4081), !dbg !6510
	%1 = load i8*, i8** %__beg.addr, align 8, !dbg !6627
	store i8*  %1, i8** %..inline.addr, align 8, !dbg !6627
	%2 = icmp eq i8*  %1,  null, !dbg !6627
	%3 = zext i1  %2 to i32, !dbg !6627
	%4 = shl i32  %3, 24, !dbg !6627
	%5 = ashr i32  %4, 24, !dbg !6627
	%6 = trunc i32  %5 to i8, !dbg !6627
	store i8  %6, i8* %..inline.addr.1, align 1, !dbg !6627
	%7 = sext i8  %6 to i32, !dbg !6628
	%8 = icmp eq i32  %7, 0, !dbg !6628
	br i1  %8, label %L.B0026, label %L.B1301, !dbg !6628
L.B1301:
	%9 = load i8*, i8** %__beg.addr, align 8, !dbg !6627
	%10 = load i8*, i8** %__end.addr, align 8, !dbg !6627
	%11 = icmp eq i8*  %9,  %10, !dbg !6627
	br i1  %11, label %L.B0026, label %L.B1302, !dbg !6627
L.B1302:
	%12 = bitcast [42 x i8]* @.S54524 to i8*, !dbg !6629
	call void  @_ZSt19__throw_logic_errorPKc (i8*  %12) noreturn, !dbg !6629
	br label %L.B0026
L.B0026:
	%13 = load i8*, i8** %__beg.addr, align 8, !dbg !6630
	store i8*  %13, i8** %..inline.addr.2, align 8, !dbg !6630
	%14 = load i8*, i8** %__end.addr, align 8, !dbg !6630
	store i8*  %14, i8** %..inline.addr.3, align 8, !dbg !6630
	%15 = bitcast %struct._ZSt26random_access_iterator_tag* %..inline.addr.4 to i8*, !dbg !6630
	store i8 0, i8*  %15, align 1, !dbg !6630
	store i8*  %13, i8** %..inline.addr.5, align 8, !dbg !6631
	store i8*  %14, i8** %..inline.addr.6, align 8, !dbg !6631
	%16 = zext i8 0 to i32, !dbg !6632
	%17 = trunc i32  %16 to i8, !dbg !6632
	%18 = bitcast %struct._ZSt26random_access_iterator_tag* %..inline.addr.7 to i8*, !dbg !6632
	store i8  %17, i8*  %18, align 1, !dbg !6632
	%19 = ptrtoint i8*  %13 to i64, !dbg !6631
	%20 = sub i64 0,  %19, !dbg !6631
	%21 = getelementptr i8, i8*  %14, i64  %20, !dbg !6631
	%22 = ptrtoint i8*  %21 to i64, !dbg !6631
	store i64  %22, i64* %..inline.addr.8, align 8, !dbg !6631
	store i64  %22, i64* %..inline.addr.9, align 8, !dbg !6631
	br label %L..inline.70420, !dbg !6631
L..inline.70420:
	%23 = load i64, i64* %..inline.addr.9, align 8, !dbg !6633
	call void @llvm.dbg.declare (metadata i64* %__dnew.addr, metadata !6634, metadata !4081), !dbg !6510
	store i64  %23, i64* %__dnew.addr, align 8, !dbg !6633
	%24 = icmp ule i64  %23, 15, !dbg !6635
	br i1  %24, label %L.B0027, label %L.B1303, !dbg !6635
L.B1303:
	%25 = load %struct._ZNSt7__cxx1112basic_stringIcSt11char_traitsIcESaIcEEE*, %struct._ZNSt7__cxx1112basic_stringIcSt11char_traitsIcESaIcEEE** %_T42566248_52704.addr, align 8, !dbg !6636
	%26 = bitcast %struct._ZNSt7__cxx1112basic_stringIcSt11char_traitsIcESaIcEEE*  %25 to i8*, !dbg !6636
	%27 = bitcast %struct._ZNSt7__cxx1112basic_stringIcSt11char_traitsIcESaIcEEE** %..inline.addr.190 to i8**, !dbg !6636
	store i8*  %26, i8**  %27, align 8, !dbg !6636
	%28 = call i8*  @_ZNSt7__cxx1112basic_stringIcSt11char_traitsIcESaIcEE9_M_createERmm (%struct._ZNSt7__cxx1112basic_stringIcSt11char_traitsIcESaIcEEE*  %25, i64* %__dnew.addr, i64 0), !dbg !6636
	store i8*  %28, i8** %.Q0003.addr, align 8, !dbg !6636
	%29 = load i8*, i8** %.Q0003.addr, align 8, !dbg !6636
	store i8*  %29, i8** %..inline.addr.210, align 8, !dbg !6636
	%30 = load %struct._ZNSt7__cxx1112basic_stringIcSt11char_traitsIcESaIcEEE*, %struct._ZNSt7__cxx1112basic_stringIcSt11char_traitsIcESaIcEEE** %..inline.addr.190, align 8, !dbg !6636
	%31 = bitcast %struct._ZNSt7__cxx1112basic_stringIcSt11char_traitsIcESaIcEEE*  %30 to i8**, !dbg !6636
	store i8*  %29, i8**  %31, align 8, !dbg !6636
	%32 = load %struct._ZNSt7__cxx1112basic_stringIcSt11char_traitsIcESaIcEEE*, %struct._ZNSt7__cxx1112basic_stringIcSt11char_traitsIcESaIcEEE** %_T42566248_52704.addr, align 8, !dbg !6637
	%33 = bitcast %struct._ZNSt7__cxx1112basic_stringIcSt11char_traitsIcESaIcEEE*  %32 to i8*, !dbg !6637
	%34 = bitcast %struct._ZNSt7__cxx1112basic_stringIcSt11char_traitsIcESaIcEEE** %..inline.addr.220 to i8**, !dbg !6637
	store i8*  %33, i8**  %34, align 8, !dbg !6637
	%35 = load i64, i64* %__dnew.addr, align 8, !dbg !6637
	store i64  %35, i64* %..inline.addr.230, align 8, !dbg !6637
	%36 = load %struct._ZNSt7__cxx1112basic_stringIcSt11char_traitsIcESaIcEEE*, %struct._ZNSt7__cxx1112basic_stringIcSt11char_traitsIcESaIcEEE** %..inline.addr.220, align 8, !dbg !6637
	%37 = bitcast %struct._ZNSt7__cxx1112basic_stringIcSt11char_traitsIcESaIcEEE*  %36 to i8*, !dbg !6637
	%38 = getelementptr i8, i8*  %37, i64 16, !dbg !6637
	%39 = bitcast i8*  %38 to i64*, !dbg !6637
	store i64  %35, i64*  %39, align 8, !dbg !6637
	br label %L.B0027
L.B0027:
	%40 = load %struct._ZNSt7__cxx1112basic_stringIcSt11char_traitsIcESaIcEEE*, %struct._ZNSt7__cxx1112basic_stringIcSt11char_traitsIcESaIcEEE** %_T42566248_52704.addr, align 8, !dbg !6638
	%41 = bitcast %struct._ZNSt7__cxx1112basic_stringIcSt11char_traitsIcESaIcEEE*  %40 to i8*, !dbg !6638
	%42 = bitcast %struct._ZNSt7__cxx1112basic_stringIcSt11char_traitsIcESaIcEEE** %..inline.addr.240 to i8**, !dbg !6638
	store i8*  %41, i8**  %42, align 8, !dbg !6638
	%43 = load %struct._ZNSt7__cxx1112basic_stringIcSt11char_traitsIcESaIcEEE*, %struct._ZNSt7__cxx1112basic_stringIcSt11char_traitsIcESaIcEEE** %..inline.addr.240, align 8, !dbg !6639
	%44 = bitcast %struct._ZNSt7__cxx1112basic_stringIcSt11char_traitsIcESaIcEEE*  %43 to i8**, !dbg !6639
	%45 = load i8*, i8**  %44, align 8, !dbg !6639
	store i8*  %45, i8** %..inline.addr.250, align 8, !dbg !6639
	%46 = load i8*, i8** %__beg.addr, align 8, !dbg !6638
	store i8*  %46, i8** %..inline.addr.260, align 8, !dbg !6638
	%47 = load i8*, i8** %__end.addr, align 8, !dbg !6638
	store i8*  %47, i8** %..inline.addr.270, align 8, !dbg !6638
	store i8*  %45, i8** %..inline.addr.280, align 8, !dbg !6640
	store i8*  %46, i8** %..inline.addr.290, align 8, !dbg !6640
	%48 = ptrtoint i8*  %46 to i64, !dbg !6640
	%49 = sub i64 0,  %48, !dbg !6640
	%50 = getelementptr i8, i8*  %47, i64  %49, !dbg !6640
	%51 = ptrtoint i8*  %50 to i64, !dbg !6640
	store i64  %51, i64* %..inline.addr.300, align 8, !dbg !6640
	%52 = icmp ne i64  %51, 1, !dbg !6640
	br i1  %52, label %L..inline.70449, label %L.B1304, !dbg !6640
L.B1304:
	%53 = load i8*, i8** %..inline.addr.280, align 8, !dbg !6640
	store i8*  %53, i8** %..inline.addr.310, align 8, !dbg !6640
	%54 = load i8*, i8** %..inline.addr.290, align 8, !dbg !6640
	store i8*  %54, i8** %..inline.addr.320, align 8, !dbg !6640
	%55 = load i8, i8*  %54, align 1, !dbg !6640
	store i8  %55, i8*  %53, align 1, !dbg !6640
	br label %L..inline.70456, !dbg !6640
L..inline.70449:
	%56 = load i8*, i8** %..inline.addr.280, align 8, !dbg !6640
	store i8*  %56, i8** %..inline.addr.330, align 8, !dbg !6640
	%57 = load i8*, i8** %..inline.addr.290, align 8, !dbg !6640
	store i8*  %57, i8** %..inline.addr.340, align 8, !dbg !6640
	%58 = load i64, i64* %..inline.addr.300, align 8, !dbg !6640
	store i64  %58, i64* %..inline.addr.350, align 8, !dbg !6640
	%59 = icmp ne i64  %58, 0, !dbg !6640
	br i1  %59, label %L..inline.70463, label %L.B1305, !dbg !6640
L.B1305:
	%60 = load i8*, i8** %..inline.addr.330, align 8, !dbg !6640
	store i8*  %60, i8** %..inline.addr.360, align 8, !dbg !6640
	br label %L..inline.70465, !dbg !6640
L..inline.70463:
	%61 = load i8*, i8** %..inline.addr.330, align 8, !dbg !6640
	%62 = load i8*, i8** %..inline.addr.340, align 8, !dbg !6640
	%63 = load i64, i64* %..inline.addr.350, align 8, !dbg !6640
	%64 = call i8*  @memcpy (i8*  %61, i8*  %62, i64  %63) nounwind, !dbg !6640
	store i8*  %64, i8** %..inline.addr.360, align 8, !dbg !6640
	br label %L..inline.70465
L..inline.70465:
	br label %L..inline.70456
L..inline.70456:
	br label %L_T42815624_52704
L_T42815624_52704:
	%65 = load %struct._ZNSt7__cxx1112basic_stringIcSt11char_traitsIcESaIcEEE*, %struct._ZNSt7__cxx1112basic_stringIcSt11char_traitsIcESaIcEEE** %_T42566248_52704.addr, align 8, !dbg !6641
	%66 = bitcast %struct._ZNSt7__cxx1112basic_stringIcSt11char_traitsIcESaIcEEE*  %65 to i8*, !dbg !6641
	%67 = bitcast %struct._ZNSt7__cxx1112basic_stringIcSt11char_traitsIcESaIcEEE** %..inline.addr.370 to i8**, !dbg !6641
	store i8*  %66, i8**  %67, align 8, !dbg !6641
	%68 = load i64, i64* %__dnew.addr, align 8, !dbg !6641
	store i64  %68, i64* %..inline.addr.380, align 8, !dbg !6641
	%69 = load %struct._ZNSt7__cxx1112basic_stringIcSt11char_traitsIcESaIcEEE*, %struct._ZNSt7__cxx1112basic_stringIcSt11char_traitsIcESaIcEEE** %..inline.addr.370, align 8, !dbg !6642
	%70 = bitcast %struct._ZNSt7__cxx1112basic_stringIcSt11char_traitsIcESaIcEEE*  %69 to i8*, !dbg !6642
	%71 = bitcast %struct._ZNSt7__cxx1112basic_stringIcSt11char_traitsIcESaIcEEE** %..inline.addr.390 to i8**, !dbg !6642
	store i8*  %70, i8**  %71, align 8, !dbg !6642
	store i64  %68, i64* %..inline.addr.400, align 8, !dbg !6642
	%72 = load %struct._ZNSt7__cxx1112basic_stringIcSt11char_traitsIcESaIcEEE*, %struct._ZNSt7__cxx1112basic_stringIcSt11char_traitsIcESaIcEEE** %..inline.addr.390, align 8, !dbg !6642
	%73 = bitcast %struct._ZNSt7__cxx1112basic_stringIcSt11char_traitsIcESaIcEEE*  %72 to i8*, !dbg !6642
	%74 = getelementptr i8, i8*  %73, i64 8, !dbg !6642
	%75 = bitcast i8*  %74 to i64*, !dbg !6642
	store i64  %68, i64*  %75, align 8, !dbg !6642
	store i8 0, i8* %..inline.addr.410, align 1, !dbg !6642
	%76 = bitcast %struct._ZNSt7__cxx1112basic_stringIcSt11char_traitsIcESaIcEEE** %..inline.addr.420 to i8**, !dbg !6635
	store i8*  %70, i8**  %76, align 8, !dbg !6635
	%77 = load %struct._ZNSt7__cxx1112basic_stringIcSt11char_traitsIcESaIcEEE*, %struct._ZNSt7__cxx1112basic_stringIcSt11char_traitsIcESaIcEEE** %..inline.addr.420, align 8, !dbg !6635
	%78 = bitcast %struct._ZNSt7__cxx1112basic_stringIcSt11char_traitsIcESaIcEEE*  %77 to i8**, !dbg !6635
	%79 = load i8*, i8**  %78, align 8, !dbg !6635
	%80 = getelementptr i8, i8*  %79, i64  %68, !dbg !6635
	store i8*  %80, i8** %..inline.addr.430, align 8, !dbg !6635
	store i8 0, i8*  %80, align 1, !dbg !6635
	br label %L.R0096, !dbg !6641
L_T42815384_52704:
	%81 = landingpad %astruct.dt64
	catch i8*  null 
	%82 = extractvalue %astruct.dt64  %81, 0, !dbg !6641
	store i8*  %82, i8** %__caught_object_address.addr, align 1, !dbg !6641
	%83 = extractvalue %astruct.dt64  %81, 1, !dbg !6641
	store i32  %83, i32* %__catch_clause_number.addr, align 1, !dbg !6641
	%84 = load i8*, i8** %__caught_object_address.addr, align 8, !dbg !6643
	%85 = call i8*  @__cxa_begin_catch (i8*  %84) nounwind, !dbg !6643
	%86 = load %struct._ZNSt7__cxx1112basic_stringIcSt11char_traitsIcESaIcEEE*, %struct._ZNSt7__cxx1112basic_stringIcSt11char_traitsIcESaIcEEE** %_T42566248_52704.addr, align 8, !dbg !6644
	%87 = bitcast %struct._ZNSt7__cxx1112basic_stringIcSt11char_traitsIcESaIcEEE*  %86 to i8*, !dbg !6644
	%88 = bitcast %struct._ZNSt7__cxx1112basic_stringIcSt11char_traitsIcESaIcEEE** %..inline.addr.460 to i8**, !dbg !6644
	store i8*  %87, i8**  %88, align 8, !dbg !6644
	%89 = load %struct._ZNSt7__cxx1112basic_stringIcSt11char_traitsIcESaIcEEE*, %struct._ZNSt7__cxx1112basic_stringIcSt11char_traitsIcESaIcEEE** %..inline.addr.460, align 8, !dbg !6645
	%90 = bitcast %struct._ZNSt7__cxx1112basic_stringIcSt11char_traitsIcESaIcEEE*  %89 to i8*, !dbg !6645
	%91 = bitcast %struct._ZNSt7__cxx1112basic_stringIcSt11char_traitsIcESaIcEEE** %..inline.addr.470 to i8**, !dbg !6645
	store i8*  %90, i8**  %91, align 8, !dbg !6645
	%92 = load %struct._ZNSt7__cxx1112basic_stringIcSt11char_traitsIcESaIcEEE*, %struct._ZNSt7__cxx1112basic_stringIcSt11char_traitsIcESaIcEEE** %..inline.addr.470, align 8, !dbg !6645
	%93 = bitcast %struct._ZNSt7__cxx1112basic_stringIcSt11char_traitsIcESaIcEEE*  %92 to i8*, !dbg !6645
	%94 = bitcast %struct._ZNSt7__cxx1112basic_stringIcSt11char_traitsIcESaIcEEE** %..inline.addr.480 to i8**, !dbg !6645
	store i8*  %93, i8**  %94, align 8, !dbg !6645
	%95 = bitcast %struct._ZNSt7__cxx1112basic_stringIcSt11char_traitsIcESaIcEEE** %..inline.addr.490 to i8**, !dbg !6645
	store i8*  %93, i8**  %95, align 8, !dbg !6645
	%96 = load %struct._ZNSt7__cxx1112basic_stringIcSt11char_traitsIcESaIcEEE*, %struct._ZNSt7__cxx1112basic_stringIcSt11char_traitsIcESaIcEEE** %..inline.addr.490, align 8, !dbg !6645
	%97 = bitcast %struct._ZNSt7__cxx1112basic_stringIcSt11char_traitsIcESaIcEEE*  %96 to i8*, !dbg !6645
	%98 = getelementptr i8, i8*  %97, i64 16, !dbg !6645
	store i8*  %98, i8** %..inline.addr.500, align 8, !dbg !6645
	store i8*  %98, i8** %..inline.addr.510, align 8, !dbg !6645
	store i8*  %98, i8** %..inline.addr.520, align 8, !dbg !6645
	store i8*  %98, i8** %..inline.addr.530, align 8, !dbg !6645
	store i8*  %98, i8** %..inline.addr.540, align 8, !dbg !6645
	store i8*  %98, i8** %..inline.addr.550, align 8, !dbg !6645
	br label %L..inline.70534, !dbg !6645
L..inline.70534:
	%99 = load %struct._ZNSt7__cxx1112basic_stringIcSt11char_traitsIcESaIcEEE*, %struct._ZNSt7__cxx1112basic_stringIcSt11char_traitsIcESaIcEEE** %..inline.addr.480, align 8, !dbg !6645
	%100 = bitcast %struct._ZNSt7__cxx1112basic_stringIcSt11char_traitsIcESaIcEEE*  %99 to i8**, !dbg !6645
	%101 = load i8*, i8**  %100, align 8, !dbg !6645
	%102 = load i8*, i8** %..inline.addr.550, align 8, !dbg !6645
	%103 = icmp eq i8*  %101,  %102, !dbg !6645
	%104 = zext i1  %103 to i32, !dbg !6645
	%105 = trunc i32  %104 to i8, !dbg !6645
	store i8  %105, i8* %..inline.addr.560, align 1, !dbg !6645
	br label %L..inline.70536, !dbg !6645
L..inline.70536:
	%106 = load i8, i8* %..inline.addr.560, align 1, !dbg !6645
	%107 = sext i8  %106 to i32, !dbg !6645
	%108 = icmp ne i32  %107, 0, !dbg !6645
	br i1  %108, label %L..inline.70537, label %L.B1306, !dbg !6645
L.B1306:
	%109 = load %struct._ZNSt7__cxx1112basic_stringIcSt11char_traitsIcESaIcEEE*, %struct._ZNSt7__cxx1112basic_stringIcSt11char_traitsIcESaIcEEE** %..inline.addr.460, align 8, !dbg !6641
	%110 = bitcast %struct._ZNSt7__cxx1112basic_stringIcSt11char_traitsIcESaIcEEE*  %109 to i8*, !dbg !6641
	%111 = bitcast %struct._ZNSt7__cxx1112basic_stringIcSt11char_traitsIcESaIcEEE** %..inline.addr.570 to i8**, !dbg !6641
	store i8*  %110, i8**  %111, align 8, !dbg !6641
	%112 = getelementptr i8, i8*  %110, i64 16, !dbg !6641
	%113 = bitcast i8*  %112 to i64*, !dbg !6641
	%114 = load i64, i64*  %113, align 8, !dbg !6641
	store i64  %114, i64* %..inline.addr.580, align 8, !dbg !6641
	%115 = load %struct._ZNSt7__cxx1112basic_stringIcSt11char_traitsIcESaIcEEE*, %struct._ZNSt7__cxx1112basic_stringIcSt11char_traitsIcESaIcEEE** %..inline.addr.570, align 8, !dbg !6641
	%116 = bitcast %struct._ZNSt7__cxx1112basic_stringIcSt11char_traitsIcESaIcEEE*  %115 to i8*, !dbg !6641
	%117 = bitcast %struct._ZNSt7__cxx1112basic_stringIcSt11char_traitsIcESaIcEEE** %..inline.addr.590 to i8**, !dbg !6641
	store i8*  %116, i8**  %117, align 8, !dbg !6641
	%118 = bitcast %struct._ZNSt7__cxx1112basic_stringIcSt11char_traitsIcESaIcEEE** %..inline.addr.600 to i8**, !dbg !6641
	store i8*  %116, i8**  %118, align 8, !dbg !6641
	%119 = load %struct._ZNSt7__cxx1112basic_stringIcSt11char_traitsIcESaIcEEE*, %struct._ZNSt7__cxx1112basic_stringIcSt11char_traitsIcESaIcEEE** %..inline.addr.590, align 8, !dbg !6641
	%120 = bitcast %struct._ZNSt7__cxx1112basic_stringIcSt11char_traitsIcESaIcEEE*  %119 to i8*, !dbg !6641
	%121 = bitcast %struct._ZSaIcE** %..inline.addr.610 to i8**, !dbg !6641
	store i8*  %120, i8**  %121, align 8, !dbg !6641
	%122 = load %struct._ZNSt7__cxx1112basic_stringIcSt11char_traitsIcESaIcEEE*, %struct._ZNSt7__cxx1112basic_stringIcSt11char_traitsIcESaIcEEE** %..inline.addr.600, align 8, !dbg !6641
	%123 = bitcast %struct._ZNSt7__cxx1112basic_stringIcSt11char_traitsIcESaIcEEE*  %122 to i8**, !dbg !6641
	%124 = load i8*, i8**  %123, align 8, !dbg !6641
	store i8*  %124, i8** %..inline.addr.620, align 8, !dbg !6641
	%125 = add i64  %114, 1, !dbg !6641
	store i64  %125, i64* %..inline.addr.630, align 8, !dbg !6641
	store i8*  %124, i8** %..inline.addr.640, align 8, !dbg !6641
	call void  @_ZdlPv (i8*  %124) nounwind, !dbg !6641
	br label %L..inline.70537
L..inline.70537:
	invoke void  @__cxa_rethrow () noreturn
		to label %L.B1307
		unwind label %L_T42815744_52704, !dbg !6646
L.B1307:
	br label %L_T42815624_52704, !dbg !6646
L_T42815744_52704:
	%126 = landingpad %astruct.dt64
	cleanup
	%127 = extractvalue %astruct.dt64  %126, 0, !dbg !6647
	store i8*  %127, i8** %__caught_object_address.addr, align 1, !dbg !6647
	%128 = extractvalue %astruct.dt64  %126, 1, !dbg !6647
	store i32  %128, i32* %__catch_clause_number.addr, align 1, !dbg !6647
	call void  @__cxa_end_catch () nounwind, !dbg !6647
	%129 = load i32, i32* %__catch_clause_number.addr, align 4, !dbg !6647
	%130 = load i8*, i8** %__caught_object_address.addr, align 8, !dbg !6647
	%131 = insertvalue %astruct.dt64 undef, i8*  %130, 0, !dbg !6647
	%132 = insertvalue %astruct.dt64  %131, i32  %129, 1, !dbg !6647
	resume %astruct.dt64  %132 , !dbg !6647
L.R0096:
	ret void, !dbg !6632
}
define linkonce_odr void @_ZNSt7__cxx1112basic_stringIcSt11char_traitsIcESaIcEE12_Alloc_hiderC1EPcRKS3_(%struct._ZNSt7__cxx1112basic_stringIcSt11char_traitsIcESaIcEE12_Alloc_hiderE* %_T42566248_52706.arg, i8* %__dat.arg, %struct._ZSaIcE* %__a.arg) #0 inlinehint !dbg !6652 {
L.entry:
	%_T42566248_52706.addr = alloca %struct._ZNSt7__cxx1112basic_stringIcSt11char_traitsIcESaIcEE12_Alloc_hiderE*, align 8
	%__dat.addr = alloca i8*, align 8
	%__a.addr = alloca %struct._ZSaIcE*, align 8

	call void @llvm.dbg.declare (metadata %struct._ZNSt7__cxx1112basic_stringIcSt11char_traitsIcESaIcEE12_Alloc_hiderE** %_T42566248_52706.addr, metadata !6656, metadata !4081), !dbg !6653
	store %struct._ZNSt7__cxx1112basic_stringIcSt11char_traitsIcESaIcEE12_Alloc_hiderE* %_T42566248_52706.arg, %struct._ZNSt7__cxx1112basic_stringIcSt11char_traitsIcESaIcEE12_Alloc_hiderE** %_T42566248_52706.addr, align 8, !tbaa !4096
	call void @llvm.dbg.declare (metadata %struct._ZNSt7__cxx1112basic_stringIcSt11char_traitsIcESaIcEE12_Alloc_hiderE** %_T42566248_52706.addr, metadata !6657, metadata !4081), !dbg !6653
	call void @llvm.dbg.declare (metadata i8** %__dat.addr, metadata !6658, metadata !4081), !dbg !6653
	store i8* %__dat.arg, i8** %__dat.addr, align 8, !tbaa !4096
	call void @llvm.dbg.declare (metadata i8** %__dat.addr, metadata !6659, metadata !4081), !dbg !6653
	call void @llvm.dbg.declare (metadata %struct._ZSaIcE** %__a.addr, metadata !6660, metadata !4081), !dbg !6653
	store %struct._ZSaIcE* %__a.arg, %struct._ZSaIcE** %__a.addr, align 8, !tbaa !4096
	call void @llvm.dbg.declare (metadata %struct._ZSaIcE** %__a.addr, metadata !6661, metadata !4081), !dbg !6653
	%0 = load i8*, i8** %__dat.addr, align 8, !tbaa !4096, !dbg !6662
	%1 = load %struct._ZNSt7__cxx1112basic_stringIcSt11char_traitsIcESaIcEE12_Alloc_hiderE*, %struct._ZNSt7__cxx1112basic_stringIcSt11char_traitsIcESaIcEE12_Alloc_hiderE** %_T42566248_52706.addr, align 8, !tbaa !4096, !dbg !6662
	%2 = bitcast %struct._ZNSt7__cxx1112basic_stringIcSt11char_traitsIcESaIcEE12_Alloc_hiderE*  %1 to i8**, !dbg !6662
	store i8*  %0, i8**  %2, align 8, !tbaa !4096, !dbg !6662
	ret void, !dbg !6662
}
define linkonce_odr void @_ZNSt7__cxx1112basic_stringIcSt11char_traitsIcESaIcEE12_Alloc_hiderC2EPcRKS3_(%struct._ZNSt7__cxx1112basic_stringIcSt11char_traitsIcESaIcEE12_Alloc_hiderE* %_T42566248_52708.arg, i8* %_T42566544_52708.arg, %struct._ZSaIcE* %_T42566840_52708.arg) #0 inlinehint !dbg !6664 {
L.entry:
	%_T42566248_52708.addr = alloca %struct._ZNSt7__cxx1112basic_stringIcSt11char_traitsIcESaIcEE12_Alloc_hiderE*, align 8
	%_T42566544_52708.addr = alloca i8*, align 8
	%_T42566840_52708.addr = alloca %struct._ZSaIcE*, align 8

	store %struct._ZNSt7__cxx1112basic_stringIcSt11char_traitsIcESaIcEE12_Alloc_hiderE* %_T42566248_52708.arg, %struct._ZNSt7__cxx1112basic_stringIcSt11char_traitsIcESaIcEE12_Alloc_hiderE** %_T42566248_52708.addr, align 8, !tbaa !4096
	store i8* %_T42566544_52708.arg, i8** %_T42566544_52708.addr, align 8, !tbaa !4096
	store %struct._ZSaIcE* %_T42566840_52708.arg, %struct._ZSaIcE** %_T42566840_52708.addr, align 8, !tbaa !4096
	%0 = load i8*, i8** %_T42566544_52708.addr, align 8, !tbaa !4096, !dbg !6672
	%1 = load %struct._ZNSt7__cxx1112basic_stringIcSt11char_traitsIcESaIcEE12_Alloc_hiderE*, %struct._ZNSt7__cxx1112basic_stringIcSt11char_traitsIcESaIcEE12_Alloc_hiderE** %_T42566248_52708.addr, align 8, !tbaa !4096, !dbg !6672
	%2 = bitcast %struct._ZNSt7__cxx1112basic_stringIcSt11char_traitsIcESaIcEE12_Alloc_hiderE*  %1 to i8**, !dbg !6672
	store i8*  %0, i8**  %2, align 8, !tbaa !4096, !dbg !6672
	ret void, !dbg !6672
}

%struct._ZN9__gnu_cxx13new_allocatorIcEE = type <{ [1 x i8]}> 

define linkonce_odr void @_ZN9__gnu_cxx13new_allocatorIcE10deallocateEPcm(%struct._ZN9__gnu_cxx13new_allocatorIcEE* %_T42566248_52711.arg, i8* %__p.arg, i64 %_T42566840_52711.arg) #0 inlinehint !dbg !6679 {
L.entry:
	%_T42566248_52711.addr = alloca %struct._ZN9__gnu_cxx13new_allocatorIcEE*, align 8
	%__p.addr = alloca i8*, align 8
	%_T42566840_52711.addr = alloca i64, align 8

	call void @llvm.dbg.declare (metadata %struct._ZN9__gnu_cxx13new_allocatorIcEE** %_T42566248_52711.addr, metadata !6683, metadata !4081), !dbg !6680
	store %struct._ZN9__gnu_cxx13new_allocatorIcEE* %_T42566248_52711.arg, %struct._ZN9__gnu_cxx13new_allocatorIcEE** %_T42566248_52711.addr, align 8, !tbaa !4096
	call void @llvm.dbg.declare (metadata %struct._ZN9__gnu_cxx13new_allocatorIcEE** %_T42566248_52711.addr, metadata !6684, metadata !4081), !dbg !6680
	call void @llvm.dbg.declare (metadata i8** %__p.addr, metadata !6685, metadata !4081), !dbg !6680
	store i8* %__p.arg, i8** %__p.addr, align 8, !tbaa !4096
	call void @llvm.dbg.declare (metadata i8** %__p.addr, metadata !6686, metadata !4081), !dbg !6680
	call void @llvm.dbg.declare (metadata i64* %_T42566840_52711.addr, metadata !6687, metadata !4081), !dbg !6680
	store i64 %_T42566840_52711.arg, i64* %_T42566840_52711.addr, align 8, !tbaa !4097
	call void @llvm.dbg.declare (metadata i64* %_T42566840_52711.addr, metadata !6688, metadata !4081), !dbg !6680
	%0 = load i8*, i8** %__p.addr, align 8, !tbaa !4096, !dbg !6689
	call void  @_ZdlPv (i8*  %0) nounwind, !dbg !6689
	ret void, !dbg !6690
}

%struct._ZN9__gnu_cxx13new_allocatorIjEE = type <{ [1 x i8]}> 

define linkonce_odr void @_ZN9__gnu_cxx13new_allocatorIjE10deallocateEPjm(%struct._ZN9__gnu_cxx13new_allocatorIjEE* %_T42566248_52714.arg, i32* %__p.arg, i64 %_T42566840_52714.arg) #0 inlinehint !dbg !6698 {
L.entry:
	%_T42566248_52714.addr = alloca %struct._ZN9__gnu_cxx13new_allocatorIjEE*, align 8
	%__p.addr = alloca i32*, align 8
	%_T42566840_52714.addr = alloca i64, align 8

	call void @llvm.dbg.declare (metadata %struct._ZN9__gnu_cxx13new_allocatorIjEE** %_T42566248_52714.addr, metadata !6702, metadata !4081), !dbg !6699
	store %struct._ZN9__gnu_cxx13new_allocatorIjEE* %_T42566248_52714.arg, %struct._ZN9__gnu_cxx13new_allocatorIjEE** %_T42566248_52714.addr, align 8, !tbaa !4096
	call void @llvm.dbg.declare (metadata %struct._ZN9__gnu_cxx13new_allocatorIjEE** %_T42566248_52714.addr, metadata !6703, metadata !4081), !dbg !6699
	call void @llvm.dbg.declare (metadata i32** %__p.addr, metadata !6704, metadata !4081), !dbg !6699
	store i32* %__p.arg, i32** %__p.addr, align 8, !tbaa !4096
	call void @llvm.dbg.declare (metadata i32** %__p.addr, metadata !6705, metadata !4081), !dbg !6699
	call void @llvm.dbg.declare (metadata i64* %_T42566840_52714.addr, metadata !6706, metadata !4081), !dbg !6699
	store i64 %_T42566840_52714.arg, i64* %_T42566840_52714.addr, align 8, !tbaa !4097
	call void @llvm.dbg.declare (metadata i64* %_T42566840_52714.addr, metadata !6707, metadata !4081), !dbg !6699
	%0 = load i32*, i32** %__p.addr, align 8, !tbaa !4096, !dbg !6708
	%1 = bitcast i32*  %0 to i8*, !dbg !6708
	call void  @_ZdlPv (i8*  %1) nounwind, !dbg !6708
	ret void, !dbg !6709
}

%struct._ZN9__gnu_cxx13new_allocatorIdEE = type <{ [1 x i8]}> 

define linkonce_odr void @_ZN9__gnu_cxx13new_allocatorIdE10deallocateEPdm(%struct._ZN9__gnu_cxx13new_allocatorIdEE* %_T42566248_52717.arg, double* %__p.arg, i64 %_T42566840_52717.arg) #0 inlinehint !dbg !6717 {
L.entry:
	%_T42566248_52717.addr = alloca %struct._ZN9__gnu_cxx13new_allocatorIdEE*, align 8
	%__p.addr = alloca double*, align 8
	%_T42566840_52717.addr = alloca i64, align 8

	call void @llvm.dbg.declare (metadata %struct._ZN9__gnu_cxx13new_allocatorIdEE** %_T42566248_52717.addr, metadata !6721, metadata !4081), !dbg !6718
	store %struct._ZN9__gnu_cxx13new_allocatorIdEE* %_T42566248_52717.arg, %struct._ZN9__gnu_cxx13new_allocatorIdEE** %_T42566248_52717.addr, align 8, !tbaa !4096
	call void @llvm.dbg.declare (metadata %struct._ZN9__gnu_cxx13new_allocatorIdEE** %_T42566248_52717.addr, metadata !6722, metadata !4081), !dbg !6718
	call void @llvm.dbg.declare (metadata double** %__p.addr, metadata !6723, metadata !4081), !dbg !6718
	store double* %__p.arg, double** %__p.addr, align 8, !tbaa !4096
	call void @llvm.dbg.declare (metadata double** %__p.addr, metadata !6724, metadata !4081), !dbg !6718
	call void @llvm.dbg.declare (metadata i64* %_T42566840_52717.addr, metadata !6725, metadata !4081), !dbg !6718
	store i64 %_T42566840_52717.arg, i64* %_T42566840_52717.addr, align 8, !tbaa !4097
	call void @llvm.dbg.declare (metadata i64* %_T42566840_52717.addr, metadata !6726, metadata !4081), !dbg !6718
	%0 = load double*, double** %__p.addr, align 8, !tbaa !4096, !dbg !6727
	%1 = bitcast double*  %0 to i8*, !dbg !6727
	call void  @_ZdlPv (i8*  %1) nounwind, !dbg !6727
	ret void, !dbg !6728
}

%struct._ZN9__gnu_cxx13new_allocatorIN5vmesh14MeshParametersEEE = type <{ [1 x i8]}> 

define linkonce_odr void @_ZN9__gnu_cxx13new_allocatorIN5vmesh14MeshParametersEE10deallocateEPS2_m(%struct._ZN9__gnu_cxx13new_allocatorIN5vmesh14MeshParametersEEE* %_T42566248_52720.arg, %struct._ZN5vmesh14MeshParametersE* %__p.arg, i64 %_T42566840_52720.arg) #0 inlinehint !dbg !6736 {
L.entry:
	%_T42566248_52720.addr = alloca %struct._ZN9__gnu_cxx13new_allocatorIN5vmesh14MeshParametersEEE*, align 8
	%__p.addr = alloca %struct._ZN5vmesh14MeshParametersE*, align 8
	%_T42566840_52720.addr = alloca i64, align 8

	call void @llvm.dbg.declare (metadata %struct._ZN9__gnu_cxx13new_allocatorIN5vmesh14MeshParametersEEE** %_T42566248_52720.addr, metadata !6740, metadata !4081), !dbg !6737
	store %struct._ZN9__gnu_cxx13new_allocatorIN5vmesh14MeshParametersEEE* %_T42566248_52720.arg, %struct._ZN9__gnu_cxx13new_allocatorIN5vmesh14MeshParametersEEE** %_T42566248_52720.addr, align 8, !tbaa !4096
	call void @llvm.dbg.declare (metadata %struct._ZN9__gnu_cxx13new_allocatorIN5vmesh14MeshParametersEEE** %_T42566248_52720.addr, metadata !6741, metadata !4081), !dbg !6737
	call void @llvm.dbg.declare (metadata %struct._ZN5vmesh14MeshParametersE** %__p.addr, metadata !6742, metadata !4081), !dbg !6737
	store %struct._ZN5vmesh14MeshParametersE* %__p.arg, %struct._ZN5vmesh14MeshParametersE** %__p.addr, align 8, !tbaa !4096
	call void @llvm.dbg.declare (metadata %struct._ZN5vmesh14MeshParametersE** %__p.addr, metadata !6743, metadata !4081), !dbg !6737
	call void @llvm.dbg.declare (metadata i64* %_T42566840_52720.addr, metadata !6744, metadata !4081), !dbg !6737
	store i64 %_T42566840_52720.arg, i64* %_T42566840_52720.addr, align 8, !tbaa !4097
	call void @llvm.dbg.declare (metadata i64* %_T42566840_52720.addr, metadata !6745, metadata !4081), !dbg !6737
	%0 = load %struct._ZN5vmesh14MeshParametersE*, %struct._ZN5vmesh14MeshParametersE** %__p.addr, align 8, !tbaa !4096, !dbg !6746
	%1 = bitcast %struct._ZN5vmesh14MeshParametersE*  %0 to i8*, !dbg !6746
	call void  @_ZdlPv (i8*  %1) nounwind, !dbg !6746
	ret void, !dbg !6747
}
define linkonce_odr void @_ZN5vmesh14MeshParametersD1Ev(%struct._ZN5vmesh14MeshParametersE* %_T42566248_52721.arg) #0 inlinehint !dbg !6753 {
L.entry:
	%_T42566248_52721.addr = alloca %struct._ZN5vmesh14MeshParametersE*, align 8
	%..inline.addr = alloca %struct._ZSt12_Vector_baseIjSaIjEE*, align 8
	%..inline.addr.1 = alloca i32*, align 8
	%..inline.addr.2 = alloca %struct._ZSt12_Vector_baseIdSaIdEE*, align 8
	%..inline.addr.3 = alloca double*, align 8
	%..inline.addr.4 = alloca %struct._ZSt12_Vector_baseIdSaIdEE*, align 8
	%..inline.addr.5 = alloca double*, align 8
	%..inline.addr.6 = alloca %struct._ZSt12_Vector_baseIjSaIjEE*, align 8
	%..inline.addr.7 = alloca i32*, align 8
	%..inline.addr.8 = alloca i8*, align 8

	call void @llvm.dbg.declare (metadata %struct._ZN5vmesh14MeshParametersE** %_T42566248_52721.addr, metadata !7017, metadata !4081), !dbg !6754
	store %struct._ZN5vmesh14MeshParametersE* %_T42566248_52721.arg, %struct._ZN5vmesh14MeshParametersE** %_T42566248_52721.addr, align 8, !tbaa !4096
	call void @llvm.dbg.declare (metadata %struct._ZN5vmesh14MeshParametersE** %_T42566248_52721.addr, metadata !7018, metadata !4081), !dbg !6754
	%0 = load %struct._ZN5vmesh14MeshParametersE*, %struct._ZN5vmesh14MeshParametersE** %_T42566248_52721.addr, align 8, !tbaa !4096, !dbg !7019
	%1 = bitcast %struct._ZN5vmesh14MeshParametersE*  %0 to i8*, !dbg !7019
	%2 = getelementptr i8, i8*  %1, i64 312, !dbg !7019
	%3 = bitcast %struct._ZSt12_Vector_baseIjSaIjEE** %..inline.addr to i8**, !dbg !7019
	store i8*  %2, i8**  %3, align 8, !tbaa !4096, !dbg !7019
	%4 = load %struct._ZSt12_Vector_baseIjSaIjEE*, %struct._ZSt12_Vector_baseIjSaIjEE** %..inline.addr, align 8, !tbaa !4096, !dbg !7019
	%5 = bitcast %struct._ZSt12_Vector_baseIjSaIjEE*  %4 to i8**, !dbg !7019
	%6 = load i8*, i8**  %5, align 8, !tbaa !4096, !dbg !7019
	%7 = icmp eq i8*  %6,  null, !dbg !7019
	br i1  %7, label %L..inline.70722, label %L.B1320, !dbg !7019
L.B1320:
	%8 = bitcast %struct._ZSt12_Vector_baseIjSaIjEE*  %4 to i8**, !dbg !7019
	%9 = load i8*, i8**  %8, align 8, !tbaa !4096, !dbg !7019
	%10 = bitcast i32** %..inline.addr.1 to i8**, !dbg !7019
	store i8*  %9, i8**  %10, align 8, !tbaa !4096, !dbg !7019
	%11 = load i32*, i32** %..inline.addr.1, align 8, !tbaa !4096, !dbg !7019
	%12 = bitcast i32*  %11 to i8*, !dbg !7019
	call void  @_ZdlPv (i8*  %12) nounwind, !dbg !7019
	br label %L..inline.70722
L..inline.70722:
	%13 = load %struct._ZN5vmesh14MeshParametersE*, %struct._ZN5vmesh14MeshParametersE** %_T42566248_52721.addr, align 8, !tbaa !4096, !dbg !7019
	%14 = bitcast %struct._ZN5vmesh14MeshParametersE*  %13 to i8*, !dbg !7019
	%15 = getelementptr i8, i8*  %14, i64 288, !dbg !7019
	%16 = bitcast %struct._ZSt12_Vector_baseIdSaIdEE** %..inline.addr.2 to i8**, !dbg !7019
	store i8*  %15, i8**  %16, align 8, !tbaa !4096, !dbg !7019
	%17 = load %struct._ZSt12_Vector_baseIdSaIdEE*, %struct._ZSt12_Vector_baseIdSaIdEE** %..inline.addr.2, align 8, !tbaa !4096, !dbg !7019
	%18 = bitcast %struct._ZSt12_Vector_baseIdSaIdEE*  %17 to i8**, !dbg !7019
	%19 = load i8*, i8**  %18, align 8, !tbaa !4096, !dbg !7019
	%20 = icmp eq i8*  %19,  null, !dbg !7019
	br i1  %20, label %L..inline.70800, label %L.B1321, !dbg !7019
L.B1321:
	%21 = bitcast %struct._ZSt12_Vector_baseIdSaIdEE*  %17 to i8**, !dbg !7019
	%22 = load i8*, i8**  %21, align 8, !tbaa !4096, !dbg !7019
	%23 = bitcast double** %..inline.addr.3 to i8**, !dbg !7019
	store i8*  %22, i8**  %23, align 8, !tbaa !4096, !dbg !7019
	%24 = load double*, double** %..inline.addr.3, align 8, !tbaa !4096, !dbg !7019
	%25 = bitcast double*  %24 to i8*, !dbg !7019
	call void  @_ZdlPv (i8*  %25) nounwind, !dbg !7019
	br label %L..inline.70800
L..inline.70800:
	%26 = load %struct._ZN5vmesh14MeshParametersE*, %struct._ZN5vmesh14MeshParametersE** %_T42566248_52721.addr, align 8, !tbaa !4096, !dbg !7019
	%27 = bitcast %struct._ZN5vmesh14MeshParametersE*  %26 to i8*, !dbg !7019
	%28 = getelementptr i8, i8*  %27, i64 264, !dbg !7019
	%29 = bitcast %struct._ZSt12_Vector_baseIdSaIdEE** %..inline.addr.4 to i8**, !dbg !7019
	store i8*  %28, i8**  %29, align 8, !tbaa !4096, !dbg !7019
	%30 = load %struct._ZSt12_Vector_baseIdSaIdEE*, %struct._ZSt12_Vector_baseIdSaIdEE** %..inline.addr.4, align 8, !tbaa !4096, !dbg !7019
	%31 = bitcast %struct._ZSt12_Vector_baseIdSaIdEE*  %30 to i8**, !dbg !7019
	%32 = load i8*, i8**  %31, align 8, !tbaa !4096, !dbg !7019
	%33 = icmp eq i8*  %32,  null, !dbg !7019
	br i1  %33, label %L..inline.70878, label %L.B1322, !dbg !7019
L.B1322:
	%34 = bitcast %struct._ZSt12_Vector_baseIdSaIdEE*  %30 to i8**, !dbg !7019
	%35 = load i8*, i8**  %34, align 8, !tbaa !4096, !dbg !7019
	%36 = bitcast double** %..inline.addr.5 to i8**, !dbg !7019
	store i8*  %35, i8**  %36, align 8, !tbaa !4096, !dbg !7019
	%37 = load double*, double** %..inline.addr.5, align 8, !tbaa !4096, !dbg !7019
	%38 = bitcast double*  %37 to i8*, !dbg !7019
	call void  @_ZdlPv (i8*  %38) nounwind, !dbg !7019
	br label %L..inline.70878
L..inline.70878:
	%39 = load %struct._ZN5vmesh14MeshParametersE*, %struct._ZN5vmesh14MeshParametersE** %_T42566248_52721.addr, align 8, !tbaa !4096, !dbg !7019
	%40 = bitcast %struct._ZN5vmesh14MeshParametersE*  %39 to i8*, !dbg !7019
	%41 = getelementptr i8, i8*  %40, i64 240, !dbg !7019
	%42 = bitcast %struct._ZSt12_Vector_baseIjSaIjEE** %..inline.addr.6 to i8**, !dbg !7019
	store i8*  %41, i8**  %42, align 8, !tbaa !4096, !dbg !7019
	%43 = load %struct._ZSt12_Vector_baseIjSaIjEE*, %struct._ZSt12_Vector_baseIjSaIjEE** %..inline.addr.6, align 8, !tbaa !4096, !dbg !7019
	%44 = bitcast %struct._ZSt12_Vector_baseIjSaIjEE*  %43 to i8**, !dbg !7019
	%45 = load i8*, i8**  %44, align 8, !tbaa !4096, !dbg !7019
	%46 = icmp eq i8*  %45,  null, !dbg !7019
	br i1  %46, label %L..inline.70956, label %L.B1323, !dbg !7019
L.B1323:
	%47 = bitcast %struct._ZSt12_Vector_baseIjSaIjEE*  %43 to i8**, !dbg !7019
	%48 = load i8*, i8**  %47, align 8, !tbaa !4096, !dbg !7019
	%49 = bitcast i32** %..inline.addr.7 to i8**, !dbg !7019
	store i8*  %48, i8**  %49, align 8, !tbaa !4096, !dbg !7019
	%50 = load i32*, i32** %..inline.addr.7, align 8, !tbaa !4096, !dbg !7019
	%51 = bitcast i32*  %50 to i8*, !dbg !7019
	call void  @_ZdlPv (i8*  %51) nounwind, !dbg !7019
	br label %L..inline.70956
L..inline.70956:
	%52 = load %struct._ZN5vmesh14MeshParametersE*, %struct._ZN5vmesh14MeshParametersE** %_T42566248_52721.addr, align 8, !tbaa !4096, !dbg !7020
	%53 = bitcast %struct._ZN5vmesh14MeshParametersE*  %52 to i8**, !dbg !7020
	%54 = load i8*, i8**  %53, align 8, !tbaa !4096, !dbg !7020
	%55 = bitcast %struct._ZN5vmesh14MeshParametersE*  %52 to i8*, !dbg !7020
	%56 = getelementptr i8, i8*  %55, i64 16, !dbg !7020
	%57 = icmp eq i8*  %54,  %56, !dbg !7020
	br i1  %57, label %L..inline.71037, label %L.B1324, !dbg !7020
L.B1324:
	%58 = bitcast %struct._ZN5vmesh14MeshParametersE*  %52 to i8**, !dbg !7020
	%59 = load i8*, i8**  %58, align 8, !tbaa !4096, !dbg !7020
	call void  @_ZdlPv (i8*  %59) nounwind, !dbg !7020
	br label %L..inline.71037
L..inline.71037:
	ret void, !dbg !7020
}
define linkonce_odr void @_ZN5vmesh14MeshParametersD2Ev(%struct._ZN5vmesh14MeshParametersE* %_T42566248_52722.arg) #0 inlinehint !dbg !7022 {
L.entry:
	%_T42566248_52722.addr = alloca %struct._ZN5vmesh14MeshParametersE*, align 8

	store %struct._ZN5vmesh14MeshParametersE* %_T42566248_52722.arg, %struct._ZN5vmesh14MeshParametersE** %_T42566248_52722.addr, align 8, !tbaa !4096
	%0 = load %struct._ZN5vmesh14MeshParametersE*, %struct._ZN5vmesh14MeshParametersE** %_T42566248_52722.addr, align 8, !tbaa !4096, !dbg !7026
	call void  @_ZN5vmesh14MeshParametersD1Ev (%struct._ZN5vmesh14MeshParametersE*  %0) nounwind, !dbg !7026
	ret void, !dbg !7026
}

%struct._ZN3MPI8DatatypeE = type <{ i32 (...)* (...)*, %struct.ompi_datatype_t*}> 

define linkonce_odr void @_ZN3MPI8DatatypeD1Ev(%struct._ZN3MPI8DatatypeE* %_T42566248_52723.arg) #0 inlinehint !dbg !7030 {
L.entry:
	%_T42566248_52723.addr = alloca %struct._ZN3MPI8DatatypeE*, align 8

	call void @llvm.dbg.declare (metadata %struct._ZN3MPI8DatatypeE** %_T42566248_52723.addr, metadata !7034, metadata !4081), !dbg !7031
	store %struct._ZN3MPI8DatatypeE* %_T42566248_52723.arg, %struct._ZN3MPI8DatatypeE** %_T42566248_52723.addr, align 8, !tbaa !4096
	call void @llvm.dbg.declare (metadata %struct._ZN3MPI8DatatypeE** %_T42566248_52723.addr, metadata !7035, metadata !4081), !dbg !7031
	%0 = bitcast [32 x i32 (...)* (...)*]* @_ZTVN3MPI8DatatypeE to i8*, !dbg !7036
	%1 = getelementptr i8, i8*  %0, i64 16, !dbg !7036
	%2 = load %struct._ZN3MPI8DatatypeE*, %struct._ZN3MPI8DatatypeE** %_T42566248_52723.addr, align 8, !tbaa !4096, !dbg !7036
	%3 = bitcast %struct._ZN3MPI8DatatypeE*  %2 to i8**, !dbg !7036
	store i8*  %1, i8**  %3, align 8, !tbaa !4096, !dbg !7036
	ret void, !dbg !7036
}
define linkonce_odr void @_ZN3MPI8DatatypeD0Ev(%struct._ZN3MPI8DatatypeE* %_T42566248_52724.arg) #0 inlinehint !dbg !7041 {
L.entry:
	%_T42566248_52724.addr = alloca %struct._ZN3MPI8DatatypeE*, align 8

	store %struct._ZN3MPI8DatatypeE* %_T42566248_52724.arg, %struct._ZN3MPI8DatatypeE** %_T42566248_52724.addr, align 8, !tbaa !4096
	%0 = bitcast [32 x i32 (...)* (...)*]* @_ZTVN3MPI8DatatypeE to i8*, !dbg !7049
	%1 = getelementptr i8, i8*  %0, i64 16, !dbg !7049
	%2 = load %struct._ZN3MPI8DatatypeE*, %struct._ZN3MPI8DatatypeE** %_T42566248_52724.addr, align 8, !tbaa !4096, !dbg !7049
	%3 = bitcast %struct._ZN3MPI8DatatypeE*  %2 to i8**, !dbg !7049
	store i8*  %1, i8**  %3, align 8, !tbaa !4096, !dbg !7049
	%4 = bitcast %struct._ZN3MPI8DatatypeE*  %2 to i8*, !dbg !7049
	call void  @_ZdlPvm (i8*  %4, i64 16) nounwind, !dbg !7049
	ret void, !dbg !7049
}
define linkonce_odr void @_ZN3MPI8DatatypeD2Ev(%struct._ZN3MPI8DatatypeE* %_T42566248_52725.arg) #0 inlinehint !dbg !7051 {
L.entry:
	%_T42566248_52725.addr = alloca %struct._ZN3MPI8DatatypeE*, align 8

	store %struct._ZN3MPI8DatatypeE* %_T42566248_52725.arg, %struct._ZN3MPI8DatatypeE** %_T42566248_52725.addr, align 8, !tbaa !4096
	%0 = bitcast [32 x i32 (...)* (...)*]* @_ZTVN3MPI8DatatypeE to i8*, !dbg !7059
	%1 = getelementptr i8, i8*  %0, i64 16, !dbg !7059
	%2 = load %struct._ZN3MPI8DatatypeE*, %struct._ZN3MPI8DatatypeE** %_T42566248_52725.addr, align 8, !tbaa !4096, !dbg !7059
	%3 = bitcast %struct._ZN3MPI8DatatypeE*  %2 to i8**, !dbg !7059
	store i8*  %1, i8**  %3, align 8, !tbaa !4096, !dbg !7059
	ret void, !dbg !7059
}
define linkonce_odr void @_ZN3MPI8DatatypeC1EP15ompi_datatype_t(%struct._ZN3MPI8DatatypeE* %_T42566248_52727.arg, %struct.ompi_datatype_t* %i.arg) #0 inlinehint !dbg !7063 {
L.entry:
	%_T42566248_52727.addr = alloca %struct._ZN3MPI8DatatypeE*, align 8
	%i.addr = alloca %struct.ompi_datatype_t*, align 8

	call void @llvm.dbg.declare (metadata %struct._ZN3MPI8DatatypeE** %_T42566248_52727.addr, metadata !7067, metadata !4081), !dbg !7064
	store %struct._ZN3MPI8DatatypeE* %_T42566248_52727.arg, %struct._ZN3MPI8DatatypeE** %_T42566248_52727.addr, align 8, !tbaa !4096
	call void @llvm.dbg.declare (metadata %struct._ZN3MPI8DatatypeE** %_T42566248_52727.addr, metadata !7068, metadata !4081), !dbg !7064
	call void @llvm.dbg.declare (metadata %struct.ompi_datatype_t** %i.addr, metadata !7069, metadata !4081), !dbg !7064
	store %struct.ompi_datatype_t* %i.arg, %struct.ompi_datatype_t** %i.addr, align 8, !tbaa !4096
	call void @llvm.dbg.declare (metadata %struct.ompi_datatype_t** %i.addr, metadata !7070, metadata !4081), !dbg !7064
	%0 = bitcast [32 x i32 (...)* (...)*]* @_ZTVN3MPI8DatatypeE to i8*, !dbg !7071
	%1 = getelementptr i8, i8*  %0, i64 16, !dbg !7071
	%2 = load %struct._ZN3MPI8DatatypeE*, %struct._ZN3MPI8DatatypeE** %_T42566248_52727.addr, align 8, !tbaa !4096, !dbg !7071
	%3 = bitcast %struct._ZN3MPI8DatatypeE*  %2 to i8**, !dbg !7071
	store i8*  %1, i8**  %3, align 8, !tbaa !4096, !dbg !7071
	%4 = load %struct.ompi_datatype_t*, %struct.ompi_datatype_t** %i.addr, align 8, !tbaa !4096, !dbg !7071
	%5 = bitcast %struct.ompi_datatype_t*  %4 to i8*, !dbg !7071
	%6 = bitcast %struct._ZN3MPI8DatatypeE*  %2 to i8*, !dbg !7071
	%7 = getelementptr i8, i8*  %6, i64 8, !dbg !7071
	%8 = bitcast i8*  %7 to i8**, !dbg !7071
	store i8*  %5, i8**  %8, align 8, !tbaa !4096, !dbg !7071
	ret void, !dbg !7071
}
define linkonce_odr void @_ZN3MPI8DatatypeC2EP15ompi_datatype_t(%struct._ZN3MPI8DatatypeE* %_T42566248_52729.arg, %struct.ompi_datatype_t* %_T42566544_52729.arg) #0 inlinehint !dbg !7073 {
L.entry:
	%_T42566248_52729.addr = alloca %struct._ZN3MPI8DatatypeE*, align 8
	%_T42566544_52729.addr = alloca %struct.ompi_datatype_t*, align 8
	%..inline.addr = alloca %struct._ZN3MPI8DatatypeE*, align 8
	%..inline.addr.1 = alloca %struct.ompi_datatype_t*, align 8

	store %struct._ZN3MPI8DatatypeE* %_T42566248_52729.arg, %struct._ZN3MPI8DatatypeE** %_T42566248_52729.addr, align 8, !tbaa !4096
	store %struct.ompi_datatype_t* %_T42566544_52729.arg, %struct.ompi_datatype_t** %_T42566544_52729.addr, align 8, !tbaa !4096
	%0 = load %struct._ZN3MPI8DatatypeE*, %struct._ZN3MPI8DatatypeE** %_T42566248_52729.addr, align 8, !tbaa !4096, !dbg !7081
	%1 = bitcast %struct._ZN3MPI8DatatypeE*  %0 to i8*, !dbg !7081
	%2 = bitcast %struct._ZN3MPI8DatatypeE** %..inline.addr to i8**, !dbg !7081
	store i8*  %1, i8**  %2, align 8, !tbaa !4096, !dbg !7081
	%3 = load %struct.ompi_datatype_t*, %struct.ompi_datatype_t** %_T42566544_52729.addr, align 8, !tbaa !4096, !dbg !7081
	%4 = bitcast %struct.ompi_datatype_t*  %3 to i8*, !dbg !7081
	%5 = bitcast %struct.ompi_datatype_t** %..inline.addr.1 to i8**, !dbg !7081
	store i8*  %4, i8**  %5, align 8, !tbaa !4096, !dbg !7081
	%6 = bitcast [32 x i32 (...)* (...)*]* @_ZTVN3MPI8DatatypeE to i8*, !dbg !7081
	%7 = getelementptr i8, i8*  %6, i64 16, !dbg !7081
	%8 = load %struct._ZN3MPI8DatatypeE*, %struct._ZN3MPI8DatatypeE** %..inline.addr, align 8, !tbaa !4096, !dbg !7081
	%9 = bitcast %struct._ZN3MPI8DatatypeE*  %8 to i8**, !dbg !7081
	store i8*  %7, i8**  %9, align 8, !tbaa !4096, !dbg !7081
	%10 = load %struct.ompi_datatype_t*, %struct.ompi_datatype_t** %..inline.addr.1, align 8, !tbaa !4096, !dbg !7081
	%11 = bitcast %struct.ompi_datatype_t*  %10 to i8*, !dbg !7081
	%12 = bitcast %struct._ZN3MPI8DatatypeE*  %8 to i8*, !dbg !7081
	%13 = getelementptr i8, i8*  %12, i64 8, !dbg !7081
	%14 = bitcast i8*  %13 to i8**, !dbg !7081
	store i8*  %11, i8**  %14, align 8, !tbaa !4096, !dbg !7081
	ret void, !dbg !7081
}
define linkonce_odr %struct._ZN3MPI8DatatypeE* @_ZN3MPI8DatatypeaSERKP15ompi_datatype_t(%struct._ZN3MPI8DatatypeE* %_T42566248_52730.arg, %struct.ompi_datatype_t** %i.arg) #0 inlinehint !dbg !7089 {
L.entry:
	%_T42566248_52730.addr = alloca %struct._ZN3MPI8DatatypeE*, align 8
	%i.addr = alloca %struct.ompi_datatype_t**, align 8

	call void @llvm.dbg.declare (metadata %struct._ZN3MPI8DatatypeE** %_T42566248_52730.addr, metadata !7093, metadata !4081), !dbg !7090
	store %struct._ZN3MPI8DatatypeE* %_T42566248_52730.arg, %struct._ZN3MPI8DatatypeE** %_T42566248_52730.addr, align 8, !tbaa !4096
	call void @llvm.dbg.declare (metadata %struct._ZN3MPI8DatatypeE** %_T42566248_52730.addr, metadata !7094, metadata !4081), !dbg !7090
	call void @llvm.dbg.declare (metadata %struct.ompi_datatype_t*** %i.addr, metadata !7095, metadata !4081), !dbg !7090
	store %struct.ompi_datatype_t** %i.arg, %struct.ompi_datatype_t*** %i.addr, align 8, !tbaa !4096
	call void @llvm.dbg.declare (metadata %struct.ompi_datatype_t*** %i.addr, metadata !7096, metadata !4081), !dbg !7090
	%0 = load %struct.ompi_datatype_t**, %struct.ompi_datatype_t*** %i.addr, align 8, !tbaa !4096, !dbg !7097
	%1 = bitcast %struct.ompi_datatype_t**  %0 to i8**, !dbg !7097
	%2 = load i8*, i8**  %1, align 8, !tbaa !4096, !dbg !7097
	%3 = load %struct._ZN3MPI8DatatypeE*, %struct._ZN3MPI8DatatypeE** %_T42566248_52730.addr, align 8, !tbaa !4096, !dbg !7097
	%4 = bitcast %struct._ZN3MPI8DatatypeE*  %3 to i8*, !dbg !7097
	%5 = getelementptr i8, i8*  %4, i64 8, !dbg !7097
	%6 = bitcast i8*  %5 to i8**, !dbg !7097
	store i8*  %2, i8**  %6, align 8, !tbaa !4096, !dbg !7097
	ret %struct._ZN3MPI8DatatypeE*  %3, !dbg !7097
}
define linkonce_odr %struct.ompi_datatype_t* @_ZNK3MPI8DatatypecvP15ompi_datatype_tEv(%struct._ZN3MPI8DatatypeE* %_T42566248_52732.arg) #0 inlinehint !dbg !7101 {
L.entry:
	%_T42566248_52732.addr = alloca %struct._ZN3MPI8DatatypeE*, align 8

	call void @llvm.dbg.declare (metadata %struct._ZN3MPI8DatatypeE** %_T42566248_52732.addr, metadata !7105, metadata !4081), !dbg !7102
	store %struct._ZN3MPI8DatatypeE* %_T42566248_52732.arg, %struct._ZN3MPI8DatatypeE** %_T42566248_52732.addr, align 8, !tbaa !4096
	call void @llvm.dbg.declare (metadata %struct._ZN3MPI8DatatypeE** %_T42566248_52732.addr, metadata !7106, metadata !4081), !dbg !7102
	%0 = load %struct._ZN3MPI8DatatypeE*, %struct._ZN3MPI8DatatypeE** %_T42566248_52732.addr, align 8, !tbaa !4096, !dbg !7107
	%1 = bitcast %struct._ZN3MPI8DatatypeE*  %0 to i8*, !dbg !7107
	%2 = getelementptr i8, i8*  %1, i64 8, !dbg !7107
	%3 = bitcast i8*  %2 to %struct.ompi_datatype_t**, !dbg !7107
	%4 = load %struct.ompi_datatype_t*, %struct.ompi_datatype_t**  %3, align 8, !tbaa !4096, !dbg !7107
	ret %struct.ompi_datatype_t*  %4, !dbg !7107
}
define linkonce_odr void @_ZNK3MPI8Datatype17Create_contiguousEi(%struct._ZN3MPI8DatatypeE* sret %_T42566248_52733.arg, %struct._ZN3MPI8DatatypeE* %_T42566544_52733.arg, i32 signext %count.arg) #0 inlinehint !dbg !7111 {
L.entry:
	%_T42566248_52733.addr = alloca %struct._ZN3MPI8DatatypeE*, align 8
	%_T42566544_52733.addr = alloca %struct._ZN3MPI8DatatypeE*, align 8
	%count.addr = alloca i32, align 4
	%newtype.addr = alloca %struct.ompi_datatype_t*, align 8
	%..inline.addr = alloca %struct._ZN3MPI8DatatypeE*, align 8
	%..inline.addr.1 = alloca %struct.ompi_datatype_t*, align 8

	store %struct._ZN3MPI8DatatypeE* %_T42566248_52733.arg, %struct._ZN3MPI8DatatypeE** %_T42566248_52733.addr, align 8, !tbaa !4096
	call void @llvm.dbg.declare (metadata %struct._ZN3MPI8DatatypeE** %_T42566544_52733.addr, metadata !7119, metadata !4081), !dbg !7112
	store %struct._ZN3MPI8DatatypeE* %_T42566544_52733.arg, %struct._ZN3MPI8DatatypeE** %_T42566544_52733.addr, align 8, !tbaa !4096
	call void @llvm.dbg.declare (metadata %struct._ZN3MPI8DatatypeE** %_T42566544_52733.addr, metadata !7120, metadata !4081), !dbg !7112
	call void @llvm.dbg.declare (metadata i32* %count.addr, metadata !7121, metadata !4081), !dbg !7112
	store i32 %count.arg, i32* %count.addr, align 4, !tbaa !4097
	call void @llvm.dbg.declare (metadata i32* %count.addr, metadata !7122, metadata !4081), !dbg !7112
	%0 = load i32, i32* %count.addr, align 4, !tbaa !4101, !dbg !7123
	%1 = load %struct._ZN3MPI8DatatypeE*, %struct._ZN3MPI8DatatypeE** %_T42566544_52733.addr, align 8, !tbaa !4096, !dbg !7123
	%2 = bitcast %struct._ZN3MPI8DatatypeE*  %1 to i8*, !dbg !7123
	%3 = getelementptr i8, i8*  %2, i64 8, !dbg !7123
	%4 = bitcast i8*  %3 to %struct.ompi_datatype_t**, !dbg !7123
	%5 = load %struct.ompi_datatype_t*, %struct.ompi_datatype_t**  %4, align 8, !tbaa !4096, !dbg !7123
	call void @llvm.dbg.declare (metadata %struct.ompi_datatype_t** %newtype.addr, metadata !7124, metadata !4081), !dbg !7112
	%6 = call i32  @MPI_Type_contiguous (i32  %0, %struct.ompi_datatype_t*  %5, %struct.ompi_datatype_t** %newtype.addr) nounwind, !dbg !7123
	%7 = load %struct._ZN3MPI8DatatypeE*, %struct._ZN3MPI8DatatypeE** %_T42566248_52733.addr, align 8, !tbaa !4096, !dbg !7125
	%8 = bitcast %struct._ZN3MPI8DatatypeE*  %7 to i8*, !dbg !7125
	%9 = bitcast %struct._ZN3MPI8DatatypeE** %..inline.addr to i8**, !dbg !7125
	store i8*  %8, i8**  %9, align 8, !tbaa !4096, !dbg !7125
	%10 = load %struct.ompi_datatype_t*, %struct.ompi_datatype_t** %newtype.addr, align 8, !tbaa !4096, !dbg !7125
	%11 = bitcast %struct.ompi_datatype_t*  %10 to i8*, !dbg !7125
	%12 = bitcast %struct.ompi_datatype_t** %..inline.addr.1 to i8**, !dbg !7125
	store i8*  %11, i8**  %12, align 8, !tbaa !4096, !dbg !7125
	%13 = bitcast [32 x i32 (...)* (...)*]* @_ZTVN3MPI8DatatypeE to i8*, !dbg !7125
	%14 = getelementptr i8, i8*  %13, i64 16, !dbg !7125
	%15 = load %struct._ZN3MPI8DatatypeE*, %struct._ZN3MPI8DatatypeE** %..inline.addr, align 8, !tbaa !4096, !dbg !7125
	%16 = bitcast %struct._ZN3MPI8DatatypeE*  %15 to i8**, !dbg !7125
	store i8*  %14, i8**  %16, align 8, !tbaa !4096, !dbg !7125
	%17 = load %struct.ompi_datatype_t*, %struct.ompi_datatype_t** %..inline.addr.1, align 8, !tbaa !4096, !dbg !7126
	%18 = bitcast %struct.ompi_datatype_t*  %17 to i8*, !dbg !7126
	%19 = bitcast %struct._ZN3MPI8DatatypeE*  %15 to i8*, !dbg !7126
	%20 = getelementptr i8, i8*  %19, i64 8, !dbg !7126
	%21 = bitcast i8*  %20 to i8**, !dbg !7126
	store i8*  %18, i8**  %21, align 8, !tbaa !4096, !dbg !7126
	ret void, !dbg !7127
}
define linkonce_odr void @_ZNK3MPI8Datatype13Create_vectorEiii(%struct._ZN3MPI8DatatypeE* sret %_T42566248_52734.arg, %struct._ZN3MPI8DatatypeE* %_T42566544_52734.arg, i32 signext %count.arg, i32 signext %blocklength.arg, i32 signext %stride.arg) #0 inlinehint !dbg !7129 {
L.entry:
	%_T42566248_52734.addr = alloca %struct._ZN3MPI8DatatypeE*, align 8
	%_T42566544_52734.addr = alloca %struct._ZN3MPI8DatatypeE*, align 8
	%count.addr = alloca i32, align 4
	%blocklength.addr = alloca i32, align 4
	%stride.addr = alloca i32, align 4
	%newtype.addr = alloca %struct.ompi_datatype_t*, align 8
	%..inline.addr = alloca %struct._ZN3MPI8DatatypeE*, align 8
	%..inline.addr.1 = alloca %struct.ompi_datatype_t*, align 8

	store %struct._ZN3MPI8DatatypeE* %_T42566248_52734.arg, %struct._ZN3MPI8DatatypeE** %_T42566248_52734.addr, align 8, !tbaa !4096
	call void @llvm.dbg.declare (metadata %struct._ZN3MPI8DatatypeE** %_T42566544_52734.addr, metadata !7137, metadata !4081), !dbg !7130
	store %struct._ZN3MPI8DatatypeE* %_T42566544_52734.arg, %struct._ZN3MPI8DatatypeE** %_T42566544_52734.addr, align 8, !tbaa !4096
	call void @llvm.dbg.declare (metadata %struct._ZN3MPI8DatatypeE** %_T42566544_52734.addr, metadata !7138, metadata !4081), !dbg !7130
