; ModuleID = 'projects/Template/Template.cpp'
target datalayout = "e-p:64:64-i64:64-f80:128-n8:16:32:64-S128"
target triple = "x86_64-pc-linux-gnu"
define internal void @pgCplus_compiled.() noinline {
L.entry:
	ret void
}


define linkonce_odr i8* @_ZnwmPv(i64 %_T33110608_48364.arg, i8* %__p.arg) #0 inlinehint !dbg !3647 {
L.entry:
	%_T33110608_48364.addr = alloca i64, align 8
	%__p.addr = alloca i8*, align 8

	call void @llvm.dbg.declare (metadata i64* %_T33110608_48364.addr, metadata !3651, metadata !3652), !dbg !3648
	store i64 %_T33110608_48364.arg, i64* %_T33110608_48364.addr, align 8, !tbaa !3659
	call void @llvm.dbg.declare (metadata i64* %_T33110608_48364.addr, metadata !3653, metadata !3652), !dbg !3648
	call void @llvm.dbg.declare (metadata i8** %__p.addr, metadata !3654, metadata !3652), !dbg !3648
	store i8* %__p.arg, i8** %__p.addr, align 8, !tbaa !3660
	call void @llvm.dbg.declare (metadata i8** %__p.addr, metadata !3655, metadata !3652), !dbg !3648
	%0 = load i8*, i8** %__p.addr, align 8, !tbaa !3660, !dbg !3656
	ret i8*  %0, !dbg !3656
}
define linkonce_odr void @_ZdlPvS_(i8* %_T33110608_48365.arg, i8* %_T33110904_48365.arg) #0 inlinehint !dbg !3664 {
L.entry:
	%_T33110608_48365.addr = alloca i8*, align 8
	%_T33110904_48365.addr = alloca i8*, align 8

	call void @llvm.dbg.declare (metadata i8** %_T33110608_48365.addr, metadata !3668, metadata !3652), !dbg !3665
	store i8* %_T33110608_48365.arg, i8** %_T33110608_48365.addr, align 8, !tbaa !3660
	call void @llvm.dbg.declare (metadata i8** %_T33110608_48365.addr, metadata !3669, metadata !3652), !dbg !3665
	call void @llvm.dbg.declare (metadata i8** %_T33110904_48365.addr, metadata !3670, metadata !3652), !dbg !3665
	store i8* %_T33110904_48365.arg, i8** %_T33110904_48365.addr, align 8, !tbaa !3660
	call void @llvm.dbg.declare (metadata i8** %_T33110904_48365.addr, metadata !3671, metadata !3652), !dbg !3665
	ret void, !dbg !3672
}

%struct.T3DFunction = type <{ i32 (...)* (...)*}> 

define linkonce_odr void @_ZN11T3DFunctionD1Ev(%struct.T3DFunction* %_T33110608_48748.arg) #0 inlinehint !dbg !3678 {
L.entry:
	%_T33110608_48748.addr = alloca %struct.T3DFunction*, align 8

	call void @llvm.dbg.declare (metadata %struct.T3DFunction** %_T33110608_48748.addr, metadata !3682, metadata !3652), !dbg !3679
	store %struct.T3DFunction* %_T33110608_48748.arg, %struct.T3DFunction** %_T33110608_48748.addr, align 8, !tbaa !3660
	call void @llvm.dbg.declare (metadata %struct.T3DFunction** %_T33110608_48748.addr, metadata !3683, metadata !3652), !dbg !3679
	%0 = bitcast [5 x i32 (...)* (...)*]* @_ZTV11T3DFunction to i8*, !dbg !3684
	%1 = getelementptr i8, i8*  %0, i64 16, !dbg !3684
	%2 = load %struct.T3DFunction*, %struct.T3DFunction** %_T33110608_48748.addr, align 8, !tbaa !3660, !dbg !3684
	%3 = bitcast %struct.T3DFunction*  %2 to i8**, !dbg !3684
	store i8*  %1, i8**  %3, align 8, !tbaa !3660, !dbg !3684
	ret void, !dbg !3684
}
define linkonce_odr void @_ZN11T3DFunctionD0Ev(%struct.T3DFunction* %_T33110608_48749.arg) #0 inlinehint !dbg !3689 {
L.entry:
	%_T33110608_48749.addr = alloca %struct.T3DFunction*, align 8

	store %struct.T3DFunction* %_T33110608_48749.arg, %struct.T3DFunction** %_T33110608_48749.addr, align 8, !tbaa !3660
	%0 = bitcast [5 x i32 (...)* (...)*]* @_ZTV11T3DFunction to i8*, !dbg !3697
	%1 = getelementptr i8, i8*  %0, i64 16, !dbg !3697
	%2 = load %struct.T3DFunction*, %struct.T3DFunction** %_T33110608_48749.addr, align 8, !tbaa !3660, !dbg !3697
	%3 = bitcast %struct.T3DFunction*  %2 to i8**, !dbg !3697
	store i8*  %1, i8**  %3, align 8, !tbaa !3660, !dbg !3697
	%4 = bitcast %struct.T3DFunction*  %2 to i8*, !dbg !3697
	call void  @_ZdlPvm (i8*  %4, i64 8) nounwind, !dbg !3697
	ret void, !dbg !3697
}
define linkonce_odr void @_ZN11T3DFunctionD2Ev(%struct.T3DFunction* %_T33110608_48750.arg) #0 inlinehint !dbg !3699 {
L.entry:
	%_T33110608_48750.addr = alloca %struct.T3DFunction*, align 8

	store %struct.T3DFunction* %_T33110608_48750.arg, %struct.T3DFunction** %_T33110608_48750.addr, align 8, !tbaa !3660
	%0 = bitcast [5 x i32 (...)* (...)*]* @_ZTV11T3DFunction to i8*, !dbg !3707
	%1 = getelementptr i8, i8*  %0, i64 16, !dbg !3707
	%2 = load %struct.T3DFunction*, %struct.T3DFunction** %_T33110608_48750.addr, align 8, !tbaa !3660, !dbg !3707
	%3 = bitcast %struct.T3DFunction*  %2 to i8**, !dbg !3707
	store i8*  %1, i8**  %3, align 8, !tbaa !3660, !dbg !3707
	ret void, !dbg !3707
}
define linkonce_odr void @_ZN11T3DFunctionC1Ev(%struct.T3DFunction* %_T33110608_48751.arg) #0 inlinehint !dbg !3709 {
L.entry:
	%_T33110608_48751.addr = alloca %struct.T3DFunction*, align 8

	call void @llvm.dbg.declare (metadata %struct.T3DFunction** %_T33110608_48751.addr, metadata !3713, metadata !3652), !dbg !3710
	store %struct.T3DFunction* %_T33110608_48751.arg, %struct.T3DFunction** %_T33110608_48751.addr, align 8, !tbaa !3660
	call void @llvm.dbg.declare (metadata %struct.T3DFunction** %_T33110608_48751.addr, metadata !3714, metadata !3652), !dbg !3710
	%0 = bitcast [5 x i32 (...)* (...)*]* @_ZTV11T3DFunction to i8*, !dbg !3715
	%1 = getelementptr i8, i8*  %0, i64 16, !dbg !3715
	%2 = load %struct.T3DFunction*, %struct.T3DFunction** %_T33110608_48751.addr, align 8, !tbaa !3660, !dbg !3715
	%3 = bitcast %struct.T3DFunction*  %2 to i8**, !dbg !3715
	store i8*  %1, i8**  %3, align 8, !tbaa !3660, !dbg !3715
	ret void, !dbg !3715
}
define linkonce_odr void @_ZN11T3DFunctionC2Ev(%struct.T3DFunction* %_T33110608_48752.arg) #0 inlinehint !dbg !3717 {
L.entry:
	%_T33110608_48752.addr = alloca %struct.T3DFunction*, align 8

	store %struct.T3DFunction* %_T33110608_48752.arg, %struct.T3DFunction** %_T33110608_48752.addr, align 8, !tbaa !3660
	%0 = bitcast [5 x i32 (...)* (...)*]* @_ZTV11T3DFunction to i8*, !dbg !3725
	%1 = getelementptr i8, i8*  %0, i64 16, !dbg !3725
	%2 = load %struct.T3DFunction*, %struct.T3DFunction** %_T33110608_48752.addr, align 8, !tbaa !3660, !dbg !3725
	%3 = bitcast %struct.T3DFunction*  %2 to i8**, !dbg !3725
	store i8*  %1, i8**  %3, align 8, !tbaa !3660, !dbg !3725
	ret void, !dbg !3725
}

%astruct.dt64 = type <{ i8*, i32}> 
%struct.FieldFunction = type <{ %struct.T3DFunction, i32, i32, i32, [4 x i8]}> 

define linkonce_odr void @_ZN13FieldFunctionC1Ev(%struct.FieldFunction* %_T33110608_48753.arg) #0 inlinehint personality i8* bitcast (i32 (...)* @__gxx_personality_v0 to i8*) !dbg !3732 {
L.entry:
	%_T33110608_48753.addr = alloca %struct.FieldFunction*, align 8

	call void @llvm.dbg.declare (metadata %struct.FieldFunction** %_T33110608_48753.addr, metadata !3788, metadata !3652), !dbg !3733
	store %struct.FieldFunction* %_T33110608_48753.arg, %struct.FieldFunction** %_T33110608_48753.addr, align 8, !tbaa !3660
	call void @llvm.dbg.declare (metadata %struct.FieldFunction** %_T33110608_48753.addr, metadata !3789, metadata !3652), !dbg !3733
	%0 = bitcast [5 x i32 (...)* (...)*]* @_ZTV11T3DFunction to i8*, !dbg !3790
	%1 = getelementptr i8, i8*  %0, i64 16, !dbg !3790
	%2 = load %struct.FieldFunction*, %struct.FieldFunction** %_T33110608_48753.addr, align 8, !tbaa !3660, !dbg !3790
	%3 = bitcast %struct.FieldFunction*  %2 to i8**, !dbg !3790
	store i8*  %1, i8**  %3, align 8, !tbaa !3660, !dbg !3790
	%4 = bitcast [5 x i32 (...)* (...)*]* @_ZTV13FieldFunction to i8*, !dbg !3790
	%5 = getelementptr i8, i8*  %4, i64 16, !dbg !3790
	store i8*  %5, i8**  %3, align 8, !tbaa !3660, !dbg !3790
	%6 = bitcast %struct.FieldFunction*  %2 to i8*, !dbg !3793
	%7 = getelementptr i8, i8*  %6, i64 8, !dbg !3793
	%8 = bitcast i8*  %7 to i32*, !dbg !3793
	store i32 0, i32*  %8, align 4, !tbaa !3659, !dbg !3793
	%9 = getelementptr i8, i8*  %6, i64 12, !dbg !3794
	%10 = bitcast i8*  %9 to i32*, !dbg !3794
	store i32 0, i32*  %10, align 4, !tbaa !3659, !dbg !3794
	%11 = getelementptr i8, i8*  %6, i64 16, !dbg !3795
	%12 = bitcast i8*  %11 to i32*, !dbg !3795
	store i32 0, i32*  %12, align 4, !tbaa !3659, !dbg !3795
	br label %L.R0007, !dbg !3795
L_T33111496_48753:
	%13 = landingpad %astruct.dt64
	cleanup
	br label %L.R0007
L.R0007:
	ret void, !dbg !3796
}
define linkonce_odr void @_ZN13FieldFunctionC2Ev(%struct.FieldFunction* %_T33110608_48754.arg) #0 inlinehint !dbg !3798 {
L.entry:
	%_T33110608_48754.addr = alloca %struct.FieldFunction*, align 8

	store %struct.FieldFunction* %_T33110608_48754.arg, %struct.FieldFunction** %_T33110608_48754.addr, align 8, !tbaa !3660
	%0 = load %struct.FieldFunction*, %struct.FieldFunction** %_T33110608_48754.addr, align 8, !tbaa !3660, !dbg !3802
	call void  @_ZN13FieldFunctionC1Ev (%struct.FieldFunction*  %0), !dbg !3802
	ret void, !dbg !3802
}
define linkonce_odr void @_ZN13FieldFunction12setComponentE10coordinate(%struct.FieldFunction* %_T33110608_48755.arg, i32 zeroext %fComponent.arg) #0 inlinehint !dbg !3806 {
L.entry:
	%_T33110608_48755.addr = alloca %struct.FieldFunction*, align 8
	%fComponent.addr = alloca i32, align 4

	call void @llvm.dbg.declare (metadata %struct.FieldFunction** %_T33110608_48755.addr, metadata !3810, metadata !3652), !dbg !3807
	store %struct.FieldFunction* %_T33110608_48755.arg, %struct.FieldFunction** %_T33110608_48755.addr, align 8, !tbaa !3660
	call void @llvm.dbg.declare (metadata %struct.FieldFunction** %_T33110608_48755.addr, metadata !3811, metadata !3652), !dbg !3807
	call void @llvm.dbg.declare (metadata i32* %fComponent.addr, metadata !3812, metadata !3652), !dbg !3807
	store i32 %fComponent.arg, i32* %fComponent.addr, align 4, !tbaa !3659
	call void @llvm.dbg.declare (metadata i32* %fComponent.addr, metadata !3813, metadata !3652), !dbg !3807
	%0 = load i32, i32* %fComponent.addr, align 4, !tbaa !3659, !dbg !3814
	%1 = load %struct.FieldFunction*, %struct.FieldFunction** %_T33110608_48755.addr, align 8, !tbaa !3660, !dbg !3814
	%2 = bitcast %struct.FieldFunction*  %1 to i8*, !dbg !3814
	%3 = getelementptr i8, i8*  %2, i64 8, !dbg !3814
	%4 = bitcast i8*  %3 to i32*, !dbg !3814
	store i32  %0, i32*  %4, align 4, !tbaa !3659, !dbg !3814
	ret void, !dbg !3814
}
define linkonce_odr void @_ZN13FieldFunction17setDerivComponentE10coordinate(%struct.FieldFunction* %_T33110608_48756.arg, i32 zeroext %dComponent.arg) #0 inlinehint !dbg !3816 {
L.entry:
	%_T33110608_48756.addr = alloca %struct.FieldFunction*, align 8
	%dComponent.addr = alloca i32, align 4

	call void @llvm.dbg.declare (metadata %struct.FieldFunction** %_T33110608_48756.addr, metadata !3820, metadata !3652), !dbg !3817
	store %struct.FieldFunction* %_T33110608_48756.arg, %struct.FieldFunction** %_T33110608_48756.addr, align 8, !tbaa !3660
	call void @llvm.dbg.declare (metadata %struct.FieldFunction** %_T33110608_48756.addr, metadata !3821, metadata !3652), !dbg !3817
	call void @llvm.dbg.declare (metadata i32* %dComponent.addr, metadata !3822, metadata !3652), !dbg !3817
	store i32 %dComponent.arg, i32* %dComponent.addr, align 4, !tbaa !3659
	call void @llvm.dbg.declare (metadata i32* %dComponent.addr, metadata !3823, metadata !3652), !dbg !3817
	%0 = load i32, i32* %dComponent.addr, align 4, !tbaa !3659, !dbg !3824
	%1 = load %struct.FieldFunction*, %struct.FieldFunction** %_T33110608_48756.addr, align 8, !tbaa !3660, !dbg !3824
	%2 = bitcast %struct.FieldFunction*  %1 to i8*, !dbg !3824
	%3 = getelementptr i8, i8*  %2, i64 12, !dbg !3824
	%4 = bitcast i8*  %3 to i32*, !dbg !3824
	store i32  %0, i32*  %4, align 4, !tbaa !3659, !dbg !3824
	ret void, !dbg !3824
}

%struct._ZSt8ios_base = type <{ i32 (...)* (...)*, i64, i64, i32, i32, i32, [4 x i8], %struct._ZNSt8ios_base14_Callback_listE*, %struct._ZNSt8ios_base6_WordsE, [8 x %struct._ZNSt8ios_base6_WordsE], i32, [4 x i8], %struct._ZNSt8ios_base6_WordsE*, %struct._ZSt6locale}> 
%struct.__SO__NSt6locale5facetE = type <{ i32 (...)* (...)*, i32}> 
%struct._ZSt7num_putIcSt19ostreambuf_iteratorIcSt11char_traitsIcEEE = type <{ %struct.__SO__NSt6locale5facetE, [4 x i8]}> 
%struct._ZSt7num_getIcSt19istreambuf_iteratorIcSt11char_traitsIcEEE = type <{ %struct.__SO__NSt6locale5facetE, [4 x i8]}> 
%struct._ZNSt6locale5facetE = type <{ i32 (...)* (...)*, i32, [4 x i8]}> 
%struct._ZSt15basic_streambufIcSt11char_traitsIcEE = type <{ i32 (...)* (...)*, i8*, i8*, i8*, i8*, i8*, i8*, %struct._ZSt6locale}> 
%struct.__locale_data = type opaque
%struct._ZSo = type <{ i32 (...)* (...)*, %struct._ZSt9basic_iosIcSt11char_traitsIcEE}> 
%struct._ZNSt6locale5_ImplE = type <{ i32, [4 x i8], %struct._ZNSt6locale5facetE**, i64, %struct._ZNSt6locale5facetE**, i8**}> 
%struct._ZSt5ctypeIcE = type <{ %struct.__SO__NSt6locale5facetE, [4 x i8], %struct.__locale_struct*, i8, [7 x i8], i32*, i32*, i16*, i8, [256 x i8], [256 x i8], i8, [6 x i8]}> 
%struct._ZNSt8ios_base14_Callback_listE = type <{ %struct._ZNSt8ios_base14_Callback_listE*, void (i32, %struct._ZSt8ios_base*, i32)*, i32, i32}> 
%struct._ZSt9basic_iosIcSt11char_traitsIcEE = type <{ %struct._ZSt8ios_base, %struct._ZSo*, i8, i8, [6 x i8], %struct._ZSt15basic_streambufIcSt11char_traitsIcEE*, %struct._ZSt5ctypeIcE*, %struct._ZSt7num_putIcSt19ostreambuf_iteratorIcSt11char_traitsIcEEE*, %struct._ZSt7num_getIcSt19istreambuf_iteratorIcSt11char_traitsIcEEE*}> 
%struct._ZNSt8ios_base6_WordsE = type <{ i8*, i64}> 
%struct._ZSt6locale = type <{ %struct._ZNSt6locale5_ImplE*}> 
%struct.__locale_struct = type <{ [13 x %struct.__locale_data*], i16*, i32*, i32*, [13 x i8*]}> 

define linkonce_odr void @_ZN13FieldFunction13setDerivativeEj(%struct.FieldFunction* %_T33110792_48757.arg, i32 zeroext %derivative.arg) #0 inlinehint !dbg !3828 {
L.entry:
	%_T33110792_48757.addr = alloca %struct.FieldFunction*, align 8
	%derivative.addr = alloca i32, align 4
	%..inline.addr = alloca %struct._ZSt9basic_iosIcSt11char_traitsIcEE*, align 8
	%..inline.addr.1 = alloca %struct._ZSt9basic_iosIcSt11char_traitsIcEE*, align 8
	%..inline.addr.2 = alloca i32, align 4
	%..inline.addr.3 = alloca i64, align 8
	%.Q0003.addr = alloca %struct._ZSo*, align 8
	%..inline.addr.4 = alloca i32, align 4
	%.Q0004.addr = alloca %struct._ZSo*, align 8
	%..inline.addr.5 = alloca %struct._ZSo*, align 8
	%.Q0005.addr = alloca %struct._ZSo*, align 8

	call void @llvm.dbg.declare (metadata %struct.FieldFunction** %_T33110792_48757.addr, metadata !3860, metadata !3652), !dbg !3829
	store %struct.FieldFunction* %_T33110792_48757.arg, %struct.FieldFunction** %_T33110792_48757.addr, align 8, !tbaa !3660
	call void @llvm.dbg.declare (metadata %struct.FieldFunction** %_T33110792_48757.addr, metadata !3861, metadata !3652), !dbg !3829
	call void @llvm.dbg.declare (metadata i32* %derivative.addr, metadata !3862, metadata !3652), !dbg !3829
	store i32 %derivative.arg, i32* %derivative.addr, align 4, !tbaa !3659
	call void @llvm.dbg.declare (metadata i32* %derivative.addr, metadata !3863, metadata !3652), !dbg !3829
	%0 = load i32, i32* %derivative.addr, align 4, !tbaa !3877, !dbg !3864
	%1 = load %struct.FieldFunction*, %struct.FieldFunction** %_T33110792_48757.addr, align 8, !tbaa !3660, !dbg !3864
	%2 = bitcast %struct.FieldFunction*  %1 to i8*, !dbg !3864
	%3 = getelementptr i8, i8*  %2, i64 16, !dbg !3864
	%4 = bitcast i8*  %3 to i32*, !dbg !3864
	store i32  %0, i32*  %4, align 4, !tbaa !3659, !dbg !3864
	%5 = icmp ule i32  %0, 1, !dbg !3865
	br i1  %5, label %L.B0000, label %L.B0001, !dbg !3865
L.B0001:
	%6 = bitcast [36 x i8]* @.S50239 to i8*, !dbg !3866
	%7 = icmp ne i8*  %6,  null, !dbg !3866
	br i1  %7, label %L..inline.62445, label %L.B1032, !dbg !3866
L.B1032:
	%8 = bitcast %struct._ZSo* @_ZSt4cerr to i8*, !dbg !3867
	%9 = bitcast %struct._ZSo* @_ZSt4cerr to i8**, !dbg !3867
	%10 = load i8*, i8**  %9, align 8, !tbaa !3660, !dbg !3867
	%11 = getelementptr i8, i8*  %10, i64 18446744073709551592, !dbg !3867
	%12 = bitcast i8*  %11 to i64*, !dbg !3867
	%13 = load i64, i64*  %12, align 8, !tbaa !3659, !dbg !3867
	%14 = getelementptr i8, i8*  %8, i64  %13, !dbg !3867
	%15 = bitcast %struct._ZSt9basic_iosIcSt11char_traitsIcEE** %..inline.addr to i8**, !dbg !3867
	store i8*  %14, i8**  %15, align 8, !tbaa !3660, !dbg !3867
	%16 = load %struct._ZSt9basic_iosIcSt11char_traitsIcEE*, %struct._ZSt9basic_iosIcSt11char_traitsIcEE** %..inline.addr, align 8, !tbaa !3660, !dbg !3867
	%17 = bitcast %struct._ZSt9basic_iosIcSt11char_traitsIcEE*  %16 to i8*, !dbg !3867
	%18 = bitcast %struct._ZSt9basic_iosIcSt11char_traitsIcEE** %..inline.addr.1 to i8**, !dbg !3867
	store i8*  %17, i8**  %18, align 8, !tbaa !3660, !dbg !3867
	%19 = load %struct._ZSt9basic_iosIcSt11char_traitsIcEE*, %struct._ZSt9basic_iosIcSt11char_traitsIcEE** %..inline.addr.1, align 8, !tbaa !3660, !dbg !3867
	%20 = bitcast %struct._ZSt9basic_iosIcSt11char_traitsIcEE*  %19 to i8*, !dbg !3867
	%21 = getelementptr i8, i8*  %20, i64 32, !dbg !3867
	%22 = bitcast i8*  %21 to i32*, !dbg !3867
	%23 = load i32, i32*  %22, align 4, !tbaa !3659, !dbg !3867
	%24 = or i32  %23, 1, !dbg !3867
	call void  @_ZNSt9basic_iosIcSt11char_traitsIcEE5clearESt12_Ios_Iostate (%struct._ZSt9basic_iosIcSt11char_traitsIcEE*  %16, i32  %24), !dbg !3867
	br label %L..inline.62466, !dbg !3867
L..inline.62445:
	%25 = bitcast [36 x i8]* @.S50239 to i8*, !dbg !3870
	%26 = call i64  @strlen (i8*  %25) nounwind, !dbg !3870
	%27 = call %struct._ZSo*  @_ZSt16__ostream_insertIcSt11char_traitsIcEERSt13basic_ostreamIT_T0_ES6_PKS3_l (%struct._ZSo* @_ZSt4cerr, i8*  %25, i64  %26), !dbg !3870
	%28 = bitcast %struct._ZSo*  %27 to i8*, !dbg !3870
	%29 = bitcast %struct._ZSo** %.Q0003.addr to i8**, !dbg !3870
	store i8*  %28, i8**  %29, align 8, !tbaa !3660, !dbg !3870
	br label %L..inline.62466
L..inline.62466:
	%30 = load i32, i32* %derivative.addr, align 4, !tbaa !3877, !dbg !3871
	%31 = zext i32  %30 to i64, !dbg !3872
	%32 = call %struct._ZSo*  @_ZNSo9_M_insertImEERSoT_ (%struct._ZSo* @_ZSt4cerr, i64  %31), !dbg !3872
	%33 = bitcast %struct._ZSo*  %32 to i8*, !dbg !3872
	%34 = bitcast %struct._ZSo** %.Q0004.addr to i8**, !dbg !3872
	store i8*  %33, i8**  %34, align 8, !tbaa !3660, !dbg !3872
	%35 = load %struct._ZSo*, %struct._ZSo** %.Q0004.addr, align 8, !tbaa !3660, !dbg !3872
	%36 = bitcast %struct._ZSo*  %35 to i8*, !dbg !3872
	%37 = bitcast %struct._ZSo** %..inline.addr.5 to i8**, !dbg !3872
	store i8*  %36, i8**  %37, align 8, !tbaa !3660, !dbg !3872
	%38 = load %struct._ZSo*, %struct._ZSo** %..inline.addr.5, align 8, !tbaa !3660, !dbg !3873
	%39 = call %struct._ZSo*  @_ZSt4endlIcSt11char_traitsIcEERSt13basic_ostreamIT_T0_ES6_ (%struct._ZSo*  %38), !dbg !3873
	%40 = bitcast %struct._ZSo*  %39 to i8*, !dbg !3873
	%41 = bitcast %struct._ZSo** %.Q0005.addr to i8**, !dbg !3873
	store i8*  %40, i8**  %41, align 8, !tbaa !3660, !dbg !3873
	call void  @exit (i32 1) nounwind noreturn, !dbg !3874
	br label %L.B0002
L.B0002:
	br label %L.B0000
L.B0000:
	ret void, !dbg !3875
}
define linkonce_odr void @_ZN13FieldFunctionD1Ev(%struct.FieldFunction* %_T33110608_48758.arg) #0 inlinehint !dbg !3879 {
L.entry:
	%_T33110608_48758.addr = alloca %struct.FieldFunction*, align 8

	call void @llvm.dbg.declare (metadata %struct.FieldFunction** %_T33110608_48758.addr, metadata !3891, metadata !3652), !dbg !3880
	store %struct.FieldFunction* %_T33110608_48758.arg, %struct.FieldFunction** %_T33110608_48758.addr, align 8, !tbaa !3660
	call void @llvm.dbg.declare (metadata %struct.FieldFunction** %_T33110608_48758.addr, metadata !3892, metadata !3652), !dbg !3880
	%0 = bitcast [5 x i32 (...)* (...)*]* @_ZTV13FieldFunction to i8*, !dbg !3893
	%1 = getelementptr i8, i8*  %0, i64 16, !dbg !3893
	%2 = load %struct.FieldFunction*, %struct.FieldFunction** %_T33110608_48758.addr, align 8, !tbaa !3660, !dbg !3893
	%3 = bitcast %struct.FieldFunction*  %2 to i8**, !dbg !3893
	store i8*  %1, i8**  %3, align 8, !tbaa !3660, !dbg !3893
	%4 = bitcast [5 x i32 (...)* (...)*]* @_ZTV11T3DFunction to i8*, !dbg !3893
	%5 = getelementptr i8, i8*  %4, i64 16, !dbg !3893
	store i8*  %5, i8**  %3, align 8, !tbaa !3660, !dbg !3893
	ret void, !dbg !3894
}
define linkonce_odr void @_ZN13FieldFunctionD0Ev(%struct.FieldFunction* %_T33110608_48759.arg) #0 inlinehint !dbg !3896 {
L.entry:
	%_T33110608_48759.addr = alloca %struct.FieldFunction*, align 8
	%..inline.addr = alloca %struct.FieldFunction*, align 8

	store %struct.FieldFunction* %_T33110608_48759.arg, %struct.FieldFunction** %_T33110608_48759.addr, align 8, !tbaa !3660
	%0 = load %struct.FieldFunction*, %struct.FieldFunction** %_T33110608_48759.addr, align 8, !tbaa !3660, !dbg !3912
	%1 = bitcast %struct.FieldFunction*  %0 to i8*, !dbg !3912
	%2 = bitcast %struct.FieldFunction** %..inline.addr to i8**, !dbg !3912
	store i8*  %1, i8**  %2, align 8, !tbaa !3660, !dbg !3912
	%3 = bitcast [5 x i32 (...)* (...)*]* @_ZTV13FieldFunction to i8*, !dbg !3912
	%4 = getelementptr i8, i8*  %3, i64 16, !dbg !3912
	%5 = load %struct.FieldFunction*, %struct.FieldFunction** %..inline.addr, align 8, !tbaa !3660, !dbg !3912
	%6 = bitcast %struct.FieldFunction*  %5 to i8**, !dbg !3912
	store i8*  %4, i8**  %6, align 8, !tbaa !3660, !dbg !3912
	%7 = bitcast [5 x i32 (...)* (...)*]* @_ZTV11T3DFunction to i8*, !dbg !3912
	%8 = getelementptr i8, i8*  %7, i64 16, !dbg !3912
	store i8*  %8, i8**  %6, align 8, !tbaa !3660, !dbg !3912
	call void  @_ZdlPvm (i8*  %1, i64 24) nounwind, !dbg !3912
	ret void, !dbg !3912
}
define linkonce_odr void @_ZN13FieldFunctionD2Ev(%struct.FieldFunction* %_T33110608_48760.arg) #0 inlinehint !dbg !3914 {
L.entry:
	%_T33110608_48760.addr = alloca %struct.FieldFunction*, align 8
	%..inline.addr = alloca %struct.FieldFunction*, align 8

	store %struct.FieldFunction* %_T33110608_48760.arg, %struct.FieldFunction** %_T33110608_48760.addr, align 8, !tbaa !3660
	%0 = load %struct.FieldFunction*, %struct.FieldFunction** %_T33110608_48760.addr, align 8, !tbaa !3660, !dbg !3930
	%1 = bitcast %struct.FieldFunction*  %0 to i8*, !dbg !3930
	%2 = bitcast %struct.FieldFunction** %..inline.addr to i8**, !dbg !3930
	store i8*  %1, i8**  %2, align 8, !tbaa !3660, !dbg !3930
	%3 = bitcast [5 x i32 (...)* (...)*]* @_ZTV13FieldFunction to i8*, !dbg !3930
	%4 = getelementptr i8, i8*  %3, i64 16, !dbg !3930
	%5 = load %struct.FieldFunction*, %struct.FieldFunction** %..inline.addr, align 8, !tbaa !3660, !dbg !3930
	%6 = bitcast %struct.FieldFunction*  %5 to i8**, !dbg !3930
	store i8*  %4, i8**  %6, align 8, !tbaa !3660, !dbg !3930
	%7 = bitcast [5 x i32 (...)* (...)*]* @_ZTV11T3DFunction to i8*, !dbg !3930
	%8 = getelementptr i8, i8*  %7, i64 16, !dbg !3930
	store i8*  %8, i8**  %6, align 8, !tbaa !3660, !dbg !3930
	ret void, !dbg !3930
}

%struct.Dipole = type <{ %struct.__SO__13FieldFunction, i8, [3 x i8], [3 x double], [3 x double]}> 
%struct.__SO__13FieldFunction = type <{ %struct.T3DFunction, i32, i32, i32}> 

define linkonce_odr void @_ZN6DipoleC1Ev(%struct.Dipole* %_T33110792_48761.arg) #0 inlinehint !dbg !3937 {
L.entry:
	%_T33110792_48761.addr = alloca %struct.Dipole*, align 8
	%..inline.addr = alloca %struct.FieldFunction*, align 8

	call void @llvm.dbg.declare (metadata %struct.Dipole** %_T33110792_48761.addr, metadata !3945, metadata !3652), !dbg !3938
	store %struct.Dipole* %_T33110792_48761.arg, %struct.Dipole** %_T33110792_48761.addr, align 8, !tbaa !3660
	call void @llvm.dbg.declare (metadata %struct.Dipole** %_T33110792_48761.addr, metadata !3946, metadata !3652), !dbg !3938
	%0 = load %struct.Dipole*, %struct.Dipole** %_T33110792_48761.addr, align 8, !tbaa !3660, !dbg !3947
	%1 = bitcast %struct.Dipole*  %0 to i8*, !dbg !3947
	%2 = bitcast %struct.FieldFunction** %..inline.addr to i8**, !dbg !3947
	store i8*  %1, i8**  %2, align 8, !tbaa !3660, !dbg !3947
	%3 = load %struct.FieldFunction*, %struct.FieldFunction** %..inline.addr, align 8, !tbaa !3660, !dbg !3947
	call void  @_ZN13FieldFunctionC1Ev (%struct.FieldFunction*  %3), !dbg !3947
	%4 = bitcast [5 x i32 (...)* (...)*]* @_ZTV6Dipole to i8*, !dbg !3947
	%5 = getelementptr i8, i8*  %4, i64 16, !dbg !3947
	%6 = load %struct.Dipole*, %struct.Dipole** %_T33110792_48761.addr, align 8, !tbaa !3660, !dbg !3947
	%7 = bitcast %struct.Dipole*  %6 to i8**, !dbg !3947
	store i8*  %5, i8**  %7, align 8, !tbaa !3660, !dbg !3947
	%8 = bitcast %struct.Dipole*  %6 to i8*, !dbg !3950
	%9 = getelementptr i8, i8*  %8, i64 20, !dbg !3950
	store i8 0, i8*  %9, align 1, !tbaa !3659, !dbg !3950
	ret void, !dbg !3951
}
define linkonce_odr void @_ZN6DipoleC2Ev(%struct.Dipole* %_T33110608_48762.arg) #0 inlinehint !dbg !3953 {
L.entry:
	%_T33110608_48762.addr = alloca %struct.Dipole*, align 8
	%..inline.addr = alloca %struct.Dipole*, align 8
	%..inline.addr.1 = alloca %struct.FieldFunction*, align 8

	store %struct.Dipole* %_T33110608_48762.arg, %struct.Dipole** %_T33110608_48762.addr, align 8, !tbaa !3660
	%0 = load %struct.Dipole*, %struct.Dipole** %_T33110608_48762.addr, align 8, !tbaa !3660, !dbg !3965
	%1 = bitcast %struct.Dipole*  %0 to i8*, !dbg !3965
	%2 = bitcast %struct.Dipole** %..inline.addr to i8**, !dbg !3965
	store i8*  %1, i8**  %2, align 8, !tbaa !3660, !dbg !3965
	%3 = load %struct.Dipole*, %struct.Dipole** %..inline.addr, align 8, !tbaa !3660, !dbg !3966
	%4 = bitcast %struct.Dipole*  %3 to i8*, !dbg !3966
	%5 = bitcast %struct.FieldFunction** %..inline.addr.1 to i8**, !dbg !3966
	store i8*  %4, i8**  %5, align 8, !tbaa !3660, !dbg !3966
	%6 = load %struct.FieldFunction*, %struct.FieldFunction** %..inline.addr.1, align 8, !tbaa !3660, !dbg !3966
	call void  @_ZN13FieldFunctionC1Ev (%struct.FieldFunction*  %6), !dbg !3966
	%7 = bitcast [5 x i32 (...)* (...)*]* @_ZTV6Dipole to i8*, !dbg !3966
	%8 = getelementptr i8, i8*  %7, i64 16, !dbg !3966
	%9 = load %struct.Dipole*, %struct.Dipole** %..inline.addr, align 8, !tbaa !3660, !dbg !3966
	%10 = bitcast %struct.Dipole*  %9 to i8**, !dbg !3966
	store i8*  %8, i8**  %10, align 8, !tbaa !3660, !dbg !3966
	%11 = bitcast %struct.Dipole*  %9 to i8*, !dbg !3966
	%12 = getelementptr i8, i8*  %11, i64 20, !dbg !3966
	store i8 0, i8*  %12, align 1, !tbaa !3659, !dbg !3966
	ret void, !dbg !3965
}
define linkonce_odr void @_ZN6DipoleD1Ev(%struct.Dipole* %_T33110608_48764.arg) #0 inlinehint !dbg !3968 {
L.entry:
	%_T33110608_48764.addr = alloca %struct.Dipole*, align 8
	%..inline.addr = alloca %struct.FieldFunction*, align 8

	call void @llvm.dbg.declare (metadata %struct.Dipole** %_T33110608_48764.addr, metadata !3988, metadata !3652), !dbg !3969
	store %struct.Dipole* %_T33110608_48764.arg, %struct.Dipole** %_T33110608_48764.addr, align 8, !tbaa !3660
	call void @llvm.dbg.declare (metadata %struct.Dipole** %_T33110608_48764.addr, metadata !3989, metadata !3652), !dbg !3969
	%0 = bitcast [5 x i32 (...)* (...)*]* @_ZTV6Dipole to i8*, !dbg !3990
	%1 = getelementptr i8, i8*  %0, i64 16, !dbg !3990
	%2 = load %struct.Dipole*, %struct.Dipole** %_T33110608_48764.addr, align 8, !tbaa !3660, !dbg !3990
	%3 = bitcast %struct.Dipole*  %2 to i8**, !dbg !3990
	store i8*  %1, i8**  %3, align 8, !tbaa !3660, !dbg !3990
	%4 = bitcast %struct.Dipole*  %2 to i8*, !dbg !3990
	%5 = bitcast %struct.FieldFunction** %..inline.addr to i8**, !dbg !3990
	store i8*  %4, i8**  %5, align 8, !tbaa !3660, !dbg !3990
	%6 = bitcast [5 x i32 (...)* (...)*]* @_ZTV13FieldFunction to i8*, !dbg !3990
	%7 = getelementptr i8, i8*  %6, i64 16, !dbg !3990
	%8 = load %struct.FieldFunction*, %struct.FieldFunction** %..inline.addr, align 8, !tbaa !3660, !dbg !3990
	%9 = bitcast %struct.FieldFunction*  %8 to i8**, !dbg !3990
	store i8*  %7, i8**  %9, align 8, !tbaa !3660, !dbg !3990
	%10 = bitcast [5 x i32 (...)* (...)*]* @_ZTV11T3DFunction to i8*, !dbg !3990
	%11 = getelementptr i8, i8*  %10, i64 16, !dbg !3990
	store i8*  %11, i8**  %9, align 8, !tbaa !3660, !dbg !3990
	ret void, !dbg !3990
}
define linkonce_odr void @_ZN6DipoleD0Ev(%struct.Dipole* %_T33110608_48765.arg) #0 inlinehint !dbg !3992 {
L.entry:
	%_T33110608_48765.addr = alloca %struct.Dipole*, align 8
	%..inline.addr = alloca %struct.Dipole*, align 8
	%..inline.addr.1 = alloca %struct.FieldFunction*, align 8

	store %struct.Dipole* %_T33110608_48765.arg, %struct.Dipole** %_T33110608_48765.addr, align 8, !tbaa !3660
	%0 = load %struct.Dipole*, %struct.Dipole** %_T33110608_48765.addr, align 8, !tbaa !3660, !dbg !4016
	%1 = bitcast %struct.Dipole*  %0 to i8*, !dbg !4016
	%2 = bitcast %struct.Dipole** %..inline.addr to i8**, !dbg !4016
	store i8*  %1, i8**  %2, align 8, !tbaa !3660, !dbg !4016
	%3 = bitcast [5 x i32 (...)* (...)*]* @_ZTV6Dipole to i8*, !dbg !4016
	%4 = getelementptr i8, i8*  %3, i64 16, !dbg !4016
	%5 = load %struct.Dipole*, %struct.Dipole** %..inline.addr, align 8, !tbaa !3660, !dbg !4016
	%6 = bitcast %struct.Dipole*  %5 to i8**, !dbg !4016
	store i8*  %4, i8**  %6, align 8, !tbaa !3660, !dbg !4016
	%7 = bitcast %struct.Dipole*  %5 to i8*, !dbg !4016
	%8 = bitcast %struct.FieldFunction** %..inline.addr.1 to i8**, !dbg !4016
	store i8*  %7, i8**  %8, align 8, !tbaa !3660, !dbg !4016
	%9 = bitcast [5 x i32 (...)* (...)*]* @_ZTV13FieldFunction to i8*, !dbg !4016
	%10 = getelementptr i8, i8*  %9, i64 16, !dbg !4016
	store i8*  %10, i8**  %6, align 8, !tbaa !3660, !dbg !4016
	%11 = bitcast [5 x i32 (...)* (...)*]* @_ZTV11T3DFunction to i8*, !dbg !4016
	%12 = getelementptr i8, i8*  %11, i64 16, !dbg !4016
	%13 = load %struct.FieldFunction*, %struct.FieldFunction** %..inline.addr.1, align 8, !tbaa !3660, !dbg !4016
	%14 = bitcast %struct.FieldFunction*  %13 to i8**, !dbg !4016
	store i8*  %12, i8**  %14, align 8, !tbaa !3660, !dbg !4016
	call void  @_ZdlPvm (i8*  %1, i64 72) nounwind, !dbg !4016
	ret void, !dbg !4016
}
define linkonce_odr void @_ZN6DipoleD2Ev(%struct.Dipole* %_T33110608_48766.arg) #0 inlinehint !dbg !4018 {
L.entry:
	%_T33110608_48766.addr = alloca %struct.Dipole*, align 8
	%..inline.addr = alloca %struct.Dipole*, align 8
	%..inline.addr.1 = alloca %struct.FieldFunction*, align 8

	store %struct.Dipole* %_T33110608_48766.arg, %struct.Dipole** %_T33110608_48766.addr, align 8, !tbaa !3660
	%0 = load %struct.Dipole*, %struct.Dipole** %_T33110608_48766.addr, align 8, !tbaa !3660, !dbg !4042
	%1 = bitcast %struct.Dipole*  %0 to i8*, !dbg !4042
	%2 = bitcast %struct.Dipole** %..inline.addr to i8**, !dbg !4042
	store i8*  %1, i8**  %2, align 8, !tbaa !3660, !dbg !4042
	%3 = bitcast [5 x i32 (...)* (...)*]* @_ZTV6Dipole to i8*, !dbg !4042
	%4 = getelementptr i8, i8*  %3, i64 16, !dbg !4042
	%5 = load %struct.Dipole*, %struct.Dipole** %..inline.addr, align 8, !tbaa !3660, !dbg !4042
	%6 = bitcast %struct.Dipole*  %5 to i8**, !dbg !4042
	store i8*  %4, i8**  %6, align 8, !tbaa !3660, !dbg !4042
	%7 = bitcast %struct.Dipole*  %5 to i8*, !dbg !4042
	%8 = bitcast %struct.FieldFunction** %..inline.addr.1 to i8**, !dbg !4042
	store i8*  %7, i8**  %8, align 8, !tbaa !3660, !dbg !4042
	%9 = bitcast [5 x i32 (...)* (...)*]* @_ZTV13FieldFunction to i8*, !dbg !4042
	%10 = getelementptr i8, i8*  %9, i64 16, !dbg !4042
	store i8*  %10, i8**  %6, align 8, !tbaa !3660, !dbg !4042
	%11 = bitcast [5 x i32 (...)* (...)*]* @_ZTV11T3DFunction to i8*, !dbg !4042
	%12 = getelementptr i8, i8*  %11, i64 16, !dbg !4042
	%13 = load %struct.FieldFunction*, %struct.FieldFunction** %..inline.addr.1, align 8, !tbaa !3660, !dbg !4042
	%14 = bitcast %struct.FieldFunction*  %13 to i8**, !dbg !4042
	store i8*  %12, i8**  %14, align 8, !tbaa !3660, !dbg !4042
	ret void, !dbg !4042
}
define linkonce_odr void @_ZNSt11char_traitsIcE6assignERcRKc(i8* %__c1.arg, i8* %__c2.arg) #0 inlinehint !dbg !4049 {
L.entry:
	%__c1.addr = alloca i8*, align 8
	%__c2.addr = alloca i8*, align 8

	call void @llvm.dbg.declare (metadata i8** %__c1.addr, metadata !4053, metadata !3652), !dbg !4050
	store i8* %__c1.arg, i8** %__c1.addr, align 8, !tbaa !3660
	call void @llvm.dbg.declare (metadata i8** %__c1.addr, metadata !4054, metadata !3652), !dbg !4050
	call void @llvm.dbg.declare (metadata i8** %__c2.addr, metadata !4055, metadata !3652), !dbg !4050
	store i8* %__c2.arg, i8** %__c2.addr, align 8, !tbaa !3660
	call void @llvm.dbg.declare (metadata i8** %__c2.addr, metadata !4056, metadata !3652), !dbg !4050
	%0 = load i8*, i8** %__c2.addr, align 8, !tbaa !3660, !dbg !4057
	%1 = load i8, i8*  %0, align 1, !tbaa !3659, !dbg !4057
	%2 = load i8*, i8** %__c1.addr, align 8, !tbaa !3660, !dbg !4057
	store i8  %1, i8*  %2, align 1, !tbaa !3659, !dbg !4057
	ret void, !dbg !4057
}
define linkonce_odr i64 @_ZNSt11char_traitsIcE6lengthEPKc(i8* %__s.arg) #0 inlinehint !dbg !4061 {
L.entry:
	%__s.addr = alloca i8*, align 8

	call void @llvm.dbg.declare (metadata i8** %__s.addr, metadata !4065, metadata !3652), !dbg !4062
	store i8* %__s.arg, i8** %__s.addr, align 8, !tbaa !3660
	call void @llvm.dbg.declare (metadata i8** %__s.addr, metadata !4066, metadata !3652), !dbg !4062
	%0 = load i8*, i8** %__s.addr, align 8, !tbaa !3660, !dbg !4067
	%1 = call i64  @strlen (i8*  %0) nounwind, !dbg !4067
	ret i64  %1, !dbg !4067
}
define linkonce_odr i8* @_ZNSt11char_traitsIcE4copyEPcPKcm(i8* %__s1.arg, i8* %__s2.arg, i64 %__n.arg) #0 inlinehint !dbg !4072 {
L.entry:
	%__s1.addr = alloca i8*, align 8
	%__s2.addr = alloca i8*, align 8
	%__n.addr = alloca i64, align 8

	call void @llvm.dbg.declare (metadata i8** %__s1.addr, metadata !4076, metadata !3652), !dbg !4073
	store i8* %__s1.arg, i8** %__s1.addr, align 8, !tbaa !3660
	call void @llvm.dbg.declare (metadata i8** %__s1.addr, metadata !4077, metadata !3652), !dbg !4073
	call void @llvm.dbg.declare (metadata i8** %__s2.addr, metadata !4078, metadata !3652), !dbg !4073
	store i8* %__s2.arg, i8** %__s2.addr, align 8, !tbaa !3660
	call void @llvm.dbg.declare (metadata i8** %__s2.addr, metadata !4079, metadata !3652), !dbg !4073
	call void @llvm.dbg.declare (metadata i64* %__n.addr, metadata !4080, metadata !3652), !dbg !4073
	store i64 %__n.arg, i64* %__n.addr, align 8, !tbaa !3659
	call void @llvm.dbg.declare (metadata i64* %__n.addr, metadata !4081, metadata !3652), !dbg !4073
	%0 = load i64, i64* %__n.addr, align 8, !tbaa !4087, !dbg !4082
	%1 = icmp ne i64  %0, 0, !dbg !4082
	br i1  %1, label %L.B0004, label %L.B1049, !dbg !4082
L.B1049:
	%2 = load i8*, i8** %__s1.addr, align 8, !tbaa !3660, !dbg !4083
	ret i8*  %2, !dbg !4083
L.B1050:
	br label %L.R0022, !dbg !4083
L.B0004:
	%3 = load i8*, i8** %__s1.addr, align 8, !tbaa !3660, !dbg !4084
	%4 = load i8*, i8** %__s2.addr, align 8, !tbaa !3660, !dbg !4084
	%5 = load i64, i64* %__n.addr, align 8, !tbaa !4087, !dbg !4084
	%6 = call i8*  @memcpy (i8*  %3, i8*  %4, i64  %5) nounwind, !dbg !4084
	ret i8*  %6, !dbg !4084
L.R0022:
	ret i8* null
}

%struct._ZSaIcE = type <{ [1 x i8]}> 

define linkonce_odr void @_ZNSaIcEC1Ev(%struct._ZSaIcE* %_T33110608_48775.arg) #0 inlinehint !dbg !4094 {
L.entry:
	%_T33110608_48775.addr = alloca %struct._ZSaIcE*, align 8

	call void @llvm.dbg.declare (metadata %struct._ZSaIcE** %_T33110608_48775.addr, metadata !4098, metadata !3652), !dbg !4095
	store %struct._ZSaIcE* %_T33110608_48775.arg, %struct._ZSaIcE** %_T33110608_48775.addr, align 8, !tbaa !3660
	call void @llvm.dbg.declare (metadata %struct._ZSaIcE** %_T33110608_48775.addr, metadata !4099, metadata !3652), !dbg !4095
	ret void, !dbg !4100
}
define linkonce_odr void @_ZNSaIcEC2Ev(%struct._ZSaIcE* %_T33110608_48776.arg) #0 inlinehint !dbg !4102 {
L.entry:
	%_T33110608_48776.addr = alloca %struct._ZSaIcE*, align 8

	store %struct._ZSaIcE* %_T33110608_48776.arg, %struct._ZSaIcE** %_T33110608_48776.addr, align 8, !tbaa !3660
	ret void, !dbg !4110
}
define linkonce_odr void @_ZNSaIcED1Ev(%struct._ZSaIcE* %_T33110608_48777.arg) #0 inlinehint !dbg !4112 {
L.entry:
	%_T33110608_48777.addr = alloca %struct._ZSaIcE*, align 8

	call void @llvm.dbg.declare (metadata %struct._ZSaIcE** %_T33110608_48777.addr, metadata !4116, metadata !3652), !dbg !4113
	store %struct._ZSaIcE* %_T33110608_48777.arg, %struct._ZSaIcE** %_T33110608_48777.addr, align 8, !tbaa !3660
	call void @llvm.dbg.declare (metadata %struct._ZSaIcE** %_T33110608_48777.addr, metadata !4117, metadata !3652), !dbg !4113
	ret void, !dbg !4118
}
define linkonce_odr void @_ZNSaIcED2Ev(%struct._ZSaIcE* %_T33110608_48778.arg) #0 inlinehint !dbg !4120 {
L.entry:
	%_T33110608_48778.addr = alloca %struct._ZSaIcE*, align 8

	store %struct._ZSaIcE* %_T33110608_48778.arg, %struct._ZSaIcE** %_T33110608_48778.addr, align 8, !tbaa !3660
	ret void, !dbg !4128
}
define linkonce_odr void @_ZNSt16allocator_traitsISaIcEE10deallocateERS0_Pcm(%struct._ZSaIcE* %__a.arg, i8* %__p.arg, i64 %__n.arg) #0 inlinehint !dbg !4138 {
L.entry:
	%__a.addr = alloca %struct._ZSaIcE*, align 8
	%__p.addr = alloca i8*, align 8
	%__n.addr = alloca i64, align 8
	%..inline.addr = alloca i8*, align 8

	call void @llvm.dbg.declare (metadata %struct._ZSaIcE** %__a.addr, metadata !4146, metadata !3652), !dbg !4139
	store %struct._ZSaIcE* %__a.arg, %struct._ZSaIcE** %__a.addr, align 8, !tbaa !3660
	call void @llvm.dbg.declare (metadata %struct._ZSaIcE** %__a.addr, metadata !4147, metadata !3652), !dbg !4139
	call void @llvm.dbg.declare (metadata i8** %__p.addr, metadata !4148, metadata !3652), !dbg !4139
	store i8* %__p.arg, i8** %__p.addr, align 8, !tbaa !3660
	call void @llvm.dbg.declare (metadata i8** %__p.addr, metadata !4149, metadata !3652), !dbg !4139
	call void @llvm.dbg.declare (metadata i64* %__n.addr, metadata !4150, metadata !3652), !dbg !4139
	store i64 %__n.arg, i64* %__n.addr, align 8, !tbaa !3659
	call void @llvm.dbg.declare (metadata i64* %__n.addr, metadata !4151, metadata !3652), !dbg !4139
	%0 = load i8*, i8** %__p.addr, align 8, !tbaa !3660, !dbg !4152
	call void  @_ZdlPv (i8*  %0) nounwind, !dbg !4153
	ret void, !dbg !4152
}
define linkonce_odr signext i8 @_ZNKSt5ctypeIcE5widenEc(%struct._ZSt5ctypeIcE* %_T33110792_48786.arg, i8 signext %__c.arg) #0 inlinehint !dbg !4159 {
L.entry:
	%_T33110792_48786.addr = alloca %struct._ZSt5ctypeIcE*, align 8
	%__c.addr = alloca i8, align 1
	%.Q0006.addr = alloca i32, align 4

	call void @llvm.dbg.declare (metadata %struct._ZSt5ctypeIcE** %_T33110792_48786.addr, metadata !4163, metadata !3652), !dbg !4160
	store %struct._ZSt5ctypeIcE* %_T33110792_48786.arg, %struct._ZSt5ctypeIcE** %_T33110792_48786.addr, align 8, !tbaa !3660
	call void @llvm.dbg.declare (metadata %struct._ZSt5ctypeIcE** %_T33110792_48786.addr, metadata !4164, metadata !3652), !dbg !4160
	call void @llvm.dbg.declare (metadata i8* %__c.addr, metadata !4165, metadata !3652), !dbg !4160
	store i8 %__c.arg, i8* %__c.addr, align 1, !tbaa !3659
	call void @llvm.dbg.declare (metadata i8* %__c.addr, metadata !4166, metadata !3652), !dbg !4160
	%0 = load %struct._ZSt5ctypeIcE*, %struct._ZSt5ctypeIcE** %_T33110792_48786.addr, align 8, !tbaa !3660, !dbg !4167
	%1 = bitcast %struct._ZSt5ctypeIcE*  %0 to i8*, !dbg !4167
	%2 = getelementptr i8, i8*  %1, i64 56, !dbg !4167
	%3 = load i8, i8*  %2, align 1, !tbaa !3659, !dbg !4167
	%4 = sext i8  %3 to i32, !dbg !4167
	%5 = icmp eq i32  %4, 0, !dbg !4167
	br i1  %5, label %L.B0005, label %L.B1057, !dbg !4167
L.B1057:
	%6 = bitcast %struct._ZSt5ctypeIcE*  %0 to i8*, !dbg !4168
	%7 = getelementptr i8, i8*  %6, i64 57, !dbg !4168
	%8 = load i8, i8* %__c.addr, align 1, !tbaa !3659, !dbg !4168
	%9 = sext i8  %8 to i32, !dbg !4168
	%10 = and i32  %9, 255, !dbg !4168
	%11 = sext i32  %10 to i64, !dbg !4168
	%12 = getelementptr i8, i8*  %7, i64  %11, !dbg !4168
	%13 = load i8, i8*  %12, align 1, !tbaa !3659, !dbg !4168
	ret i8  %13, !dbg !4168
L.B1058:
	br label %L.R0028, !dbg !4168
L.B0005:
	%14 = load %struct._ZSt5ctypeIcE*, %struct._ZSt5ctypeIcE** %_T33110792_48786.addr, align 8, !tbaa !3660, !dbg !4169
	call void  @_ZNKSt5ctypeIcE13_M_widen_initEv (%struct._ZSt5ctypeIcE*  %14), !dbg !4169
	%15 = load %struct._ZSt5ctypeIcE*, %struct._ZSt5ctypeIcE** %_T33110792_48786.addr, align 8, !tbaa !3660, !dbg !4170
	%16 = load i8, i8* %__c.addr, align 1, !tbaa !3659, !dbg !4170
	%17 = bitcast %struct._ZSt5ctypeIcE*  %15 to i8**, !dbg !4170
	%18 = load i8*, i8**  %17, align 8, !tbaa !3660, !dbg !4170
	%19 = getelementptr i8, i8*  %18, i64 48, !dbg !4170
	%20 = bitcast i8*  %19 to i8 (%struct._ZSt5ctypeIcE*, i8)**, !dbg !4170
	%21 = load i8 (%struct._ZSt5ctypeIcE*, i8)*, i8 (%struct._ZSt5ctypeIcE*, i8)**  %20, align 8, !tbaa !3660, !dbg !4170
	%22 = call i8  %21 (%struct._ZSt5ctypeIcE*  %15, i8  %16), !dbg !4170
	%23 = sext i8  %22 to i32, !dbg !4170
	store i32  %23, i32* %.Q0006.addr, align 4, !tbaa !3877, !dbg !4170
	%24 = shl i32  %23, 24, !dbg !4170
	%25 = ashr i32  %24, 24, !dbg !4170
	%26 = trunc i32  %25 to i8, !dbg !4170
	ret i8  %26, !dbg !4170
L.R0028:
	ret i8 0
}
define linkonce_odr signext i32 @_ZNKSt9basic_iosIcSt11char_traitsIcEE7rdstateEv(%struct._ZSt9basic_iosIcSt11char_traitsIcEE* %_T33110608_48789.arg) #0 inlinehint !dbg !4178 {
L.entry:
	%_T33110608_48789.addr = alloca %struct._ZSt9basic_iosIcSt11char_traitsIcEE*, align 8

	call void @llvm.dbg.declare (metadata %struct._ZSt9basic_iosIcSt11char_traitsIcEE** %_T33110608_48789.addr, metadata !4182, metadata !3652), !dbg !4179
	store %struct._ZSt9basic_iosIcSt11char_traitsIcEE* %_T33110608_48789.arg, %struct._ZSt9basic_iosIcSt11char_traitsIcEE** %_T33110608_48789.addr, align 8, !tbaa !3660
	call void @llvm.dbg.declare (metadata %struct._ZSt9basic_iosIcSt11char_traitsIcEE** %_T33110608_48789.addr, metadata !4183, metadata !3652), !dbg !4179
	%0 = load %struct._ZSt9basic_iosIcSt11char_traitsIcEE*, %struct._ZSt9basic_iosIcSt11char_traitsIcEE** %_T33110608_48789.addr, align 8, !tbaa !3660, !dbg !4184
	%1 = bitcast %struct._ZSt9basic_iosIcSt11char_traitsIcEE*  %0 to i8*, !dbg !4184
	%2 = getelementptr i8, i8*  %1, i64 32, !dbg !4184
	%3 = bitcast i8*  %2 to i32*, !dbg !4184
	%4 = load i32, i32*  %3, align 4, !tbaa !3659, !dbg !4184
	ret i32  %4, !dbg !4184
}
define linkonce_odr void @_ZNSt9basic_iosIcSt11char_traitsIcEE8setstateESt12_Ios_Iostate(%struct._ZSt9basic_iosIcSt11char_traitsIcEE* %_T33110608_48793.arg, i32 signext %__state.arg) #0 inlinehint !dbg !4188 {
L.entry:
	%_T33110608_48793.addr = alloca %struct._ZSt9basic_iosIcSt11char_traitsIcEE*, align 8
	%__state.addr = alloca i32, align 4
	%..inline.addr = alloca i32, align 4

	call void @llvm.dbg.declare (metadata %struct._ZSt9basic_iosIcSt11char_traitsIcEE** %_T33110608_48793.addr, metadata !4200, metadata !3652), !dbg !4189
	store %struct._ZSt9basic_iosIcSt11char_traitsIcEE* %_T33110608_48793.arg, %struct._ZSt9basic_iosIcSt11char_traitsIcEE** %_T33110608_48793.addr, align 8, !tbaa !3660
	call void @llvm.dbg.declare (metadata %struct._ZSt9basic_iosIcSt11char_traitsIcEE** %_T33110608_48793.addr, metadata !4201, metadata !3652), !dbg !4189
	call void @llvm.dbg.declare (metadata i32* %__state.addr, metadata !4202, metadata !3652), !dbg !4189
	store i32 %__state.arg, i32* %__state.addr, align 4, !tbaa !3659
	call void @llvm.dbg.declare (metadata i32* %__state.addr, metadata !4203, metadata !3652), !dbg !4189
	%0 = load i32, i32* %__state.addr, align 4, !tbaa !3659, !dbg !4204
	%1 = load %struct._ZSt9basic_iosIcSt11char_traitsIcEE*, %struct._ZSt9basic_iosIcSt11char_traitsIcEE** %_T33110608_48793.addr, align 8, !tbaa !3660, !dbg !4204
	%2 = bitcast %struct._ZSt9basic_iosIcSt11char_traitsIcEE*  %1 to i8*, !dbg !4204
	%3 = getelementptr i8, i8*  %2, i64 32, !dbg !4204
	%4 = bitcast i8*  %3 to i32*, !dbg !4204
	%5 = load i32, i32*  %4, align 4, !tbaa !3659, !dbg !4204
	%6 = or i32  %0,  %5, !dbg !4204
	call void  @_ZNSt9basic_iosIcSt11char_traitsIcEE5clearESt12_Ios_Iostate (%struct._ZSt9basic_iosIcSt11char_traitsIcEE*  %1, i32  %6), !dbg !4205
	ret void, !dbg !4204
}
define linkonce_odr signext i8 @_ZNKSt9basic_iosIcSt11char_traitsIcEE5widenEc(%struct._ZSt9basic_iosIcSt11char_traitsIcEE* %_T33110608_48795.arg, i8 signext %__c.arg) #0 inlinehint !dbg !4209 {
L.entry:
	%_T33110608_48795.addr = alloca %struct._ZSt9basic_iosIcSt11char_traitsIcEE*, align 8
	%__c.addr = alloca i8, align 1
	%..inline.addr = alloca %struct._ZSt5ctypeIcE*, align 8
	%..inline.addr.1 = alloca %struct._ZSt5ctypeIcE*, align 8
	%..inline.addr.2 = alloca i8, align 1
	%..inline.addr.3 = alloca i8, align 1
	%.Q0007.addr = alloca i32, align 4

	call void @llvm.dbg.declare (metadata %struct._ZSt9basic_iosIcSt11char_traitsIcEE** %_T33110608_48795.addr, metadata !4221, metadata !3652), !dbg !4210
	store %struct._ZSt9basic_iosIcSt11char_traitsIcEE* %_T33110608_48795.arg, %struct._ZSt9basic_iosIcSt11char_traitsIcEE** %_T33110608_48795.addr, align 8, !tbaa !3660
	call void @llvm.dbg.declare (metadata %struct._ZSt9basic_iosIcSt11char_traitsIcEE** %_T33110608_48795.addr, metadata !4222, metadata !3652), !dbg !4210
	call void @llvm.dbg.declare (metadata i8* %__c.addr, metadata !4223, metadata !3652), !dbg !4210
	store i8 %__c.arg, i8* %__c.addr, align 1, !tbaa !3659
	call void @llvm.dbg.declare (metadata i8* %__c.addr, metadata !4224, metadata !3652), !dbg !4210
	%0 = load %struct._ZSt9basic_iosIcSt11char_traitsIcEE*, %struct._ZSt9basic_iosIcSt11char_traitsIcEE** %_T33110608_48795.addr, align 8, !tbaa !3660, !dbg !4225
	%1 = bitcast %struct._ZSt9basic_iosIcSt11char_traitsIcEE*  %0 to i8*, !dbg !4225
	%2 = getelementptr i8, i8*  %1, i64 240, !dbg !4225
	%3 = bitcast i8*  %2 to i8**, !dbg !4225
	%4 = load i8*, i8**  %3, align 8, !tbaa !3660, !dbg !4225
	%5 = bitcast %struct._ZSt5ctypeIcE** %..inline.addr to i8**, !dbg !4225
	store i8*  %4, i8**  %5, align 8, !tbaa !3660, !dbg !4225
	%6 = load %struct._ZSt5ctypeIcE*, %struct._ZSt5ctypeIcE** %..inline.addr, align 8, !tbaa !3660, !dbg !4225
	%7 = bitcast %struct._ZSt5ctypeIcE*  %6 to i8*, !dbg !4225
	%8 = icmp ne i8*  %7,  null, !dbg !4225
	br i1  %8, label %L..inline.62786, label %L.B1067, !dbg !4225
L.B1067:
	call void  @_ZSt16__throw_bad_castv () noreturn, !dbg !4226
	br label %L..inline.62786
L..inline.62786:
	%9 = load %struct._ZSt5ctypeIcE*, %struct._ZSt5ctypeIcE** %..inline.addr, align 8, !tbaa !3660, !dbg !4227
	%10 = bitcast %struct._ZSt5ctypeIcE*  %9 to i8*, !dbg !4227
	%11 = bitcast %struct._ZSt5ctypeIcE** %..inline.addr.1 to i8**, !dbg !4227
	store i8*  %10, i8**  %11, align 8, !tbaa !3660, !dbg !4227
	%12 = load i8, i8* %__c.addr, align 1, !tbaa !3659, !dbg !4225
	store i8  %12, i8* %..inline.addr.2, align 1, !tbaa !3659, !dbg !4225
	%13 = load %struct._ZSt5ctypeIcE*, %struct._ZSt5ctypeIcE** %..inline.addr.1, align 8, !tbaa !3660, !dbg !4225
	%14 = bitcast %struct._ZSt5ctypeIcE*  %13 to i8*, !dbg !4225
	%15 = getelementptr i8, i8*  %14, i64 56, !dbg !4225
	%16 = load i8, i8*  %15, align 1, !tbaa !3659, !dbg !4225
	%17 = sext i8  %16 to i32, !dbg !4225
	%18 = icmp eq i32  %17, 0, !dbg !4225
	br i1  %18, label %L..inline.62792, label %L.B1068, !dbg !4225
L.B1068:
	%19 = bitcast %struct._ZSt5ctypeIcE*  %13 to i8*, !dbg !4228
	%20 = getelementptr i8, i8*  %19, i64 57, !dbg !4228
	%21 = sext i8  %12 to i32, !dbg !4228
	%22 = and i32  %21, 255, !dbg !4228
	%23 = sext i32  %22 to i64, !dbg !4228
	%24 = getelementptr i8, i8*  %20, i64  %23, !dbg !4228
	%25 = load i8, i8*  %24, align 1, !tbaa !3659, !dbg !4228
	store i8  %25, i8* %..inline.addr.3, align 1, !tbaa !3659, !dbg !4228
	br label %L..inline.62796, !dbg !4229
L..inline.62792:
	%26 = load %struct._ZSt5ctypeIcE*, %struct._ZSt5ctypeIcE** %..inline.addr.1, align 8, !tbaa !3660, !dbg !4230
	call void  @_ZNKSt5ctypeIcE13_M_widen_initEv (%struct._ZSt5ctypeIcE*  %26), !dbg !4230
	%27 = load %struct._ZSt5ctypeIcE*, %struct._ZSt5ctypeIcE** %..inline.addr.1, align 8, !tbaa !3660, !dbg !4231
	%28 = load i8, i8* %..inline.addr.2, align 1, !tbaa !3659, !dbg !4231
	%29 = bitcast %struct._ZSt5ctypeIcE*  %27 to i8**, !dbg !4231
	%30 = load i8*, i8**  %29, align 8, !tbaa !3660, !dbg !4231
	%31 = getelementptr i8, i8*  %30, i64 48, !dbg !4231
	%32 = bitcast i8*  %31 to i8 (%struct._ZSt5ctypeIcE*, i8)**, !dbg !4231
	%33 = load i8 (%struct._ZSt5ctypeIcE*, i8)*, i8 (%struct._ZSt5ctypeIcE*, i8)**  %32, align 8, !tbaa !3660, !dbg !4231
	%34 = call i8  %33 (%struct._ZSt5ctypeIcE*  %27, i8  %28), !dbg !4231
	%35 = sext i8  %34 to i32, !dbg !4231
	store i32  %35, i32* %.Q0007.addr, align 4, !tbaa !3877, !dbg !4231
	%36 = shl i32  %35, 24, !dbg !4231
	%37 = ashr i32  %36, 24, !dbg !4231
	%38 = trunc i32  %37 to i8, !dbg !4231
	store i8  %38, i8* %..inline.addr.3, align 1, !tbaa !3659, !dbg !4231
	br label %L..inline.62796
L..inline.62796:
	%39 = load i8, i8* %..inline.addr.3, align 1, !tbaa !3659, !dbg !4232
	ret i8  %39, !dbg !4232
}
define linkonce_odr %struct._ZSo* @_ZNSolsEPFRSoS_E(%struct._ZSo* %_T33110608_48797.arg, %struct._ZSo* (%struct._ZSo*)* %__pf.arg) #0 inlinehint !dbg !4241 {
L.entry:
	%_T33110608_48797.addr = alloca %struct._ZSo*, align 8
	%__pf.addr = alloca %struct._ZSo* (%struct._ZSo*)*, align 8
	%.Q0008.addr = alloca %struct._ZSo*, align 8

	call void @llvm.dbg.declare (metadata %struct._ZSo** %_T33110608_48797.addr, metadata !4245, metadata !3652), !dbg !4242
	store %struct._ZSo* %_T33110608_48797.arg, %struct._ZSo** %_T33110608_48797.addr, align 8, !tbaa !3660
	call void @llvm.dbg.declare (metadata %struct._ZSo** %_T33110608_48797.addr, metadata !4246, metadata !3652), !dbg !4242
	call void @llvm.dbg.declare (metadata %struct._ZSo* (%struct._ZSo*)** %__pf.addr, metadata !4247, metadata !3652), !dbg !4242
	store %struct._ZSo* (%struct._ZSo*)* %__pf.arg, %struct._ZSo* (%struct._ZSo*)** %__pf.addr, align 8, !tbaa !3660
	call void @llvm.dbg.declare (metadata %struct._ZSo* (%struct._ZSo*)** %__pf.addr, metadata !4248, metadata !3652), !dbg !4242
	%0 = load %struct._ZSo*, %struct._ZSo** %_T33110608_48797.addr, align 8, !tbaa !3660, !dbg !4249
	%1 = load %struct._ZSo* (%struct._ZSo*)*, %struct._ZSo* (%struct._ZSo*)** %__pf.addr, align 8, !tbaa !3660, !dbg !4249
	%2 = call %struct._ZSo*  %1 (%struct._ZSo*  %0), !dbg !4249
	%3 = bitcast %struct._ZSo*  %2 to i8*, !dbg !4249
	%4 = bitcast %struct._ZSo** %.Q0008.addr to i8**, !dbg !4249
	store i8*  %3, i8**  %4, align 8, !tbaa !3660, !dbg !4249
	%5 = load %struct._ZSo*, %struct._ZSo** %.Q0008.addr, align 8, !tbaa !3660, !dbg !4249
	ret %struct._ZSo*  %5, !dbg !4249
}
define linkonce_odr %struct._ZSo* @_ZNSolsEj(%struct._ZSo* %_T33110608_48799.arg, i32 zeroext %__n.arg) #0 inlinehint !dbg !4254 {
L.entry:
	%_T33110608_48799.addr = alloca %struct._ZSo*, align 8
	%__n.addr = alloca i32, align 4
	%.Q0009.addr = alloca %struct._ZSo*, align 8

	call void @llvm.dbg.declare (metadata %struct._ZSo** %_T33110608_48799.addr, metadata !4258, metadata !3652), !dbg !4255
	store %struct._ZSo* %_T33110608_48799.arg, %struct._ZSo** %_T33110608_48799.addr, align 8, !tbaa !3660
	call void @llvm.dbg.declare (metadata %struct._ZSo** %_T33110608_48799.addr, metadata !4259, metadata !3652), !dbg !4255
	call void @llvm.dbg.declare (metadata i32* %__n.addr, metadata !4260, metadata !3652), !dbg !4255
	store i32 %__n.arg, i32* %__n.addr, align 4, !tbaa !3659
	call void @llvm.dbg.declare (metadata i32* %__n.addr, metadata !4261, metadata !3652), !dbg !4255
	%0 = load %struct._ZSo*, %struct._ZSo** %_T33110608_48799.addr, align 8, !tbaa !3660, !dbg !4262
	%1 = load i32, i32* %__n.addr, align 4, !tbaa !3877, !dbg !4262
	%2 = zext i32  %1 to i64, !dbg !4262
	%3 = call %struct._ZSo*  @_ZNSo9_M_insertImEERSoT_ (%struct._ZSo*  %0, i64  %2), !dbg !4262
	%4 = bitcast %struct._ZSo*  %3 to i8*, !dbg !4262
	%5 = bitcast %struct._ZSo** %.Q0009.addr to i8**, !dbg !4262
	store i8*  %4, i8**  %5, align 8, !tbaa !3660, !dbg !4262
	%6 = load %struct._ZSo*, %struct._ZSo** %.Q0009.addr, align 8, !tbaa !3660, !dbg !4262
	ret %struct._ZSo*  %6, !dbg !4262
}
define linkonce_odr void @_ZNSt12_Destroy_auxILb1EE9__destroyIPdEEvT_S3_(double* %_T33110608_48806.arg, double* %_T33110904_48806.arg) #0 inlinehint !dbg !4269 {
L.entry:
	%_T33110608_48806.addr = alloca double*, align 8
	%_T33110904_48806.addr = alloca double*, align 8

	call void @llvm.dbg.declare (metadata double** %_T33110608_48806.addr, metadata !4273, metadata !3652), !dbg !4270
	store double* %_T33110608_48806.arg, double** %_T33110608_48806.addr, align 8, !tbaa !3660
	call void @llvm.dbg.declare (metadata double** %_T33110608_48806.addr, metadata !4274, metadata !3652), !dbg !4270
	call void @llvm.dbg.declare (metadata double** %_T33110904_48806.addr, metadata !4275, metadata !3652), !dbg !4270
	store double* %_T33110904_48806.arg, double** %_T33110904_48806.addr, align 8, !tbaa !3660
	call void @llvm.dbg.declare (metadata double** %_T33110904_48806.addr, metadata !4276, metadata !3652), !dbg !4270
	ret void, !dbg !4277
}
define linkonce_odr void @_ZNSt12_Destroy_auxILb1EE9__destroyIPjEEvT_S3_(i32* %_T33110608_48809.arg, i32* %_T33110904_48809.arg) #0 inlinehint !dbg !4281 {
L.entry:
	%_T33110608_48809.addr = alloca i32*, align 8
	%_T33110904_48809.addr = alloca i32*, align 8

	call void @llvm.dbg.declare (metadata i32** %_T33110608_48809.addr, metadata !4285, metadata !3652), !dbg !4282
	store i32* %_T33110608_48809.arg, i32** %_T33110608_48809.addr, align 8, !tbaa !3660
	call void @llvm.dbg.declare (metadata i32** %_T33110608_48809.addr, metadata !4286, metadata !3652), !dbg !4282
	call void @llvm.dbg.declare (metadata i32** %_T33110904_48809.addr, metadata !4287, metadata !3652), !dbg !4282
	store i32* %_T33110904_48809.arg, i32** %_T33110904_48809.addr, align 8, !tbaa !3660
	call void @llvm.dbg.declare (metadata i32** %_T33110904_48809.addr, metadata !4288, metadata !3652), !dbg !4282
	ret void, !dbg !4289
}

%struct._ZSt5arrayIdLm3EE = type <{ [3 x double]}> 

define linkonce_odr void @_ZNSt12_Destroy_auxILb1EE9__destroyIPSt5arrayIdLm3EEEEvT_S5_(%struct._ZSt5arrayIdLm3EE* %_T33110608_48812.arg, %struct._ZSt5arrayIdLm3EE* %_T33110904_48812.arg) #0 inlinehint !dbg !4293 {
L.entry:
	%_T33110608_48812.addr = alloca %struct._ZSt5arrayIdLm3EE*, align 8
	%_T33110904_48812.addr = alloca %struct._ZSt5arrayIdLm3EE*, align 8

	call void @llvm.dbg.declare (metadata %struct._ZSt5arrayIdLm3EE** %_T33110608_48812.addr, metadata !4297, metadata !3652), !dbg !4294
	store %struct._ZSt5arrayIdLm3EE* %_T33110608_48812.arg, %struct._ZSt5arrayIdLm3EE** %_T33110608_48812.addr, align 8, !tbaa !3660
	call void @llvm.dbg.declare (metadata %struct._ZSt5arrayIdLm3EE** %_T33110608_48812.addr, metadata !4298, metadata !3652), !dbg !4294
	call void @llvm.dbg.declare (metadata %struct._ZSt5arrayIdLm3EE** %_T33110904_48812.addr, metadata !4299, metadata !3652), !dbg !4294
	store %struct._ZSt5arrayIdLm3EE* %_T33110904_48812.arg, %struct._ZSt5arrayIdLm3EE** %_T33110904_48812.addr, align 8, !tbaa !3660
	call void @llvm.dbg.declare (metadata %struct._ZSt5arrayIdLm3EE** %_T33110904_48812.addr, metadata !4300, metadata !3652), !dbg !4294
	ret void, !dbg !4301
}

%struct._ZSt13move_iteratorIPSt5arrayIdLm3EEE = type <{ %struct._ZSt5arrayIdLm3EE*}> 

define linkonce_odr %struct._ZSt5arrayIdLm3EE* @_ZNSt20__uninitialized_copyILb1EE13__uninit_copyISt13move_iteratorIPSt5arrayIdLm3EEES5_EET0_T_S8_S7_(i64 %__first.coerce, i64 %__last.coerce, %struct._ZSt5arrayIdLm3EE* %__result.arg) #0 inlinehint !dbg !4307 {
L.entry:
	%__first.addr = alloca %struct._ZSt13move_iteratorIPSt5arrayIdLm3EEE, align 8
	%__last.addr = alloca %struct._ZSt13move_iteratorIPSt5arrayIdLm3EEE, align 8
	%__result.addr = alloca %struct._ZSt5arrayIdLm3EE*, align 8
	%..inline.addr = alloca %struct._ZSt5arrayIdLm3EE*, align 8
	%..inline.addr.1 = alloca %struct._ZSt5arrayIdLm3EE*, align 8
	%..inline.addr.2 = alloca i64, align 8

	call void @llvm.dbg.declare (metadata %struct._ZSt13move_iteratorIPSt5arrayIdLm3EEE* %__first.addr, metadata !4367, metadata !3652), !dbg !4308
	%0 = bitcast %struct._ZSt13move_iteratorIPSt5arrayIdLm3EEE* %__first.addr to i64*
	store i64 %__first.coerce, i64*  %0, align 8, !tbaa !3659
	call void @llvm.dbg.declare (metadata %struct._ZSt13move_iteratorIPSt5arrayIdLm3EEE* %__first.addr, metadata !4368, metadata !3652), !dbg !4308
	call void @llvm.dbg.declare (metadata %struct._ZSt13move_iteratorIPSt5arrayIdLm3EEE* %__last.addr, metadata !4369, metadata !3652), !dbg !4308
	%1 = bitcast %struct._ZSt13move_iteratorIPSt5arrayIdLm3EEE* %__last.addr to i64*
	store i64 %__last.coerce, i64*  %1, align 8, !tbaa !3659
	call void @llvm.dbg.declare (metadata %struct._ZSt13move_iteratorIPSt5arrayIdLm3EEE* %__last.addr, metadata !4370, metadata !3652), !dbg !4308
	call void @llvm.dbg.declare (metadata %struct._ZSt5arrayIdLm3EE** %__result.addr, metadata !4371, metadata !3652), !dbg !4308
	store %struct._ZSt5arrayIdLm3EE* %__result.arg, %struct._ZSt5arrayIdLm3EE** %__result.addr, align 8, !tbaa !3660
	call void @llvm.dbg.declare (metadata %struct._ZSt5arrayIdLm3EE** %__result.addr, metadata !4372, metadata !3652), !dbg !4308
	%2 = bitcast %struct._ZSt13move_iteratorIPSt5arrayIdLm3EEE* %__first.addr to i8**, !dbg !4373
	%3 = load i8*, i8**  %2, align 8, !tbaa !3660, !dbg !4373
	%4 = bitcast %struct._ZSt5arrayIdLm3EE** %..inline.addr to i8**, !dbg !4373
	store i8*  %3, i8**  %4, align 8, !tbaa !3660, !dbg !4373
	%5 = load %struct._ZSt5arrayIdLm3EE*, %struct._ZSt5arrayIdLm3EE** %__result.addr, align 8, !tbaa !3660, !dbg !4373
	%6 = bitcast %struct._ZSt5arrayIdLm3EE*  %5 to i8*, !dbg !4373
	%7 = bitcast %struct._ZSt5arrayIdLm3EE** %..inline.addr.1 to i8**, !dbg !4373
	store i8*  %6, i8**  %7, align 8, !tbaa !3660, !dbg !4373
	%8 = bitcast %struct._ZSt13move_iteratorIPSt5arrayIdLm3EEE* %__last.addr to i8**, !dbg !4373
	%9 = load i8*, i8**  %8, align 8, !tbaa !3660, !dbg !4373
	%10 = ptrtoint i8*  %3 to i64, !dbg !4373
	%11 = sub i64 0,  %10, !dbg !4373
	%12 = getelementptr i8, i8*  %9, i64  %11, !dbg !4373
	%13 = ptrtoint i8*  %12 to i64, !dbg !4373
	%14 = sext i64 3074457345618258603 to i128, !dbg !4373
	%15 = sext i64  %13 to i128, !dbg !4373
	%16 = mul i128  %14,  %15, !dbg !4373
	%17 = ashr i128  %16, 64, !dbg !4373
	%18 = trunc i128  %17 to i64, !dbg !4373
	%19 = sext i32 2 to i64, !dbg !4373
	%20 = ashr i64  %18,  %19, !dbg !4373
	%21 = sub i64 0,  %10, !dbg !4373
	%22 = getelementptr i8, i8*  %9, i64  %21, !dbg !4373
	%23 = ptrtoint i8*  %22 to i64, !dbg !4373
	%24 = sext i32 63 to i64, !dbg !4373
	%25 = ashr i64  %23,  %24, !dbg !4373
	%26 = sub i64  %20,  %25, !dbg !4373
	store i64  %26, i64* %..inline.addr.2, align 8, !tbaa !4087, !dbg !4373
	%27 = icmp eq i64  %26, 0, !dbg !4373
	br i1  %27, label %L..inline.62912, label %L.B1071, !dbg !4373
L.B1071:
	%28 = load %struct._ZSt5arrayIdLm3EE*, %struct._ZSt5arrayIdLm3EE** %..inline.addr.1, align 8, !tbaa !3660, !dbg !4373
	%29 = bitcast %struct._ZSt5arrayIdLm3EE*  %28 to i8*, !dbg !4373
	%30 = load %struct._ZSt5arrayIdLm3EE*, %struct._ZSt5arrayIdLm3EE** %..inline.addr, align 8, !tbaa !3660, !dbg !4373
	%31 = bitcast %struct._ZSt5arrayIdLm3EE*  %30 to i8*, !dbg !4373
	%32 = mul i64  %26, 24, !dbg !4373
	%33 = call i8*  @memmove (i8*  %29, i8*  %31, i64  %32) nounwind, !dbg !4373
	br label %L..inline.62912
L..inline.62912:
	%34 = load %struct._ZSt5arrayIdLm3EE*, %struct._ZSt5arrayIdLm3EE** %..inline.addr.1, align 8, !tbaa !3660, !dbg !4374
	%35 = bitcast %struct._ZSt5arrayIdLm3EE*  %34 to i8*, !dbg !4374
	%36 = load i64, i64* %..inline.addr.2, align 8, !tbaa !4087, !dbg !4374
	%37 = mul i64  %36, 24, !dbg !4374
	%38 = getelementptr i8, i8*  %35, i64  %37, !dbg !4374
	%39 = bitcast i8*  %38 to %struct._ZSt5arrayIdLm3EE*, !dbg !4374
	ret %struct._ZSt5arrayIdLm3EE*  %39, !dbg !4374
}
define linkonce_odr double* @_ZNSt14__array_traitsIdLm3EE6_S_refERA3_Kdm([3 x double]* %__t.arg, i64 %__n.arg) #0 inlinehint !dbg !4382 {
L.entry:
	%__t.addr = alloca [3 x double]*, align 8
	%__n.addr = alloca i64, align 8

	call void @llvm.dbg.declare (metadata [3 x double]** %__t.addr, metadata !4386, metadata !3652), !dbg !4383
	store [3 x double]* %__t.arg, [3 x double]** %__t.addr, align 8, !tbaa !3660
	call void @llvm.dbg.declare (metadata [3 x double]** %__t.addr, metadata !4387, metadata !3652), !dbg !4383
	call void @llvm.dbg.declare (metadata i64* %__n.addr, metadata !4388, metadata !3652), !dbg !4383
	store i64 %__n.arg, i64* %__n.addr, align 8, !tbaa !3659
	call void @llvm.dbg.declare (metadata i64* %__n.addr, metadata !4389, metadata !3652), !dbg !4383
	%0 = load [3 x double]*, [3 x double]** %__t.addr, align 8, !tbaa !3660, !dbg !4390
	%1 = bitcast [3 x double]*  %0 to i8*, !dbg !4390
	%2 = load i64, i64* %__n.addr, align 8, !tbaa !4087, !dbg !4390
	%3 = mul i64  %2, 8, !dbg !4390
	%4 = getelementptr i8, i8*  %1, i64  %3, !dbg !4390
	%5 = bitcast i8*  %4 to double*, !dbg !4390
	ret double*  %5, !dbg !4390
}
define linkonce_odr double* @_ZNSt5arrayIdLm3EEixEm(%struct._ZSt5arrayIdLm3EE* %_T33110608_48820.arg, i64 %__n.arg) #0 inlinehint !dbg !4394 {
L.entry:
	%_T33110608_48820.addr = alloca %struct._ZSt5arrayIdLm3EE*, align 8
	%__n.addr = alloca i64, align 8

	call void @llvm.dbg.declare (metadata %struct._ZSt5arrayIdLm3EE** %_T33110608_48820.addr, metadata !4402, metadata !3652), !dbg !4395
	store %struct._ZSt5arrayIdLm3EE* %_T33110608_48820.arg, %struct._ZSt5arrayIdLm3EE** %_T33110608_48820.addr, align 8, !tbaa !3660
	call void @llvm.dbg.declare (metadata %struct._ZSt5arrayIdLm3EE** %_T33110608_48820.addr, metadata !4403, metadata !3652), !dbg !4395
	call void @llvm.dbg.declare (metadata i64* %__n.addr, metadata !4404, metadata !3652), !dbg !4395
	store i64 %__n.arg, i64* %__n.addr, align 8, !tbaa !3659
	call void @llvm.dbg.declare (metadata i64* %__n.addr, metadata !4405, metadata !3652), !dbg !4395
	%0 = load %struct._ZSt5arrayIdLm3EE*, %struct._ZSt5arrayIdLm3EE** %_T33110608_48820.addr, align 8, !tbaa !3660, !dbg !4406
	%1 = bitcast %struct._ZSt5arrayIdLm3EE*  %0 to i8*, !dbg !4406
	%2 = load i64, i64* %__n.addr, align 8, !tbaa !4087, !dbg !4406
	%3 = mul i64  %2, 8, !dbg !4406
	%4 = getelementptr i8, i8*  %1, i64  %3, !dbg !4406
	%5 = bitcast i8*  %4 to double*, !dbg !4406
	ret double*  %5, !dbg !4406
}
define linkonce_odr double* @_ZNKSt5arrayIdLm3EEixEm(%struct._ZSt5arrayIdLm3EE* %_T33110608_48823.arg, i64 %__n.arg) #0 inlinehint !dbg !4408 {
L.entry:
	%_T33110608_48823.addr = alloca %struct._ZSt5arrayIdLm3EE*, align 8
	%__n.addr = alloca i64, align 8

	call void @llvm.dbg.declare (metadata %struct._ZSt5arrayIdLm3EE** %_T33110608_48823.addr, metadata !4416, metadata !3652), !dbg !4409
	store %struct._ZSt5arrayIdLm3EE* %_T33110608_48823.arg, %struct._ZSt5arrayIdLm3EE** %_T33110608_48823.addr, align 8, !tbaa !3660
	call void @llvm.dbg.declare (metadata %struct._ZSt5arrayIdLm3EE** %_T33110608_48823.addr, metadata !4417, metadata !3652), !dbg !4409
	call void @llvm.dbg.declare (metadata i64* %__n.addr, metadata !4418, metadata !3652), !dbg !4409
	store i64 %__n.arg, i64* %__n.addr, align 8, !tbaa !3659
	call void @llvm.dbg.declare (metadata i64* %__n.addr, metadata !4419, metadata !3652), !dbg !4409
	%0 = load %struct._ZSt5arrayIdLm3EE*, %struct._ZSt5arrayIdLm3EE** %_T33110608_48823.addr, align 8, !tbaa !3660, !dbg !4420
	%1 = bitcast %struct._ZSt5arrayIdLm3EE*  %0 to i8*, !dbg !4420
	%2 = load i64, i64* %__n.addr, align 8, !tbaa !4087, !dbg !4420
	%3 = mul i64  %2, 8, !dbg !4420
	%4 = getelementptr i8, i8*  %1, i64  %3, !dbg !4420
	%5 = bitcast i8*  %4 to double*, !dbg !4420
	ret double*  %5, !dbg !4420
}

%struct._ZSaIdE = type <{ [1 x i8]}> 

define linkonce_odr void @_ZNSaIdED1Ev(%struct._ZSaIdE* %_T33110608_48824.arg) #0 inlinehint !dbg !4428 {
L.entry:
	%_T33110608_48824.addr = alloca %struct._ZSaIdE*, align 8

	call void @llvm.dbg.declare (metadata %struct._ZSaIdE** %_T33110608_48824.addr, metadata !4432, metadata !3652), !dbg !4429
	store %struct._ZSaIdE* %_T33110608_48824.arg, %struct._ZSaIdE** %_T33110608_48824.addr, align 8, !tbaa !3660
	call void @llvm.dbg.declare (metadata %struct._ZSaIdE** %_T33110608_48824.addr, metadata !4433, metadata !3652), !dbg !4429
	ret void, !dbg !4434
}
define linkonce_odr void @_ZNSaIdED2Ev(%struct._ZSaIdE* %_T33110608_48825.arg) #0 inlinehint !dbg !4436 {
L.entry:
	%_T33110608_48825.addr = alloca %struct._ZSaIdE*, align 8

	store %struct._ZSaIdE* %_T33110608_48825.arg, %struct._ZSaIdE** %_T33110608_48825.addr, align 8, !tbaa !3660
	ret void, !dbg !4444
}
define linkonce_odr void @_ZNSt16allocator_traitsISaIdEE10deallocateERS0_Pdm(%struct._ZSaIdE* %__a.arg, double* %__p.arg, i64 %__n.arg) #0 inlinehint !dbg !4452 {
L.entry:
	%__a.addr = alloca %struct._ZSaIdE*, align 8
	%__p.addr = alloca double*, align 8
	%__n.addr = alloca i64, align 8
	%..inline.addr = alloca double*, align 8

	call void @llvm.dbg.declare (metadata %struct._ZSaIdE** %__a.addr, metadata !4460, metadata !3652), !dbg !4453
	store %struct._ZSaIdE* %__a.arg, %struct._ZSaIdE** %__a.addr, align 8, !tbaa !3660
	call void @llvm.dbg.declare (metadata %struct._ZSaIdE** %__a.addr, metadata !4461, metadata !3652), !dbg !4453
	call void @llvm.dbg.declare (metadata double** %__p.addr, metadata !4462, metadata !3652), !dbg !4453
	store double* %__p.arg, double** %__p.addr, align 8, !tbaa !3660
	call void @llvm.dbg.declare (metadata double** %__p.addr, metadata !4463, metadata !3652), !dbg !4453
	call void @llvm.dbg.declare (metadata i64* %__n.addr, metadata !4464, metadata !3652), !dbg !4453
	store i64 %__n.arg, i64* %__n.addr, align 8, !tbaa !3659
	call void @llvm.dbg.declare (metadata i64* %__n.addr, metadata !4465, metadata !3652), !dbg !4453
	%0 = load double*, double** %__p.addr, align 8, !tbaa !3660, !dbg !4466
	%1 = bitcast double*  %0 to i8*, !dbg !4466
	%2 = bitcast double** %..inline.addr to i8**, !dbg !4466
	store i8*  %1, i8**  %2, align 8, !tbaa !3660, !dbg !4466
	%3 = load double*, double** %..inline.addr, align 8, !tbaa !3660, !dbg !4467
	%4 = bitcast double*  %3 to i8*, !dbg !4467
	call void  @_ZdlPv (i8*  %4) nounwind, !dbg !4467
	ret void, !dbg !4466
}

%struct._ZNSt12_Vector_baseIdSaIdEE12_Vector_implE = type <{ %struct._ZNSt12_Vector_baseIdSaIdEE17_Vector_impl_dataE}> 
%struct._ZSt12_Vector_baseIdSaIdEE = type <{ %struct._ZNSt12_Vector_baseIdSaIdEE12_Vector_implE}> 
%struct._ZNSt12_Vector_baseIdSaIdEE17_Vector_impl_dataE = type <{ double*, double*, double*}> 

define linkonce_odr %struct._ZSaIdE* @_ZNSt12_Vector_baseIdSaIdEE19_M_get_Tp_allocatorEv(%struct._ZSt12_Vector_baseIdSaIdEE* %_T33110608_48831.arg) #0 inlinehint !dbg !4475 {
L.entry:
	%_T33110608_48831.addr = alloca %struct._ZSt12_Vector_baseIdSaIdEE*, align 8

	call void @llvm.dbg.declare (metadata %struct._ZSt12_Vector_baseIdSaIdEE** %_T33110608_48831.addr, metadata !4479, metadata !3652), !dbg !4476
	store %struct._ZSt12_Vector_baseIdSaIdEE* %_T33110608_48831.arg, %struct._ZSt12_Vector_baseIdSaIdEE** %_T33110608_48831.addr, align 8, !tbaa !3660
	call void @llvm.dbg.declare (metadata %struct._ZSt12_Vector_baseIdSaIdEE** %_T33110608_48831.addr, metadata !4480, metadata !3652), !dbg !4476
	%0 = load %struct._ZSt12_Vector_baseIdSaIdEE*, %struct._ZSt12_Vector_baseIdSaIdEE** %_T33110608_48831.addr, align 8, !tbaa !3660, !dbg !4481
	%1 = bitcast %struct._ZSt12_Vector_baseIdSaIdEE*  %0 to %struct._ZSaIdE*, !dbg !4481
	ret %struct._ZSaIdE*  %1, !dbg !4481
}
define linkonce_odr void @_ZNSt12_Vector_baseIdSaIdEED1Ev(%struct._ZSt12_Vector_baseIdSaIdEE* %_T33110608_48832.arg) #0 inlinehint !dbg !4485 {
L.entry:
	%_T33110608_48832.addr = alloca %struct._ZSt12_Vector_baseIdSaIdEE*, align 8
	%..inline.addr = alloca double*, align 8

	call void @llvm.dbg.declare (metadata %struct._ZSt12_Vector_baseIdSaIdEE** %_T33110608_48832.addr, metadata !4513, metadata !3652), !dbg !4486
	store %struct._ZSt12_Vector_baseIdSaIdEE* %_T33110608_48832.arg, %struct._ZSt12_Vector_baseIdSaIdEE** %_T33110608_48832.addr, align 8, !tbaa !3660
	call void @llvm.dbg.declare (metadata %struct._ZSt12_Vector_baseIdSaIdEE** %_T33110608_48832.addr, metadata !4514, metadata !3652), !dbg !4486
	%0 = load %struct._ZSt12_Vector_baseIdSaIdEE*, %struct._ZSt12_Vector_baseIdSaIdEE** %_T33110608_48832.addr, align 8, !tbaa !3660, !dbg !4515
	%1 = bitcast %struct._ZSt12_Vector_baseIdSaIdEE*  %0 to i8**, !dbg !4515
	%2 = load i8*, i8**  %1, align 8, !tbaa !3660, !dbg !4515
	%3 = icmp eq i8*  %2,  null, !dbg !4515
	br i1  %3, label %L..inline.63036, label %L.B1084, !dbg !4515
L.B1084:
	%4 = bitcast %struct._ZSt12_Vector_baseIdSaIdEE*  %0 to i8**, !dbg !4516
	%5 = load i8*, i8**  %4, align 8, !tbaa !3660, !dbg !4516
	%6 = bitcast double** %..inline.addr to i8**, !dbg !4516
	store i8*  %5, i8**  %6, align 8, !tbaa !3660, !dbg !4516
	%7 = load double*, double** %..inline.addr, align 8, !tbaa !3660, !dbg !4516
	%8 = bitcast double*  %7 to i8*, !dbg !4516
	call void  @_ZdlPv (i8*  %8) nounwind, !dbg !4516
	br label %L..inline.63036
L..inline.63036:
	ret void, !dbg !4517
}
define linkonce_odr void @_ZNSt12_Vector_baseIdSaIdEED2Ev(%struct._ZSt12_Vector_baseIdSaIdEE* %_T33110608_48833.arg) #0 inlinehint !dbg !4519 {
L.entry:
	%_T33110608_48833.addr = alloca %struct._ZSt12_Vector_baseIdSaIdEE*, align 8
	%..inline.addr = alloca %struct._ZSt12_Vector_baseIdSaIdEE*, align 8
	%..inline.addr.1 = alloca double*, align 8

	store %struct._ZSt12_Vector_baseIdSaIdEE* %_T33110608_48833.arg, %struct._ZSt12_Vector_baseIdSaIdEE** %_T33110608_48833.addr, align 8, !tbaa !3660
	%0 = load %struct._ZSt12_Vector_baseIdSaIdEE*, %struct._ZSt12_Vector_baseIdSaIdEE** %_T33110608_48833.addr, align 8, !tbaa !3660, !dbg !4551
	%1 = bitcast %struct._ZSt12_Vector_baseIdSaIdEE*  %0 to i8*, !dbg !4551
	%2 = bitcast %struct._ZSt12_Vector_baseIdSaIdEE** %..inline.addr to i8**, !dbg !4551
	store i8*  %1, i8**  %2, align 8, !tbaa !3660, !dbg !4551
	%3 = load %struct._ZSt12_Vector_baseIdSaIdEE*, %struct._ZSt12_Vector_baseIdSaIdEE** %..inline.addr, align 8, !tbaa !3660, !dbg !4551
	%4 = bitcast %struct._ZSt12_Vector_baseIdSaIdEE*  %3 to i8**, !dbg !4551
	%5 = load i8*, i8**  %4, align 8, !tbaa !3660, !dbg !4551
	%6 = icmp eq i8*  %5,  null, !dbg !4551
	br i1  %6, label %L..inline.63097, label %L.B1087, !dbg !4551
L.B1087:
	%7 = bitcast %struct._ZSt12_Vector_baseIdSaIdEE*  %3 to i8**, !dbg !4551
	%8 = load i8*, i8**  %7, align 8, !tbaa !3660, !dbg !4551
	%9 = bitcast double** %..inline.addr.1 to i8**, !dbg !4551
	store i8*  %8, i8**  %9, align 8, !tbaa !3660, !dbg !4551
	%10 = load double*, double** %..inline.addr.1, align 8, !tbaa !3660, !dbg !4551
	%11 = bitcast double*  %10 to i8*, !dbg !4551
	call void  @_ZdlPv (i8*  %11) nounwind, !dbg !4551
	br label %L..inline.63097
L..inline.63097:
	ret void, !dbg !4552
}
define linkonce_odr void @_ZNSt12_Vector_baseIdSaIdEE13_M_deallocateEPdm(%struct._ZSt12_Vector_baseIdSaIdEE* %_T33110608_48836.arg, double* %__p.arg, i64 %__n.arg) #0 inlinehint !dbg !4556 {
L.entry:
	%_T33110608_48836.addr = alloca %struct._ZSt12_Vector_baseIdSaIdEE*, align 8
	%__p.addr = alloca double*, align 8
	%__n.addr = alloca i64, align 8
	%..inline.addr = alloca double*, align 8

	call void @llvm.dbg.declare (metadata %struct._ZSt12_Vector_baseIdSaIdEE** %_T33110608_48836.addr, metadata !4568, metadata !3652), !dbg !4557
	store %struct._ZSt12_Vector_baseIdSaIdEE* %_T33110608_48836.arg, %struct._ZSt12_Vector_baseIdSaIdEE** %_T33110608_48836.addr, align 8, !tbaa !3660
	call void @llvm.dbg.declare (metadata %struct._ZSt12_Vector_baseIdSaIdEE** %_T33110608_48836.addr, metadata !4569, metadata !3652), !dbg !4557
	call void @llvm.dbg.declare (metadata double** %__p.addr, metadata !4570, metadata !3652), !dbg !4557
	store double* %__p.arg, double** %__p.addr, align 8, !tbaa !3660
	call void @llvm.dbg.declare (metadata double** %__p.addr, metadata !4571, metadata !3652), !dbg !4557
	call void @llvm.dbg.declare (metadata i64* %__n.addr, metadata !4572, metadata !3652), !dbg !4557
	store i64 %__n.arg, i64* %__n.addr, align 8, !tbaa !3659
	call void @llvm.dbg.declare (metadata i64* %__n.addr, metadata !4573, metadata !3652), !dbg !4557
	%0 = load double*, double** %__p.addr, align 8, !tbaa !3660, !dbg !4574
	%1 = bitcast double*  %0 to i8*, !dbg !4574
	%2 = icmp eq i8*  %1,  null, !dbg !4574
	br i1  %2, label %L.B0006, label %L.B1090, !dbg !4574
L.B1090:
	%3 = bitcast double*  %0 to i8*, !dbg !4575
	%4 = bitcast double** %..inline.addr to i8**, !dbg !4575
	store i8*  %3, i8**  %4, align 8, !tbaa !3660, !dbg !4575
	%5 = load double*, double** %..inline.addr, align 8, !tbaa !3660, !dbg !4575
	%6 = bitcast double*  %5 to i8*, !dbg !4575
	call void  @_ZdlPv (i8*  %6) nounwind, !dbg !4575
	br label %L.B0006
L.B0006:
	ret void, !dbg !4576
}
define linkonce_odr void @_ZNSt12_Vector_baseIdSaIdEE12_Vector_implD1Ev(%struct._ZNSt12_Vector_baseIdSaIdEE12_Vector_implE* %_T33110608_48837.arg) #0 inlinehint !dbg !4581 {
L.entry:
	%_T33110608_48837.addr = alloca %struct._ZNSt12_Vector_baseIdSaIdEE12_Vector_implE*, align 8

	call void @llvm.dbg.declare (metadata %struct._ZNSt12_Vector_baseIdSaIdEE12_Vector_implE** %_T33110608_48837.addr, metadata !4593, metadata !3652), !dbg !4582
	store %struct._ZNSt12_Vector_baseIdSaIdEE12_Vector_implE* %_T33110608_48837.arg, %struct._ZNSt12_Vector_baseIdSaIdEE12_Vector_implE** %_T33110608_48837.addr, align 8, !tbaa !3660
	call void @llvm.dbg.declare (metadata %struct._ZNSt12_Vector_baseIdSaIdEE12_Vector_implE** %_T33110608_48837.addr, metadata !4594, metadata !3652), !dbg !4582
	ret void, !dbg !4595
}
define linkonce_odr void @_ZNSt12_Vector_baseIdSaIdEE12_Vector_implD2Ev(%struct._ZNSt12_Vector_baseIdSaIdEE12_Vector_implE* %_T33110608_48838.arg) #0 inlinehint !dbg !4597 {
L.entry:
	%_T33110608_48838.addr = alloca %struct._ZNSt12_Vector_baseIdSaIdEE12_Vector_implE*, align 8

	store %struct._ZNSt12_Vector_baseIdSaIdEE12_Vector_implE* %_T33110608_48838.arg, %struct._ZNSt12_Vector_baseIdSaIdEE12_Vector_implE** %_T33110608_48838.addr, align 8, !tbaa !3660
	ret void, !dbg !4613
}

%struct._ZSt6vectorIdSaIdEE = type <{ %struct._ZSt12_Vector_baseIdSaIdEE}> 

define linkonce_odr void @_ZNSt6vectorIdSaIdEED1Ev(%struct._ZSt6vectorIdSaIdEE* %_T33110608_48839.arg) #0 inlinehint !dbg !4618 {
L.entry:
	%_T33110608_48839.addr = alloca %struct._ZSt6vectorIdSaIdEE*, align 8
	%..inline.addr = alloca %struct._ZSt12_Vector_baseIdSaIdEE*, align 8
	%..inline.addr.1 = alloca double*, align 8

	call void @llvm.dbg.declare (metadata %struct._ZSt6vectorIdSaIdEE** %_T33110608_48839.addr, metadata !4670, metadata !3652), !dbg !4619
	store %struct._ZSt6vectorIdSaIdEE* %_T33110608_48839.arg, %struct._ZSt6vectorIdSaIdEE** %_T33110608_48839.addr, align 8, !tbaa !3660
	call void @llvm.dbg.declare (metadata %struct._ZSt6vectorIdSaIdEE** %_T33110608_48839.addr, metadata !4671, metadata !3652), !dbg !4619
	%0 = load %struct._ZSt6vectorIdSaIdEE*, %struct._ZSt6vectorIdSaIdEE** %_T33110608_48839.addr, align 8, !tbaa !3660, !dbg !4672
	%1 = bitcast %struct._ZSt6vectorIdSaIdEE*  %0 to i8*, !dbg !4672
	%2 = bitcast %struct._ZSt12_Vector_baseIdSaIdEE** %..inline.addr to i8**, !dbg !4672
	store i8*  %1, i8**  %2, align 8, !tbaa !3660, !dbg !4672
	%3 = load %struct._ZSt12_Vector_baseIdSaIdEE*, %struct._ZSt12_Vector_baseIdSaIdEE** %..inline.addr, align 8, !tbaa !3660, !dbg !4673
	%4 = bitcast %struct._ZSt12_Vector_baseIdSaIdEE*  %3 to i8**, !dbg !4673
	%5 = load i8*, i8**  %4, align 8, !tbaa !3660, !dbg !4673
	%6 = icmp eq i8*  %5,  null, !dbg !4673
	br i1  %6, label %L..inline.63248, label %L.B1101, !dbg !4673
L.B1101:
	%7 = bitcast %struct._ZSt12_Vector_baseIdSaIdEE*  %3 to i8**, !dbg !4673
	%8 = load i8*, i8**  %7, align 8, !tbaa !3660, !dbg !4673
	%9 = bitcast double** %..inline.addr.1 to i8**, !dbg !4673
	store i8*  %8, i8**  %9, align 8, !tbaa !3660, !dbg !4673
	%10 = load double*, double** %..inline.addr.1, align 8, !tbaa !3660, !dbg !4673
	%11 = bitcast double*  %10 to i8*, !dbg !4673
	call void  @_ZdlPv (i8*  %11) nounwind, !dbg !4673
	br label %L..inline.63248
L..inline.63248:
	ret void, !dbg !4672
}
define linkonce_odr void @_ZNSt6vectorIdSaIdEED2Ev(%struct._ZSt6vectorIdSaIdEE* %_T33110608_48840.arg) #0 inlinehint !dbg !4675 {
L.entry:
	%_T33110608_48840.addr = alloca %struct._ZSt6vectorIdSaIdEE*, align 8
	%..inline.addr = alloca %struct._ZSt12_Vector_baseIdSaIdEE*, align 8
	%..inline.addr.1 = alloca double*, align 8

	store %struct._ZSt6vectorIdSaIdEE* %_T33110608_48840.arg, %struct._ZSt6vectorIdSaIdEE** %_T33110608_48840.addr, align 8, !tbaa !3660
	%0 = load %struct._ZSt6vectorIdSaIdEE*, %struct._ZSt6vectorIdSaIdEE** %_T33110608_48840.addr, align 8, !tbaa !3660, !dbg !4731
	%1 = bitcast %struct._ZSt6vectorIdSaIdEE*  %0 to i8*, !dbg !4731
	%2 = bitcast %struct._ZSt12_Vector_baseIdSaIdEE** %..inline.addr to i8**, !dbg !4731
	store i8*  %1, i8**  %2, align 8, !tbaa !3660, !dbg !4731
	%3 = load %struct._ZSt12_Vector_baseIdSaIdEE*, %struct._ZSt12_Vector_baseIdSaIdEE** %..inline.addr, align 8, !tbaa !3660, !dbg !4731
	%4 = bitcast %struct._ZSt12_Vector_baseIdSaIdEE*  %3 to i8**, !dbg !4731
	%5 = load i8*, i8**  %4, align 8, !tbaa !3660, !dbg !4731
	%6 = icmp eq i8*  %5,  null, !dbg !4731
	br i1  %6, label %L..inline.63352, label %L.B1104, !dbg !4731
L.B1104:
	%7 = bitcast %struct._ZSt12_Vector_baseIdSaIdEE*  %3 to i8**, !dbg !4731
	%8 = load i8*, i8**  %7, align 8, !tbaa !3660, !dbg !4731
	%9 = bitcast double** %..inline.addr.1 to i8**, !dbg !4731
	store i8*  %8, i8**  %9, align 8, !tbaa !3660, !dbg !4731
	%10 = load double*, double** %..inline.addr.1, align 8, !tbaa !3660, !dbg !4731
	%11 = bitcast double*  %10 to i8*, !dbg !4731
	call void  @_ZdlPv (i8*  %11) nounwind, !dbg !4731
	br label %L..inline.63352
L..inline.63352:
	ret void, !dbg !4731
}

%struct._ZSaIjE = type <{ [1 x i8]}> 

define linkonce_odr void @_ZNSaIjED1Ev(%struct._ZSaIjE* %_T33110608_48841.arg) #0 inlinehint !dbg !4739 {
L.entry:
	%_T33110608_48841.addr = alloca %struct._ZSaIjE*, align 8

	call void @llvm.dbg.declare (metadata %struct._ZSaIjE** %_T33110608_48841.addr, metadata !4743, metadata !3652), !dbg !4740
	store %struct._ZSaIjE* %_T33110608_48841.arg, %struct._ZSaIjE** %_T33110608_48841.addr, align 8, !tbaa !3660
	call void @llvm.dbg.declare (metadata %struct._ZSaIjE** %_T33110608_48841.addr, metadata !4744, metadata !3652), !dbg !4740
	ret void, !dbg !4745
}
define linkonce_odr void @_ZNSaIjED2Ev(%struct._ZSaIjE* %_T33110608_48842.arg) #0 inlinehint !dbg !4747 {
L.entry:
	%_T33110608_48842.addr = alloca %struct._ZSaIjE*, align 8

	store %struct._ZSaIjE* %_T33110608_48842.arg, %struct._ZSaIjE** %_T33110608_48842.addr, align 8, !tbaa !3660
	ret void, !dbg !4755
}
define linkonce_odr void @_ZNSt16allocator_traitsISaIjEE10deallocateERS0_Pjm(%struct._ZSaIjE* %__a.arg, i32* %__p.arg, i64 %__n.arg) #0 inlinehint !dbg !4763 {
L.entry:
	%__a.addr = alloca %struct._ZSaIjE*, align 8
	%__p.addr = alloca i32*, align 8
	%__n.addr = alloca i64, align 8
	%..inline.addr = alloca i32*, align 8

	call void @llvm.dbg.declare (metadata %struct._ZSaIjE** %__a.addr, metadata !4771, metadata !3652), !dbg !4764
	store %struct._ZSaIjE* %__a.arg, %struct._ZSaIjE** %__a.addr, align 8, !tbaa !3660
	call void @llvm.dbg.declare (metadata %struct._ZSaIjE** %__a.addr, metadata !4772, metadata !3652), !dbg !4764
	call void @llvm.dbg.declare (metadata i32** %__p.addr, metadata !4773, metadata !3652), !dbg !4764
	store i32* %__p.arg, i32** %__p.addr, align 8, !tbaa !3660
	call void @llvm.dbg.declare (metadata i32** %__p.addr, metadata !4774, metadata !3652), !dbg !4764
	call void @llvm.dbg.declare (metadata i64* %__n.addr, metadata !4775, metadata !3652), !dbg !4764
	store i64 %__n.arg, i64* %__n.addr, align 8, !tbaa !3659
	call void @llvm.dbg.declare (metadata i64* %__n.addr, metadata !4776, metadata !3652), !dbg !4764
	%0 = load i32*, i32** %__p.addr, align 8, !tbaa !3660, !dbg !4777
	%1 = bitcast i32*  %0 to i8*, !dbg !4777
	%2 = bitcast i32** %..inline.addr to i8**, !dbg !4777
	store i8*  %1, i8**  %2, align 8, !tbaa !3660, !dbg !4777
	%3 = load i32*, i32** %..inline.addr, align 8, !tbaa !3660, !dbg !4778
	%4 = bitcast i32*  %3 to i8*, !dbg !4778
	call void  @_ZdlPv (i8*  %4) nounwind, !dbg !4778
	ret void, !dbg !4777
}

%struct._ZNSt12_Vector_baseIjSaIjEE17_Vector_impl_dataE = type <{ i32*, i32*, i32*}> 
%struct._ZSt12_Vector_baseIjSaIjEE = type <{ %struct._ZNSt12_Vector_baseIjSaIjEE12_Vector_implE}> 
%struct._ZNSt12_Vector_baseIjSaIjEE12_Vector_implE = type <{ %struct._ZNSt12_Vector_baseIjSaIjEE17_Vector_impl_dataE}> 

define linkonce_odr %struct._ZSaIjE* @_ZNSt12_Vector_baseIjSaIjEE19_M_get_Tp_allocatorEv(%struct._ZSt12_Vector_baseIjSaIjEE* %_T33110608_48848.arg) #0 inlinehint !dbg !4784 {
L.entry:
	%_T33110608_48848.addr = alloca %struct._ZSt12_Vector_baseIjSaIjEE*, align 8

	call void @llvm.dbg.declare (metadata %struct._ZSt12_Vector_baseIjSaIjEE** %_T33110608_48848.addr, metadata !4788, metadata !3652), !dbg !4785
	store %struct._ZSt12_Vector_baseIjSaIjEE* %_T33110608_48848.arg, %struct._ZSt12_Vector_baseIjSaIjEE** %_T33110608_48848.addr, align 8, !tbaa !3660
	call void @llvm.dbg.declare (metadata %struct._ZSt12_Vector_baseIjSaIjEE** %_T33110608_48848.addr, metadata !4789, metadata !3652), !dbg !4785
	%0 = load %struct._ZSt12_Vector_baseIjSaIjEE*, %struct._ZSt12_Vector_baseIjSaIjEE** %_T33110608_48848.addr, align 8, !tbaa !3660, !dbg !4790
	%1 = bitcast %struct._ZSt12_Vector_baseIjSaIjEE*  %0 to %struct._ZSaIjE*, !dbg !4790
	ret %struct._ZSaIjE*  %1, !dbg !4790
}
define linkonce_odr void @_ZNSt12_Vector_baseIjSaIjEED1Ev(%struct._ZSt12_Vector_baseIjSaIjEE* %_T33110608_48849.arg) #0 inlinehint !dbg !4794 {
L.entry:
	%_T33110608_48849.addr = alloca %struct._ZSt12_Vector_baseIjSaIjEE*, align 8
	%..inline.addr = alloca i32*, align 8

	call void @llvm.dbg.declare (metadata %struct._ZSt12_Vector_baseIjSaIjEE** %_T33110608_48849.addr, metadata !4822, metadata !3652), !dbg !4795
	store %struct._ZSt12_Vector_baseIjSaIjEE* %_T33110608_48849.arg, %struct._ZSt12_Vector_baseIjSaIjEE** %_T33110608_48849.addr, align 8, !tbaa !3660
	call void @llvm.dbg.declare (metadata %struct._ZSt12_Vector_baseIjSaIjEE** %_T33110608_48849.addr, metadata !4823, metadata !3652), !dbg !4795
	%0 = load %struct._ZSt12_Vector_baseIjSaIjEE*, %struct._ZSt12_Vector_baseIjSaIjEE** %_T33110608_48849.addr, align 8, !tbaa !3660, !dbg !4824
	%1 = bitcast %struct._ZSt12_Vector_baseIjSaIjEE*  %0 to i8**, !dbg !4824
	%2 = load i8*, i8**  %1, align 8, !tbaa !3660, !dbg !4824
	%3 = icmp eq i8*  %2,  null, !dbg !4824
	br i1  %3, label %L..inline.63448, label %L.B1113, !dbg !4824
L.B1113:
	%4 = bitcast %struct._ZSt12_Vector_baseIjSaIjEE*  %0 to i8**, !dbg !4825
	%5 = load i8*, i8**  %4, align 8, !tbaa !3660, !dbg !4825
	%6 = bitcast i32** %..inline.addr to i8**, !dbg !4825
	store i8*  %5, i8**  %6, align 8, !tbaa !3660, !dbg !4825
	%7 = load i32*, i32** %..inline.addr, align 8, !tbaa !3660, !dbg !4825
	%8 = bitcast i32*  %7 to i8*, !dbg !4825
	call void  @_ZdlPv (i8*  %8) nounwind, !dbg !4825
	br label %L..inline.63448
L..inline.63448:
	ret void, !dbg !4826
}
define linkonce_odr void @_ZNSt12_Vector_baseIjSaIjEED2Ev(%struct._ZSt12_Vector_baseIjSaIjEE* %_T33110608_48850.arg) #0 inlinehint !dbg !4828 {
L.entry:
	%_T33110608_48850.addr = alloca %struct._ZSt12_Vector_baseIjSaIjEE*, align 8
	%..inline.addr = alloca %struct._ZSt12_Vector_baseIjSaIjEE*, align 8
	%..inline.addr.1 = alloca i32*, align 8

	store %struct._ZSt12_Vector_baseIjSaIjEE* %_T33110608_48850.arg, %struct._ZSt12_Vector_baseIjSaIjEE** %_T33110608_48850.addr, align 8, !tbaa !3660
	%0 = load %struct._ZSt12_Vector_baseIjSaIjEE*, %struct._ZSt12_Vector_baseIjSaIjEE** %_T33110608_48850.addr, align 8, !tbaa !3660, !dbg !4860
	%1 = bitcast %struct._ZSt12_Vector_baseIjSaIjEE*  %0 to i8*, !dbg !4860
	%2 = bitcast %struct._ZSt12_Vector_baseIjSaIjEE** %..inline.addr to i8**, !dbg !4860
	store i8*  %1, i8**  %2, align 8, !tbaa !3660, !dbg !4860
	%3 = load %struct._ZSt12_Vector_baseIjSaIjEE*, %struct._ZSt12_Vector_baseIjSaIjEE** %..inline.addr, align 8, !tbaa !3660, !dbg !4860
	%4 = bitcast %struct._ZSt12_Vector_baseIjSaIjEE*  %3 to i8**, !dbg !4860
	%5 = load i8*, i8**  %4, align 8, !tbaa !3660, !dbg !4860
	%6 = icmp eq i8*  %5,  null, !dbg !4860
	br i1  %6, label %L..inline.63508, label %L.B1116, !dbg !4860
L.B1116:
	%7 = bitcast %struct._ZSt12_Vector_baseIjSaIjEE*  %3 to i8**, !dbg !4860
	%8 = load i8*, i8**  %7, align 8, !tbaa !3660, !dbg !4860
	%9 = bitcast i32** %..inline.addr.1 to i8**, !dbg !4860
	store i8*  %8, i8**  %9, align 8, !tbaa !3660, !dbg !4860
	%10 = load i32*, i32** %..inline.addr.1, align 8, !tbaa !3660, !dbg !4860
	%11 = bitcast i32*  %10 to i8*, !dbg !4860
	call void  @_ZdlPv (i8*  %11) nounwind, !dbg !4860
	br label %L..inline.63508
L..inline.63508:
	ret void, !dbg !4861
}
define linkonce_odr void @_ZNSt12_Vector_baseIjSaIjEE13_M_deallocateEPjm(%struct._ZSt12_Vector_baseIjSaIjEE* %_T33110608_48853.arg, i32* %__p.arg, i64 %__n.arg) #0 inlinehint !dbg !4865 {
L.entry:
	%_T33110608_48853.addr = alloca %struct._ZSt12_Vector_baseIjSaIjEE*, align 8
	%__p.addr = alloca i32*, align 8
	%__n.addr = alloca i64, align 8
	%..inline.addr = alloca i32*, align 8

	call void @llvm.dbg.declare (metadata %struct._ZSt12_Vector_baseIjSaIjEE** %_T33110608_48853.addr, metadata !4877, metadata !3652), !dbg !4866
	store %struct._ZSt12_Vector_baseIjSaIjEE* %_T33110608_48853.arg, %struct._ZSt12_Vector_baseIjSaIjEE** %_T33110608_48853.addr, align 8, !tbaa !3660
	call void @llvm.dbg.declare (metadata %struct._ZSt12_Vector_baseIjSaIjEE** %_T33110608_48853.addr, metadata !4878, metadata !3652), !dbg !4866
	call void @llvm.dbg.declare (metadata i32** %__p.addr, metadata !4879, metadata !3652), !dbg !4866
	store i32* %__p.arg, i32** %__p.addr, align 8, !tbaa !3660
	call void @llvm.dbg.declare (metadata i32** %__p.addr, metadata !4880, metadata !3652), !dbg !4866
	call void @llvm.dbg.declare (metadata i64* %__n.addr, metadata !4881, metadata !3652), !dbg !4866
	store i64 %__n.arg, i64* %__n.addr, align 8, !tbaa !3659
	call void @llvm.dbg.declare (metadata i64* %__n.addr, metadata !4882, metadata !3652), !dbg !4866
	%0 = load i32*, i32** %__p.addr, align 8, !tbaa !3660, !dbg !4883
	%1 = bitcast i32*  %0 to i8*, !dbg !4883
	%2 = icmp eq i8*  %1,  null, !dbg !4883
	br i1  %2, label %L.B0007, label %L.B1119, !dbg !4883
L.B1119:
	%3 = bitcast i32*  %0 to i8*, !dbg !4884
	%4 = bitcast i32** %..inline.addr to i8**, !dbg !4884
	store i8*  %3, i8**  %4, align 8, !tbaa !3660, !dbg !4884
	%5 = load i32*, i32** %..inline.addr, align 8, !tbaa !3660, !dbg !4884
	%6 = bitcast i32*  %5 to i8*, !dbg !4884
	call void  @_ZdlPv (i8*  %6) nounwind, !dbg !4884
	br label %L.B0007
L.B0007:
	ret void, !dbg !4885
}
define linkonce_odr void @_ZNSt12_Vector_baseIjSaIjEE12_Vector_implD1Ev(%struct._ZNSt12_Vector_baseIjSaIjEE12_Vector_implE* %_T33110608_48854.arg) #0 inlinehint !dbg !4890 {
L.entry:
	%_T33110608_48854.addr = alloca %struct._ZNSt12_Vector_baseIjSaIjEE12_Vector_implE*, align 8

	call void @llvm.dbg.declare (metadata %struct._ZNSt12_Vector_baseIjSaIjEE12_Vector_implE** %_T33110608_48854.addr, metadata !4902, metadata !3652), !dbg !4891
	store %struct._ZNSt12_Vector_baseIjSaIjEE12_Vector_implE* %_T33110608_48854.arg, %struct._ZNSt12_Vector_baseIjSaIjEE12_Vector_implE** %_T33110608_48854.addr, align 8, !tbaa !3660
	call void @llvm.dbg.declare (metadata %struct._ZNSt12_Vector_baseIjSaIjEE12_Vector_implE** %_T33110608_48854.addr, metadata !4903, metadata !3652), !dbg !4891
	ret void, !dbg !4904
}
define linkonce_odr void @_ZNSt12_Vector_baseIjSaIjEE12_Vector_implD2Ev(%struct._ZNSt12_Vector_baseIjSaIjEE12_Vector_implE* %_T33110608_48855.arg) #0 inlinehint !dbg !4906 {
L.entry:
	%_T33110608_48855.addr = alloca %struct._ZNSt12_Vector_baseIjSaIjEE12_Vector_implE*, align 8

	store %struct._ZNSt12_Vector_baseIjSaIjEE12_Vector_implE* %_T33110608_48855.arg, %struct._ZNSt12_Vector_baseIjSaIjEE12_Vector_implE** %_T33110608_48855.addr, align 8, !tbaa !3660
	ret void, !dbg !4922
}

%struct._ZSt6vectorIjSaIjEE = type <{ %struct._ZSt12_Vector_baseIjSaIjEE}> 

define linkonce_odr void @_ZNSt6vectorIjSaIjEED1Ev(%struct._ZSt6vectorIjSaIjEE* %_T33110608_48856.arg) #0 inlinehint !dbg !4926 {
L.entry:
	%_T33110608_48856.addr = alloca %struct._ZSt6vectorIjSaIjEE*, align 8
	%..inline.addr = alloca %struct._ZSt12_Vector_baseIjSaIjEE*, align 8
	%..inline.addr.1 = alloca i32*, align 8

	call void @llvm.dbg.declare (metadata %struct._ZSt6vectorIjSaIjEE** %_T33110608_48856.addr, metadata !4978, metadata !3652), !dbg !4927
	store %struct._ZSt6vectorIjSaIjEE* %_T33110608_48856.arg, %struct._ZSt6vectorIjSaIjEE** %_T33110608_48856.addr, align 8, !tbaa !3660
	call void @llvm.dbg.declare (metadata %struct._ZSt6vectorIjSaIjEE** %_T33110608_48856.addr, metadata !4979, metadata !3652), !dbg !4927
	%0 = load %struct._ZSt6vectorIjSaIjEE*, %struct._ZSt6vectorIjSaIjEE** %_T33110608_48856.addr, align 8, !tbaa !3660, !dbg !4980
	%1 = bitcast %struct._ZSt6vectorIjSaIjEE*  %0 to i8*, !dbg !4980
	%2 = bitcast %struct._ZSt12_Vector_baseIjSaIjEE** %..inline.addr to i8**, !dbg !4980
	store i8*  %1, i8**  %2, align 8, !tbaa !3660, !dbg !4980
	%3 = load %struct._ZSt12_Vector_baseIjSaIjEE*, %struct._ZSt12_Vector_baseIjSaIjEE** %..inline.addr, align 8, !tbaa !3660, !dbg !4981
	%4 = bitcast %struct._ZSt12_Vector_baseIjSaIjEE*  %3 to i8**, !dbg !4981
	%5 = load i8*, i8**  %4, align 8, !tbaa !3660, !dbg !4981
	%6 = icmp eq i8*  %5,  null, !dbg !4981
	br i1  %6, label %L..inline.63659, label %L.B1130, !dbg !4981
L.B1130:
	%7 = bitcast %struct._ZSt12_Vector_baseIjSaIjEE*  %3 to i8**, !dbg !4981
	%8 = load i8*, i8**  %7, align 8, !tbaa !3660, !dbg !4981
	%9 = bitcast i32** %..inline.addr.1 to i8**, !dbg !4981
	store i8*  %8, i8**  %9, align 8, !tbaa !3660, !dbg !4981
	%10 = load i32*, i32** %..inline.addr.1, align 8, !tbaa !3660, !dbg !4981
	%11 = bitcast i32*  %10 to i8*, !dbg !4981
	call void  @_ZdlPv (i8*  %11) nounwind, !dbg !4981
	br label %L..inline.63659
L..inline.63659:
	ret void, !dbg !4980
}
define linkonce_odr void @_ZNSt6vectorIjSaIjEED2Ev(%struct._ZSt6vectorIjSaIjEE* %_T33110608_48857.arg) #0 inlinehint !dbg !4983 {
L.entry:
	%_T33110608_48857.addr = alloca %struct._ZSt6vectorIjSaIjEE*, align 8
	%..inline.addr = alloca %struct._ZSt12_Vector_baseIjSaIjEE*, align 8
	%..inline.addr.1 = alloca i32*, align 8

	store %struct._ZSt6vectorIjSaIjEE* %_T33110608_48857.arg, %struct._ZSt6vectorIjSaIjEE** %_T33110608_48857.addr, align 8, !tbaa !3660
	%0 = load %struct._ZSt6vectorIjSaIjEE*, %struct._ZSt6vectorIjSaIjEE** %_T33110608_48857.addr, align 8, !tbaa !3660, !dbg !5039
	%1 = bitcast %struct._ZSt6vectorIjSaIjEE*  %0 to i8*, !dbg !5039
	%2 = bitcast %struct._ZSt12_Vector_baseIjSaIjEE** %..inline.addr to i8**, !dbg !5039
	store i8*  %1, i8**  %2, align 8, !tbaa !3660, !dbg !5039
	%3 = load %struct._ZSt12_Vector_baseIjSaIjEE*, %struct._ZSt12_Vector_baseIjSaIjEE** %..inline.addr, align 8, !tbaa !3660, !dbg !5039
	%4 = bitcast %struct._ZSt12_Vector_baseIjSaIjEE*  %3 to i8**, !dbg !5039
	%5 = load i8*, i8**  %4, align 8, !tbaa !3660, !dbg !5039
	%6 = icmp eq i8*  %5,  null, !dbg !5039
	br i1  %6, label %L..inline.63763, label %L.B1133, !dbg !5039
L.B1133:
	%7 = bitcast %struct._ZSt12_Vector_baseIjSaIjEE*  %3 to i8**, !dbg !5039
	%8 = load i8*, i8**  %7, align 8, !tbaa !3660, !dbg !5039
	%9 = bitcast i32** %..inline.addr.1 to i8**, !dbg !5039
	store i8*  %8, i8**  %9, align 8, !tbaa !3660, !dbg !5039
	%10 = load i32*, i32** %..inline.addr.1, align 8, !tbaa !3660, !dbg !5039
	%11 = bitcast i32*  %10 to i8*, !dbg !5039
	call void  @_ZdlPv (i8*  %11) nounwind, !dbg !5039
	br label %L..inline.63763
L..inline.63763:
	ret void, !dbg !5039
}

%struct._ZSaIN5vmesh14MeshParametersEE = type <{ [1 x i8]}> 

define linkonce_odr void @_ZNSaIN5vmesh14MeshParametersEED1Ev(%struct._ZSaIN5vmesh14MeshParametersEE* %_T33110608_48858.arg) #0 inlinehint !dbg !5047 {
L.entry:
	%_T33110608_48858.addr = alloca %struct._ZSaIN5vmesh14MeshParametersEE*, align 8

	call void @llvm.dbg.declare (metadata %struct._ZSaIN5vmesh14MeshParametersEE** %_T33110608_48858.addr, metadata !5051, metadata !3652), !dbg !5048
	store %struct._ZSaIN5vmesh14MeshParametersEE* %_T33110608_48858.arg, %struct._ZSaIN5vmesh14MeshParametersEE** %_T33110608_48858.addr, align 8, !tbaa !3660
	call void @llvm.dbg.declare (metadata %struct._ZSaIN5vmesh14MeshParametersEE** %_T33110608_48858.addr, metadata !5052, metadata !3652), !dbg !5048
	ret void, !dbg !5053
}
define linkonce_odr void @_ZNSaIN5vmesh14MeshParametersEED2Ev(%struct._ZSaIN5vmesh14MeshParametersEE* %_T33110608_48859.arg) #0 inlinehint !dbg !5055 {
L.entry:
	%_T33110608_48859.addr = alloca %struct._ZSaIN5vmesh14MeshParametersEE*, align 8

	store %struct._ZSaIN5vmesh14MeshParametersEE* %_T33110608_48859.arg, %struct._ZSaIN5vmesh14MeshParametersEE** %_T33110608_48859.addr, align 8, !tbaa !3660
	ret void, !dbg !5063
}

%struct._ZNSt7__cxx1112basic_stringIcSt11char_traitsIcESaIcEE12_Alloc_hiderE = type <{ i8*}> 
%struct._ZNSt7__cxx1112basic_stringIcSt11char_traitsIcESaIcEEE = type <{ %struct._ZNSt7__cxx1112basic_stringIcSt11char_traitsIcESaIcEE12_Alloc_hiderE, i64, %union.__C6}> 
%union.__C6 = type <{ [16 x i8]}> 
%struct._ZN5vmesh14MeshParametersE = type <{ %struct._ZNSt7__cxx1112basic_stringIcSt11char_traitsIcESaIcEEE, i32, [4 x i8], [6 x double], [3 x i32], [3 x i32], i8, i8, [6 x i8], [3 x double], [3 x double], [3 x double], [3 x double], [3 x double], %struct._ZSt6vectorIjSaIjEE, %struct._ZSt6vectorIdSaIdEE, %struct._ZSt6vectorIdSaIdEE, %struct._ZSt6vectorIjSaIjEE}> 

define linkonce_odr void @_ZNSt16allocator_traitsISaIN5vmesh14MeshParametersEEE10deallocateERS2_PS1_m(%struct._ZSaIN5vmesh14MeshParametersEE* %__a.arg, %struct._ZN5vmesh14MeshParametersE* %__p.arg, i64 %__n.arg) #0 inlinehint !dbg !5072 {
L.entry:
	%__a.addr = alloca %struct._ZSaIN5vmesh14MeshParametersEE*, align 8
	%__p.addr = alloca %struct._ZN5vmesh14MeshParametersE*, align 8
	%__n.addr = alloca i64, align 8
	%..inline.addr = alloca %struct._ZN5vmesh14MeshParametersE*, align 8

	call void @llvm.dbg.declare (metadata %struct._ZSaIN5vmesh14MeshParametersEE** %__a.addr, metadata !5080, metadata !3652), !dbg !5073
	store %struct._ZSaIN5vmesh14MeshParametersEE* %__a.arg, %struct._ZSaIN5vmesh14MeshParametersEE** %__a.addr, align 8, !tbaa !3660
	call void @llvm.dbg.declare (metadata %struct._ZSaIN5vmesh14MeshParametersEE** %__a.addr, metadata !5081, metadata !3652), !dbg !5073
	call void @llvm.dbg.declare (metadata %struct._ZN5vmesh14MeshParametersE** %__p.addr, metadata !5082, metadata !3652), !dbg !5073
	store %struct._ZN5vmesh14MeshParametersE* %__p.arg, %struct._ZN5vmesh14MeshParametersE** %__p.addr, align 8, !tbaa !3660
	call void @llvm.dbg.declare (metadata %struct._ZN5vmesh14MeshParametersE** %__p.addr, metadata !5083, metadata !3652), !dbg !5073
	call void @llvm.dbg.declare (metadata i64* %__n.addr, metadata !5084, metadata !3652), !dbg !5073
	store i64 %__n.arg, i64* %__n.addr, align 8, !tbaa !3659
	call void @llvm.dbg.declare (metadata i64* %__n.addr, metadata !5085, metadata !3652), !dbg !5073
	%0 = load %struct._ZN5vmesh14MeshParametersE*, %struct._ZN5vmesh14MeshParametersE** %__p.addr, align 8, !tbaa !3660, !dbg !5086
	%1 = bitcast %struct._ZN5vmesh14MeshParametersE*  %0 to i8*, !dbg !5086
	%2 = bitcast %struct._ZN5vmesh14MeshParametersE** %..inline.addr to i8**, !dbg !5086
	store i8*  %1, i8**  %2, align 8, !tbaa !3660, !dbg !5086
	%3 = load %struct._ZN5vmesh14MeshParametersE*, %struct._ZN5vmesh14MeshParametersE** %..inline.addr, align 8, !tbaa !3660, !dbg !5087
	%4 = bitcast %struct._ZN5vmesh14MeshParametersE*  %3 to i8*, !dbg !5087
	call void  @_ZdlPv (i8*  %4) nounwind, !dbg !5087
	ret void, !dbg !5086
}

%struct._ZNSt12_Vector_baseIN5vmesh14MeshParametersESaIS1_EE12_Vector_implE = type <{ %struct._ZNSt12_Vector_baseIN5vmesh14MeshParametersESaIS1_EE17_Vector_impl_dataE}> 
%struct._ZNSt12_Vector_baseIN5vmesh14MeshParametersESaIS1_EE17_Vector_impl_dataE = type <{ %struct._ZN5vmesh14MeshParametersE*, %struct._ZN5vmesh14MeshParametersE*, %struct._ZN5vmesh14MeshParametersE*}> 
%struct._ZSt12_Vector_baseIN5vmesh14MeshParametersESaIS1_EE = type <{ %struct._ZNSt12_Vector_baseIN5vmesh14MeshParametersESaIS1_EE12_Vector_implE}> 

define linkonce_odr %struct._ZSaIN5vmesh14MeshParametersEE* @_ZNSt12_Vector_baseIN5vmesh14MeshParametersESaIS1_EE19_M_get_Tp_allocatorEv(%struct._ZSt12_Vector_baseIN5vmesh14MeshParametersESaIS1_EE* %_T33110608_48865.arg) #0 inlinehint !dbg !5104 {
L.entry:
	%_T33110608_48865.addr = alloca %struct._ZSt12_Vector_baseIN5vmesh14MeshParametersESaIS1_EE*, align 8

	call void @llvm.dbg.declare (metadata %struct._ZSt12_Vector_baseIN5vmesh14MeshParametersESaIS1_EE** %_T33110608_48865.addr, metadata !5108, metadata !3652), !dbg !5105
	store %struct._ZSt12_Vector_baseIN5vmesh14MeshParametersESaIS1_EE* %_T33110608_48865.arg, %struct._ZSt12_Vector_baseIN5vmesh14MeshParametersESaIS1_EE** %_T33110608_48865.addr, align 8, !tbaa !3660
	call void @llvm.dbg.declare (metadata %struct._ZSt12_Vector_baseIN5vmesh14MeshParametersESaIS1_EE** %_T33110608_48865.addr, metadata !5109, metadata !3652), !dbg !5105
	%0 = load %struct._ZSt12_Vector_baseIN5vmesh14MeshParametersESaIS1_EE*, %struct._ZSt12_Vector_baseIN5vmesh14MeshParametersESaIS1_EE** %_T33110608_48865.addr, align 8, !tbaa !3660, !dbg !5110
	%1 = bitcast %struct._ZSt12_Vector_baseIN5vmesh14MeshParametersESaIS1_EE*  %0 to %struct._ZSaIN5vmesh14MeshParametersEE*, !dbg !5110
	ret %struct._ZSaIN5vmesh14MeshParametersEE*  %1, !dbg !5110
}
define linkonce_odr void @_ZNSt12_Vector_baseIN5vmesh14MeshParametersESaIS1_EEC1Ev(%struct._ZSt12_Vector_baseIN5vmesh14MeshParametersESaIS1_EE* %_T33110608_48866.arg) #0 inlinehint !dbg !5114 {
L.entry:
	%_T33110608_48866.addr = alloca %struct._ZSt12_Vector_baseIN5vmesh14MeshParametersESaIS1_EE*, align 8
	%..inline.addr = alloca %struct._ZNSt12_Vector_baseIN5vmesh14MeshParametersESaIS1_EE17_Vector_impl_dataE*, align 8

	call void @llvm.dbg.declare (metadata %struct._ZSt12_Vector_baseIN5vmesh14MeshParametersESaIS1_EE** %_T33110608_48866.addr, metadata !5130, metadata !3652), !dbg !5115
	store %struct._ZSt12_Vector_baseIN5vmesh14MeshParametersESaIS1_EE* %_T33110608_48866.arg, %struct._ZSt12_Vector_baseIN5vmesh14MeshParametersESaIS1_EE** %_T33110608_48866.addr, align 8, !tbaa !3660
	call void @llvm.dbg.declare (metadata %struct._ZSt12_Vector_baseIN5vmesh14MeshParametersESaIS1_EE** %_T33110608_48866.addr, metadata !5131, metadata !3652), !dbg !5115
	%0 = load %struct._ZSt12_Vector_baseIN5vmesh14MeshParametersESaIS1_EE*, %struct._ZSt12_Vector_baseIN5vmesh14MeshParametersESaIS1_EE** %_T33110608_48866.addr, align 8, !tbaa !3660, !dbg !5132
	%1 = bitcast %struct._ZSt12_Vector_baseIN5vmesh14MeshParametersESaIS1_EE*  %0 to i8*, !dbg !5132
	%2 = bitcast %struct._ZNSt12_Vector_baseIN5vmesh14MeshParametersESaIS1_EE17_Vector_impl_dataE** %..inline.addr to i8**, !dbg !5132
	store i8*  %1, i8**  %2, align 8, !tbaa !3660, !dbg !5132
	%3 = load %struct._ZNSt12_Vector_baseIN5vmesh14MeshParametersESaIS1_EE17_Vector_impl_dataE*, %struct._ZNSt12_Vector_baseIN5vmesh14MeshParametersESaIS1_EE17_Vector_impl_dataE** %..inline.addr, align 8, !tbaa !3660, !dbg !5132
	%4 = bitcast %struct._ZNSt12_Vector_baseIN5vmesh14MeshParametersESaIS1_EE17_Vector_impl_dataE*  %3 to i8**, !dbg !5132
	store i8* null, i8**  %4, align 8, !tbaa !3660, !dbg !5132
	%5 = bitcast %struct._ZNSt12_Vector_baseIN5vmesh14MeshParametersESaIS1_EE17_Vector_impl_dataE*  %3 to i8*, !dbg !5132
	%6 = getelementptr i8, i8*  %5, i64 8, !dbg !5132
	%7 = bitcast i8*  %6 to i8**, !dbg !5132
	store i8* null, i8**  %7, align 8, !tbaa !3660, !dbg !5132
	%8 = getelementptr i8, i8*  %5, i64 16, !dbg !5132
	%9 = bitcast i8*  %8 to i8**, !dbg !5132
	store i8* null, i8**  %9, align 8, !tbaa !3660, !dbg !5132
	ret void, !dbg !5132
}
define linkonce_odr void @_ZNSt12_Vector_baseIN5vmesh14MeshParametersESaIS1_EEC2Ev(%struct._ZSt12_Vector_baseIN5vmesh14MeshParametersESaIS1_EE* %_T33110608_48867.arg) #0 inlinehint !dbg !5134 {
L.entry:
	%_T33110608_48867.addr = alloca %struct._ZSt12_Vector_baseIN5vmesh14MeshParametersESaIS1_EE*, align 8
	%..inline.addr = alloca %struct._ZNSt12_Vector_baseIN5vmesh14MeshParametersESaIS1_EE17_Vector_impl_dataE*, align 8

	store %struct._ZSt12_Vector_baseIN5vmesh14MeshParametersESaIS1_EE* %_T33110608_48867.arg, %struct._ZSt12_Vector_baseIN5vmesh14MeshParametersESaIS1_EE** %_T33110608_48867.addr, align 8, !tbaa !3660
	%0 = load %struct._ZSt12_Vector_baseIN5vmesh14MeshParametersESaIS1_EE*, %struct._ZSt12_Vector_baseIN5vmesh14MeshParametersESaIS1_EE** %_T33110608_48867.addr, align 8, !tbaa !3660, !dbg !5154
	%1 = bitcast %struct._ZSt12_Vector_baseIN5vmesh14MeshParametersESaIS1_EE*  %0 to i8*, !dbg !5154
	%2 = bitcast %struct._ZNSt12_Vector_baseIN5vmesh14MeshParametersESaIS1_EE17_Vector_impl_dataE** %..inline.addr to i8**, !dbg !5154
	store i8*  %1, i8**  %2, align 8, !tbaa !3660, !dbg !5154
	%3 = load %struct._ZNSt12_Vector_baseIN5vmesh14MeshParametersESaIS1_EE17_Vector_impl_dataE*, %struct._ZNSt12_Vector_baseIN5vmesh14MeshParametersESaIS1_EE17_Vector_impl_dataE** %..inline.addr, align 8, !tbaa !3660, !dbg !5154
	%4 = bitcast %struct._ZNSt12_Vector_baseIN5vmesh14MeshParametersESaIS1_EE17_Vector_impl_dataE*  %3 to i8**, !dbg !5154
	store i8* null, i8**  %4, align 8, !tbaa !3660, !dbg !5154
	%5 = bitcast %struct._ZNSt12_Vector_baseIN5vmesh14MeshParametersESaIS1_EE17_Vector_impl_dataE*  %3 to i8*, !dbg !5154
	%6 = getelementptr i8, i8*  %5, i64 8, !dbg !5154
	%7 = bitcast i8*  %6 to i8**, !dbg !5154
	store i8* null, i8**  %7, align 8, !tbaa !3660, !dbg !5154
	%8 = getelementptr i8, i8*  %5, i64 16, !dbg !5154
	%9 = bitcast i8*  %8 to i8**, !dbg !5154
	store i8* null, i8**  %9, align 8, !tbaa !3660, !dbg !5154
	ret void, !dbg !5154
}
define linkonce_odr void @_ZNSt12_Vector_baseIN5vmesh14MeshParametersESaIS1_EED1Ev(%struct._ZSt12_Vector_baseIN5vmesh14MeshParametersESaIS1_EE* %_T33110608_48868.arg) #0 inlinehint !dbg !5156 {
L.entry:
	%_T33110608_48868.addr = alloca %struct._ZSt12_Vector_baseIN5vmesh14MeshParametersESaIS1_EE*, align 8
	%..inline.addr = alloca %struct._ZN5vmesh14MeshParametersE*, align 8

	call void @llvm.dbg.declare (metadata %struct._ZSt12_Vector_baseIN5vmesh14MeshParametersESaIS1_EE** %_T33110608_48868.addr, metadata !5184, metadata !3652), !dbg !5157
	store %struct._ZSt12_Vector_baseIN5vmesh14MeshParametersESaIS1_EE* %_T33110608_48868.arg, %struct._ZSt12_Vector_baseIN5vmesh14MeshParametersESaIS1_EE** %_T33110608_48868.addr, align 8, !tbaa !3660
	call void @llvm.dbg.declare (metadata %struct._ZSt12_Vector_baseIN5vmesh14MeshParametersESaIS1_EE** %_T33110608_48868.addr, metadata !5185, metadata !3652), !dbg !5157
	%0 = load %struct._ZSt12_Vector_baseIN5vmesh14MeshParametersESaIS1_EE*, %struct._ZSt12_Vector_baseIN5vmesh14MeshParametersESaIS1_EE** %_T33110608_48868.addr, align 8, !tbaa !3660, !dbg !5186
	%1 = bitcast %struct._ZSt12_Vector_baseIN5vmesh14MeshParametersESaIS1_EE*  %0 to i8**, !dbg !5186
	%2 = load i8*, i8**  %1, align 8, !tbaa !3660, !dbg !5186
	%3 = icmp eq i8*  %2,  null, !dbg !5186
	br i1  %3, label %L..inline.63907, label %L.B1146, !dbg !5186
L.B1146:
	%4 = bitcast %struct._ZSt12_Vector_baseIN5vmesh14MeshParametersESaIS1_EE*  %0 to i8**, !dbg !5187
	%5 = load i8*, i8**  %4, align 8, !tbaa !3660, !dbg !5187
	%6 = bitcast %struct._ZN5vmesh14MeshParametersE** %..inline.addr to i8**, !dbg !5187
	store i8*  %5, i8**  %6, align 8, !tbaa !3660, !dbg !5187
	%7 = load %struct._ZN5vmesh14MeshParametersE*, %struct._ZN5vmesh14MeshParametersE** %..inline.addr, align 8, !tbaa !3660, !dbg !5187
	%8 = bitcast %struct._ZN5vmesh14MeshParametersE*  %7 to i8*, !dbg !5187
	call void  @_ZdlPv (i8*  %8) nounwind, !dbg !5187
	br label %L..inline.63907
L..inline.63907:
	ret void, !dbg !5188
}
define linkonce_odr void @_ZNSt12_Vector_baseIN5vmesh14MeshParametersESaIS1_EED2Ev(%struct._ZSt12_Vector_baseIN5vmesh14MeshParametersESaIS1_EE* %_T33110608_48869.arg) #0 inlinehint !dbg !5190 {
L.entry:
	%_T33110608_48869.addr = alloca %struct._ZSt12_Vector_baseIN5vmesh14MeshParametersESaIS1_EE*, align 8
	%..inline.addr = alloca %struct._ZSt12_Vector_baseIN5vmesh14MeshParametersESaIS1_EE*, align 8
	%..inline.addr.1 = alloca %struct._ZN5vmesh14MeshParametersE*, align 8

	store %struct._ZSt12_Vector_baseIN5vmesh14MeshParametersESaIS1_EE* %_T33110608_48869.arg, %struct._ZSt12_Vector_baseIN5vmesh14MeshParametersESaIS1_EE** %_T33110608_48869.addr, align 8, !tbaa !3660
	%0 = load %struct._ZSt12_Vector_baseIN5vmesh14MeshParametersESaIS1_EE*, %struct._ZSt12_Vector_baseIN5vmesh14MeshParametersESaIS1_EE** %_T33110608_48869.addr, align 8, !tbaa !3660, !dbg !5222
	%1 = bitcast %struct._ZSt12_Vector_baseIN5vmesh14MeshParametersESaIS1_EE*  %0 to i8*, !dbg !5222
	%2 = bitcast %struct._ZSt12_Vector_baseIN5vmesh14MeshParametersESaIS1_EE** %..inline.addr to i8**, !dbg !5222
	store i8*  %1, i8**  %2, align 8, !tbaa !3660, !dbg !5222
	%3 = load %struct._ZSt12_Vector_baseIN5vmesh14MeshParametersESaIS1_EE*, %struct._ZSt12_Vector_baseIN5vmesh14MeshParametersESaIS1_EE** %..inline.addr, align 8, !tbaa !3660, !dbg !5222
	%4 = bitcast %struct._ZSt12_Vector_baseIN5vmesh14MeshParametersESaIS1_EE*  %3 to i8**, !dbg !5222
	%5 = load i8*, i8**  %4, align 8, !tbaa !3660, !dbg !5222
	%6 = icmp eq i8*  %5,  null, !dbg !5222
	br i1  %6, label %L..inline.63969, label %L.B1149, !dbg !5222
L.B1149:
	%7 = bitcast %struct._ZSt12_Vector_baseIN5vmesh14MeshParametersESaIS1_EE*  %3 to i8**, !dbg !5222
	%8 = load i8*, i8**  %7, align 8, !tbaa !3660, !dbg !5222
	%9 = bitcast %struct._ZN5vmesh14MeshParametersE** %..inline.addr.1 to i8**, !dbg !5222
	store i8*  %8, i8**  %9, align 8, !tbaa !3660, !dbg !5222
	%10 = load %struct._ZN5vmesh14MeshParametersE*, %struct._ZN5vmesh14MeshParametersE** %..inline.addr.1, align 8, !tbaa !3660, !dbg !5222
	%11 = bitcast %struct._ZN5vmesh14MeshParametersE*  %10 to i8*, !dbg !5222
	call void  @_ZdlPv (i8*  %11) nounwind, !dbg !5222
	br label %L..inline.63969
L..inline.63969:
	ret void, !dbg !5223
}
define linkonce_odr void @_ZNSt12_Vector_baseIN5vmesh14MeshParametersESaIS1_EE13_M_deallocateEPS1_m(%struct._ZSt12_Vector_baseIN5vmesh14MeshParametersESaIS1_EE* %_T33110608_48872.arg, %struct._ZN5vmesh14MeshParametersE* %__p.arg, i64 %__n.arg) #0 inlinehint !dbg !5227 {
L.entry:
	%_T33110608_48872.addr = alloca %struct._ZSt12_Vector_baseIN5vmesh14MeshParametersESaIS1_EE*, align 8
	%__p.addr = alloca %struct._ZN5vmesh14MeshParametersE*, align 8
	%__n.addr = alloca i64, align 8
	%..inline.addr = alloca %struct._ZN5vmesh14MeshParametersE*, align 8

	call void @llvm.dbg.declare (metadata %struct._ZSt12_Vector_baseIN5vmesh14MeshParametersESaIS1_EE** %_T33110608_48872.addr, metadata !5239, metadata !3652), !dbg !5228
	store %struct._ZSt12_Vector_baseIN5vmesh14MeshParametersESaIS1_EE* %_T33110608_48872.arg, %struct._ZSt12_Vector_baseIN5vmesh14MeshParametersESaIS1_EE** %_T33110608_48872.addr, align 8, !tbaa !3660
	call void @llvm.dbg.declare (metadata %struct._ZSt12_Vector_baseIN5vmesh14MeshParametersESaIS1_EE** %_T33110608_48872.addr, metadata !5240, metadata !3652), !dbg !5228
	call void @llvm.dbg.declare (metadata %struct._ZN5vmesh14MeshParametersE** %__p.addr, metadata !5241, metadata !3652), !dbg !5228
	store %struct._ZN5vmesh14MeshParametersE* %__p.arg, %struct._ZN5vmesh14MeshParametersE** %__p.addr, align 8, !tbaa !3660
	call void @llvm.dbg.declare (metadata %struct._ZN5vmesh14MeshParametersE** %__p.addr, metadata !5242, metadata !3652), !dbg !5228
	call void @llvm.dbg.declare (metadata i64* %__n.addr, metadata !5243, metadata !3652), !dbg !5228
	store i64 %__n.arg, i64* %__n.addr, align 8, !tbaa !3659
	call void @llvm.dbg.declare (metadata i64* %__n.addr, metadata !5244, metadata !3652), !dbg !5228
	%0 = load %struct._ZN5vmesh14MeshParametersE*, %struct._ZN5vmesh14MeshParametersE** %__p.addr, align 8, !tbaa !3660, !dbg !5245
	%1 = bitcast %struct._ZN5vmesh14MeshParametersE*  %0 to i8*, !dbg !5245
	%2 = icmp eq i8*  %1,  null, !dbg !5245
	br i1  %2, label %L.B0008, label %L.B1152, !dbg !5245
L.B1152:
	%3 = bitcast %struct._ZN5vmesh14MeshParametersE*  %0 to i8*, !dbg !5246
	%4 = bitcast %struct._ZN5vmesh14MeshParametersE** %..inline.addr to i8**, !dbg !5246
	store i8*  %3, i8**  %4, align 8, !tbaa !3660, !dbg !5246
	%5 = load %struct._ZN5vmesh14MeshParametersE*, %struct._ZN5vmesh14MeshParametersE** %..inline.addr, align 8, !tbaa !3660, !dbg !5246
	%6 = bitcast %struct._ZN5vmesh14MeshParametersE*  %5 to i8*, !dbg !5246
	call void  @_ZdlPv (i8*  %6) nounwind, !dbg !5246
	br label %L.B0008
L.B0008:
	ret void, !dbg !5247
}
define linkonce_odr void @_ZNSt12_Vector_baseIN5vmesh14MeshParametersESaIS1_EE17_Vector_impl_dataC1Ev(%struct._ZNSt12_Vector_baseIN5vmesh14MeshParametersESaIS1_EE17_Vector_impl_dataE* %_T33110608_48873.arg) #0 inlinehint !dbg !5252 {
L.entry:
	%_T33110608_48873.addr = alloca %struct._ZNSt12_Vector_baseIN5vmesh14MeshParametersESaIS1_EE17_Vector_impl_dataE*, align 8

	call void @llvm.dbg.declare (metadata %struct._ZNSt12_Vector_baseIN5vmesh14MeshParametersESaIS1_EE17_Vector_impl_dataE** %_T33110608_48873.addr, metadata !5256, metadata !3652), !dbg !5253
	store %struct._ZNSt12_Vector_baseIN5vmesh14MeshParametersESaIS1_EE17_Vector_impl_dataE* %_T33110608_48873.arg, %struct._ZNSt12_Vector_baseIN5vmesh14MeshParametersESaIS1_EE17_Vector_impl_dataE** %_T33110608_48873.addr, align 8, !tbaa !3660
	call void @llvm.dbg.declare (metadata %struct._ZNSt12_Vector_baseIN5vmesh14MeshParametersESaIS1_EE17_Vector_impl_dataE** %_T33110608_48873.addr, metadata !5257, metadata !3652), !dbg !5253
	%0 = load %struct._ZNSt12_Vector_baseIN5vmesh14MeshParametersESaIS1_EE17_Vector_impl_dataE*, %struct._ZNSt12_Vector_baseIN5vmesh14MeshParametersESaIS1_EE17_Vector_impl_dataE** %_T33110608_48873.addr, align 8, !tbaa !3660, !dbg !5258
	%1 = bitcast %struct._ZNSt12_Vector_baseIN5vmesh14MeshParametersESaIS1_EE17_Vector_impl_dataE*  %0 to i8**, !dbg !5258
	store i8* null, i8**  %1, align 8, !tbaa !3660, !dbg !5258
	%2 = bitcast %struct._ZNSt12_Vector_baseIN5vmesh14MeshParametersESaIS1_EE17_Vector_impl_dataE*  %0 to i8*, !dbg !5258
	%3 = getelementptr i8, i8*  %2, i64 8, !dbg !5258
	%4 = bitcast i8*  %3 to i8**, !dbg !5258
	store i8* null, i8**  %4, align 8, !tbaa !3660, !dbg !5258
	%5 = getelementptr i8, i8*  %2, i64 16, !dbg !5258
	%6 = bitcast i8*  %5 to i8**, !dbg !5258
	store i8* null, i8**  %6, align 8, !tbaa !3660, !dbg !5258
	ret void, !dbg !5258
}
define linkonce_odr void @_ZNSt12_Vector_baseIN5vmesh14MeshParametersESaIS1_EE17_Vector_impl_dataC2Ev(%struct._ZNSt12_Vector_baseIN5vmesh14MeshParametersESaIS1_EE17_Vector_impl_dataE* %_T33110608_48874.arg) #0 inlinehint !dbg !5260 {
L.entry:
	%_T33110608_48874.addr = alloca %struct._ZNSt12_Vector_baseIN5vmesh14MeshParametersESaIS1_EE17_Vector_impl_dataE*, align 8
	%..inline.addr = alloca %struct._ZNSt12_Vector_baseIN5vmesh14MeshParametersESaIS1_EE17_Vector_impl_dataE*, align 8

	store %struct._ZNSt12_Vector_baseIN5vmesh14MeshParametersESaIS1_EE17_Vector_impl_dataE* %_T33110608_48874.arg, %struct._ZNSt12_Vector_baseIN5vmesh14MeshParametersESaIS1_EE17_Vector_impl_dataE** %_T33110608_48874.addr, align 8, !tbaa !3660
	%0 = load %struct._ZNSt12_Vector_baseIN5vmesh14MeshParametersESaIS1_EE17_Vector_impl_dataE*, %struct._ZNSt12_Vector_baseIN5vmesh14MeshParametersESaIS1_EE17_Vector_impl_dataE** %_T33110608_48874.addr, align 8, !tbaa !3660, !dbg !5268
	%1 = bitcast %struct._ZNSt12_Vector_baseIN5vmesh14MeshParametersESaIS1_EE17_Vector_impl_dataE*  %0 to i8*, !dbg !5268
	%2 = bitcast %struct._ZNSt12_Vector_baseIN5vmesh14MeshParametersESaIS1_EE17_Vector_impl_dataE** %..inline.addr to i8**, !dbg !5268
	store i8*  %1, i8**  %2, align 8, !tbaa !3660, !dbg !5268
	%3 = load %struct._ZNSt12_Vector_baseIN5vmesh14MeshParametersESaIS1_EE17_Vector_impl_dataE*, %struct._ZNSt12_Vector_baseIN5vmesh14MeshParametersESaIS1_EE17_Vector_impl_dataE** %..inline.addr, align 8, !tbaa !3660, !dbg !5268
	%4 = bitcast %struct._ZNSt12_Vector_baseIN5vmesh14MeshParametersESaIS1_EE17_Vector_impl_dataE*  %3 to i8**, !dbg !5268
	store i8* null, i8**  %4, align 8, !tbaa !3660, !dbg !5268
	%5 = bitcast %struct._ZNSt12_Vector_baseIN5vmesh14MeshParametersESaIS1_EE17_Vector_impl_dataE*  %3 to i8*, !dbg !5268
	%6 = getelementptr i8, i8*  %5, i64 8, !dbg !5268
	%7 = bitcast i8*  %6 to i8**, !dbg !5268
	store i8* null, i8**  %7, align 8, !tbaa !3660, !dbg !5268
	%8 = getelementptr i8, i8*  %5, i64 16, !dbg !5268
	%9 = bitcast i8*  %8 to i8**, !dbg !5268
	store i8* null, i8**  %9, align 8, !tbaa !3660, !dbg !5268
	ret void, !dbg !5268
}
define linkonce_odr void @_ZNSt12_Vector_baseIN5vmesh14MeshParametersESaIS1_EE12_Vector_implC1Ev(%struct._ZNSt12_Vector_baseIN5vmesh14MeshParametersESaIS1_EE12_Vector_implE* %_T33110608_48875.arg) #0 inlinehint !dbg !5273 {
L.entry:
	%_T33110608_48875.addr = alloca %struct._ZNSt12_Vector_baseIN5vmesh14MeshParametersESaIS1_EE12_Vector_implE*, align 8
	%..inline.addr = alloca %struct._ZNSt12_Vector_baseIN5vmesh14MeshParametersESaIS1_EE17_Vector_impl_dataE*, align 8

	call void @llvm.dbg.declare (metadata %struct._ZNSt12_Vector_baseIN5vmesh14MeshParametersESaIS1_EE12_Vector_implE** %_T33110608_48875.addr, metadata !5285, metadata !3652), !dbg !5274
	store %struct._ZNSt12_Vector_baseIN5vmesh14MeshParametersESaIS1_EE12_Vector_implE* %_T33110608_48875.arg, %struct._ZNSt12_Vector_baseIN5vmesh14MeshParametersESaIS1_EE12_Vector_implE** %_T33110608_48875.addr, align 8, !tbaa !3660
	call void @llvm.dbg.declare (metadata %struct._ZNSt12_Vector_baseIN5vmesh14MeshParametersESaIS1_EE12_Vector_implE** %_T33110608_48875.addr, metadata !5286, metadata !3652), !dbg !5274
	%0 = load %struct._ZNSt12_Vector_baseIN5vmesh14MeshParametersESaIS1_EE12_Vector_implE*, %struct._ZNSt12_Vector_baseIN5vmesh14MeshParametersESaIS1_EE12_Vector_implE** %_T33110608_48875.addr, align 8, !tbaa !3660, !dbg !5287
	%1 = bitcast %struct._ZNSt12_Vector_baseIN5vmesh14MeshParametersESaIS1_EE12_Vector_implE*  %0 to i8*, !dbg !5287
	%2 = bitcast %struct._ZNSt12_Vector_baseIN5vmesh14MeshParametersESaIS1_EE17_Vector_impl_dataE** %..inline.addr to i8**, !dbg !5287
	store i8*  %1, i8**  %2, align 8, !tbaa !3660, !dbg !5287
	%3 = load %struct._ZNSt12_Vector_baseIN5vmesh14MeshParametersESaIS1_EE17_Vector_impl_dataE*, %struct._ZNSt12_Vector_baseIN5vmesh14MeshParametersESaIS1_EE17_Vector_impl_dataE** %..inline.addr, align 8, !tbaa !3660, !dbg !5287
	%4 = bitcast %struct._ZNSt12_Vector_baseIN5vmesh14MeshParametersESaIS1_EE17_Vector_impl_dataE*  %3 to i8**, !dbg !5287
	store i8* null, i8**  %4, align 8, !tbaa !3660, !dbg !5287
	%5 = bitcast %struct._ZNSt12_Vector_baseIN5vmesh14MeshParametersESaIS1_EE17_Vector_impl_dataE*  %3 to i8*, !dbg !5288
	%6 = getelementptr i8, i8*  %5, i64 8, !dbg !5288
	%7 = bitcast i8*  %6 to i8**, !dbg !5288
	store i8* null, i8**  %7, align 8, !tbaa !3660, !dbg !5288
	%8 = getelementptr i8, i8*  %5, i64 16, !dbg !5288
	%9 = bitcast i8*  %8 to i8**, !dbg !5288
	store i8* null, i8**  %9, align 8, !tbaa !3660, !dbg !5288
	ret void, !dbg !5287
}
define linkonce_odr void @_ZNSt12_Vector_baseIN5vmesh14MeshParametersESaIS1_EE12_Vector_implC2Ev(%struct._ZNSt12_Vector_baseIN5vmesh14MeshParametersESaIS1_EE12_Vector_implE* %_T33110608_48876.arg) #0 inlinehint !dbg !5290 {
L.entry:
	%_T33110608_48876.addr = alloca %struct._ZNSt12_Vector_baseIN5vmesh14MeshParametersESaIS1_EE12_Vector_implE*, align 8
	%..inline.addr = alloca %struct._ZNSt12_Vector_baseIN5vmesh14MeshParametersESaIS1_EE17_Vector_impl_dataE*, align 8

	store %struct._ZNSt12_Vector_baseIN5vmesh14MeshParametersESaIS1_EE12_Vector_implE* %_T33110608_48876.arg, %struct._ZNSt12_Vector_baseIN5vmesh14MeshParametersESaIS1_EE12_Vector_implE** %_T33110608_48876.addr, align 8, !tbaa !3660
	%0 = load %struct._ZNSt12_Vector_baseIN5vmesh14MeshParametersESaIS1_EE12_Vector_implE*, %struct._ZNSt12_Vector_baseIN5vmesh14MeshParametersESaIS1_EE12_Vector_implE** %_T33110608_48876.addr, align 8, !tbaa !3660, !dbg !5306
	%1 = bitcast %struct._ZNSt12_Vector_baseIN5vmesh14MeshParametersESaIS1_EE12_Vector_implE*  %0 to i8*, !dbg !5306
	%2 = bitcast %struct._ZNSt12_Vector_baseIN5vmesh14MeshParametersESaIS1_EE17_Vector_impl_dataE** %..inline.addr to i8**, !dbg !5306
	store i8*  %1, i8**  %2, align 8, !tbaa !3660, !dbg !5306
	%3 = load %struct._ZNSt12_Vector_baseIN5vmesh14MeshParametersESaIS1_EE17_Vector_impl_dataE*, %struct._ZNSt12_Vector_baseIN5vmesh14MeshParametersESaIS1_EE17_Vector_impl_dataE** %..inline.addr, align 8, !tbaa !3660, !dbg !5306
	%4 = bitcast %struct._ZNSt12_Vector_baseIN5vmesh14MeshParametersESaIS1_EE17_Vector_impl_dataE*  %3 to i8**, !dbg !5306
	store i8* null, i8**  %4, align 8, !tbaa !3660, !dbg !5306
	%5 = bitcast %struct._ZNSt12_Vector_baseIN5vmesh14MeshParametersESaIS1_EE17_Vector_impl_dataE*  %3 to i8*, !dbg !5306
	%6 = getelementptr i8, i8*  %5, i64 8, !dbg !5306
	%7 = bitcast i8*  %6 to i8**, !dbg !5306
	store i8* null, i8**  %7, align 8, !tbaa !3660, !dbg !5306
	%8 = getelementptr i8, i8*  %5, i64 16, !dbg !5306
	%9 = bitcast i8*  %8 to i8**, !dbg !5306
	store i8* null, i8**  %9, align 8, !tbaa !3660, !dbg !5306
	ret void, !dbg !5306
}
define linkonce_odr void @_ZNSt12_Vector_baseIN5vmesh14MeshParametersESaIS1_EE12_Vector_implD1Ev(%struct._ZNSt12_Vector_baseIN5vmesh14MeshParametersESaIS1_EE12_Vector_implE* %_T33110608_48877.arg) #0 inlinehint !dbg !5308 {
L.entry:
	%_T33110608_48877.addr = alloca %struct._ZNSt12_Vector_baseIN5vmesh14MeshParametersESaIS1_EE12_Vector_implE*, align 8

	call void @llvm.dbg.declare (metadata %struct._ZNSt12_Vector_baseIN5vmesh14MeshParametersESaIS1_EE12_Vector_implE** %_T33110608_48877.addr, metadata !5320, metadata !3652), !dbg !5309
	store %struct._ZNSt12_Vector_baseIN5vmesh14MeshParametersESaIS1_EE12_Vector_implE* %_T33110608_48877.arg, %struct._ZNSt12_Vector_baseIN5vmesh14MeshParametersESaIS1_EE12_Vector_implE** %_T33110608_48877.addr, align 8, !tbaa !3660
	call void @llvm.dbg.declare (metadata %struct._ZNSt12_Vector_baseIN5vmesh14MeshParametersESaIS1_EE12_Vector_implE** %_T33110608_48877.addr, metadata !5321, metadata !3652), !dbg !5309
	ret void, !dbg !5322
}
define linkonce_odr void @_ZNSt12_Vector_baseIN5vmesh14MeshParametersESaIS1_EE12_Vector_implD2Ev(%struct._ZNSt12_Vector_baseIN5vmesh14MeshParametersESaIS1_EE12_Vector_implE* %_T33110608_48878.arg) #0 inlinehint !dbg !5324 {
L.entry:
	%_T33110608_48878.addr = alloca %struct._ZNSt12_Vector_baseIN5vmesh14MeshParametersESaIS1_EE12_Vector_implE*, align 8

	store %struct._ZNSt12_Vector_baseIN5vmesh14MeshParametersESaIS1_EE12_Vector_implE* %_T33110608_48878.arg, %struct._ZNSt12_Vector_baseIN5vmesh14MeshParametersESaIS1_EE12_Vector_implE** %_T33110608_48878.addr, align 8, !tbaa !3660
	ret void, !dbg !5340
}

%struct._ZSt6vectorIN5vmesh14MeshParametersESaIS1_EE = type <{ %struct._ZSt12_Vector_baseIN5vmesh14MeshParametersESaIS1_EE}> 

define linkonce_odr void @_ZNSt6vectorIN5vmesh14MeshParametersESaIS1_EEC1Ev(%struct._ZSt6vectorIN5vmesh14MeshParametersESaIS1_EE* %_T33110608_48879.arg) #0 inlinehint !dbg !5348 {
L.entry:
	%_T33110608_48879.addr = alloca %struct._ZSt6vectorIN5vmesh14MeshParametersESaIS1_EE*, align 8
	%..inline.addr = alloca %struct._ZNSt12_Vector_baseIN5vmesh14MeshParametersESaIS1_EE17_Vector_impl_dataE*, align 8

	call void @llvm.dbg.declare (metadata %struct._ZSt6vectorIN5vmesh14MeshParametersESaIS1_EE** %_T33110608_48879.addr, metadata !5372, metadata !3652), !dbg !5349
	store %struct._ZSt6vectorIN5vmesh14MeshParametersESaIS1_EE* %_T33110608_48879.arg, %struct._ZSt6vectorIN5vmesh14MeshParametersESaIS1_EE** %_T33110608_48879.addr, align 8, !tbaa !3660
	call void @llvm.dbg.declare (metadata %struct._ZSt6vectorIN5vmesh14MeshParametersESaIS1_EE** %_T33110608_48879.addr, metadata !5373, metadata !3652), !dbg !5349
	%0 = load %struct._ZSt6vectorIN5vmesh14MeshParametersESaIS1_EE*, %struct._ZSt6vectorIN5vmesh14MeshParametersESaIS1_EE** %_T33110608_48879.addr, align 8, !tbaa !3660, !dbg !5374
	%1 = bitcast %struct._ZSt6vectorIN5vmesh14MeshParametersESaIS1_EE*  %0 to i8*, !dbg !5374
	%2 = bitcast %struct._ZNSt12_Vector_baseIN5vmesh14MeshParametersESaIS1_EE17_Vector_impl_dataE** %..inline.addr to i8**, !dbg !5374
	store i8*  %1, i8**  %2, align 8, !tbaa !3660, !dbg !5374
	%3 = load %struct._ZNSt12_Vector_baseIN5vmesh14MeshParametersESaIS1_EE17_Vector_impl_dataE*, %struct._ZNSt12_Vector_baseIN5vmesh14MeshParametersESaIS1_EE17_Vector_impl_dataE** %..inline.addr, align 8, !tbaa !3660, !dbg !5374
	%4 = bitcast %struct._ZNSt12_Vector_baseIN5vmesh14MeshParametersESaIS1_EE17_Vector_impl_dataE*  %3 to i8**, !dbg !5374
	store i8* null, i8**  %4, align 8, !tbaa !3660, !dbg !5374
	%5 = bitcast %struct._ZNSt12_Vector_baseIN5vmesh14MeshParametersESaIS1_EE17_Vector_impl_dataE*  %3 to i8*, !dbg !5374
	%6 = getelementptr i8, i8*  %5, i64 8, !dbg !5374
	%7 = bitcast i8*  %6 to i8**, !dbg !5374
	store i8* null, i8**  %7, align 8, !tbaa !3660, !dbg !5374
	%8 = getelementptr i8, i8*  %5, i64 16, !dbg !5374
	%9 = bitcast i8*  %8 to i8**, !dbg !5374
	store i8* null, i8**  %9, align 8, !tbaa !3660, !dbg !5374
	ret void, !dbg !5374
}
define linkonce_odr void @_ZNSt6vectorIN5vmesh14MeshParametersESaIS1_EEC2Ev(%struct._ZSt6vectorIN5vmesh14MeshParametersESaIS1_EE* %_T33110608_48880.arg) #0 inlinehint !dbg !5376 {
L.entry:
	%_T33110608_48880.addr = alloca %struct._ZSt6vectorIN5vmesh14MeshParametersESaIS1_EE*, align 8
	%..inline.addr = alloca %struct._ZNSt12_Vector_baseIN5vmesh14MeshParametersESaIS1_EE17_Vector_impl_dataE*, align 8

	store %struct._ZSt6vectorIN5vmesh14MeshParametersESaIS1_EE* %_T33110608_48880.arg, %struct._ZSt6vectorIN5vmesh14MeshParametersESaIS1_EE** %_T33110608_48880.addr, align 8, !tbaa !3660
	%0 = load %struct._ZSt6vectorIN5vmesh14MeshParametersESaIS1_EE*, %struct._ZSt6vectorIN5vmesh14MeshParametersESaIS1_EE** %_T33110608_48880.addr, align 8, !tbaa !3660, !dbg !5404
	%1 = bitcast %struct._ZSt6vectorIN5vmesh14MeshParametersESaIS1_EE*  %0 to i8*, !dbg !5404
	%2 = bitcast %struct._ZNSt12_Vector_baseIN5vmesh14MeshParametersESaIS1_EE17_Vector_impl_dataE** %..inline.addr to i8**, !dbg !5404
	store i8*  %1, i8**  %2, align 8, !tbaa !3660, !dbg !5404
	%3 = load %struct._ZNSt12_Vector_baseIN5vmesh14MeshParametersESaIS1_EE17_Vector_impl_dataE*, %struct._ZNSt12_Vector_baseIN5vmesh14MeshParametersESaIS1_EE17_Vector_impl_dataE** %..inline.addr, align 8, !tbaa !3660, !dbg !5404
	%4 = bitcast %struct._ZNSt12_Vector_baseIN5vmesh14MeshParametersESaIS1_EE17_Vector_impl_dataE*  %3 to i8**, !dbg !5404
	store i8* null, i8**  %4, align 8, !tbaa !3660, !dbg !5404
	%5 = bitcast %struct._ZNSt12_Vector_baseIN5vmesh14MeshParametersESaIS1_EE17_Vector_impl_dataE*  %3 to i8*, !dbg !5404
	%6 = getelementptr i8, i8*  %5, i64 8, !dbg !5404
	%7 = bitcast i8*  %6 to i8**, !dbg !5404
	store i8* null, i8**  %7, align 8, !tbaa !3660, !dbg !5404
	%8 = getelementptr i8, i8*  %5, i64 16, !dbg !5404
	%9 = bitcast i8*  %8 to i8**, !dbg !5404
	store i8* null, i8**  %9, align 8, !tbaa !3660, !dbg !5404
	ret void, !dbg !5404
}
define linkonce_odr void @_ZNSt6vectorIN5vmesh14MeshParametersESaIS1_EED1Ev(%struct._ZSt6vectorIN5vmesh14MeshParametersESaIS1_EE* %_T33110608_48881.arg) #0 inlinehint !dbg !5406 {
L.entry:
	%_T33110608_48881.addr = alloca %struct._ZSt6vectorIN5vmesh14MeshParametersESaIS1_EE*, align 8
	%..inline.addr = alloca %struct._ZN5vmesh14MeshParametersE*, align 8
	%..inline.addr.1 = alloca %struct._ZN5vmesh14MeshParametersE*, align 8
	%.lcr4481921.addr = alloca i8*, align 8
	%..inline.addr.2 = alloca %struct._ZN5vmesh14MeshParametersE*, align 8
	%..inline.addr.3 = alloca %struct._ZSt12_Vector_baseIN5vmesh14MeshParametersESaIS1_EE*, align 8
	%..inline.addr.4 = alloca %struct._ZN5vmesh14MeshParametersE*, align 8

	call void @llvm.dbg.declare (metadata %struct._ZSt6vectorIN5vmesh14MeshParametersESaIS1_EE** %_T33110608_48881.addr, metadata !5466, metadata !3652), !dbg !5407
	store %struct._ZSt6vectorIN5vmesh14MeshParametersESaIS1_EE* %_T33110608_48881.arg, %struct._ZSt6vectorIN5vmesh14MeshParametersESaIS1_EE** %_T33110608_48881.addr, align 8, !tbaa !3660
	call void @llvm.dbg.declare (metadata %struct._ZSt6vectorIN5vmesh14MeshParametersESaIS1_EE** %_T33110608_48881.addr, metadata !5467, metadata !3652), !dbg !5407
	%0 = load %struct._ZSt6vectorIN5vmesh14MeshParametersESaIS1_EE*, %struct._ZSt6vectorIN5vmesh14MeshParametersESaIS1_EE** %_T33110608_48881.addr, align 8, !tbaa !3660, !dbg !5468
	%1 = bitcast %struct._ZSt6vectorIN5vmesh14MeshParametersESaIS1_EE*  %0 to i8**, !dbg !5468
	%2 = load i8*, i8**  %1, align 8, !tbaa !3660, !dbg !5468
	%3 = bitcast %struct._ZN5vmesh14MeshParametersE** %..inline.addr to i8**, !dbg !5468
	store i8*  %2, i8**  %3, align 8, !tbaa !3660, !dbg !5468
	%4 = bitcast %struct._ZSt6vectorIN5vmesh14MeshParametersESaIS1_EE*  %0 to i8*, !dbg !5468
	%5 = getelementptr i8, i8*  %4, i64 8, !dbg !5468
	%6 = bitcast i8*  %5 to i8**, !dbg !5468
	%7 = load i8*, i8**  %6, align 8, !tbaa !3660, !dbg !5468
	%8 = bitcast %struct._ZN5vmesh14MeshParametersE** %..inline.addr.1 to i8**, !dbg !5468
	store i8*  %7, i8**  %8, align 8, !tbaa !3660, !dbg !5468
	%9 = load %struct._ZN5vmesh14MeshParametersE*, %struct._ZN5vmesh14MeshParametersE** %..inline.addr, align 8, !tbaa !3660, !dbg !5468
	%10 = bitcast %struct._ZN5vmesh14MeshParametersE*  %9 to i8*, !dbg !5468
	%11 = load %struct._ZN5vmesh14MeshParametersE*, %struct._ZN5vmesh14MeshParametersE** %..inline.addr.1, align 8, !tbaa !3660, !dbg !5468
	%12 = bitcast %struct._ZN5vmesh14MeshParametersE*  %11 to i8*, !dbg !5468
	%13 = icmp eq i8*  %10,  %12, !dbg !5468
	br i1  %13, label %L..inline.64222, label %L.B1173, !dbg !5468
L.B1173:
	%14 = bitcast %struct._ZN5vmesh14MeshParametersE*  %9 to i8*, !dbg !5468
	%15 = bitcast %struct._ZN5vmesh14MeshParametersE*  %11 to i8*, !dbg !5468
	%16 = ptrtoint i8*  %14 to i64, !dbg !5468
	%17 = sub i64 0,  %16, !dbg !5468
	%18 = getelementptr i8, i8*  %15, i64  %17, !dbg !5468
	%19 = ptrtoint i8*  %18 to i64, !dbg !5468
	%20 = add i64  %19, 335, !dbg !5468
	%21 = sub i64 0,  %16, !dbg !5468
	%22 = getelementptr i8, i8*  %15, i64  %21, !dbg !5468
	%23 = ptrtoint i8*  %22 to i64, !dbg !5468
	%24 = add i64  %23, 335, !dbg !5468
	%25 = sext i64 -4392081922311798003 to i128, !dbg !5468
	%26 = sext i64  %24 to i128, !dbg !5468
	%27 = mul i128  %25,  %26, !dbg !5468
	%28 = ashr i128  %27, 64, !dbg !5468
	%29 = trunc i128  %28 to i64, !dbg !5468
	%30 = add i64  %20,  %29, !dbg !5468
	%31 = sext i32 8 to i64, !dbg !5468
	%32 = ashr i64  %30,  %31, !dbg !5468
	%33 = sub i64 0,  %16, !dbg !5468
	%34 = getelementptr i8, i8*  %15, i64  %33, !dbg !5468
	%35 = ptrtoint i8*  %34 to i64, !dbg !5468
	%36 = add i64  %35, 335, !dbg !5468
	%37 = sext i32 63 to i64, !dbg !5468
	%38 = ashr i64  %36,  %37, !dbg !5468
	%39 = sub i64  %32,  %38, !dbg !5468
	%40 = mul i64  %39, 336, !dbg !5468
	%41 = getelementptr i8, i8*  %14, i64  %40, !dbg !5468
	store i8*  %41, i8** %.lcr4481921.addr, align 8, !tbaa !3660, !dbg !5468
	br label %L..inline.64221
L..inline.64221:
	%42 = load %struct._ZN5vmesh14MeshParametersE*, %struct._ZN5vmesh14MeshParametersE** %..inline.addr, align 8, !tbaa !3660, !dbg !5468
	%43 = bitcast %struct._ZN5vmesh14MeshParametersE*  %42 to i8*, !dbg !5468
	%44 = bitcast %struct._ZN5vmesh14MeshParametersE** %..inline.addr.2 to i8**, !dbg !5468
	store i8*  %43, i8**  %44, align 8, !tbaa !3660, !dbg !5468
	%45 = load %struct._ZN5vmesh14MeshParametersE*, %struct._ZN5vmesh14MeshParametersE** %..inline.addr.2, align 8, !tbaa !3660, !dbg !5468
	call void  @_ZN5vmesh14MeshParametersD1Ev (%struct._ZN5vmesh14MeshParametersE*  %45) nounwind, !dbg !5468
	%46 = load %struct._ZN5vmesh14MeshParametersE*, %struct._ZN5vmesh14MeshParametersE** %..inline.addr, align 8, !tbaa !3660, !dbg !5468
	%47 = bitcast %struct._ZN5vmesh14MeshParametersE*  %46 to i8*, !dbg !5468
	%48 = getelementptr i8, i8*  %47, i64 336, !dbg !5468
	%49 = bitcast %struct._ZN5vmesh14MeshParametersE** %..inline.addr to i8**, !dbg !5468
	store i8*  %48, i8**  %49, align 8, !tbaa !3660, !dbg !5468
	%50 = load %struct._ZN5vmesh14MeshParametersE*, %struct._ZN5vmesh14MeshParametersE** %..inline.addr, align 8, !tbaa !3660, !dbg !5468
	%51 = bitcast %struct._ZN5vmesh14MeshParametersE*  %50 to i8*, !dbg !5468
	%52 = load i8*, i8** %.lcr4481921.addr, align 8, !tbaa !3660, !dbg !5468
	%53 = icmp ult i8*  %51,  %52, !dbg !5468
	br i1  %53, label %L..inline.64221, label %L..inline.64222, !dbg !5468
L..inline.64222:
	%54 = load %struct._ZSt6vectorIN5vmesh14MeshParametersESaIS1_EE*, %struct._ZSt6vectorIN5vmesh14MeshParametersESaIS1_EE** %_T33110608_48881.addr, align 8, !tbaa !3660, !dbg !5469
	%55 = bitcast %struct._ZSt6vectorIN5vmesh14MeshParametersESaIS1_EE*  %54 to i8*, !dbg !5469
	%56 = bitcast %struct._ZSt12_Vector_baseIN5vmesh14MeshParametersESaIS1_EE** %..inline.addr.3 to i8**, !dbg !5469
	store i8*  %55, i8**  %56, align 8, !tbaa !3660, !dbg !5469
	%57 = load %struct._ZSt12_Vector_baseIN5vmesh14MeshParametersESaIS1_EE*, %struct._ZSt12_Vector_baseIN5vmesh14MeshParametersESaIS1_EE** %..inline.addr.3, align 8, !tbaa !3660, !dbg !5470
	%58 = bitcast %struct._ZSt12_Vector_baseIN5vmesh14MeshParametersESaIS1_EE*  %57 to i8**, !dbg !5470
	%59 = load i8*, i8**  %58, align 8, !tbaa !3660, !dbg !5470
	%60 = icmp eq i8*  %59,  null, !dbg !5470
	br i1  %60, label %L..inline.64254, label %L.B1174, !dbg !5470
L.B1174:
	%61 = bitcast %struct._ZSt12_Vector_baseIN5vmesh14MeshParametersESaIS1_EE*  %57 to i8**, !dbg !5470
	%62 = load i8*, i8**  %61, align 8, !tbaa !3660, !dbg !5470
	%63 = bitcast %struct._ZN5vmesh14MeshParametersE** %..inline.addr.4 to i8**, !dbg !5470
	store i8*  %62, i8**  %63, align 8, !tbaa !3660, !dbg !5470
	%64 = load %struct._ZN5vmesh14MeshParametersE*, %struct._ZN5vmesh14MeshParametersE** %..inline.addr.4, align 8, !tbaa !3660, !dbg !5470
	%65 = bitcast %struct._ZN5vmesh14MeshParametersE*  %64 to i8*, !dbg !5470
	call void  @_ZdlPv (i8*  %65) nounwind, !dbg !5470
	br label %L..inline.64254
L..inline.64254:
	ret void, !dbg !5469
}
define linkonce_odr void @_ZNSt6vectorIN5vmesh14MeshParametersESaIS1_EED2Ev(%struct._ZSt6vectorIN5vmesh14MeshParametersESaIS1_EE* %_T33110608_48882.arg) #0 inlinehint !dbg !5472 {
L.entry:
	%_T33110608_48882.addr = alloca %struct._ZSt6vectorIN5vmesh14MeshParametersESaIS1_EE*, align 8
	%..inline.addr = alloca %struct._ZSt6vectorIN5vmesh14MeshParametersESaIS1_EE*, align 8
	%..inline.addr.1 = alloca %struct._ZN5vmesh14MeshParametersE*, align 8
	%..inline.addr.2 = alloca %struct._ZN5vmesh14MeshParametersE*, align 8
	%.lcr4482945.addr = alloca i8*, align 8
	%..inline.addr.3 = alloca %struct._ZN5vmesh14MeshParametersE*, align 8
	%..inline.addr.4 = alloca %struct._ZN5vmesh14MeshParametersE*, align 8

	store %struct._ZSt6vectorIN5vmesh14MeshParametersESaIS1_EE* %_T33110608_48882.arg, %struct._ZSt6vectorIN5vmesh14MeshParametersESaIS1_EE** %_T33110608_48882.addr, align 8, !tbaa !3660
	%0 = load %struct._ZSt6vectorIN5vmesh14MeshParametersESaIS1_EE*, %struct._ZSt6vectorIN5vmesh14MeshParametersESaIS1_EE** %_T33110608_48882.addr, align 8, !tbaa !3660, !dbg !5536
	%1 = bitcast %struct._ZSt6vectorIN5vmesh14MeshParametersESaIS1_EE*  %0 to i8*, !dbg !5536
	%2 = bitcast %struct._ZSt6vectorIN5vmesh14MeshParametersESaIS1_EE** %..inline.addr to i8**, !dbg !5536
	store i8*  %1, i8**  %2, align 8, !tbaa !3660, !dbg !5536
	%3 = load %struct._ZSt6vectorIN5vmesh14MeshParametersESaIS1_EE*, %struct._ZSt6vectorIN5vmesh14MeshParametersESaIS1_EE** %..inline.addr, align 8, !tbaa !3660, !dbg !5537
	%4 = bitcast %struct._ZSt6vectorIN5vmesh14MeshParametersESaIS1_EE*  %3 to i8**, !dbg !5537
	%5 = load i8*, i8**  %4, align 8, !tbaa !3660, !dbg !5537
	%6 = bitcast %struct._ZN5vmesh14MeshParametersE** %..inline.addr.1 to i8**, !dbg !5537
	store i8*  %5, i8**  %6, align 8, !tbaa !3660, !dbg !5537
	%7 = bitcast %struct._ZSt6vectorIN5vmesh14MeshParametersESaIS1_EE*  %3 to i8*, !dbg !5537
	%8 = getelementptr i8, i8*  %7, i64 8, !dbg !5537
	%9 = bitcast i8*  %8 to i8**, !dbg !5537
	%10 = load i8*, i8**  %9, align 8, !tbaa !3660, !dbg !5537
	%11 = bitcast %struct._ZN5vmesh14MeshParametersE** %..inline.addr.2 to i8**, !dbg !5537
	store i8*  %10, i8**  %11, align 8, !tbaa !3660, !dbg !5537
	%12 = load %struct._ZN5vmesh14MeshParametersE*, %struct._ZN5vmesh14MeshParametersE** %..inline.addr.1, align 8, !tbaa !3660, !dbg !5537
	%13 = bitcast %struct._ZN5vmesh14MeshParametersE*  %12 to i8*, !dbg !5537
	%14 = load %struct._ZN5vmesh14MeshParametersE*, %struct._ZN5vmesh14MeshParametersE** %..inline.addr.2, align 8, !tbaa !3660, !dbg !5537
	%15 = bitcast %struct._ZN5vmesh14MeshParametersE*  %14 to i8*, !dbg !5537
	%16 = icmp eq i8*  %13,  %15, !dbg !5537
	br i1  %16, label %L..inline.64353, label %L.B1177, !dbg !5537
L.B1177:
	%17 = bitcast %struct._ZN5vmesh14MeshParametersE*  %12 to i8*, !dbg !5537
	%18 = bitcast %struct._ZN5vmesh14MeshParametersE*  %14 to i8*, !dbg !5537
	%19 = ptrtoint i8*  %17 to i64, !dbg !5537
	%20 = sub i64 0,  %19, !dbg !5537
	%21 = getelementptr i8, i8*  %18, i64  %20, !dbg !5537
	%22 = ptrtoint i8*  %21 to i64, !dbg !5537
	%23 = add i64  %22, 335, !dbg !5537
	%24 = sub i64 0,  %19, !dbg !5537
	%25 = getelementptr i8, i8*  %18, i64  %24, !dbg !5537
	%26 = ptrtoint i8*  %25 to i64, !dbg !5537
	%27 = add i64  %26, 335, !dbg !5537
	%28 = sext i64 -4392081922311798003 to i128, !dbg !5537
	%29 = sext i64  %27 to i128, !dbg !5537
	%30 = mul i128  %28,  %29, !dbg !5537
	%31 = ashr i128  %30, 64, !dbg !5537
	%32 = trunc i128  %31 to i64, !dbg !5537
	%33 = add i64  %23,  %32, !dbg !5537
	%34 = sext i32 8 to i64, !dbg !5537
	%35 = ashr i64  %33,  %34, !dbg !5537
	%36 = sub i64 0,  %19, !dbg !5537
	%37 = getelementptr i8, i8*  %18, i64  %36, !dbg !5537
	%38 = ptrtoint i8*  %37 to i64, !dbg !5537
	%39 = add i64  %38, 335, !dbg !5537
	%40 = sext i32 63 to i64, !dbg !5537
	%41 = ashr i64  %39,  %40, !dbg !5537
	%42 = sub i64  %35,  %41, !dbg !5537
	%43 = mul i64  %42, 336, !dbg !5537
	%44 = getelementptr i8, i8*  %17, i64  %43, !dbg !5537
	store i8*  %44, i8** %.lcr4482945.addr, align 8, !tbaa !3660, !dbg !5537
	br label %L..inline.64352
L..inline.64352:
	%45 = load %struct._ZN5vmesh14MeshParametersE*, %struct._ZN5vmesh14MeshParametersE** %..inline.addr.1, align 8, !tbaa !3660, !dbg !5537
	%46 = bitcast %struct._ZN5vmesh14MeshParametersE*  %45 to i8*, !dbg !5537
	%47 = bitcast %struct._ZN5vmesh14MeshParametersE** %..inline.addr.3 to i8**, !dbg !5537
	store i8*  %46, i8**  %47, align 8, !tbaa !3660, !dbg !5537
	%48 = load %struct._ZN5vmesh14MeshParametersE*, %struct._ZN5vmesh14MeshParametersE** %..inline.addr.3, align 8, !tbaa !3660, !dbg !5537
	call void  @_ZN5vmesh14MeshParametersD1Ev (%struct._ZN5vmesh14MeshParametersE*  %48) nounwind, !dbg !5537
	%49 = load %struct._ZN5vmesh14MeshParametersE*, %struct._ZN5vmesh14MeshParametersE** %..inline.addr.1, align 8, !tbaa !3660, !dbg !5537
	%50 = bitcast %struct._ZN5vmesh14MeshParametersE*  %49 to i8*, !dbg !5537
	%51 = getelementptr i8, i8*  %50, i64 336, !dbg !5537
	%52 = bitcast %struct._ZN5vmesh14MeshParametersE** %..inline.addr.1 to i8**, !dbg !5537
	store i8*  %51, i8**  %52, align 8, !tbaa !3660, !dbg !5537
	%53 = load %struct._ZN5vmesh14MeshParametersE*, %struct._ZN5vmesh14MeshParametersE** %..inline.addr.1, align 8, !tbaa !3660, !dbg !5537
	%54 = bitcast %struct._ZN5vmesh14MeshParametersE*  %53 to i8*, !dbg !5537
	%55 = load i8*, i8** %.lcr4482945.addr, align 8, !tbaa !3660, !dbg !5537
	%56 = icmp ult i8*  %54,  %55, !dbg !5537
	br i1  %56, label %L..inline.64352, label %L..inline.64353, !dbg !5537
L..inline.64353:
	%57 = load %struct._ZSt6vectorIN5vmesh14MeshParametersESaIS1_EE*, %struct._ZSt6vectorIN5vmesh14MeshParametersESaIS1_EE** %..inline.addr, align 8, !tbaa !3660, !dbg !5538
	%58 = bitcast %struct._ZSt6vectorIN5vmesh14MeshParametersESaIS1_EE*  %57 to i8**, !dbg !5538
	%59 = load i8*, i8**  %58, align 8, !tbaa !3660, !dbg !5538
	%60 = icmp eq i8*  %59,  null, !dbg !5538
	br i1  %60, label %L..inline.64383, label %L.B1178, !dbg !5538
L.B1178:
	%61 = bitcast %struct._ZSt6vectorIN5vmesh14MeshParametersESaIS1_EE*  %57 to i8**, !dbg !5538
	%62 = load i8*, i8**  %61, align 8, !tbaa !3660, !dbg !5538
	%63 = bitcast %struct._ZN5vmesh14MeshParametersE** %..inline.addr.4 to i8**, !dbg !5538
	store i8*  %62, i8**  %63, align 8, !tbaa !3660, !dbg !5538
	%64 = load %struct._ZN5vmesh14MeshParametersE*, %struct._ZN5vmesh14MeshParametersE** %..inline.addr.4, align 8, !tbaa !3660, !dbg !5538
	%65 = bitcast %struct._ZN5vmesh14MeshParametersE*  %64 to i8*, !dbg !5538
	call void  @_ZdlPv (i8*  %65) nounwind, !dbg !5538
	br label %L..inline.64383
L..inline.64383:
	ret void, !dbg !5538
}

%struct._ZSaISt5arrayIdLm3EEE = type <{ [1 x i8]}> 

define linkonce_odr void @_ZNSaISt5arrayIdLm3EEED1Ev(%struct._ZSaISt5arrayIdLm3EEE* %_T33110608_48883.arg) #0 inlinehint !dbg !5543 {
L.entry:
	%_T33110608_48883.addr = alloca %struct._ZSaISt5arrayIdLm3EEE*, align 8

	call void @llvm.dbg.declare (metadata %struct._ZSaISt5arrayIdLm3EEE** %_T33110608_48883.addr, metadata !5547, metadata !3652), !dbg !5544
	store %struct._ZSaISt5arrayIdLm3EEE* %_T33110608_48883.arg, %struct._ZSaISt5arrayIdLm3EEE** %_T33110608_48883.addr, align 8, !tbaa !3660
	call void @llvm.dbg.declare (metadata %struct._ZSaISt5arrayIdLm3EEE** %_T33110608_48883.addr, metadata !5548, metadata !3652), !dbg !5544
	ret void, !dbg !5549
}
define linkonce_odr void @_ZNSaISt5arrayIdLm3EEED2Ev(%struct._ZSaISt5arrayIdLm3EEE* %_T33110608_48884.arg) #0 inlinehint !dbg !5551 {
L.entry:
	%_T33110608_48884.addr = alloca %struct._ZSaISt5arrayIdLm3EEE*, align 8

	store %struct._ZSaISt5arrayIdLm3EEE* %_T33110608_48884.arg, %struct._ZSaISt5arrayIdLm3EEE** %_T33110608_48884.addr, align 8, !tbaa !3660
	ret void, !dbg !5559
}
define linkonce_odr %struct._ZSt5arrayIdLm3EE* @_ZNSt16allocator_traitsISaISt5arrayIdLm3EEEE8allocateERS2_m(%struct._ZSaISt5arrayIdLm3EEE* %__a.arg, i64 %__n.arg) #0 inlinehint !dbg !5567 {
L.entry:
	%__a.addr = alloca %struct._ZSaISt5arrayIdLm3EEE*, align 8
	%__n.addr = alloca i64, align 8
	%..inline.addr = alloca i64, align 8
	%.Q0010.addr = alloca i8*, align 8

	call void @llvm.dbg.declare (metadata %struct._ZSaISt5arrayIdLm3EEE** %__a.addr, metadata !5579, metadata !3652), !dbg !5568
	store %struct._ZSaISt5arrayIdLm3EEE* %__a.arg, %struct._ZSaISt5arrayIdLm3EEE** %__a.addr, align 8, !tbaa !3660
	call void @llvm.dbg.declare (metadata %struct._ZSaISt5arrayIdLm3EEE** %__a.addr, metadata !5580, metadata !3652), !dbg !5568
	call void @llvm.dbg.declare (metadata i64* %__n.addr, metadata !5581, metadata !3652), !dbg !5568
	store i64 %__n.arg, i64* %__n.addr, align 8, !tbaa !3659
	call void @llvm.dbg.declare (metadata i64* %__n.addr, metadata !5582, metadata !3652), !dbg !5568
	%0 = load i64, i64* %__n.addr, align 8, !tbaa !4087, !dbg !5583
	store i64  %0, i64* %..inline.addr, align 8, !tbaa !4087, !dbg !5583
	%1 = icmp ule i64  %0, 768614336404564650, !dbg !5584
	br i1  %1, label %L..inline.64475, label %L.B1183, !dbg !5584
L.B1183:
	call void  @_ZSt17__throw_bad_allocv () noreturn, !dbg !5585
	br label %L..inline.64475
L..inline.64475:
	%2 = load i64, i64* %..inline.addr, align 8, !tbaa !4087, !dbg !5586
	%3 = mul i64  %2, 24, !dbg !5586
	%4 = call i8*  @_Znwm (i64  %3), !dbg !5586
	store i8*  %4, i8** %.Q0010.addr, align 8, !tbaa !3660, !dbg !5586
	%5 = bitcast i8*  %4 to %struct._ZSt5arrayIdLm3EE*, !dbg !5586
	ret %struct._ZSt5arrayIdLm3EE*  %5, !dbg !5586
}
define linkonce_odr void @_ZNSt16allocator_traitsISaISt5arrayIdLm3EEEE10deallocateERS2_PS1_m(%struct._ZSaISt5arrayIdLm3EEE* %__a.arg, %struct._ZSt5arrayIdLm3EE* %__p.arg, i64 %__n.arg) #0 inlinehint !dbg !5590 {
L.entry:
	%__a.addr = alloca %struct._ZSaISt5arrayIdLm3EEE*, align 8
	%__p.addr = alloca %struct._ZSt5arrayIdLm3EE*, align 8
	%__n.addr = alloca i64, align 8
	%..inline.addr = alloca %struct._ZSt5arrayIdLm3EE*, align 8

	call void @llvm.dbg.declare (metadata %struct._ZSaISt5arrayIdLm3EEE** %__a.addr, metadata !5598, metadata !3652), !dbg !5591
	store %struct._ZSaISt5arrayIdLm3EEE* %__a.arg, %struct._ZSaISt5arrayIdLm3EEE** %__a.addr, align 8, !tbaa !3660
	call void @llvm.dbg.declare (metadata %struct._ZSaISt5arrayIdLm3EEE** %__a.addr, metadata !5599, metadata !3652), !dbg !5591
	call void @llvm.dbg.declare (metadata %struct._ZSt5arrayIdLm3EE** %__p.addr, metadata !5600, metadata !3652), !dbg !5591
	store %struct._ZSt5arrayIdLm3EE* %__p.arg, %struct._ZSt5arrayIdLm3EE** %__p.addr, align 8, !tbaa !3660
	call void @llvm.dbg.declare (metadata %struct._ZSt5arrayIdLm3EE** %__p.addr, metadata !5601, metadata !3652), !dbg !5591
	call void @llvm.dbg.declare (metadata i64* %__n.addr, metadata !5602, metadata !3652), !dbg !5591
	store i64 %__n.arg, i64* %__n.addr, align 8, !tbaa !3659
	call void @llvm.dbg.declare (metadata i64* %__n.addr, metadata !5603, metadata !3652), !dbg !5591
	%0 = load %struct._ZSt5arrayIdLm3EE*, %struct._ZSt5arrayIdLm3EE** %__p.addr, align 8, !tbaa !3660, !dbg !5604
	%1 = bitcast %struct._ZSt5arrayIdLm3EE*  %0 to i8*, !dbg !5604
	%2 = bitcast %struct._ZSt5arrayIdLm3EE** %..inline.addr to i8**, !dbg !5604
	store i8*  %1, i8**  %2, align 8, !tbaa !3660, !dbg !5604
	%3 = load %struct._ZSt5arrayIdLm3EE*, %struct._ZSt5arrayIdLm3EE** %..inline.addr, align 8, !tbaa !3660, !dbg !5605
	%4 = bitcast %struct._ZSt5arrayIdLm3EE*  %3 to i8*, !dbg !5605
	call void  @_ZdlPv (i8*  %4) nounwind, !dbg !5605
	ret void, !dbg !5604
}
define linkonce_odr i64 @_ZNSt16allocator_traitsISaISt5arrayIdLm3EEEE8max_sizeERKS2_(%struct._ZSaISt5arrayIdLm3EEE* %__a.arg) #0 inlinehint !dbg !5613 {
L.entry:
	%__a.addr = alloca %struct._ZSaISt5arrayIdLm3EEE*, align 8

	call void @llvm.dbg.declare (metadata %struct._ZSaISt5arrayIdLm3EEE** %__a.addr, metadata !5621, metadata !3652), !dbg !5614
	store %struct._ZSaISt5arrayIdLm3EEE* %__a.arg, %struct._ZSaISt5arrayIdLm3EEE** %__a.addr, align 8, !tbaa !3660
	call void @llvm.dbg.declare (metadata %struct._ZSaISt5arrayIdLm3EEE** %__a.addr, metadata !5622, metadata !3652), !dbg !5614
	ret i64 768614336404564650, !dbg !5623
}
define linkonce_odr void @_ZNSt16allocator_traitsISaISt5arrayIdLm3EEEE9constructIS1_JRKS1_EEEvRS2_PT_DpOT0_(%struct._ZSaISt5arrayIdLm3EEE* %__a.arg, %struct._ZSt5arrayIdLm3EE* %__p.arg, %struct._ZSt5arrayIdLm3EE* %__args.arg) #0 inlinehint !dbg !5631 {
L.entry:
	%__a.addr = alloca %struct._ZSaISt5arrayIdLm3EEE*, align 8
	%__p.addr = alloca %struct._ZSt5arrayIdLm3EE*, align 8
	%__args.addr = alloca %struct._ZSt5arrayIdLm3EE*, align 8
	%..inline.addr = alloca %struct._ZSt5arrayIdLm3EE*, align 8
	%..inline.addr.1 = alloca %struct._ZSt5arrayIdLm3EE*, align 8

	call void @llvm.dbg.declare (metadata %struct._ZSaISt5arrayIdLm3EEE** %__a.addr, metadata !5651, metadata !3652), !dbg !5632
	store %struct._ZSaISt5arrayIdLm3EEE* %__a.arg, %struct._ZSaISt5arrayIdLm3EEE** %__a.addr, align 8, !tbaa !3660
	call void @llvm.dbg.declare (metadata %struct._ZSaISt5arrayIdLm3EEE** %__a.addr, metadata !5652, metadata !3652), !dbg !5632
	call void @llvm.dbg.declare (metadata %struct._ZSt5arrayIdLm3EE** %__p.addr, metadata !5653, metadata !3652), !dbg !5632
	store %struct._ZSt5arrayIdLm3EE* %__p.arg, %struct._ZSt5arrayIdLm3EE** %__p.addr, align 8, !tbaa !3660
	call void @llvm.dbg.declare (metadata %struct._ZSt5arrayIdLm3EE** %__p.addr, metadata !5654, metadata !3652), !dbg !5632
	call void @llvm.dbg.declare (metadata %struct._ZSt5arrayIdLm3EE** %__args.addr, metadata !5655, metadata !3652), !dbg !5632
	store %struct._ZSt5arrayIdLm3EE* %__args.arg, %struct._ZSt5arrayIdLm3EE** %__args.addr, align 8, !tbaa !3660
	call void @llvm.dbg.declare (metadata %struct._ZSt5arrayIdLm3EE** %__args.addr, metadata !5656, metadata !3652), !dbg !5632
	%0 = load %struct._ZSt5arrayIdLm3EE*, %struct._ZSt5arrayIdLm3EE** %__p.addr, align 8, !tbaa !3660, !dbg !5657
	%1 = bitcast %struct._ZSt5arrayIdLm3EE*  %0 to i8*, !dbg !5657
	%2 = bitcast %struct._ZSt5arrayIdLm3EE** %..inline.addr to i8**, !dbg !5657
	store i8*  %1, i8**  %2, align 8, !tbaa !3660, !dbg !5657
	%3 = load %struct._ZSt5arrayIdLm3EE*, %struct._ZSt5arrayIdLm3EE** %..inline.addr, align 8, !tbaa !3660, !dbg !5657
	%4 = bitcast %struct._ZSt5arrayIdLm3EE*  %3 to i8*, !dbg !5657
	%5 = icmp eq i8*  %4,  null, !dbg !5657
	br i1  %5, label %L..inline.64541, label %L.B1192, !dbg !5657
L.B1192:
	%6 = load %struct._ZSt5arrayIdLm3EE*, %struct._ZSt5arrayIdLm3EE** %__args.addr, align 8, !tbaa !3660, !dbg !5657
	%7 = bitcast %struct._ZSt5arrayIdLm3EE*  %6 to i8*, !dbg !5657
	%8 = bitcast %struct._ZSt5arrayIdLm3EE** %..inline.addr.1 to i8**, !dbg !5657
	store i8*  %7, i8**  %8, align 8, !tbaa !3660, !dbg !5657
	%9 = load %struct._ZSt5arrayIdLm3EE*, %struct._ZSt5arrayIdLm3EE** %..inline.addr.1, align 8, !tbaa !3660, !dbg !5658
	%10 = bitcast %struct._ZSt5arrayIdLm3EE*  %9 to i64*, !dbg !5658
	%11 = load i64, i64*  %10, align 8, !tbaa !3659, !dbg !5658
	%12 = bitcast %struct._ZSt5arrayIdLm3EE*  %3 to i64*, !dbg !5658
	store i64  %11, i64*  %12, align 8, !tbaa !3659, !dbg !5658
	%13 = bitcast i64*  %10 to i8*, !dbg !5658
	%14 = getelementptr i8, i8*  %13, i64 8, !dbg !5658
	%15 = bitcast i8*  %14 to i64*, !dbg !5658
	%16 = load i64, i64*  %15, align 8, !tbaa !3659, !dbg !5658
	%17 = bitcast i64*  %12 to i8*, !dbg !5658
	%18 = getelementptr i8, i8*  %17, i64 8, !dbg !5658
	%19 = bitcast i8*  %18 to i64*, !dbg !5658
	store i64  %16, i64*  %19, align 8, !tbaa !3659, !dbg !5658
	%20 = getelementptr i8, i8*  %13, i64 16, !dbg !5658
	%21 = bitcast i8*  %20 to i64*, !dbg !5658
	%22 = load i64, i64*  %21, align 8, !tbaa !3659, !dbg !5658
	%23 = getelementptr i8, i8*  %17, i64 16, !dbg !5658
	%24 = bitcast i8*  %23 to i64*, !dbg !5658
	store i64  %22, i64*  %24, align 8, !tbaa !3659, !dbg !5658
	br label %L..inline.64551, !dbg !5657
L..inline.64541:
	br label %L..inline.64551
L..inline.64551:
	ret void, !dbg !5658
}
define linkonce_odr void @_ZNSt16allocator_traitsISaISt5arrayIdLm3EEEE7destroyIS1_EEvRS2_PT_(%struct._ZSaISt5arrayIdLm3EEE* %__a.arg, %struct._ZSt5arrayIdLm3EE* %__p.arg) #0 inlinehint !dbg !5662 {
L.entry:
	%__a.addr = alloca %struct._ZSaISt5arrayIdLm3EEE*, align 8
	%__p.addr = alloca %struct._ZSt5arrayIdLm3EE*, align 8

	call void @llvm.dbg.declare (metadata %struct._ZSaISt5arrayIdLm3EEE** %__a.addr, metadata !5670, metadata !3652), !dbg !5663
	store %struct._ZSaISt5arrayIdLm3EEE* %__a.arg, %struct._ZSaISt5arrayIdLm3EEE** %__a.addr, align 8, !tbaa !3660
	call void @llvm.dbg.declare (metadata %struct._ZSaISt5arrayIdLm3EEE** %__a.addr, metadata !5671, metadata !3652), !dbg !5663
	call void @llvm.dbg.declare (metadata %struct._ZSt5arrayIdLm3EE** %__p.addr, metadata !5672, metadata !3652), !dbg !5663
	store %struct._ZSt5arrayIdLm3EE* %__p.arg, %struct._ZSt5arrayIdLm3EE** %__p.addr, align 8, !tbaa !3660
	call void @llvm.dbg.declare (metadata %struct._ZSt5arrayIdLm3EE** %__p.addr, metadata !5673, metadata !3652), !dbg !5663
	ret void, !dbg !5674
}

%struct._ZSt12_Vector_baseISt5arrayIdLm3EESaIS1_EE = type <{ %struct._ZNSt12_Vector_baseISt5arrayIdLm3EESaIS1_EE12_Vector_implE}> 
%struct._ZNSt12_Vector_baseISt5arrayIdLm3EESaIS1_EE17_Vector_impl_dataE = type <{ %struct._ZSt5arrayIdLm3EE*, %struct._ZSt5arrayIdLm3EE*, %struct._ZSt5arrayIdLm3EE*}> 
%struct._ZNSt12_Vector_baseISt5arrayIdLm3EESaIS1_EE12_Vector_implE = type <{ %struct._ZNSt12_Vector_baseISt5arrayIdLm3EESaIS1_EE17_Vector_impl_dataE}> 

define linkonce_odr %struct._ZSaISt5arrayIdLm3EEE* @_ZNSt12_Vector_baseISt5arrayIdLm3EESaIS1_EE19_M_get_Tp_allocatorEv(%struct._ZSt12_Vector_baseISt5arrayIdLm3EESaIS1_EE* %_T33110608_48897.arg) #0 inlinehint !dbg !5680 {
L.entry:
	%_T33110608_48897.addr = alloca %struct._ZSt12_Vector_baseISt5arrayIdLm3EESaIS1_EE*, align 8

	call void @llvm.dbg.declare (metadata %struct._ZSt12_Vector_baseISt5arrayIdLm3EESaIS1_EE** %_T33110608_48897.addr, metadata !5684, metadata !3652), !dbg !5681
	store %struct._ZSt12_Vector_baseISt5arrayIdLm3EESaIS1_EE* %_T33110608_48897.arg, %struct._ZSt12_Vector_baseISt5arrayIdLm3EESaIS1_EE** %_T33110608_48897.addr, align 8, !tbaa !3660
	call void @llvm.dbg.declare (metadata %struct._ZSt12_Vector_baseISt5arrayIdLm3EESaIS1_EE** %_T33110608_48897.addr, metadata !5685, metadata !3652), !dbg !5681
	%0 = load %struct._ZSt12_Vector_baseISt5arrayIdLm3EESaIS1_EE*, %struct._ZSt12_Vector_baseISt5arrayIdLm3EESaIS1_EE** %_T33110608_48897.addr, align 8, !tbaa !3660, !dbg !5686
	%1 = bitcast %struct._ZSt12_Vector_baseISt5arrayIdLm3EESaIS1_EE*  %0 to %struct._ZSaISt5arrayIdLm3EEE*, !dbg !5686
	ret %struct._ZSaISt5arrayIdLm3EEE*  %1, !dbg !5686
}
define linkonce_odr %struct._ZSaISt5arrayIdLm3EEE* @_ZNKSt12_Vector_baseISt5arrayIdLm3EESaIS1_EE19_M_get_Tp_allocatorEv(%struct._ZSt12_Vector_baseISt5arrayIdLm3EESaIS1_EE* %_T33110608_48898.arg) #0 inlinehint !dbg !5688 {
L.entry:
	%_T33110608_48898.addr = alloca %struct._ZSt12_Vector_baseISt5arrayIdLm3EESaIS1_EE*, align 8

	call void @llvm.dbg.declare (metadata %struct._ZSt12_Vector_baseISt5arrayIdLm3EESaIS1_EE** %_T33110608_48898.addr, metadata !5692, metadata !3652), !dbg !5689
	store %struct._ZSt12_Vector_baseISt5arrayIdLm3EESaIS1_EE* %_T33110608_48898.arg, %struct._ZSt12_Vector_baseISt5arrayIdLm3EESaIS1_EE** %_T33110608_48898.addr, align 8, !tbaa !3660
	call void @llvm.dbg.declare (metadata %struct._ZSt12_Vector_baseISt5arrayIdLm3EESaIS1_EE** %_T33110608_48898.addr, metadata !5693, metadata !3652), !dbg !5689
	%0 = load %struct._ZSt12_Vector_baseISt5arrayIdLm3EESaIS1_EE*, %struct._ZSt12_Vector_baseISt5arrayIdLm3EESaIS1_EE** %_T33110608_48898.addr, align 8, !tbaa !3660, !dbg !5694
	%1 = bitcast %struct._ZSt12_Vector_baseISt5arrayIdLm3EESaIS1_EE*  %0 to %struct._ZSaISt5arrayIdLm3EEE*, !dbg !5694
	ret %struct._ZSaISt5arrayIdLm3EEE*  %1, !dbg !5694
}
define linkonce_odr void @_ZNSt12_Vector_baseISt5arrayIdLm3EESaIS1_EEC1Ev(%struct._ZSt12_Vector_baseISt5arrayIdLm3EESaIS1_EE* %_T33110608_48899.arg) #0 inlinehint !dbg !5698 {
L.entry:
	%_T33110608_48899.addr = alloca %struct._ZSt12_Vector_baseISt5arrayIdLm3EESaIS1_EE*, align 8
	%..inline.addr = alloca %struct._ZNSt12_Vector_baseISt5arrayIdLm3EESaIS1_EE17_Vector_impl_dataE*, align 8

	call void @llvm.dbg.declare (metadata %struct._ZSt12_Vector_baseISt5arrayIdLm3EESaIS1_EE** %_T33110608_48899.addr, metadata !5714, metadata !3652), !dbg !5699
	store %struct._ZSt12_Vector_baseISt5arrayIdLm3EESaIS1_EE* %_T33110608_48899.arg, %struct._ZSt12_Vector_baseISt5arrayIdLm3EESaIS1_EE** %_T33110608_48899.addr, align 8, !tbaa !3660
	call void @llvm.dbg.declare (metadata %struct._ZSt12_Vector_baseISt5arrayIdLm3EESaIS1_EE** %_T33110608_48899.addr, metadata !5715, metadata !3652), !dbg !5699
	%0 = load %struct._ZSt12_Vector_baseISt5arrayIdLm3EESaIS1_EE*, %struct._ZSt12_Vector_baseISt5arrayIdLm3EESaIS1_EE** %_T33110608_48899.addr, align 8, !tbaa !3660, !dbg !5716
	%1 = bitcast %struct._ZSt12_Vector_baseISt5arrayIdLm3EESaIS1_EE*  %0 to i8*, !dbg !5716
	%2 = bitcast %struct._ZNSt12_Vector_baseISt5arrayIdLm3EESaIS1_EE17_Vector_impl_dataE** %..inline.addr to i8**, !dbg !5716
	store i8*  %1, i8**  %2, align 8, !tbaa !3660, !dbg !5716
	%3 = load %struct._ZNSt12_Vector_baseISt5arrayIdLm3EESaIS1_EE17_Vector_impl_dataE*, %struct._ZNSt12_Vector_baseISt5arrayIdLm3EESaIS1_EE17_Vector_impl_dataE** %..inline.addr, align 8, !tbaa !3660, !dbg !5716
	%4 = bitcast %struct._ZNSt12_Vector_baseISt5arrayIdLm3EESaIS1_EE17_Vector_impl_dataE*  %3 to i8**, !dbg !5716
	store i8* null, i8**  %4, align 8, !tbaa !3660, !dbg !5716
	%5 = bitcast %struct._ZNSt12_Vector_baseISt5arrayIdLm3EESaIS1_EE17_Vector_impl_dataE*  %3 to i8*, !dbg !5716
	%6 = getelementptr i8, i8*  %5, i64 8, !dbg !5716
	%7 = bitcast i8*  %6 to i8**, !dbg !5716
	store i8* null, i8**  %7, align 8, !tbaa !3660, !dbg !5716
	%8 = getelementptr i8, i8*  %5, i64 16, !dbg !5716
	%9 = bitcast i8*  %8 to i8**, !dbg !5716
	store i8* null, i8**  %9, align 8, !tbaa !3660, !dbg !5716
	ret void, !dbg !5716
}
define linkonce_odr void @_ZNSt12_Vector_baseISt5arrayIdLm3EESaIS1_EEC2Ev(%struct._ZSt12_Vector_baseISt5arrayIdLm3EESaIS1_EE* %_T33110608_48900.arg) #0 inlinehint !dbg !5718 {
L.entry:
	%_T33110608_48900.addr = alloca %struct._ZSt12_Vector_baseISt5arrayIdLm3EESaIS1_EE*, align 8
	%..inline.addr = alloca %struct._ZNSt12_Vector_baseISt5arrayIdLm3EESaIS1_EE17_Vector_impl_dataE*, align 8

	store %struct._ZSt12_Vector_baseISt5arrayIdLm3EESaIS1_EE* %_T33110608_48900.arg, %struct._ZSt12_Vector_baseISt5arrayIdLm3EESaIS1_EE** %_T33110608_48900.addr, align 8, !tbaa !3660
	%0 = load %struct._ZSt12_Vector_baseISt5arrayIdLm3EESaIS1_EE*, %struct._ZSt12_Vector_baseISt5arrayIdLm3EESaIS1_EE** %_T33110608_48900.addr, align 8, !tbaa !3660, !dbg !5738
	%1 = bitcast %struct._ZSt12_Vector_baseISt5arrayIdLm3EESaIS1_EE*  %0 to i8*, !dbg !5738
	%2 = bitcast %struct._ZNSt12_Vector_baseISt5arrayIdLm3EESaIS1_EE17_Vector_impl_dataE** %..inline.addr to i8**, !dbg !5738
	store i8*  %1, i8**  %2, align 8, !tbaa !3660, !dbg !5738
	%3 = load %struct._ZNSt12_Vector_baseISt5arrayIdLm3EESaIS1_EE17_Vector_impl_dataE*, %struct._ZNSt12_Vector_baseISt5arrayIdLm3EESaIS1_EE17_Vector_impl_dataE** %..inline.addr, align 8, !tbaa !3660, !dbg !5738
	%4 = bitcast %struct._ZNSt12_Vector_baseISt5arrayIdLm3EESaIS1_EE17_Vector_impl_dataE*  %3 to i8**, !dbg !5738
	store i8* null, i8**  %4, align 8, !tbaa !3660, !dbg !5738
	%5 = bitcast %struct._ZNSt12_Vector_baseISt5arrayIdLm3EESaIS1_EE17_Vector_impl_dataE*  %3 to i8*, !dbg !5738
	%6 = getelementptr i8, i8*  %5, i64 8, !dbg !5738
	%7 = bitcast i8*  %6 to i8**, !dbg !5738
	store i8* null, i8**  %7, align 8, !tbaa !3660, !dbg !5738
	%8 = getelementptr i8, i8*  %5, i64 16, !dbg !5738
	%9 = bitcast i8*  %8 to i8**, !dbg !5738
	store i8* null, i8**  %9, align 8, !tbaa !3660, !dbg !5738
	ret void, !dbg !5738
}
define linkonce_odr void @_ZNSt12_Vector_baseISt5arrayIdLm3EESaIS1_EED1Ev(%struct._ZSt12_Vector_baseISt5arrayIdLm3EESaIS1_EE* %_T33110608_48901.arg) #0 inlinehint !dbg !5740 {
L.entry:
	%_T33110608_48901.addr = alloca %struct._ZSt12_Vector_baseISt5arrayIdLm3EESaIS1_EE*, align 8
	%..inline.addr = alloca %struct._ZSt5arrayIdLm3EE*, align 8

	call void @llvm.dbg.declare (metadata %struct._ZSt12_Vector_baseISt5arrayIdLm3EESaIS1_EE** %_T33110608_48901.addr, metadata !5768, metadata !3652), !dbg !5741
	store %struct._ZSt12_Vector_baseISt5arrayIdLm3EESaIS1_EE* %_T33110608_48901.arg, %struct._ZSt12_Vector_baseISt5arrayIdLm3EESaIS1_EE** %_T33110608_48901.addr, align 8, !tbaa !3660
	call void @llvm.dbg.declare (metadata %struct._ZSt12_Vector_baseISt5arrayIdLm3EESaIS1_EE** %_T33110608_48901.addr, metadata !5769, metadata !3652), !dbg !5741
	%0 = load %struct._ZSt12_Vector_baseISt5arrayIdLm3EESaIS1_EE*, %struct._ZSt12_Vector_baseISt5arrayIdLm3EESaIS1_EE** %_T33110608_48901.addr, align 8, !tbaa !3660, !dbg !5770
	%1 = bitcast %struct._ZSt12_Vector_baseISt5arrayIdLm3EESaIS1_EE*  %0 to i8**, !dbg !5770
	%2 = load i8*, i8**  %1, align 8, !tbaa !3660, !dbg !5770
	%3 = icmp eq i8*  %2,  null, !dbg !5770
	br i1  %3, label %L..inline.64647, label %L.B1203, !dbg !5770
L.B1203:
	%4 = bitcast %struct._ZSt12_Vector_baseISt5arrayIdLm3EESaIS1_EE*  %0 to i8**, !dbg !5771
	%5 = load i8*, i8**  %4, align 8, !tbaa !3660, !dbg !5771
	%6 = bitcast %struct._ZSt5arrayIdLm3EE** %..inline.addr to i8**, !dbg !5771
	store i8*  %5, i8**  %6, align 8, !tbaa !3660, !dbg !5771
	%7 = load %struct._ZSt5arrayIdLm3EE*, %struct._ZSt5arrayIdLm3EE** %..inline.addr, align 8, !tbaa !3660, !dbg !5771
	%8 = bitcast %struct._ZSt5arrayIdLm3EE*  %7 to i8*, !dbg !5771
	call void  @_ZdlPv (i8*  %8) nounwind, !dbg !5771
	br label %L..inline.64647
L..inline.64647:
	ret void, !dbg !5772
}
define linkonce_odr void @_ZNSt12_Vector_baseISt5arrayIdLm3EESaIS1_EED2Ev(%struct._ZSt12_Vector_baseISt5arrayIdLm3EESaIS1_EE* %_T33110608_48902.arg) #0 inlinehint !dbg !5774 {
L.entry:
	%_T33110608_48902.addr = alloca %struct._ZSt12_Vector_baseISt5arrayIdLm3EESaIS1_EE*, align 8
	%..inline.addr = alloca %struct._ZSt12_Vector_baseISt5arrayIdLm3EESaIS1_EE*, align 8
	%..inline.addr.1 = alloca %struct._ZSt5arrayIdLm3EE*, align 8

	store %struct._ZSt12_Vector_baseISt5arrayIdLm3EESaIS1_EE* %_T33110608_48902.arg, %struct._ZSt12_Vector_baseISt5arrayIdLm3EESaIS1_EE** %_T33110608_48902.addr, align 8, !tbaa !3660
	%0 = load %struct._ZSt12_Vector_baseISt5arrayIdLm3EESaIS1_EE*, %struct._ZSt12_Vector_baseISt5arrayIdLm3EESaIS1_EE** %_T33110608_48902.addr, align 8, !tbaa !3660, !dbg !5806
	%1 = bitcast %struct._ZSt12_Vector_baseISt5arrayIdLm3EESaIS1_EE*  %0 to i8*, !dbg !5806
	%2 = bitcast %struct._ZSt12_Vector_baseISt5arrayIdLm3EESaIS1_EE** %..inline.addr to i8**, !dbg !5806
	store i8*  %1, i8**  %2, align 8, !tbaa !3660, !dbg !5806
	%3 = load %struct._ZSt12_Vector_baseISt5arrayIdLm3EESaIS1_EE*, %struct._ZSt12_Vector_baseISt5arrayIdLm3EESaIS1_EE** %..inline.addr, align 8, !tbaa !3660, !dbg !5806
	%4 = bitcast %struct._ZSt12_Vector_baseISt5arrayIdLm3EESaIS1_EE*  %3 to i8**, !dbg !5806
	%5 = load i8*, i8**  %4, align 8, !tbaa !3660, !dbg !5806
	%6 = icmp eq i8*  %5,  null, !dbg !5806
	br i1  %6, label %L..inline.64706, label %L.B1206, !dbg !5806
L.B1206:
	%7 = bitcast %struct._ZSt12_Vector_baseISt5arrayIdLm3EESaIS1_EE*  %3 to i8**, !dbg !5806
	%8 = load i8*, i8**  %7, align 8, !tbaa !3660, !dbg !5806
	%9 = bitcast %struct._ZSt5arrayIdLm3EE** %..inline.addr.1 to i8**, !dbg !5806
	store i8*  %8, i8**  %9, align 8, !tbaa !3660, !dbg !5806
	%10 = load %struct._ZSt5arrayIdLm3EE*, %struct._ZSt5arrayIdLm3EE** %..inline.addr.1, align 8, !tbaa !3660, !dbg !5806
	%11 = bitcast %struct._ZSt5arrayIdLm3EE*  %10 to i8*, !dbg !5806
	call void  @_ZdlPv (i8*  %11) nounwind, !dbg !5806
	br label %L..inline.64706
L..inline.64706:
	ret void, !dbg !5807
}
define linkonce_odr %struct._ZSt5arrayIdLm3EE* @_ZNSt12_Vector_baseISt5arrayIdLm3EESaIS1_EE11_M_allocateEm(%struct._ZSt12_Vector_baseISt5arrayIdLm3EESaIS1_EE* %_T33110608_48905.arg, i64 %__n.arg) #0 inlinehint !dbg !5811 {
L.entry:
	%_T33110608_48905.addr = alloca %struct._ZSt12_Vector_baseISt5arrayIdLm3EESaIS1_EE*, align 8
	%__n.addr = alloca i64, align 8
	%..inline.addr = alloca i64, align 8
	%.Q0011.addr = alloca i8*, align 8
	%.I0003.addr = alloca %struct._ZSt5arrayIdLm3EE*, align 8

	call void @llvm.dbg.declare (metadata %struct._ZSt12_Vector_baseISt5arrayIdLm3EESaIS1_EE** %_T33110608_48905.addr, metadata !5827, metadata !3652), !dbg !5812
	store %struct._ZSt12_Vector_baseISt5arrayIdLm3EESaIS1_EE* %_T33110608_48905.arg, %struct._ZSt12_Vector_baseISt5arrayIdLm3EESaIS1_EE** %_T33110608_48905.addr, align 8, !tbaa !3660
	call void @llvm.dbg.declare (metadata %struct._ZSt12_Vector_baseISt5arrayIdLm3EESaIS1_EE** %_T33110608_48905.addr, metadata !5828, metadata !3652), !dbg !5812
	call void @llvm.dbg.declare (metadata i64* %__n.addr, metadata !5829, metadata !3652), !dbg !5812
	store i64 %__n.arg, i64* %__n.addr, align 8, !tbaa !3659
	call void @llvm.dbg.declare (metadata i64* %__n.addr, metadata !5830, metadata !3652), !dbg !5812
	%0 = load i64, i64* %__n.addr, align 8, !tbaa !4087, !dbg !5831
	%1 = icmp eq i64  %0, 0, !dbg !5831
	br i1  %1, label %L.B0009, label %L.B1209, !dbg !5831
L.B1209:
	store i64  %0, i64* %..inline.addr, align 8, !tbaa !4087, !dbg !5832
	%2 = icmp ule i64  %0, 768614336404564650, !dbg !5832
	br i1  %2, label %L..inline.64772, label %L.B1210, !dbg !5832
L.B1210:
	call void  @_ZSt17__throw_bad_allocv () noreturn, !dbg !5832
	br label %L..inline.64772
L..inline.64772:
	%3 = load i64, i64* %..inline.addr, align 8, !tbaa !4087, !dbg !5832
	%4 = mul i64  %3, 24, !dbg !5832
	%5 = call i8*  @_Znwm (i64  %4), !dbg !5832
	store i8*  %5, i8** %.Q0011.addr, align 8, !tbaa !3660, !dbg !5832
	%6 = bitcast %struct._ZSt5arrayIdLm3EE** %.I0003.addr to i8**, !dbg !5832
	store i8*  %5, i8**  %6, align 8, !tbaa !3660, !dbg !5832
	br label %L.B0010, !dbg !5831
L.B0009:
	%7 = bitcast %struct._ZSt5arrayIdLm3EE** %.I0003.addr to i8**, !dbg !5831
	store i8* null, i8**  %7, align 8, !tbaa !3660, !dbg !5831
	br label %L.B0010
L.B0010:
	%8 = load %struct._ZSt5arrayIdLm3EE*, %struct._ZSt5arrayIdLm3EE** %.I0003.addr, align 8, !tbaa !3660, !dbg !5831
	ret %struct._ZSt5arrayIdLm3EE*  %8, !dbg !5831
}
define linkonce_odr void @_ZNSt12_Vector_baseISt5arrayIdLm3EESaIS1_EE13_M_deallocateEPS1_m(%struct._ZSt12_Vector_baseISt5arrayIdLm3EESaIS1_EE* %_T33110608_48908.arg, %struct._ZSt5arrayIdLm3EE* %__p.arg, i64 %__n.arg) #0 inlinehint !dbg !5837 {
L.entry:
	%_T33110608_48908.addr = alloca %struct._ZSt12_Vector_baseISt5arrayIdLm3EESaIS1_EE*, align 8
	%__p.addr = alloca %struct._ZSt5arrayIdLm3EE*, align 8
	%__n.addr = alloca i64, align 8
	%..inline.addr = alloca %struct._ZSt5arrayIdLm3EE*, align 8

	call void @llvm.dbg.declare (metadata %struct._ZSt12_Vector_baseISt5arrayIdLm3EESaIS1_EE** %_T33110608_48908.addr, metadata !5849, metadata !3652), !dbg !5838
	store %struct._ZSt12_Vector_baseISt5arrayIdLm3EESaIS1_EE* %_T33110608_48908.arg, %struct._ZSt12_Vector_baseISt5arrayIdLm3EESaIS1_EE** %_T33110608_48908.addr, align 8, !tbaa !3660
	call void @llvm.dbg.declare (metadata %struct._ZSt12_Vector_baseISt5arrayIdLm3EESaIS1_EE** %_T33110608_48908.addr, metadata !5850, metadata !3652), !dbg !5838
	call void @llvm.dbg.declare (metadata %struct._ZSt5arrayIdLm3EE** %__p.addr, metadata !5851, metadata !3652), !dbg !5838
	store %struct._ZSt5arrayIdLm3EE* %__p.arg, %struct._ZSt5arrayIdLm3EE** %__p.addr, align 8, !tbaa !3660
	call void @llvm.dbg.declare (metadata %struct._ZSt5arrayIdLm3EE** %__p.addr, metadata !5852, metadata !3652), !dbg !5838
	call void @llvm.dbg.declare (metadata i64* %__n.addr, metadata !5853, metadata !3652), !dbg !5838
	store i64 %__n.arg, i64* %__n.addr, align 8, !tbaa !3659
	call void @llvm.dbg.declare (metadata i64* %__n.addr, metadata !5854, metadata !3652), !dbg !5838
	%0 = load %struct._ZSt5arrayIdLm3EE*, %struct._ZSt5arrayIdLm3EE** %__p.addr, align 8, !tbaa !3660, !dbg !5855
	%1 = bitcast %struct._ZSt5arrayIdLm3EE*  %0 to i8*, !dbg !5855
	%2 = icmp eq i8*  %1,  null, !dbg !5855
	br i1  %2, label %L.B0011, label %L.B1213, !dbg !5855
L.B1213:
	%3 = bitcast %struct._ZSt5arrayIdLm3EE*  %0 to i8*, !dbg !5856
	%4 = bitcast %struct._ZSt5arrayIdLm3EE** %..inline.addr to i8**, !dbg !5856
	store i8*  %3, i8**  %4, align 8, !tbaa !3660, !dbg !5856
	%5 = load %struct._ZSt5arrayIdLm3EE*, %struct._ZSt5arrayIdLm3EE** %..inline.addr, align 8, !tbaa !3660, !dbg !5856
	%6 = bitcast %struct._ZSt5arrayIdLm3EE*  %5 to i8*, !dbg !5856
	call void  @_ZdlPv (i8*  %6) nounwind, !dbg !5856
	br label %L.B0011
L.B0011:
	ret void, !dbg !5857
}
define linkonce_odr void @_ZNSt12_Vector_baseISt5arrayIdLm3EESaIS1_EE17_Vector_impl_dataC1Ev(%struct._ZNSt12_Vector_baseISt5arrayIdLm3EESaIS1_EE17_Vector_impl_dataE* %_T33110608_48909.arg) #0 inlinehint !dbg !5862 {
L.entry:
	%_T33110608_48909.addr = alloca %struct._ZNSt12_Vector_baseISt5arrayIdLm3EESaIS1_EE17_Vector_impl_dataE*, align 8

	call void @llvm.dbg.declare (metadata %struct._ZNSt12_Vector_baseISt5arrayIdLm3EESaIS1_EE17_Vector_impl_dataE** %_T33110608_48909.addr, metadata !5866, metadata !3652), !dbg !5863
	store %struct._ZNSt12_Vector_baseISt5arrayIdLm3EESaIS1_EE17_Vector_impl_dataE* %_T33110608_48909.arg, %struct._ZNSt12_Vector_baseISt5arrayIdLm3EESaIS1_EE17_Vector_impl_dataE** %_T33110608_48909.addr, align 8, !tbaa !3660
	call void @llvm.dbg.declare (metadata %struct._ZNSt12_Vector_baseISt5arrayIdLm3EESaIS1_EE17_Vector_impl_dataE** %_T33110608_48909.addr, metadata !5867, metadata !3652), !dbg !5863
	%0 = load %struct._ZNSt12_Vector_baseISt5arrayIdLm3EESaIS1_EE17_Vector_impl_dataE*, %struct._ZNSt12_Vector_baseISt5arrayIdLm3EESaIS1_EE17_Vector_impl_dataE** %_T33110608_48909.addr, align 8, !tbaa !3660, !dbg !5868
	%1 = bitcast %struct._ZNSt12_Vector_baseISt5arrayIdLm3EESaIS1_EE17_Vector_impl_dataE*  %0 to i8**, !dbg !5868
	store i8* null, i8**  %1, align 8, !tbaa !3660, !dbg !5868
	%2 = bitcast %struct._ZNSt12_Vector_baseISt5arrayIdLm3EESaIS1_EE17_Vector_impl_dataE*  %0 to i8*, !dbg !5868
	%3 = getelementptr i8, i8*  %2, i64 8, !dbg !5868
	%4 = bitcast i8*  %3 to i8**, !dbg !5868
	store i8* null, i8**  %4, align 8, !tbaa !3660, !dbg !5868
	%5 = getelementptr i8, i8*  %2, i64 16, !dbg !5868
	%6 = bitcast i8*  %5 to i8**, !dbg !5868
	store i8* null, i8**  %6, align 8, !tbaa !3660, !dbg !5868
	ret void, !dbg !5868
}
define linkonce_odr void @_ZNSt12_Vector_baseISt5arrayIdLm3EESaIS1_EE17_Vector_impl_dataC2Ev(%struct._ZNSt12_Vector_baseISt5arrayIdLm3EESaIS1_EE17_Vector_impl_dataE* %_T33110608_48910.arg) #0 inlinehint !dbg !5870 {
L.entry:
	%_T33110608_48910.addr = alloca %struct._ZNSt12_Vector_baseISt5arrayIdLm3EESaIS1_EE17_Vector_impl_dataE*, align 8
	%..inline.addr = alloca %struct._ZNSt12_Vector_baseISt5arrayIdLm3EESaIS1_EE17_Vector_impl_dataE*, align 8

	store %struct._ZNSt12_Vector_baseISt5arrayIdLm3EESaIS1_EE17_Vector_impl_dataE* %_T33110608_48910.arg, %struct._ZNSt12_Vector_baseISt5arrayIdLm3EESaIS1_EE17_Vector_impl_dataE** %_T33110608_48910.addr, align 8, !tbaa !3660
	%0 = load %struct._ZNSt12_Vector_baseISt5arrayIdLm3EESaIS1_EE17_Vector_impl_dataE*, %struct._ZNSt12_Vector_baseISt5arrayIdLm3EESaIS1_EE17_Vector_impl_dataE** %_T33110608_48910.addr, align 8, !tbaa !3660, !dbg !5878
	%1 = bitcast %struct._ZNSt12_Vector_baseISt5arrayIdLm3EESaIS1_EE17_Vector_impl_dataE*  %0 to i8*, !dbg !5878
	%2 = bitcast %struct._ZNSt12_Vector_baseISt5arrayIdLm3EESaIS1_EE17_Vector_impl_dataE** %..inline.addr to i8**, !dbg !5878
	store i8*  %1, i8**  %2, align 8, !tbaa !3660, !dbg !5878
	%3 = load %struct._ZNSt12_Vector_baseISt5arrayIdLm3EESaIS1_EE17_Vector_impl_dataE*, %struct._ZNSt12_Vector_baseISt5arrayIdLm3EESaIS1_EE17_Vector_impl_dataE** %..inline.addr, align 8, !tbaa !3660, !dbg !5878
	%4 = bitcast %struct._ZNSt12_Vector_baseISt5arrayIdLm3EESaIS1_EE17_Vector_impl_dataE*  %3 to i8**, !dbg !5878
	store i8* null, i8**  %4, align 8, !tbaa !3660, !dbg !5878
	%5 = bitcast %struct._ZNSt12_Vector_baseISt5arrayIdLm3EESaIS1_EE17_Vector_impl_dataE*  %3 to i8*, !dbg !5878
	%6 = getelementptr i8, i8*  %5, i64 8, !dbg !5878
	%7 = bitcast i8*  %6 to i8**, !dbg !5878
	store i8* null, i8**  %7, align 8, !tbaa !3660, !dbg !5878
	%8 = getelementptr i8, i8*  %5, i64 16, !dbg !5878
	%9 = bitcast i8*  %8 to i8**, !dbg !5878
	store i8* null, i8**  %9, align 8, !tbaa !3660, !dbg !5878
	ret void, !dbg !5878
}
define linkonce_odr void @_ZNSt12_Vector_baseISt5arrayIdLm3EESaIS1_EE12_Vector_implC1Ev(%struct._ZNSt12_Vector_baseISt5arrayIdLm3EESaIS1_EE12_Vector_implE* %_T33110608_48911.arg) #0 inlinehint !dbg !5883 {
L.entry:
	%_T33110608_48911.addr = alloca %struct._ZNSt12_Vector_baseISt5arrayIdLm3EESaIS1_EE12_Vector_implE*, align 8
	%..inline.addr = alloca %struct._ZNSt12_Vector_baseISt5arrayIdLm3EESaIS1_EE17_Vector_impl_dataE*, align 8

	call void @llvm.dbg.declare (metadata %struct._ZNSt12_Vector_baseISt5arrayIdLm3EESaIS1_EE12_Vector_implE** %_T33110608_48911.addr, metadata !5895, metadata !3652), !dbg !5884
	store %struct._ZNSt12_Vector_baseISt5arrayIdLm3EESaIS1_EE12_Vector_implE* %_T33110608_48911.arg, %struct._ZNSt12_Vector_baseISt5arrayIdLm3EESaIS1_EE12_Vector_implE** %_T33110608_48911.addr, align 8, !tbaa !3660
	call void @llvm.dbg.declare (metadata %struct._ZNSt12_Vector_baseISt5arrayIdLm3EESaIS1_EE12_Vector_implE** %_T33110608_48911.addr, metadata !5896, metadata !3652), !dbg !5884
	%0 = load %struct._ZNSt12_Vector_baseISt5arrayIdLm3EESaIS1_EE12_Vector_implE*, %struct._ZNSt12_Vector_baseISt5arrayIdLm3EESaIS1_EE12_Vector_implE** %_T33110608_48911.addr, align 8, !tbaa !3660, !dbg !5897
	%1 = bitcast %struct._ZNSt12_Vector_baseISt5arrayIdLm3EESaIS1_EE12_Vector_implE*  %0 to i8*, !dbg !5897
	%2 = bitcast %struct._ZNSt12_Vector_baseISt5arrayIdLm3EESaIS1_EE17_Vector_impl_dataE** %..inline.addr to i8**, !dbg !5897
	store i8*  %1, i8**  %2, align 8, !tbaa !3660, !dbg !5897
	%3 = load %struct._ZNSt12_Vector_baseISt5arrayIdLm3EESaIS1_EE17_Vector_impl_dataE*, %struct._ZNSt12_Vector_baseISt5arrayIdLm3EESaIS1_EE17_Vector_impl_dataE** %..inline.addr, align 8, !tbaa !3660, !dbg !5897
	%4 = bitcast %struct._ZNSt12_Vector_baseISt5arrayIdLm3EESaIS1_EE17_Vector_impl_dataE*  %3 to i8**, !dbg !5897
	store i8* null, i8**  %4, align 8, !tbaa !3660, !dbg !5897
	%5 = bitcast %struct._ZNSt12_Vector_baseISt5arrayIdLm3EESaIS1_EE17_Vector_impl_dataE*  %3 to i8*, !dbg !5898
	%6 = getelementptr i8, i8*  %5, i64 8, !dbg !5898
	%7 = bitcast i8*  %6 to i8**, !dbg !5898
	store i8* null, i8**  %7, align 8, !tbaa !3660, !dbg !5898
	%8 = getelementptr i8, i8*  %5, i64 16, !dbg !5898
	%9 = bitcast i8*  %8 to i8**, !dbg !5898
	store i8* null, i8**  %9, align 8, !tbaa !3660, !dbg !5898
	ret void, !dbg !5897
}
define linkonce_odr void @_ZNSt12_Vector_baseISt5arrayIdLm3EESaIS1_EE12_Vector_implC2Ev(%struct._ZNSt12_Vector_baseISt5arrayIdLm3EESaIS1_EE12_Vector_implE* %_T33110608_48912.arg) #0 inlinehint !dbg !5900 {
L.entry:
	%_T33110608_48912.addr = alloca %struct._ZNSt12_Vector_baseISt5arrayIdLm3EESaIS1_EE12_Vector_implE*, align 8
	%..inline.addr = alloca %struct._ZNSt12_Vector_baseISt5arrayIdLm3EESaIS1_EE17_Vector_impl_dataE*, align 8

	store %struct._ZNSt12_Vector_baseISt5arrayIdLm3EESaIS1_EE12_Vector_implE* %_T33110608_48912.arg, %struct._ZNSt12_Vector_baseISt5arrayIdLm3EESaIS1_EE12_Vector_implE** %_T33110608_48912.addr, align 8, !tbaa !3660
	%0 = load %struct._ZNSt12_Vector_baseISt5arrayIdLm3EESaIS1_EE12_Vector_implE*, %struct._ZNSt12_Vector_baseISt5arrayIdLm3EESaIS1_EE12_Vector_implE** %_T33110608_48912.addr, align 8, !tbaa !3660, !dbg !5916
	%1 = bitcast %struct._ZNSt12_Vector_baseISt5arrayIdLm3EESaIS1_EE12_Vector_implE*  %0 to i8*, !dbg !5916
	%2 = bitcast %struct._ZNSt12_Vector_baseISt5arrayIdLm3EESaIS1_EE17_Vector_impl_dataE** %..inline.addr to i8**, !dbg !5916
	store i8*  %1, i8**  %2, align 8, !tbaa !3660, !dbg !5916
	%3 = load %struct._ZNSt12_Vector_baseISt5arrayIdLm3EESaIS1_EE17_Vector_impl_dataE*, %struct._ZNSt12_Vector_baseISt5arrayIdLm3EESaIS1_EE17_Vector_impl_dataE** %..inline.addr, align 8, !tbaa !3660, !dbg !5916
	%4 = bitcast %struct._ZNSt12_Vector_baseISt5arrayIdLm3EESaIS1_EE17_Vector_impl_dataE*  %3 to i8**, !dbg !5916
	store i8* null, i8**  %4, align 8, !tbaa !3660, !dbg !5916
	%5 = bitcast %struct._ZNSt12_Vector_baseISt5arrayIdLm3EESaIS1_EE17_Vector_impl_dataE*  %3 to i8*, !dbg !5916
	%6 = getelementptr i8, i8*  %5, i64 8, !dbg !5916
	%7 = bitcast i8*  %6 to i8**, !dbg !5916
	store i8* null, i8**  %7, align 8, !tbaa !3660, !dbg !5916
	%8 = getelementptr i8, i8*  %5, i64 16, !dbg !5916
	%9 = bitcast i8*  %8 to i8**, !dbg !5916
	store i8* null, i8**  %9, align 8, !tbaa !3660, !dbg !5916
	ret void, !dbg !5916
}
define linkonce_odr void @_ZNSt12_Vector_baseISt5arrayIdLm3EESaIS1_EE12_Vector_implD1Ev(%struct._ZNSt12_Vector_baseISt5arrayIdLm3EESaIS1_EE12_Vector_implE* %_T33110608_48913.arg) #0 inlinehint !dbg !5918 {
L.entry:
	%_T33110608_48913.addr = alloca %struct._ZNSt12_Vector_baseISt5arrayIdLm3EESaIS1_EE12_Vector_implE*, align 8

	call void @llvm.dbg.declare (metadata %struct._ZNSt12_Vector_baseISt5arrayIdLm3EESaIS1_EE12_Vector_implE** %_T33110608_48913.addr, metadata !5930, metadata !3652), !dbg !5919
	store %struct._ZNSt12_Vector_baseISt5arrayIdLm3EESaIS1_EE12_Vector_implE* %_T33110608_48913.arg, %struct._ZNSt12_Vector_baseISt5arrayIdLm3EESaIS1_EE12_Vector_implE** %_T33110608_48913.addr, align 8, !tbaa !3660
	call void @llvm.dbg.declare (metadata %struct._ZNSt12_Vector_baseISt5arrayIdLm3EESaIS1_EE12_Vector_implE** %_T33110608_48913.addr, metadata !5931, metadata !3652), !dbg !5919
	ret void, !dbg !5932
}
define linkonce_odr void @_ZNSt12_Vector_baseISt5arrayIdLm3EESaIS1_EE12_Vector_implD2Ev(%struct._ZNSt12_Vector_baseISt5arrayIdLm3EESaIS1_EE12_Vector_implE* %_T33110608_48914.arg) #0 inlinehint !dbg !5934 {
L.entry:
	%_T33110608_48914.addr = alloca %struct._ZNSt12_Vector_baseISt5arrayIdLm3EESaIS1_EE12_Vector_implE*, align 8

	store %struct._ZNSt12_Vector_baseISt5arrayIdLm3EESaIS1_EE12_Vector_implE* %_T33110608_48914.arg, %struct._ZNSt12_Vector_baseISt5arrayIdLm3EESaIS1_EE12_Vector_implE** %_T33110608_48914.addr, align 8, !tbaa !3660
	ret void, !dbg !5950
}

%struct._ZSt17integral_constantIbLb1EE = type <{ [1 x i8]}> 

define linkonce_odr %struct._ZSt5arrayIdLm3EE* @_ZNSt6vectorISt5arrayIdLm3EESaIS1_EE14_S_do_relocateEPS1_S4_S4_RS2_St17integral_constantIbLb1EE(%struct._ZSt5arrayIdLm3EE* %__first.arg, %struct._ZSt5arrayIdLm3EE* %__last.arg, %struct._ZSt5arrayIdLm3EE* %__result.arg, %struct._ZSaISt5arrayIdLm3EEE* %__alloc.arg, i8 %_T33111792_48921.coerce) #0 inlinehint !dbg !5958 {
L.entry:
	%__first.addr = alloca %struct._ZSt5arrayIdLm3EE*, align 8
	%__last.addr = alloca %struct._ZSt5arrayIdLm3EE*, align 8
	%__result.addr = alloca %struct._ZSt5arrayIdLm3EE*, align 8
	%__alloc.addr = alloca %struct._ZSaISt5arrayIdLm3EEE*, align 8
	%_T33111792_48921.addr = alloca %struct._ZSt17integral_constantIbLb1EE, align 1
	%..inline.addr = alloca %struct._ZSt5arrayIdLm3EE*, align 8
	%..inline.addr.1 = alloca %struct._ZSt5arrayIdLm3EE*, align 8
	%..inline.addr.2 = alloca i64, align 8

	call void @llvm.dbg.declare (metadata %struct._ZSt5arrayIdLm3EE** %__first.addr, metadata !5982, metadata !3652), !dbg !5959
	store %struct._ZSt5arrayIdLm3EE* %__first.arg, %struct._ZSt5arrayIdLm3EE** %__first.addr, align 8, !tbaa !3660
	call void @llvm.dbg.declare (metadata %struct._ZSt5arrayIdLm3EE** %__first.addr, metadata !5983, metadata !3652), !dbg !5959
	call void @llvm.dbg.declare (metadata %struct._ZSt5arrayIdLm3EE** %__last.addr, metadata !5984, metadata !3652), !dbg !5959
	store %struct._ZSt5arrayIdLm3EE* %__last.arg, %struct._ZSt5arrayIdLm3EE** %__last.addr, align 8, !tbaa !3660
	call void @llvm.dbg.declare (metadata %struct._ZSt5arrayIdLm3EE** %__last.addr, metadata !5985, metadata !3652), !dbg !5959
	call void @llvm.dbg.declare (metadata %struct._ZSt5arrayIdLm3EE** %__result.addr, metadata !5986, metadata !3652), !dbg !5959
	store %struct._ZSt5arrayIdLm3EE* %__result.arg, %struct._ZSt5arrayIdLm3EE** %__result.addr, align 8, !tbaa !3660
	call void @llvm.dbg.declare (metadata %struct._ZSt5arrayIdLm3EE** %__result.addr, metadata !5987, metadata !3652), !dbg !5959
	call void @llvm.dbg.declare (metadata %struct._ZSaISt5arrayIdLm3EEE** %__alloc.addr, metadata !5988, metadata !3652), !dbg !5959
	store %struct._ZSaISt5arrayIdLm3EEE* %__alloc.arg, %struct._ZSaISt5arrayIdLm3EEE** %__alloc.addr, align 8, !tbaa !3660
	call void @llvm.dbg.declare (metadata %struct._ZSaISt5arrayIdLm3EEE** %__alloc.addr, metadata !5989, metadata !3652), !dbg !5959
	call void @llvm.dbg.declare (metadata %struct._ZSt17integral_constantIbLb1EE* %_T33111792_48921.addr, metadata !5990, metadata !3652), !dbg !5959
	%0 = bitcast %struct._ZSt17integral_constantIbLb1EE* %_T33111792_48921.addr to i8*
	store i8 %_T33111792_48921.coerce, i8*  %0, align 1, !tbaa !3659
	call void @llvm.dbg.declare (metadata %struct._ZSt17integral_constantIbLb1EE* %_T33111792_48921.addr, metadata !5991, metadata !3652), !dbg !5959
	%1 = load %struct._ZSt5arrayIdLm3EE*, %struct._ZSt5arrayIdLm3EE** %__first.addr, align 8, !tbaa !3660, !dbg !5992
	%2 = bitcast %struct._ZSt5arrayIdLm3EE*  %1 to i8*, !dbg !5992
	%3 = bitcast %struct._ZSt5arrayIdLm3EE** %..inline.addr to i8**, !dbg !5992
	store i8*  %2, i8**  %3, align 8, !tbaa !3660, !dbg !5992
	%4 = load %struct._ZSt5arrayIdLm3EE*, %struct._ZSt5arrayIdLm3EE** %__result.addr, align 8, !tbaa !3660, !dbg !5992
	%5 = bitcast %struct._ZSt5arrayIdLm3EE*  %4 to i8*, !dbg !5992
	%6 = bitcast %struct._ZSt5arrayIdLm3EE** %..inline.addr.1 to i8**, !dbg !5992
	store i8*  %5, i8**  %6, align 8, !tbaa !3660, !dbg !5992
	%7 = load %struct._ZSt5arrayIdLm3EE*, %struct._ZSt5arrayIdLm3EE** %__last.addr, align 8, !tbaa !3660, !dbg !5992
	%8 = bitcast %struct._ZSt5arrayIdLm3EE*  %7 to i8*, !dbg !5992
	%9 = ptrtoint i8*  %2 to i64, !dbg !5992
	%10 = sub i64 0,  %9, !dbg !5992
	%11 = getelementptr i8, i8*  %8, i64  %10, !dbg !5992
	%12 = ptrtoint i8*  %11 to i64, !dbg !5992
	%13 = sext i64 3074457345618258603 to i128, !dbg !5992
	%14 = sext i64  %12 to i128, !dbg !5992
	%15 = mul i128  %13,  %14, !dbg !5992
	%16 = ashr i128  %15, 64, !dbg !5992
	%17 = trunc i128  %16 to i64, !dbg !5992
	%18 = sext i32 2 to i64, !dbg !5992
	%19 = ashr i64  %17,  %18, !dbg !5992
	%20 = sub i64 0,  %9, !dbg !5992
	%21 = getelementptr i8, i8*  %8, i64  %20, !dbg !5992
	%22 = ptrtoint i8*  %21 to i64, !dbg !5992
	%23 = sext i32 63 to i64, !dbg !5992
	%24 = ashr i64  %22,  %23, !dbg !5992
	%25 = sub i64  %19,  %24, !dbg !5992
	store i64  %25, i64* %..inline.addr.2, align 8, !tbaa !4087, !dbg !5992
	%26 = icmp sle i64  %25, 0, !dbg !5992
	br i1  %26, label %L..inline.64940, label %L.B1226, !dbg !5992
L.B1226:
	%27 = load %struct._ZSt5arrayIdLm3EE*, %struct._ZSt5arrayIdLm3EE** %..inline.addr.1, align 8, !tbaa !3660, !dbg !5992
	%28 = bitcast %struct._ZSt5arrayIdLm3EE*  %27 to i8*, !dbg !5992
	%29 = load %struct._ZSt5arrayIdLm3EE*, %struct._ZSt5arrayIdLm3EE** %..inline.addr, align 8, !tbaa !3660, !dbg !5992
	%30 = bitcast %struct._ZSt5arrayIdLm3EE*  %29 to i8*, !dbg !5992
	%31 = mul i64  %25, 24, !dbg !5992
	%32 = call i8*  @memmove (i8*  %28, i8*  %30, i64  %31) nounwind, !dbg !5992
	br label %L..inline.64940
L..inline.64940:
	%33 = load %struct._ZSt5arrayIdLm3EE*, %struct._ZSt5arrayIdLm3EE** %..inline.addr.1, align 8, !tbaa !3660, !dbg !5993
	%34 = bitcast %struct._ZSt5arrayIdLm3EE*  %33 to i8*, !dbg !5993
	%35 = load i64, i64* %..inline.addr.2, align 8, !tbaa !4087, !dbg !5993
	%36 = mul i64  %35, 24, !dbg !5993
	%37 = getelementptr i8, i8*  %34, i64  %36, !dbg !5993
	%38 = bitcast i8*  %37 to %struct._ZSt5arrayIdLm3EE*, !dbg !5993
	ret %struct._ZSt5arrayIdLm3EE*  %38, !dbg !5993
}
define linkonce_odr %struct._ZSt5arrayIdLm3EE* @_ZNSt6vectorISt5arrayIdLm3EESaIS1_EE11_S_relocateEPS1_S4_S4_RS2_(%struct._ZSt5arrayIdLm3EE* %__first.arg, %struct._ZSt5arrayIdLm3EE* %__last.arg, %struct._ZSt5arrayIdLm3EE* %__result.arg, %struct._ZSaISt5arrayIdLm3EEE* %__alloc.arg) #0 inlinehint !dbg !5998 {
L.entry:
	%__first.addr = alloca %struct._ZSt5arrayIdLm3EE*, align 8
	%__last.addr = alloca %struct._ZSt5arrayIdLm3EE*, align 8
	%__result.addr = alloca %struct._ZSt5arrayIdLm3EE*, align 8
	%__alloc.addr = alloca %struct._ZSaISt5arrayIdLm3EEE*, align 8
	%.._T33112568_48926.__FILL_CHARARRAY.addr = alloca [1 x i8], align 1
	%..inline.addr = alloca %struct._ZSt5arrayIdLm3EE*, align 8
	%..inline.addr.1 = alloca %struct._ZSt5arrayIdLm3EE*, align 8
	%..inline.addr.2 = alloca %struct._ZSt5arrayIdLm3EE*, align 8
	%....inline.__FILL_CHARARRAY.addr = alloca [1 x i8], align 1
	%..inline.addr.3 = alloca %struct._ZSt5arrayIdLm3EE*, align 8
	%..inline.addr.4 = alloca %struct._ZSt5arrayIdLm3EE*, align 8
	%..inline.addr.5 = alloca i64, align 8

	call void @llvm.dbg.declare (metadata %struct._ZSt5arrayIdLm3EE** %__first.addr, metadata !6026, metadata !3652), !dbg !5999
	store %struct._ZSt5arrayIdLm3EE* %__first.arg, %struct._ZSt5arrayIdLm3EE** %__first.addr, align 8, !tbaa !3660
	call void @llvm.dbg.declare (metadata %struct._ZSt5arrayIdLm3EE** %__first.addr, metadata !6027, metadata !3652), !dbg !5999
	call void @llvm.dbg.declare (metadata %struct._ZSt5arrayIdLm3EE** %__last.addr, metadata !6028, metadata !3652), !dbg !5999
	store %struct._ZSt5arrayIdLm3EE* %__last.arg, %struct._ZSt5arrayIdLm3EE** %__last.addr, align 8, !tbaa !3660
	call void @llvm.dbg.declare (metadata %struct._ZSt5arrayIdLm3EE** %__last.addr, metadata !6029, metadata !3652), !dbg !5999
	call void @llvm.dbg.declare (metadata %struct._ZSt5arrayIdLm3EE** %__result.addr, metadata !6030, metadata !3652), !dbg !5999
	store %struct._ZSt5arrayIdLm3EE* %__result.arg, %struct._ZSt5arrayIdLm3EE** %__result.addr, align 8, !tbaa !3660
	call void @llvm.dbg.declare (metadata %struct._ZSt5arrayIdLm3EE** %__result.addr, metadata !6031, metadata !3652), !dbg !5999
	call void @llvm.dbg.declare (metadata %struct._ZSaISt5arrayIdLm3EEE** %__alloc.addr, metadata !6032, metadata !3652), !dbg !5999
	store %struct._ZSaISt5arrayIdLm3EEE* %__alloc.arg, %struct._ZSaISt5arrayIdLm3EEE** %__alloc.addr, align 8, !tbaa !3660
	call void @llvm.dbg.declare (metadata %struct._ZSaISt5arrayIdLm3EEE** %__alloc.addr, metadata !6033, metadata !3652), !dbg !5999
	call void @llvm.dbg.declare (metadata [1 x i8]* %.._T33112568_48926.__FILL_CHARARRAY.addr, metadata !6035, metadata !3652), !dbg !6001
	%0 = bitcast [1 x i8]* %.._T33112568_48926.__FILL_CHARARRAY.addr to i8*, !dbg !6034
	store i8 0, i8*  %0, align 1, !tbaa !3659, !dbg !6034
	%1 = load %struct._ZSt5arrayIdLm3EE*, %struct._ZSt5arrayIdLm3EE** %__first.addr, align 8, !tbaa !3660, !dbg !6034
	%2 = bitcast %struct._ZSt5arrayIdLm3EE*  %1 to i8*, !dbg !6034
	%3 = bitcast %struct._ZSt5arrayIdLm3EE** %..inline.addr to i8**, !dbg !6034
	store i8*  %2, i8**  %3, align 8, !tbaa !3660, !dbg !6034
	%4 = load %struct._ZSt5arrayIdLm3EE*, %struct._ZSt5arrayIdLm3EE** %__last.addr, align 8, !tbaa !3660, !dbg !6034
	%5 = bitcast %struct._ZSt5arrayIdLm3EE*  %4 to i8*, !dbg !6034
	%6 = bitcast %struct._ZSt5arrayIdLm3EE** %..inline.addr.1 to i8**, !dbg !6034
	store i8*  %5, i8**  %6, align 8, !tbaa !3660, !dbg !6034
	%7 = load %struct._ZSt5arrayIdLm3EE*, %struct._ZSt5arrayIdLm3EE** %__result.addr, align 8, !tbaa !3660, !dbg !6034
	%8 = bitcast %struct._ZSt5arrayIdLm3EE*  %7 to i8*, !dbg !6034
	%9 = bitcast %struct._ZSt5arrayIdLm3EE** %..inline.addr.2 to i8**, !dbg !6034
	store i8*  %8, i8**  %9, align 8, !tbaa !3660, !dbg !6034
	%10 = zext i8 0 to i32, !dbg !6036
	%11 = trunc i32  %10 to i8, !dbg !6036
	call void @llvm.dbg.declare (metadata [1 x i8]* %....inline.__FILL_CHARARRAY.addr, metadata !6037, metadata !3652), !dbg !6001
	%12 = bitcast [1 x i8]* %....inline.__FILL_CHARARRAY.addr to i8*, !dbg !6036
	store i8  %11, i8*  %12, align 1, !tbaa !3659, !dbg !6036
	%13 = load %struct._ZSt5arrayIdLm3EE*, %struct._ZSt5arrayIdLm3EE** %..inline.addr, align 8, !tbaa !3660, !dbg !6038
	%14 = bitcast %struct._ZSt5arrayIdLm3EE*  %13 to i8*, !dbg !6038
	%15 = bitcast %struct._ZSt5arrayIdLm3EE** %..inline.addr.3 to i8**, !dbg !6038
	store i8*  %14, i8**  %15, align 8, !tbaa !3660, !dbg !6038
	%16 = load %struct._ZSt5arrayIdLm3EE*, %struct._ZSt5arrayIdLm3EE** %..inline.addr.2, align 8, !tbaa !3660, !dbg !6038
	%17 = bitcast %struct._ZSt5arrayIdLm3EE*  %16 to i8*, !dbg !6038
	%18 = bitcast %struct._ZSt5arrayIdLm3EE** %..inline.addr.4 to i8**, !dbg !6038
	store i8*  %17, i8**  %18, align 8, !tbaa !3660, !dbg !6038
	%19 = load %struct._ZSt5arrayIdLm3EE*, %struct._ZSt5arrayIdLm3EE** %..inline.addr.1, align 8, !tbaa !3660, !dbg !6038
	%20 = bitcast %struct._ZSt5arrayIdLm3EE*  %19 to i8*, !dbg !6038
	%21 = ptrtoint i8*  %14 to i64, !dbg !6038
	%22 = sub i64 0,  %21, !dbg !6038
	%23 = getelementptr i8, i8*  %20, i64  %22, !dbg !6038
	%24 = ptrtoint i8*  %23 to i64, !dbg !6038
	%25 = sext i64 3074457345618258603 to i128, !dbg !6038
	%26 = sext i64  %24 to i128, !dbg !6038
	%27 = mul i128  %25,  %26, !dbg !6038
	%28 = ashr i128  %27, 64, !dbg !6038
	%29 = trunc i128  %28 to i64, !dbg !6038
	%30 = sext i32 2 to i64, !dbg !6038
	%31 = ashr i64  %29,  %30, !dbg !6038
	%32 = sub i64 0,  %21, !dbg !6038
	%33 = getelementptr i8, i8*  %20, i64  %32, !dbg !6038
	%34 = ptrtoint i8*  %33 to i64, !dbg !6038
	%35 = sext i32 63 to i64, !dbg !6038
	%36 = ashr i64  %34,  %35, !dbg !6038
	%37 = sub i64  %31,  %36, !dbg !6038
	store i64  %37, i64* %..inline.addr.5, align 8, !tbaa !4087, !dbg !6038
	%38 = icmp sle i64  %37, 0, !dbg !6038
	br i1  %38, label %L..inline.65016, label %L.B1229, !dbg !6038
L.B1229:
	%39 = load %struct._ZSt5arrayIdLm3EE*, %struct._ZSt5arrayIdLm3EE** %..inline.addr.4, align 8, !tbaa !3660, !dbg !6038
	%40 = bitcast %struct._ZSt5arrayIdLm3EE*  %39 to i8*, !dbg !6038
	%41 = load %struct._ZSt5arrayIdLm3EE*, %struct._ZSt5arrayIdLm3EE** %..inline.addr.3, align 8, !tbaa !3660, !dbg !6038
	%42 = bitcast %struct._ZSt5arrayIdLm3EE*  %41 to i8*, !dbg !6038
	%43 = mul i64  %37, 24, !dbg !6038
	%44 = call i8*  @memmove (i8*  %40, i8*  %42, i64  %43) nounwind, !dbg !6038
	br label %L..inline.65016
L..inline.65016:
	%45 = load %struct._ZSt5arrayIdLm3EE*, %struct._ZSt5arrayIdLm3EE** %..inline.addr.4, align 8, !tbaa !3660, !dbg !6034
	%46 = bitcast %struct._ZSt5arrayIdLm3EE*  %45 to i8*, !dbg !6034
	%47 = load i64, i64* %..inline.addr.5, align 8, !tbaa !4087, !dbg !6034
	%48 = mul i64  %47, 24, !dbg !6034
	%49 = getelementptr i8, i8*  %46, i64  %48, !dbg !6034
	%50 = bitcast i8*  %49 to %struct._ZSt5arrayIdLm3EE*, !dbg !6034
	ret %struct._ZSt5arrayIdLm3EE*  %50, !dbg !6034
}

%struct._ZSt6vectorISt5arrayIdLm3EESaIS1_EE = type <{ %struct._ZSt12_Vector_baseISt5arrayIdLm3EESaIS1_EE}> 

define linkonce_odr void @_ZNSt6vectorISt5arrayIdLm3EESaIS1_EEC1Ev(%struct._ZSt6vectorISt5arrayIdLm3EESaIS1_EE* %_T33110608_48927.arg) #0 inlinehint !dbg !6043 {
L.entry:
	%_T33110608_48927.addr = alloca %struct._ZSt6vectorISt5arrayIdLm3EESaIS1_EE*, align 8
	%..inline.addr = alloca %struct._ZNSt12_Vector_baseISt5arrayIdLm3EESaIS1_EE17_Vector_impl_dataE*, align 8

	call void @llvm.dbg.declare (metadata %struct._ZSt6vectorISt5arrayIdLm3EESaIS1_EE** %_T33110608_48927.addr, metadata !6067, metadata !3652), !dbg !6044
	store %struct._ZSt6vectorISt5arrayIdLm3EESaIS1_EE* %_T33110608_48927.arg, %struct._ZSt6vectorISt5arrayIdLm3EESaIS1_EE** %_T33110608_48927.addr, align 8, !tbaa !3660
	call void @llvm.dbg.declare (metadata %struct._ZSt6vectorISt5arrayIdLm3EESaIS1_EE** %_T33110608_48927.addr, metadata !6068, metadata !3652), !dbg !6044
	%0 = load %struct._ZSt6vectorISt5arrayIdLm3EESaIS1_EE*, %struct._ZSt6vectorISt5arrayIdLm3EESaIS1_EE** %_T33110608_48927.addr, align 8, !tbaa !3660, !dbg !6069
	%1 = bitcast %struct._ZSt6vectorISt5arrayIdLm3EESaIS1_EE*  %0 to i8*, !dbg !6069
	%2 = bitcast %struct._ZNSt12_Vector_baseISt5arrayIdLm3EESaIS1_EE17_Vector_impl_dataE** %..inline.addr to i8**, !dbg !6069
	store i8*  %1, i8**  %2, align 8, !tbaa !3660, !dbg !6069
	%3 = load %struct._ZNSt12_Vector_baseISt5arrayIdLm3EESaIS1_EE17_Vector_impl_dataE*, %struct._ZNSt12_Vector_baseISt5arrayIdLm3EESaIS1_EE17_Vector_impl_dataE** %..inline.addr, align 8, !tbaa !3660, !dbg !6069
	%4 = bitcast %struct._ZNSt12_Vector_baseISt5arrayIdLm3EESaIS1_EE17_Vector_impl_dataE*  %3 to i8**, !dbg !6069
	store i8* null, i8**  %4, align 8, !tbaa !3660, !dbg !6069
	%5 = bitcast %struct._ZNSt12_Vector_baseISt5arrayIdLm3EESaIS1_EE17_Vector_impl_dataE*  %3 to i8*, !dbg !6069
	%6 = getelementptr i8, i8*  %5, i64 8, !dbg !6069
	%7 = bitcast i8*  %6 to i8**, !dbg !6069
	store i8* null, i8**  %7, align 8, !tbaa !3660, !dbg !6069
	%8 = getelementptr i8, i8*  %5, i64 16, !dbg !6069
	%9 = bitcast i8*  %8 to i8**, !dbg !6069
	store i8* null, i8**  %9, align 8, !tbaa !3660, !dbg !6069
	ret void, !dbg !6069
}
define linkonce_odr void @_ZNSt6vectorISt5arrayIdLm3EESaIS1_EEC2Ev(%struct._ZSt6vectorISt5arrayIdLm3EESaIS1_EE* %_T33110608_48928.arg) #0 inlinehint !dbg !6071 {
L.entry:
	%_T33110608_48928.addr = alloca %struct._ZSt6vectorISt5arrayIdLm3EESaIS1_EE*, align 8
	%..inline.addr = alloca %struct._ZNSt12_Vector_baseISt5arrayIdLm3EESaIS1_EE17_Vector_impl_dataE*, align 8

	store %struct._ZSt6vectorISt5arrayIdLm3EESaIS1_EE* %_T33110608_48928.arg, %struct._ZSt6vectorISt5arrayIdLm3EESaIS1_EE** %_T33110608_48928.addr, align 8, !tbaa !3660
	%0 = load %struct._ZSt6vectorISt5arrayIdLm3EESaIS1_EE*, %struct._ZSt6vectorISt5arrayIdLm3EESaIS1_EE** %_T33110608_48928.addr, align 8, !tbaa !3660, !dbg !6099
	%1 = bitcast %struct._ZSt6vectorISt5arrayIdLm3EESaIS1_EE*  %0 to i8*, !dbg !6099
	%2 = bitcast %struct._ZNSt12_Vector_baseISt5arrayIdLm3EESaIS1_EE17_Vector_impl_dataE** %..inline.addr to i8**, !dbg !6099
	store i8*  %1, i8**  %2, align 8, !tbaa !3660, !dbg !6099
	%3 = load %struct._ZNSt12_Vector_baseISt5arrayIdLm3EESaIS1_EE17_Vector_impl_dataE*, %struct._ZNSt12_Vector_baseISt5arrayIdLm3EESaIS1_EE17_Vector_impl_dataE** %..inline.addr, align 8, !tbaa !3660, !dbg !6099
	%4 = bitcast %struct._ZNSt12_Vector_baseISt5arrayIdLm3EESaIS1_EE17_Vector_impl_dataE*  %3 to i8**, !dbg !6099
	store i8* null, i8**  %4, align 8, !tbaa !3660, !dbg !6099
	%5 = bitcast %struct._ZNSt12_Vector_baseISt5arrayIdLm3EESaIS1_EE17_Vector_impl_dataE*  %3 to i8*, !dbg !6099
	%6 = getelementptr i8, i8*  %5, i64 8, !dbg !6099
	%7 = bitcast i8*  %6 to i8**, !dbg !6099
	store i8* null, i8**  %7, align 8, !tbaa !3660, !dbg !6099
	%8 = getelementptr i8, i8*  %5, i64 16, !dbg !6099
	%9 = bitcast i8*  %8 to i8**, !dbg !6099
	store i8* null, i8**  %9, align 8, !tbaa !3660, !dbg !6099
	ret void, !dbg !6099
}
define linkonce_odr void @_ZNSt6vectorISt5arrayIdLm3EESaIS1_EED1Ev(%struct._ZSt6vectorISt5arrayIdLm3EESaIS1_EE* %_T33110608_48929.arg) #0 inlinehint !dbg !6101 {
L.entry:
	%_T33110608_48929.addr = alloca %struct._ZSt6vectorISt5arrayIdLm3EESaIS1_EE*, align 8
	%..inline.addr = alloca %struct._ZSt12_Vector_baseISt5arrayIdLm3EESaIS1_EE*, align 8
	%..inline.addr.1 = alloca %struct._ZSt5arrayIdLm3EE*, align 8

	call void @llvm.dbg.declare (metadata %struct._ZSt6vectorISt5arrayIdLm3EESaIS1_EE** %_T33110608_48929.addr, metadata !6153, metadata !3652), !dbg !6102
	store %struct._ZSt6vectorISt5arrayIdLm3EESaIS1_EE* %_T33110608_48929.arg, %struct._ZSt6vectorISt5arrayIdLm3EESaIS1_EE** %_T33110608_48929.addr, align 8, !tbaa !3660
	call void @llvm.dbg.declare (metadata %struct._ZSt6vectorISt5arrayIdLm3EESaIS1_EE** %_T33110608_48929.addr, metadata !6154, metadata !3652), !dbg !6102
	%0 = load %struct._ZSt6vectorISt5arrayIdLm3EESaIS1_EE*, %struct._ZSt6vectorISt5arrayIdLm3EESaIS1_EE** %_T33110608_48929.addr, align 8, !tbaa !3660, !dbg !6155
	%1 = bitcast %struct._ZSt6vectorISt5arrayIdLm3EESaIS1_EE*  %0 to i8*, !dbg !6155
	%2 = bitcast %struct._ZSt12_Vector_baseISt5arrayIdLm3EESaIS1_EE** %..inline.addr to i8**, !dbg !6155
	store i8*  %1, i8**  %2, align 8, !tbaa !3660, !dbg !6155
	%3 = load %struct._ZSt12_Vector_baseISt5arrayIdLm3EESaIS1_EE*, %struct._ZSt12_Vector_baseISt5arrayIdLm3EESaIS1_EE** %..inline.addr, align 8, !tbaa !3660, !dbg !6156
	%4 = bitcast %struct._ZSt12_Vector_baseISt5arrayIdLm3EESaIS1_EE*  %3 to i8**, !dbg !6156
	%5 = load i8*, i8**  %4, align 8, !tbaa !3660, !dbg !6156
	%6 = icmp eq i8*  %5,  null, !dbg !6156
	br i1  %6, label %L..inline.65175, label %L.B1240, !dbg !6156
L.B1240:
	%7 = bitcast %struct._ZSt12_Vector_baseISt5arrayIdLm3EESaIS1_EE*  %3 to i8**, !dbg !6156
	%8 = load i8*, i8**  %7, align 8, !tbaa !3660, !dbg !6156
	%9 = bitcast %struct._ZSt5arrayIdLm3EE** %..inline.addr.1 to i8**, !dbg !6156
	store i8*  %8, i8**  %9, align 8, !tbaa !3660, !dbg !6156
	%10 = load %struct._ZSt5arrayIdLm3EE*, %struct._ZSt5arrayIdLm3EE** %..inline.addr.1, align 8, !tbaa !3660, !dbg !6156
	%11 = bitcast %struct._ZSt5arrayIdLm3EE*  %10 to i8*, !dbg !6156
	call void  @_ZdlPv (i8*  %11) nounwind, !dbg !6156
	br label %L..inline.65175
L..inline.65175:
	ret void, !dbg !6155
}
define linkonce_odr void @_ZNSt6vectorISt5arrayIdLm3EESaIS1_EED2Ev(%struct._ZSt6vectorISt5arrayIdLm3EESaIS1_EE* %_T33110608_48930.arg) #0 inlinehint !dbg !6158 {
L.entry:
	%_T33110608_48930.addr = alloca %struct._ZSt6vectorISt5arrayIdLm3EESaIS1_EE*, align 8
	%..inline.addr = alloca %struct._ZSt12_Vector_baseISt5arrayIdLm3EESaIS1_EE*, align 8
	%..inline.addr.1 = alloca %struct._ZSt5arrayIdLm3EE*, align 8

	store %struct._ZSt6vectorISt5arrayIdLm3EESaIS1_EE* %_T33110608_48930.arg, %struct._ZSt6vectorISt5arrayIdLm3EESaIS1_EE** %_T33110608_48930.addr, align 8, !tbaa !3660
	%0 = load %struct._ZSt6vectorISt5arrayIdLm3EESaIS1_EE*, %struct._ZSt6vectorISt5arrayIdLm3EESaIS1_EE** %_T33110608_48930.addr, align 8, !tbaa !3660, !dbg !6214
	%1 = bitcast %struct._ZSt6vectorISt5arrayIdLm3EESaIS1_EE*  %0 to i8*, !dbg !6214
	%2 = bitcast %struct._ZSt12_Vector_baseISt5arrayIdLm3EESaIS1_EE** %..inline.addr to i8**, !dbg !6214
	store i8*  %1, i8**  %2, align 8, !tbaa !3660, !dbg !6214
	%3 = load %struct._ZSt12_Vector_baseISt5arrayIdLm3EESaIS1_EE*, %struct._ZSt12_Vector_baseISt5arrayIdLm3EESaIS1_EE** %..inline.addr, align 8, !tbaa !3660, !dbg !6214
	%4 = bitcast %struct._ZSt12_Vector_baseISt5arrayIdLm3EESaIS1_EE*  %3 to i8**, !dbg !6214
	%5 = load i8*, i8**  %4, align 8, !tbaa !3660, !dbg !6214
	%6 = icmp eq i8*  %5,  null, !dbg !6214
	br i1  %6, label %L..inline.65279, label %L.B1243, !dbg !6214
L.B1243:
	%7 = bitcast %struct._ZSt12_Vector_baseISt5arrayIdLm3EESaIS1_EE*  %3 to i8**, !dbg !6214
	%8 = load i8*, i8**  %7, align 8, !tbaa !3660, !dbg !6214
	%9 = bitcast %struct._ZSt5arrayIdLm3EE** %..inline.addr.1 to i8**, !dbg !6214
	store i8*  %8, i8**  %9, align 8, !tbaa !3660, !dbg !6214
	%10 = load %struct._ZSt5arrayIdLm3EE*, %struct._ZSt5arrayIdLm3EE** %..inline.addr.1, align 8, !tbaa !3660, !dbg !6214
	%11 = bitcast %struct._ZSt5arrayIdLm3EE*  %10 to i8*, !dbg !6214
	call void  @_ZdlPv (i8*  %11) nounwind, !dbg !6214
	br label %L..inline.65279
L..inline.65279:
	ret void, !dbg !6214
}

%struct._ZN9__gnu_cxx17__normal_iteratorIPSt5arrayIdLm3EESt6vectorIS2_SaIS2_EEEE = type <{ %struct._ZSt5arrayIdLm3EE*}> 

define linkonce_odr i64 @_ZNSt6vectorISt5arrayIdLm3EESaIS1_EE5beginEv(%struct._ZSt6vectorISt5arrayIdLm3EESaIS1_EE* %_T33110608_48932.arg) #0 inlinehint !dbg !6218 {
L.entry:
	%.X48932.addr = alloca %struct._ZN9__gnu_cxx17__normal_iteratorIPSt5arrayIdLm3EESt6vectorIS2_SaIS2_EEEE, align 8
	%_T33110608_48932.addr = alloca %struct._ZSt6vectorISt5arrayIdLm3EESaIS1_EE*, align 8

	call void @llvm.dbg.declare (metadata %struct._ZSt6vectorISt5arrayIdLm3EESaIS1_EE** %_T33110608_48932.addr, metadata !6226, metadata !3652), !dbg !6219
	store %struct._ZSt6vectorISt5arrayIdLm3EESaIS1_EE* %_T33110608_48932.arg, %struct._ZSt6vectorISt5arrayIdLm3EESaIS1_EE** %_T33110608_48932.addr, align 8, !tbaa !3660
	call void @llvm.dbg.declare (metadata %struct._ZSt6vectorISt5arrayIdLm3EESaIS1_EE** %_T33110608_48932.addr, metadata !6227, metadata !3652), !dbg !6219
	%0 = load %struct._ZSt6vectorISt5arrayIdLm3EESaIS1_EE*, %struct._ZSt6vectorISt5arrayIdLm3EESaIS1_EE** %_T33110608_48932.addr, align 8, !tbaa !3660, !dbg !6228
	%1 = bitcast %struct._ZSt6vectorISt5arrayIdLm3EESaIS1_EE*  %0 to i8**, !dbg !6228
	%2 = load i8*, i8**  %1, align 8, !tbaa !3660, !dbg !6228
	%3 = bitcast %struct._ZN9__gnu_cxx17__normal_iteratorIPSt5arrayIdLm3EESt6vectorIS2_SaIS2_EEEE* %.X48932.addr to i8**, !dbg !6228
	store i8*  %2, i8**  %3, align 8, !tbaa !3660, !dbg !6228
	%4 = bitcast %struct._ZN9__gnu_cxx17__normal_iteratorIPSt5arrayIdLm3EESt6vectorIS2_SaIS2_EEEE* %.X48932.addr to i64*, !dbg !6228
	%5 = load i64, i64*  %4, align 8, !tbaa !3659, !dbg !6228
	ret i64  %5, !dbg !6228
}
define linkonce_odr i64 @_ZNSt6vectorISt5arrayIdLm3EESaIS1_EE3endEv(%struct._ZSt6vectorISt5arrayIdLm3EESaIS1_EE* %_T33110608_48934.arg) #0 inlinehint !dbg !6230 {
L.entry:
	%.X48934.addr = alloca %struct._ZN9__gnu_cxx17__normal_iteratorIPSt5arrayIdLm3EESt6vectorIS2_SaIS2_EEEE, align 8
	%_T33110608_48934.addr = alloca %struct._ZSt6vectorISt5arrayIdLm3EESaIS1_EE*, align 8

	call void @llvm.dbg.declare (metadata %struct._ZSt6vectorISt5arrayIdLm3EESaIS1_EE** %_T33110608_48934.addr, metadata !6238, metadata !3652), !dbg !6231
	store %struct._ZSt6vectorISt5arrayIdLm3EESaIS1_EE* %_T33110608_48934.arg, %struct._ZSt6vectorISt5arrayIdLm3EESaIS1_EE** %_T33110608_48934.addr, align 8, !tbaa !3660
	call void @llvm.dbg.declare (metadata %struct._ZSt6vectorISt5arrayIdLm3EESaIS1_EE** %_T33110608_48934.addr, metadata !6239, metadata !3652), !dbg !6231
	%0 = load %struct._ZSt6vectorISt5arrayIdLm3EESaIS1_EE*, %struct._ZSt6vectorISt5arrayIdLm3EESaIS1_EE** %_T33110608_48934.addr, align 8, !tbaa !3660, !dbg !6240
	%1 = bitcast %struct._ZSt6vectorISt5arrayIdLm3EESaIS1_EE*  %0 to i8*, !dbg !6240
	%2 = getelementptr i8, i8*  %1, i64 8, !dbg !6240
	%3 = bitcast i8*  %2 to i8**, !dbg !6240
	%4 = load i8*, i8**  %3, align 8, !tbaa !3660, !dbg !6240
	%5 = bitcast %struct._ZN9__gnu_cxx17__normal_iteratorIPSt5arrayIdLm3EESt6vectorIS2_SaIS2_EEEE* %.X48934.addr to i8**, !dbg !6240
	store i8*  %4, i8**  %5, align 8, !tbaa !3660, !dbg !6240
	%6 = bitcast %struct._ZN9__gnu_cxx17__normal_iteratorIPSt5arrayIdLm3EESt6vectorIS2_SaIS2_EEEE* %.X48934.addr to i64*, !dbg !6240
	%7 = load i64, i64*  %6, align 8, !tbaa !3659, !dbg !6240
	ret i64  %7, !dbg !6240
}
define linkonce_odr i64 @_ZNKSt6vectorISt5arrayIdLm3EESaIS1_EE4sizeEv(%struct._ZSt6vectorISt5arrayIdLm3EESaIS1_EE* %_T33110608_48936.arg) #0 inlinehint !dbg !6244 {
L.entry:
	%_T33110608_48936.addr = alloca %struct._ZSt6vectorISt5arrayIdLm3EESaIS1_EE*, align 8
	%_T33111496_48936.addr = alloca i64, align 8

	call void @llvm.dbg.declare (metadata %struct._ZSt6vectorISt5arrayIdLm3EESaIS1_EE** %_T33110608_48936.addr, metadata !6248, metadata !3652), !dbg !6245
	store %struct._ZSt6vectorISt5arrayIdLm3EESaIS1_EE* %_T33110608_48936.arg, %struct._ZSt6vectorISt5arrayIdLm3EESaIS1_EE** %_T33110608_48936.addr, align 8, !tbaa !3660
	call void @llvm.dbg.declare (metadata %struct._ZSt6vectorISt5arrayIdLm3EESaIS1_EE** %_T33110608_48936.addr, metadata !6249, metadata !3652), !dbg !6245
	%0 = load %struct._ZSt6vectorISt5arrayIdLm3EESaIS1_EE*, %struct._ZSt6vectorISt5arrayIdLm3EESaIS1_EE** %_T33110608_48936.addr, align 8, !tbaa !3660, !dbg !6250
	%1 = bitcast %struct._ZSt6vectorISt5arrayIdLm3EESaIS1_EE*  %0 to i8*, !dbg !6250
	%2 = getelementptr i8, i8*  %1, i64 8, !dbg !6250
	%3 = bitcast i8*  %2 to i8**, !dbg !6250
	%4 = load i8*, i8**  %3, align 8, !tbaa !3660, !dbg !6250
	%5 = bitcast %struct._ZSt6vectorISt5arrayIdLm3EESaIS1_EE*  %0 to i8**, !dbg !6250
	%6 = load i8*, i8**  %5, align 8, !tbaa !3660, !dbg !6250
	%7 = ptrtoint i8*  %6 to i64, !dbg !6250
	%8 = sub i64 0,  %7, !dbg !6250
	%9 = getelementptr i8, i8*  %4, i64  %8, !dbg !6250
	%10 = ptrtoint i8*  %9 to i64, !dbg !6250
	%11 = sext i64 3074457345618258603 to i128, !dbg !6250
	%12 = sext i64  %10 to i128, !dbg !6250
	%13 = mul i128  %11,  %12, !dbg !6250
	%14 = ashr i128  %13, 64, !dbg !6250
	%15 = trunc i128  %14 to i64, !dbg !6250
	%16 = sext i32 2 to i64, !dbg !6250
	%17 = ashr i64  %15,  %16, !dbg !6250
	%18 = sub i64 0,  %7, !dbg !6250
	%19 = getelementptr i8, i8*  %4, i64  %18, !dbg !6250
	%20 = ptrtoint i8*  %19 to i64, !dbg !6250
	%21 = sext i32 63 to i64, !dbg !6250
	%22 = ashr i64  %20,  %21, !dbg !6250
	%23 = sub i64  %17,  %22, !dbg !6250
	ret i64  %23, !dbg !6250
}
define linkonce_odr i64 @_ZNKSt6vectorISt5arrayIdLm3EESaIS1_EE8max_sizeEv(%struct._ZSt6vectorISt5arrayIdLm3EESaIS1_EE* %_T33110608_48938.arg) #0 inlinehint !dbg !6252 {
L.entry:
	%_T33110608_48938.addr = alloca %struct._ZSt6vectorISt5arrayIdLm3EESaIS1_EE*, align 8
	%..inline.addr = alloca %struct._ZSaISt5arrayIdLm3EEE*, align 8
	%_T33111496_48938.addr = alloca i64, align 8

	call void @llvm.dbg.declare (metadata %struct._ZSt6vectorISt5arrayIdLm3EESaIS1_EE** %_T33110608_48938.addr, metadata !6260, metadata !3652), !dbg !6253
	store %struct._ZSt6vectorISt5arrayIdLm3EESaIS1_EE* %_T33110608_48938.arg, %struct._ZSt6vectorISt5arrayIdLm3EESaIS1_EE** %_T33110608_48938.addr, align 8, !tbaa !3660
	call void @llvm.dbg.declare (metadata %struct._ZSt6vectorISt5arrayIdLm3EESaIS1_EE** %_T33110608_48938.addr, metadata !6261, metadata !3652), !dbg !6253
	%0 = load %struct._ZSt6vectorISt5arrayIdLm3EESaIS1_EE*, %struct._ZSt6vectorISt5arrayIdLm3EESaIS1_EE** %_T33110608_48938.addr, align 8, !tbaa !3660, !dbg !6262
	%1 = bitcast %struct._ZSt6vectorISt5arrayIdLm3EESaIS1_EE*  %0 to i8*, !dbg !6262
	%2 = bitcast %struct._ZSaISt5arrayIdLm3EEE** %..inline.addr to i8**, !dbg !6262
	store i8*  %1, i8**  %2, align 8, !tbaa !3660, !dbg !6262
	%3 = load %struct._ZSaISt5arrayIdLm3EEE*, %struct._ZSaISt5arrayIdLm3EEE** %..inline.addr, align 8, !tbaa !3660, !dbg !6263
	%4 = call i64  @_ZNSt6vectorISt5arrayIdLm3EESaIS1_EE11_S_max_sizeERKS2_ (%struct._ZSaISt5arrayIdLm3EEE*  %3) nounwind, !dbg !6263
	ret i64  %4, !dbg !6262
}
define linkonce_odr %struct._ZSt5arrayIdLm3EE* @_ZNSt6vectorISt5arrayIdLm3EESaIS1_EEixEm(%struct._ZSt6vectorISt5arrayIdLm3EESaIS1_EE* %_T33110608_48941.arg, i64 %__n.arg) #0 inlinehint !dbg !6267 {
L.entry:
	%_T33110608_48941.addr = alloca %struct._ZSt6vectorISt5arrayIdLm3EESaIS1_EE*, align 8
	%__n.addr = alloca i64, align 8

	call void @llvm.dbg.declare (metadata %struct._ZSt6vectorISt5arrayIdLm3EESaIS1_EE** %_T33110608_48941.addr, metadata !6271, metadata !3652), !dbg !6268
	store %struct._ZSt6vectorISt5arrayIdLm3EESaIS1_EE* %_T33110608_48941.arg, %struct._ZSt6vectorISt5arrayIdLm3EESaIS1_EE** %_T33110608_48941.addr, align 8, !tbaa !3660
	call void @llvm.dbg.declare (metadata %struct._ZSt6vectorISt5arrayIdLm3EESaIS1_EE** %_T33110608_48941.addr, metadata !6272, metadata !3652), !dbg !6268
	call void @llvm.dbg.declare (metadata i64* %__n.addr, metadata !6273, metadata !3652), !dbg !6268
	store i64 %__n.arg, i64* %__n.addr, align 8, !tbaa !3659
	call void @llvm.dbg.declare (metadata i64* %__n.addr, metadata !6274, metadata !3652), !dbg !6268
	%0 = load %struct._ZSt6vectorISt5arrayIdLm3EESaIS1_EE*, %struct._ZSt6vectorISt5arrayIdLm3EESaIS1_EE** %_T33110608_48941.addr, align 8, !tbaa !3660, !dbg !6275
	%1 = bitcast %struct._ZSt6vectorISt5arrayIdLm3EESaIS1_EE*  %0 to i8**, !dbg !6275
	%2 = load i8*, i8**  %1, align 8, !tbaa !3660, !dbg !6275
	%3 = load i64, i64* %__n.addr, align 8, !tbaa !4087, !dbg !6275
	%4 = mul i64  %3, 24, !dbg !6275
	%5 = getelementptr i8, i8*  %2, i64  %4, !dbg !6275
	%6 = bitcast i8*  %5 to %struct._ZSt5arrayIdLm3EE*, !dbg !6275
	ret %struct._ZSt5arrayIdLm3EE*  %6, !dbg !6275
}
define linkonce_odr void @_ZNSt6vectorISt5arrayIdLm3EESaIS1_EE9push_backERKS1_(%struct._ZSt6vectorISt5arrayIdLm3EESaIS1_EE* %_T33110608_48942.arg, %struct._ZSt5arrayIdLm3EE* %__x.arg) #0 inlinehint !dbg !6280 {
L.entry:
	%_T33110608_48942.addr = alloca %struct._ZSt6vectorISt5arrayIdLm3EESaIS1_EE*, align 8
	%__x.addr = alloca %struct._ZSt5arrayIdLm3EE*, align 8
	%..inline.addr = alloca %struct._ZSt5arrayIdLm3EE*, align 8
	%..inline.addr.1 = alloca %struct._ZSt5arrayIdLm3EE*, align 8
	%..inline.addr.2 = alloca %struct._ZN9__gnu_cxx17__normal_iteratorIPSt5arrayIdLm3EESt6vectorIS2_SaIS2_EEEE, align 8

	call void @llvm.dbg.declare (metadata %struct._ZSt6vectorISt5arrayIdLm3EESaIS1_EE** %_T33110608_48942.addr, metadata !6312, metadata !3652), !dbg !6281
	store %struct._ZSt6vectorISt5arrayIdLm3EESaIS1_EE* %_T33110608_48942.arg, %struct._ZSt6vectorISt5arrayIdLm3EESaIS1_EE** %_T33110608_48942.addr, align 8, !tbaa !3660
	call void @llvm.dbg.declare (metadata %struct._ZSt6vectorISt5arrayIdLm3EESaIS1_EE** %_T33110608_48942.addr, metadata !6313, metadata !3652), !dbg !6281
	call void @llvm.dbg.declare (metadata %struct._ZSt5arrayIdLm3EE** %__x.addr, metadata !6314, metadata !3652), !dbg !6281
	store %struct._ZSt5arrayIdLm3EE* %__x.arg, %struct._ZSt5arrayIdLm3EE** %__x.addr, align 8, !tbaa !3660
	call void @llvm.dbg.declare (metadata %struct._ZSt5arrayIdLm3EE** %__x.addr, metadata !6315, metadata !3652), !dbg !6281
	%0 = load %struct._ZSt6vectorISt5arrayIdLm3EESaIS1_EE*, %struct._ZSt6vectorISt5arrayIdLm3EESaIS1_EE** %_T33110608_48942.addr, align 8, !tbaa !3660, !dbg !6316
	%1 = bitcast %struct._ZSt6vectorISt5arrayIdLm3EESaIS1_EE*  %0 to i8*, !dbg !6316
	%2 = getelementptr i8, i8*  %1, i64 8, !dbg !6316
	%3 = bitcast i8*  %2 to i8**, !dbg !6316
	%4 = load i8*, i8**  %3, align 8, !tbaa !3660, !dbg !6316
	%5 = getelementptr i8, i8*  %1, i64 16, !dbg !6316
	%6 = bitcast i8*  %5 to i8**, !dbg !6316
	%7 = load i8*, i8**  %6, align 8, !tbaa !3660, !dbg !6316
	%8 = icmp eq i8*  %4,  %7, !dbg !6316
	br i1  %8, label %L.B0012, label %L.B1254, !dbg !6316
L.B1254:
	%9 = bitcast %struct._ZSt6vectorISt5arrayIdLm3EESaIS1_EE*  %0 to i8*, !dbg !6317
	%10 = getelementptr i8, i8*  %9, i64 8, !dbg !6317
	%11 = bitcast i8*  %10 to i8**, !dbg !6317
	%12 = load i8*, i8**  %11, align 8, !tbaa !3660, !dbg !6317
	%13 = bitcast %struct._ZSt5arrayIdLm3EE** %..inline.addr to i8**, !dbg !6317
	store i8*  %12, i8**  %13, align 8, !tbaa !3660, !dbg !6317
	%14 = load %struct._ZSt5arrayIdLm3EE*, %struct._ZSt5arrayIdLm3EE** %..inline.addr, align 8, !tbaa !3660, !dbg !6317
	%15 = bitcast %struct._ZSt5arrayIdLm3EE*  %14 to i8*, !dbg !6317
	%16 = icmp eq i8*  %15,  null, !dbg !6317
	br i1  %16, label %L..inline.65422, label %L.B1255, !dbg !6317
L.B1255:
	%17 = load %struct._ZSt5arrayIdLm3EE*, %struct._ZSt5arrayIdLm3EE** %__x.addr, align 8, !tbaa !3660, !dbg !6317
	%18 = bitcast %struct._ZSt5arrayIdLm3EE*  %17 to i8*, !dbg !6317
	%19 = bitcast %struct._ZSt5arrayIdLm3EE** %..inline.addr.1 to i8**, !dbg !6317
	store i8*  %18, i8**  %19, align 8, !tbaa !3660, !dbg !6317
	%20 = load %struct._ZSt5arrayIdLm3EE*, %struct._ZSt5arrayIdLm3EE** %..inline.addr.1, align 8, !tbaa !3660, !dbg !6318
	%21 = bitcast %struct._ZSt5arrayIdLm3EE*  %20 to i64*, !dbg !6318
	%22 = load i64, i64*  %21, align 8, !tbaa !3659, !dbg !6318
	%23 = bitcast %struct._ZSt5arrayIdLm3EE*  %14 to i64*, !dbg !6318
	store i64  %22, i64*  %23, align 8, !tbaa !3659, !dbg !6318
	%24 = bitcast i64*  %21 to i8*, !dbg !6318
	%25 = getelementptr i8, i8*  %24, i64 8, !dbg !6318
	%26 = bitcast i8*  %25 to i64*, !dbg !6318
	%27 = load i64, i64*  %26, align 8, !tbaa !3659, !dbg !6318
	%28 = bitcast i64*  %23 to i8*, !dbg !6318
	%29 = getelementptr i8, i8*  %28, i64 8, !dbg !6318
	%30 = bitcast i8*  %29 to i64*, !dbg !6318
	store i64  %27, i64*  %30, align 8, !tbaa !3659, !dbg !6318
	%31 = getelementptr i8, i8*  %24, i64 16, !dbg !6318
	%32 = bitcast i8*  %31 to i64*, !dbg !6318
	%33 = load i64, i64*  %32, align 8, !tbaa !3659, !dbg !6318
	%34 = getelementptr i8, i8*  %28, i64 16, !dbg !6318
	%35 = bitcast i8*  %34 to i64*, !dbg !6318
	store i64  %33, i64*  %35, align 8, !tbaa !3659, !dbg !6318
	br label %L..inline.65431, !dbg !6317
L..inline.65422:
	br label %L..inline.65431
L..inline.65431:
	%36 = load %struct._ZSt6vectorISt5arrayIdLm3EESaIS1_EE*, %struct._ZSt6vectorISt5arrayIdLm3EESaIS1_EE** %_T33110608_48942.addr, align 8, !tbaa !3660, !dbg !6319
	%37 = bitcast %struct._ZSt6vectorISt5arrayIdLm3EESaIS1_EE*  %36 to i8*, !dbg !6319
	%38 = getelementptr i8, i8*  %37, i64 8, !dbg !6319
	%39 = bitcast i8*  %38 to i8**, !dbg !6319
	%40 = load i8*, i8**  %39, align 8, !tbaa !3660, !dbg !6319
	%41 = getelementptr i8, i8*  %40, i64 24, !dbg !6319
	store i8*  %41, i8**  %39, align 8, !tbaa !3660, !dbg !6319
	br label %L.B0013, !dbg !6320
L.B0012:
	%42 = load %struct._ZSt6vectorISt5arrayIdLm3EESaIS1_EE*, %struct._ZSt6vectorISt5arrayIdLm3EESaIS1_EE** %_T33110608_48942.addr, align 8, !tbaa !3660, !dbg !6321
	%43 = bitcast %struct._ZSt6vectorISt5arrayIdLm3EESaIS1_EE*  %42 to i8*, !dbg !6321
	%44 = getelementptr i8, i8*  %43, i64 8, !dbg !6321
	%45 = bitcast i8*  %44 to i8**, !dbg !6321
	%46 = load i8*, i8**  %45, align 8, !tbaa !3660, !dbg !6321
	%47 = bitcast %struct._ZN9__gnu_cxx17__normal_iteratorIPSt5arrayIdLm3EESt6vectorIS2_SaIS2_EEEE* %..inline.addr.2 to i8**, !dbg !6321
	store i8*  %46, i8**  %47, align 8, !tbaa !3660, !dbg !6321
	%48 = bitcast %struct._ZN9__gnu_cxx17__normal_iteratorIPSt5arrayIdLm3EESt6vectorIS2_SaIS2_EEEE* %..inline.addr.2 to i64*, !dbg !6321
	%49 = load i64, i64*  %48, align 8, !tbaa !3659, !dbg !6321
	%50 = load %struct._ZSt5arrayIdLm3EE*, %struct._ZSt5arrayIdLm3EE** %__x.addr, align 8, !tbaa !3660, !dbg !6321
	call void  @_ZNSt6vectorISt5arrayIdLm3EESaIS1_EE17_M_realloc_insertIJRKS1_EEEvN9__gnu_cxx17__normal_iteratorIPS1_S3_EEDpOT_ (%struct._ZSt6vectorISt5arrayIdLm3EESaIS1_EE*  %42, i64  %49, %struct._ZSt5arrayIdLm3EE*  %50), !dbg !6321
	br label %L.B0013
L.B0013:
	ret void, !dbg !6318
}
define linkonce_odr i64 @_ZNKSt6vectorISt5arrayIdLm3EESaIS1_EE12_M_check_lenEmPKc(%struct._ZSt6vectorISt5arrayIdLm3EESaIS1_EE* %_T33110608_48945.arg, i64 %__n.arg, i8* %__s.arg) #0 inlinehint !dbg !6325 {
L.entry:
	%_T33110608_48945.addr = alloca %struct._ZSt6vectorISt5arrayIdLm3EESaIS1_EE*, align 8
	%__n.addr = alloca i64, align 8
	%__s.addr = alloca i8*, align 8
	%..inline.addr = alloca %struct._ZSaISt5arrayIdLm3EEE*, align 8
	%..inline.addr.1 = alloca i64, align 8
	%..inline.addr.2 = alloca i64, align 8
	%..inline.addr.3 = alloca i64, align 8
	%_T33112088_48945.addr = alloca i64, align 8
	%..inline.addr.4 = alloca i64, align 8
	%..inline.addr.5 = alloca i64*, align 8
	%__len.addr = alloca i64, align 8
	%..inline.addr.6 = alloca i64, align 8
	%..inline.addr.7 = alloca %struct._ZSaISt5arrayIdLm3EEE*, align 8
	%..inline.addr.8 = alloca i64, align 8
	%..inline.addr.9 = alloca %struct._ZSaISt5arrayIdLm3EEE*, align 8
	%..inline.addr.180 = alloca i64, align 8
	%.I0007.addr = alloca i64, align 8

	call void @llvm.dbg.declare (metadata %struct._ZSt6vectorISt5arrayIdLm3EESaIS1_EE** %_T33110608_48945.addr, metadata !6373, metadata !3652), !dbg !6326
	store %struct._ZSt6vectorISt5arrayIdLm3EESaIS1_EE* %_T33110608_48945.arg, %struct._ZSt6vectorISt5arrayIdLm3EESaIS1_EE** %_T33110608_48945.addr, align 8, !tbaa !3660
	call void @llvm.dbg.declare (metadata %struct._ZSt6vectorISt5arrayIdLm3EESaIS1_EE** %_T33110608_48945.addr, metadata !6374, metadata !3652), !dbg !6326
	call void @llvm.dbg.declare (metadata i64* %__n.addr, metadata !6375, metadata !3652), !dbg !6326
	store i64 %__n.arg, i64* %__n.addr, align 8, !tbaa !3659
	call void @llvm.dbg.declare (metadata i64* %__n.addr, metadata !6376, metadata !3652), !dbg !6326
	call void @llvm.dbg.declare (metadata i8** %__s.addr, metadata !6377, metadata !3652), !dbg !6326
	store i8* %__s.arg, i8** %__s.addr, align 8, !tbaa !3660
	call void @llvm.dbg.declare (metadata i8** %__s.addr, metadata !6378, metadata !3652), !dbg !6326
	%0 = load %struct._ZSt6vectorISt5arrayIdLm3EESaIS1_EE*, %struct._ZSt6vectorISt5arrayIdLm3EESaIS1_EE** %_T33110608_48945.addr, align 8, !tbaa !3660, !dbg !6379
	%1 = bitcast %struct._ZSt6vectorISt5arrayIdLm3EESaIS1_EE*  %0 to i8*, !dbg !6379
	%2 = bitcast %struct._ZSaISt5arrayIdLm3EEE** %..inline.addr to i8**, !dbg !6379
	store i8*  %1, i8**  %2, align 8, !tbaa !3660, !dbg !6379
	%3 = load %struct._ZSaISt5arrayIdLm3EEE*, %struct._ZSaISt5arrayIdLm3EEE** %..inline.addr, align 8, !tbaa !3660, !dbg !6379
	%4 = call i64  @_ZNSt6vectorISt5arrayIdLm3EESaIS1_EE11_S_max_sizeERKS2_ (%struct._ZSaISt5arrayIdLm3EEE*  %3) nounwind, !dbg !6379
	%5 = load %struct._ZSt6vectorISt5arrayIdLm3EESaIS1_EE*, %struct._ZSt6vectorISt5arrayIdLm3EESaIS1_EE** %_T33110608_48945.addr, align 8, !tbaa !3660, !dbg !6380
	%6 = bitcast %struct._ZSt6vectorISt5arrayIdLm3EESaIS1_EE*  %5 to i8*, !dbg !6380
	%7 = getelementptr i8, i8*  %6, i64 8, !dbg !6380
	%8 = bitcast i8*  %7 to i8**, !dbg !6380
	%9 = load i8*, i8**  %8, align 8, !tbaa !3660, !dbg !6380
	%10 = bitcast %struct._ZSt6vectorISt5arrayIdLm3EESaIS1_EE*  %5 to i8**, !dbg !6380
	%11 = load i8*, i8**  %10, align 8, !tbaa !3660, !dbg !6380
	%12 = ptrtoint i8*  %11 to i64, !dbg !6380
	%13 = sub i64 0,  %12, !dbg !6380
	%14 = getelementptr i8, i8*  %9, i64  %13, !dbg !6380
	%15 = ptrtoint i8*  %14 to i64, !dbg !6380
	%16 = sext i64 3074457345618258603 to i128, !dbg !6380
	%17 = sext i64  %15 to i128, !dbg !6380
	%18 = mul i128  %16,  %17, !dbg !6380
	%19 = ashr i128  %18, 64, !dbg !6380
	%20 = trunc i128  %19 to i64, !dbg !6380
	%21 = sext i32 2 to i64, !dbg !6380
	%22 = ashr i64  %20,  %21, !dbg !6380
	%23 = sub i64 0,  %12, !dbg !6380
	%24 = getelementptr i8, i8*  %9, i64  %23, !dbg !6380
	%25 = ptrtoint i8*  %24 to i64, !dbg !6380
	%26 = sext i32 63 to i64, !dbg !6380
	%27 = ashr i64  %25,  %26, !dbg !6380
	%28 = sub i64  %22,  %27, !dbg !6380
	%29 = sub i64  %4,  %28, !dbg !6381
	%30 = load i64, i64* %__n.addr, align 8, !tbaa !4087, !dbg !6381
	%31 = icmp uge i64  %29,  %30, !dbg !6381
	br i1  %31, label %L.B0014, label %L.B1272, !dbg !6381
L.B1272:
	%32 = load i8*, i8** %__s.addr, align 8, !tbaa !3660, !dbg !6382
	call void  @_ZSt20__throw_length_errorPKc (i8*  %32) noreturn, !dbg !6382
	br label %L.B0014
L.B0014:
	%33 = load %struct._ZSt6vectorISt5arrayIdLm3EESaIS1_EE*, %struct._ZSt6vectorISt5arrayIdLm3EESaIS1_EE** %_T33110608_48945.addr, align 8, !tbaa !3660, !dbg !6383
	%34 = bitcast %struct._ZSt6vectorISt5arrayIdLm3EESaIS1_EE*  %33 to i8*, !dbg !6383
	%35 = getelementptr i8, i8*  %34, i64 8, !dbg !6383
	%36 = bitcast i8*  %35 to i8**, !dbg !6383
	%37 = load i8*, i8**  %36, align 8, !tbaa !3660, !dbg !6383
	%38 = bitcast %struct._ZSt6vectorISt5arrayIdLm3EESaIS1_EE*  %33 to i8**, !dbg !6383
	%39 = load i8*, i8**  %38, align 8, !tbaa !3660, !dbg !6383
	%40 = ptrtoint i8*  %39 to i64, !dbg !6383
	%41 = sub i64 0,  %40, !dbg !6383
	%42 = getelementptr i8, i8*  %37, i64  %41, !dbg !6383
	%43 = ptrtoint i8*  %42 to i64, !dbg !6383
	%44 = sext i64 3074457345618258603 to i128, !dbg !6383
	%45 = sext i64  %43 to i128, !dbg !6383
	%46 = mul i128  %44,  %45, !dbg !6383
	%47 = ashr i128  %46, 64, !dbg !6383
	%48 = trunc i128  %47 to i64, !dbg !6383
	%49 = sext i32 2 to i64, !dbg !6383
	%50 = ashr i64  %48,  %49, !dbg !6383
	%51 = sub i64 0,  %40, !dbg !6383
	%52 = getelementptr i8, i8*  %37, i64  %51, !dbg !6383
	%53 = ptrtoint i8*  %52 to i64, !dbg !6383
	%54 = sext i32 63 to i64, !dbg !6383
	%55 = ashr i64  %53,  %54, !dbg !6383
	%56 = sub i64  %50,  %55, !dbg !6383
	store i64  %56, i64* %_T33112088_48945.addr, align 8, !tbaa !4087, !dbg !6381
	%57 = sub i64 0,  %40, !dbg !6383
	%58 = getelementptr i8, i8*  %37, i64  %57, !dbg !6383
	%59 = ptrtoint i8*  %58 to i64, !dbg !6383
	%60 = sext i64 3074457345618258603 to i128, !dbg !6383
	%61 = sext i64  %59 to i128, !dbg !6383
	%62 = mul i128  %60,  %61, !dbg !6383
	%63 = ashr i128  %62, 64, !dbg !6383
	%64 = trunc i128  %63 to i64, !dbg !6383
	%65 = sext i32 2 to i64, !dbg !6383
	%66 = ashr i64  %64,  %65, !dbg !6383
	%67 = sub i64 0,  %40, !dbg !6383
	%68 = getelementptr i8, i8*  %37, i64  %67, !dbg !6383
	%69 = ptrtoint i8*  %68 to i64, !dbg !6383
	%70 = sext i32 63 to i64, !dbg !6383
	%71 = ashr i64  %69,  %70, !dbg !6383
	%72 = sub i64  %66,  %71, !dbg !6383
	store i64  %72, i64* %..inline.addr.4, align 8, !tbaa !4087, !dbg !6383
	%73 = load i64, i64* %__n.addr, align 8, !tbaa !4087, !dbg !6381
	%74 = icmp uge i64  %56,  %73, !dbg !6381
	%75 = zext i1  %74 to i32, !dbg !6381
	%76 = trunc i32  %75 to i1, !dbg !6381
	%77 = bitcast i64* %_T33112088_48945.addr to i8*, !dbg !6381
	%78 = bitcast i64* %__n.addr to i8*, !dbg !6381
	%79 = select i1  %76, i8*  %77, i8*  %78, !dbg !6381
	%80 = bitcast i64** %..inline.addr.5 to i8**, !dbg !6381
	store i8*  %79, i8**  %80, align 8, !tbaa !3660, !dbg !6381
	%81 = load i64*, i64** %..inline.addr.5, align 8, !tbaa !3660, !dbg !6384
	%82 = load i64, i64*  %81, align 8, !tbaa !3659, !dbg !6384
	%83 = add i64  %72,  %82, !dbg !6384
	call void @llvm.dbg.declare (metadata i64* %__len.addr, metadata !6385, metadata !3652), !dbg !6326
	store i64  %83, i64* %__len.addr, align 8, !tbaa !4087, !dbg !6384
	%84 = load %struct._ZSt6vectorISt5arrayIdLm3EESaIS1_EE*, %struct._ZSt6vectorISt5arrayIdLm3EESaIS1_EE** %_T33110608_48945.addr, align 8, !tbaa !3660, !dbg !6386
	%85 = bitcast %struct._ZSt6vectorISt5arrayIdLm3EESaIS1_EE*  %84 to i8*, !dbg !6386
	%86 = getelementptr i8, i8*  %85, i64 8, !dbg !6386
	%87 = bitcast i8*  %86 to i8**, !dbg !6386
	%88 = load i8*, i8**  %87, align 8, !tbaa !3660, !dbg !6386
	%89 = bitcast %struct._ZSt6vectorISt5arrayIdLm3EESaIS1_EE*  %84 to i8**, !dbg !6386
	%90 = load i8*, i8**  %89, align 8, !tbaa !3660, !dbg !6386
	%91 = ptrtoint i8*  %90 to i64, !dbg !6386
	%92 = sub i64 0,  %91, !dbg !6386
	%93 = getelementptr i8, i8*  %88, i64  %92, !dbg !6386
	%94 = ptrtoint i8*  %93 to i64, !dbg !6386
	%95 = sext i64 3074457345618258603 to i128, !dbg !6386
	%96 = sext i64  %94 to i128, !dbg !6386
	%97 = mul i128  %95,  %96, !dbg !6386
	%98 = ashr i128  %97, 64, !dbg !6386
	%99 = trunc i128  %98 to i64, !dbg !6386
	%100 = sext i32 2 to i64, !dbg !6386
	%101 = ashr i64  %99,  %100, !dbg !6386
	%102 = sub i64 0,  %91, !dbg !6386
	%103 = getelementptr i8, i8*  %88, i64  %102, !dbg !6386
	%104 = ptrtoint i8*  %103 to i64, !dbg !6386
	%105 = sext i32 63 to i64, !dbg !6386
	%106 = ashr i64  %104,  %105, !dbg !6386
	%107 = sub i64  %101,  %106, !dbg !6386
	%108 = load i64, i64* %..inline.addr.4, align 8, !tbaa !4087, !dbg !6381
	%109 = load i64*, i64** %..inline.addr.5, align 8, !tbaa !3660, !dbg !6381
	%110 = load i64, i64*  %109, align 8, !tbaa !3659, !dbg !6381
	%111 = add i64  %108,  %110, !dbg !6381
	%112 = icmp ult i64  %111,  %107, !dbg !6381
	br i1  %112, label %L.B0017, label %L.B1273, !dbg !6381
L.B1273:
	%113 = bitcast %struct._ZSt6vectorISt5arrayIdLm3EESaIS1_EE*  %84 to i8*, !dbg !6379
	%114 = bitcast %struct._ZSaISt5arrayIdLm3EEE** %..inline.addr.7 to i8**, !dbg !6379
	store i8*  %113, i8**  %114, align 8, !tbaa !3660, !dbg !6379
	%115 = load %struct._ZSaISt5arrayIdLm3EEE*, %struct._ZSaISt5arrayIdLm3EEE** %..inline.addr.7, align 8, !tbaa !3660, !dbg !6379
	%116 = call i64  @_ZNSt6vectorISt5arrayIdLm3EESaIS1_EE11_S_max_sizeERKS2_ (%struct._ZSaISt5arrayIdLm3EEE*  %115) nounwind, !dbg !6379
	%117 = load i64, i64* %__len.addr, align 8, !tbaa !4087, !dbg !6379
	%118 = icmp ule i64  %117,  %116, !dbg !6379
	br i1  %118, label %L.B0015, label %L.B0017, !dbg !6379
L.B0017:
	%119 = load %struct._ZSt6vectorISt5arrayIdLm3EESaIS1_EE*, %struct._ZSt6vectorISt5arrayIdLm3EESaIS1_EE** %_T33110608_48945.addr, align 8, !tbaa !3660, !dbg !6379
	%120 = bitcast %struct._ZSt6vectorISt5arrayIdLm3EESaIS1_EE*  %119 to i8*, !dbg !6379
	%121 = bitcast %struct._ZSaISt5arrayIdLm3EEE** %..inline.addr.9 to i8**, !dbg !6379
	store i8*  %120, i8**  %121, align 8, !tbaa !3660, !dbg !6379
	%122 = load %struct._ZSaISt5arrayIdLm3EEE*, %struct._ZSaISt5arrayIdLm3EEE** %..inline.addr.9, align 8, !tbaa !3660, !dbg !6379
	%123 = call i64  @_ZNSt6vectorISt5arrayIdLm3EESaIS1_EE11_S_max_sizeERKS2_ (%struct._ZSaISt5arrayIdLm3EEE*  %122) nounwind, !dbg !6379
	store i64  %123, i64* %.I0007.addr, align 8, !tbaa !4087, !dbg !6379
	br label %L.B0016, !dbg !6386
L.B0015:
	%124 = load i64, i64* %__len.addr, align 8, !tbaa !4087, !dbg !6386
	store i64  %124, i64* %.I0007.addr, align 8, !tbaa !4087, !dbg !6386
	br label %L.B0016
L.B0016:
	%125 = load i64, i64* %.I0007.addr, align 8, !tbaa !4087, !dbg !6386
	ret i64  %125, !dbg !6386
}
define linkonce_odr i64 @_ZNSt6vectorISt5arrayIdLm3EESaIS1_EE11_S_max_sizeERKS2_(%struct._ZSaISt5arrayIdLm3EEE* %__a.arg) #0 inlinehint personality i8* bitcast (i32 (...)* @__gxx_personality_v0 to i8*) !dbg !6395 {
L.entry:
	%__a.addr = alloca %struct._ZSaISt5arrayIdLm3EEE*, align 8

	call void @llvm.dbg.declare (metadata %struct._ZSaISt5arrayIdLm3EEE** %__a.addr, metadata !6411, metadata !3652), !dbg !6396
	store %struct._ZSaISt5arrayIdLm3EEE* %__a.arg, %struct._ZSaISt5arrayIdLm3EEE** %__a.addr, align 8, !tbaa !3660
	call void @llvm.dbg.declare (metadata %struct._ZSaISt5arrayIdLm3EEE** %__a.addr, metadata !6412, metadata !3652), !dbg !6396
	ret i64 384307168202282325, !dbg !6413
L.B1278:
	br label %L.R0116, !dbg !6413
L_T33112568_48947:
	%0 = landingpad %astruct.dt64
	cleanup
	br label %L.R0116
L.R0116:
	ret i64 0
}

%struct._ZN9__gnu_cxx13new_allocatorISt5arrayIdLm3EEEE = type <{ [1 x i8]}> 

define linkonce_odr void @_ZNSt6vectorISt5arrayIdLm3EESaIS1_EE17_M_realloc_insertIJRKS1_EEEvN9__gnu_cxx17__normal_iteratorIPS1_S3_EEDpOT_(%struct._ZSt6vectorISt5arrayIdLm3EESaIS1_EE* %_T32778736_48949.arg, i64 %__position.coerce, %struct._ZSt5arrayIdLm3EE* %__args.arg) #0 inlinehint personality i8* bitcast (i32 (...)* @__gxx_personality_v0 to i8*) !dbg !6420 {
L.entry:
	%_T32778736_48949.addr = alloca %struct._ZSt6vectorISt5arrayIdLm3EESaIS1_EE*, align 8
	%__position.addr = alloca %struct._ZN9__gnu_cxx17__normal_iteratorIPSt5arrayIdLm3EESt6vectorIS2_SaIS2_EEEE, align 8
	%__args.addr = alloca %struct._ZSt5arrayIdLm3EE*, align 8
	%..inline.addr = alloca %struct._ZSt6vectorISt5arrayIdLm3EESaIS1_EE*, align 8
	%..inline.addr.1 = alloca i64, align 8
	%..inline.addr.2 = alloca i8*, align 8
	%..inline.addr.3 = alloca %struct._ZSt6vectorISt5arrayIdLm3EESaIS1_EE*, align 8
	%..inline.addr.4 = alloca %struct._ZSt12_Vector_baseISt5arrayIdLm3EESaIS1_EE*, align 8
	%..inline.addr.5 = alloca %struct._ZSaISt5arrayIdLm3EEE*, align 8
	%..inline.addr.6 = alloca i64, align 8
	%..inline.addr.7 = alloca i64, align 8
	%..inline.addr.8 = alloca %struct._ZSt6vectorISt5arrayIdLm3EESaIS1_EE*, align 8
	%..inline.addr.9 = alloca i64, align 8
	%..inline.addr.160 = alloca i64, align 8
	%..inline.addr.170 = alloca %struct._ZSt6vectorISt5arrayIdLm3EESaIS1_EE*, align 8
	%..inline.addr.180 = alloca i64, align 8
	%..inline.addr.190 = alloca i64, align 8
	%..inline.addr.200 = alloca i64, align 8
	%..inline.addr.210 = alloca %struct._ZSt6vectorISt5arrayIdLm3EESaIS1_EE*, align 8
	%..inline.addr.220 = alloca i64, align 8
	%..inline.addr.230 = alloca i64, align 8
	%..inline.addr.240 = alloca i64*, align 8
	%..inline.addr.250 = alloca i64, align 8
	%..inline.addr.260 = alloca %struct._ZSt6vectorISt5arrayIdLm3EESaIS1_EE*, align 8
	%..inline.addr.270 = alloca i64, align 8
	%..inline.addr.280 = alloca i64, align 8
	%..inline.addr.290 = alloca %struct._ZSt6vectorISt5arrayIdLm3EESaIS1_EE*, align 8
	%..inline.addr.300 = alloca %struct._ZSt12_Vector_baseISt5arrayIdLm3EESaIS1_EE*, align 8
	%..inline.addr.310 = alloca %struct._ZSaISt5arrayIdLm3EEE*, align 8
	%..inline.addr.320 = alloca i64, align 8
	%..inline.addr.330 = alloca i64, align 8
	%..inline.addr.340 = alloca %struct._ZSt6vectorISt5arrayIdLm3EESaIS1_EE*, align 8
	%..inline.addr.350 = alloca %struct._ZSt12_Vector_baseISt5arrayIdLm3EESaIS1_EE*, align 8
	%..inline.addr.360 = alloca %struct._ZSaISt5arrayIdLm3EEE*, align 8
	%..inline.addr.370 = alloca i64, align 8
	%..inline.addr.380 = alloca i64, align 8
	%..inline.addr.390 = alloca i64, align 8
	%..inline.addr.400 = alloca i64, align 8
	%__len.addr = alloca i64, align 8
	%__old_start.addr = alloca %struct._ZSt5arrayIdLm3EE*, align 8
	%__old_finish.addr = alloca %struct._ZSt5arrayIdLm3EE*, align 8
	%..inline.addr.440 = alloca %struct._ZSt6vectorISt5arrayIdLm3EESaIS1_EE*, align 8
	%..inline.addr.450 = alloca %struct._ZSt5arrayIdLm3EE**, align 8
	%..inline.addr.460 = alloca %struct._ZN9__gnu_cxx17__normal_iteratorIPSt5arrayIdLm3EESt6vectorIS2_SaIS2_EEEE, align 8
	%..inline.addr.470 = alloca %struct._ZN9__gnu_cxx17__normal_iteratorIPSt5arrayIdLm3EESt6vectorIS2_SaIS2_EEEE, align 8
	%_T32781400_48949.addr = alloca %struct._ZN9__gnu_cxx17__normal_iteratorIPSt5arrayIdLm3EESt6vectorIS2_SaIS2_EEEE, align 8
	%..inline.addr.490 = alloca %struct._ZN9__gnu_cxx17__normal_iteratorIPSt5arrayIdLm3EESt6vectorIS2_SaIS2_EEEE*, align 8
	%..inline.addr.500 = alloca %struct._ZN9__gnu_cxx17__normal_iteratorIPSt5arrayIdLm3EESt6vectorIS2_SaIS2_EEEE*, align 8
	%..inline.addr.510 = alloca i64, align 8
	%..inline.addr.520 = alloca i64, align 8
	%__elems_before.addr = alloca i64, align 8
	%..inline.addr.540 = alloca %struct._ZSt12_Vector_baseISt5arrayIdLm3EESaIS1_EE*, align 8
	%..inline.addr.550 = alloca i64, align 8
	%..inline.addr.560 = alloca %struct._ZSaISt5arrayIdLm3EEE*, align 8
	%..inline.addr.570 = alloca i64, align 8
	%..inline.addr.580 = alloca %struct._ZN9__gnu_cxx13new_allocatorISt5arrayIdLm3EEEE*, align 8
	%..inline.addr.590 = alloca i64, align 8
	%..inline.addr.600 = alloca i64, align 8
	%.Q0012.addr = alloca i8*, align 8
	%..inline.addr.620 = alloca %struct._ZSt5arrayIdLm3EE*, align 8
	%__new_start.addr = alloca %struct._ZSt5arrayIdLm3EE*, align 8
	%__new_finish.addr = alloca %struct._ZSt5arrayIdLm3EE*, align 8
	%..inline.addr.650 = alloca %struct._ZSt5arrayIdLm3EE*, align 8
	%..inline.addr.660 = alloca %struct._ZSt5arrayIdLm3EE*, align 8
	%..inline.addr.670 = alloca %struct._ZSaISt5arrayIdLm3EEE*, align 8
	%..inline.addr.680 = alloca %struct._ZSt5arrayIdLm3EE*, align 8
	%..inline.addr.690 = alloca %struct._ZSt5arrayIdLm3EE*, align 8
	%..inline.addr.700 = alloca %struct._ZSt5arrayIdLm3EE*, align 8
	%..inline.addr.710 = alloca %struct._ZSt5arrayIdLm3EE*, align 8
	%..inline.addr.720 = alloca %struct._ZSt5arrayIdLm3EE*, align 8
	%..inline.addr.730 = alloca %struct._ZSt5arrayIdLm3EE*, align 8
	%..inline.addr.740 = alloca i64, align 8
	%..inline.addr.750 = alloca i8*, align 8
	%..inline.addr.760 = alloca i8*, align 8
	%..inline.addr.770 = alloca i8*, align 8
	%..inline.addr.780 = alloca %struct._ZSt5arrayIdLm3EE*, align 8
	%..inline.addr.790 = alloca %struct._ZSt5arrayIdLm3EE*, align 8
	%..inline.addr.800 = alloca %struct._ZSt5arrayIdLm3EE*, align 8
	%..inline.addr.810 = alloca %struct._ZSt5arrayIdLm3EE*, align 8
	%..inline.addr.820 = alloca %struct._ZSt12_Vector_baseISt5arrayIdLm3EESaIS1_EE*, align 8
	%..inline.addr.830 = alloca %struct._ZSaISt5arrayIdLm3EEE*, align 8
	%..inline.addr.840 = alloca %struct._ZSt5arrayIdLm3EE*, align 8
	%..inline.addr.850 = alloca %struct._ZSt5arrayIdLm3EE*, align 8
	%..inline.addr.860 = alloca %struct._ZSt5arrayIdLm3EE*, align 8
	%..inline.addr.870 = alloca %struct._ZSaISt5arrayIdLm3EEE*, align 8
	%..inline.addr.880 = alloca %struct._ZSt17integral_constantIbLb1EE, align 1
	%..inline.addr.890 = alloca %struct._ZSt5arrayIdLm3EE*, align 8
	%..inline.addr.900 = alloca %struct._ZSt5arrayIdLm3EE*, align 8
	%..inline.addr.910 = alloca %struct._ZSt5arrayIdLm3EE*, align 8
	%..inline.addr.920 = alloca %struct._ZSaISt5arrayIdLm3EEE*, align 8
	%..inline.addr.930 = alloca %struct._ZSt17integral_constantIbLb1EE, align 1
	%..inline.addr.940 = alloca %struct._ZSt5arrayIdLm3EE*, align 8
	%..inline.addr.950 = alloca %struct._ZSt5arrayIdLm3EE*, align 8
	%..inline.addr.960 = alloca %struct._ZSt5arrayIdLm3EE*, align 8
	%..inline.addr.970 = alloca %struct._ZSaISt5arrayIdLm3EEE*, align 8
	%..inline.addr.980 = alloca %struct._ZSt5arrayIdLm3EE*, align 8
	%..inline.addr.990 = alloca %struct._ZSt5arrayIdLm3EE*, align 8
	%..inline.addr.1000 = alloca %struct._ZSt5arrayIdLm3EE*, align 8
	%..inline.addr.1010 = alloca %struct._ZSt5arrayIdLm3EE*, align 8
	%..inline.addr.1020 = alloca %struct._ZSt5arrayIdLm3EE*, align 8
	%..inline.addr.1030 = alloca %struct._ZSt5arrayIdLm3EE*, align 8
	%..inline.addr.1040 = alloca %struct._ZSt5arrayIdLm3EE*, align 8
	%..inline.addr.1050 = alloca %struct._ZSt5arrayIdLm3EE*, align 8
	%..inline.addr.1060 = alloca %struct._ZSt5arrayIdLm3EE*, align 8
	%..inline.addr.1070 = alloca i64, align 8
	%..inline.addr.1080 = alloca %struct._ZSt5arrayIdLm3EE*, align 8
	%..inline.addr.1090 = alloca %struct._ZSt5arrayIdLm3EE*, align 8
	%..inline.addr.1100 = alloca %struct._ZSt5arrayIdLm3EE*, align 8
	%..inline.addr.1110 = alloca %struct._ZSt5arrayIdLm3EE*, align 8
	%..inline.addr.1120 = alloca %struct._ZSt12_Vector_baseISt5arrayIdLm3EESaIS1_EE*, align 8
	%..inline.addr.1130 = alloca %struct._ZSaISt5arrayIdLm3EEE*, align 8
	%..inline.addr.1140 = alloca %struct._ZSt5arrayIdLm3EE*, align 8
	%..inline.addr.1150 = alloca %struct._ZSt5arrayIdLm3EE*, align 8
	%..inline.addr.1160 = alloca %struct._ZSt5arrayIdLm3EE*, align 8
	%..inline.addr.1170 = alloca %struct._ZSaISt5arrayIdLm3EEE*, align 8
	%..inline.addr.1180 = alloca %struct._ZSt17integral_constantIbLb1EE, align 1
	%..inline.addr.1190 = alloca %struct._ZSt5arrayIdLm3EE*, align 8
	%..inline.addr.1200 = alloca %struct._ZSt5arrayIdLm3EE*, align 8
	%..inline.addr.1210 = alloca %struct._ZSt5arrayIdLm3EE*, align 8
	%..inline.addr.1220 = alloca %struct._ZSaISt5arrayIdLm3EEE*, align 8
	%..inline.addr.1230 = alloca %struct._ZSt17integral_constantIbLb1EE, align 1
	%..inline.addr.1240 = alloca %struct._ZSt5arrayIdLm3EE*, align 8
	%..inline.addr.1250 = alloca %struct._ZSt5arrayIdLm3EE*, align 8
	%..inline.addr.1260 = alloca %struct._ZSt5arrayIdLm3EE*, align 8
	%..inline.addr.1270 = alloca %struct._ZSaISt5arrayIdLm3EEE*, align 8
	%..inline.addr.1280 = alloca %struct._ZSt5arrayIdLm3EE*, align 8
	%..inline.addr.1290 = alloca %struct._ZSt5arrayIdLm3EE*, align 8
	%..inline.addr.1300 = alloca %struct._ZSt5arrayIdLm3EE*, align 8
	%..inline.addr.1310 = alloca %struct._ZSt5arrayIdLm3EE*, align 8
	%..inline.addr.1320 = alloca %struct._ZSt5arrayIdLm3EE*, align 8
	%..inline.addr.1330 = alloca %struct._ZSt5arrayIdLm3EE*, align 8
	%..inline.addr.1340 = alloca %struct._ZSt5arrayIdLm3EE*, align 8
	%..inline.addr.1350 = alloca %struct._ZSt5arrayIdLm3EE*, align 8
	%..inline.addr.1360 = alloca %struct._ZSt5arrayIdLm3EE*, align 8
	%..inline.addr.1370 = alloca i64, align 8
	%..inline.addr.1380 = alloca %struct._ZSt5arrayIdLm3EE*, align 8
	%..inline.addr.1390 = alloca %struct._ZSt5arrayIdLm3EE*, align 8
	%..inline.addr.1400 = alloca %struct._ZSt5arrayIdLm3EE*, align 8
	%..inline.addr.1410 = alloca %struct._ZSt5arrayIdLm3EE*, align 8
	%..inline.addr.1420 = alloca %struct._ZSt12_Vector_baseISt5arrayIdLm3EESaIS1_EE*, align 8
	%..inline.addr.1430 = alloca %struct._ZSaISt5arrayIdLm3EEE*, align 8
	%..inline.addr.1440 = alloca %struct._ZSt12_Vector_baseISt5arrayIdLm3EESaIS1_EE*, align 8
	%..inline.addr.1450 = alloca %struct._ZSaISt5arrayIdLm3EEE*, align 8
	%..inline.addr.1460 = alloca %struct._ZSt12_Vector_baseISt5arrayIdLm3EESaIS1_EE*, align 8
	%..inline.addr.1470 = alloca %struct._ZSaISt5arrayIdLm3EEE*, align 8
	%..inline.addr.1480 = alloca %struct._ZSt5arrayIdLm3EE*, align 8
	%..inline.addr.1490 = alloca %struct._ZSt5arrayIdLm3EE*, align 8
	%..inline.addr.1500 = alloca %struct._ZSt5arrayIdLm3EE*, align 8
	%..inline.addr.1510 = alloca %struct._ZSt5arrayIdLm3EE*, align 8
	%..inline.addr.1520 = alloca %struct._ZSt12_Vector_baseISt5arrayIdLm3EESaIS1_EE*, align 8
	%..inline.addr.1530 = alloca %struct._ZSt5arrayIdLm3EE*, align 8
	%..inline.addr.1540 = alloca i64, align 8
	%..inline.addr.1550 = alloca %struct._ZSaISt5arrayIdLm3EEE*, align 8
	%..inline.addr.1560 = alloca %struct._ZSt5arrayIdLm3EE*, align 8
	%..inline.addr.1570 = alloca i64, align 8
	%..inline.addr.1580 = alloca %struct._ZSt5arrayIdLm3EE*, align 8
	%__caught_object_address.addr = alloca i8*, align 8
	%__catch_clause_number.addr = alloca i32, align 4
	%..inline.addr.1610 = alloca %struct._ZSaISt5arrayIdLm3EEE*, align 8
	%..inline.addr.1620 = alloca %struct._ZSt5arrayIdLm3EE*, align 8
	%..inline.addr.1630 = alloca %struct._ZSt12_Vector_baseISt5arrayIdLm3EESaIS1_EE*, align 8
	%..inline.addr.1640 = alloca %struct._ZSaISt5arrayIdLm3EEE*, align 8
	%..inline.addr.1650 = alloca %struct._ZSt5arrayIdLm3EE*, align 8
	%..inline.addr.1660 = alloca %struct._ZSt5arrayIdLm3EE*, align 8
	%..inline.addr.1670 = alloca %struct._ZSt5arrayIdLm3EE*, align 8
	%..inline.addr.1680 = alloca %struct._ZSt5arrayIdLm3EE*, align 8
	%..inline.addr.1690 = alloca %struct._ZSt12_Vector_baseISt5arrayIdLm3EESaIS1_EE*, align 8
	%..inline.addr.1700 = alloca %struct._ZSt5arrayIdLm3EE*, align 8
	%..inline.addr.1710 = alloca i64, align 8
	%..inline.addr.1720 = alloca %struct._ZSaISt5arrayIdLm3EEE*, align 8
	%..inline.addr.1730 = alloca %struct._ZSt5arrayIdLm3EE*, align 8
	%..inline.addr.1740 = alloca i64, align 8
	%..inline.addr.1750 = alloca %struct._ZSt5arrayIdLm3EE*, align 8

	call void @llvm.dbg.declare (metadata %struct._ZSt6vectorISt5arrayIdLm3EESaIS1_EE** %_T32778736_48949.addr, metadata !6686, metadata !3652), !dbg !6421
	store %struct._ZSt6vectorISt5arrayIdLm3EESaIS1_EE* %_T32778736_48949.arg, %struct._ZSt6vectorISt5arrayIdLm3EESaIS1_EE** %_T32778736_48949.addr, align 8
	call void @llvm.dbg.declare (metadata %struct._ZSt6vectorISt5arrayIdLm3EESaIS1_EE** %_T32778736_48949.addr, metadata !6687, metadata !3652), !dbg !6421
	call void @llvm.dbg.declare (metadata %struct._ZN9__gnu_cxx17__normal_iteratorIPSt5arrayIdLm3EESt6vectorIS2_SaIS2_EEEE* %__position.addr, metadata !6688, metadata !3652), !dbg !6421
	%0 = bitcast %struct._ZN9__gnu_cxx17__normal_iteratorIPSt5arrayIdLm3EESt6vectorIS2_SaIS2_EEEE* %__position.addr to i64*
	store i64 %__position.coerce, i64*  %0, align 8
	call void @llvm.dbg.declare (metadata %struct._ZN9__gnu_cxx17__normal_iteratorIPSt5arrayIdLm3EESt6vectorIS2_SaIS2_EEEE* %__position.addr, metadata !6689, metadata !3652), !dbg !6421
	call void @llvm.dbg.declare (metadata %struct._ZSt5arrayIdLm3EE** %__args.addr, metadata !6690, metadata !3652), !dbg !6421
	store %struct._ZSt5arrayIdLm3EE* %__args.arg, %struct._ZSt5arrayIdLm3EE** %__args.addr, align 8
	call void @llvm.dbg.declare (metadata %struct._ZSt5arrayIdLm3EE** %__args.addr, metadata !6691, metadata !3652), !dbg !6421
	%1 = load %struct._ZSt6vectorISt5arrayIdLm3EESaIS1_EE*, %struct._ZSt6vectorISt5arrayIdLm3EESaIS1_EE** %_T32778736_48949.addr, align 8, !dbg !6692
	%2 = bitcast %struct._ZSt6vectorISt5arrayIdLm3EESaIS1_EE*  %1 to i8*, !dbg !6692
	%3 = bitcast %struct._ZSt6vectorISt5arrayIdLm3EESaIS1_EE** %..inline.addr to i8**, !dbg !6692
	store i8*  %2, i8**  %3, align 8, !dbg !6692
	store i64 1, i64* %..inline.addr.1, align 8, !dbg !6692
	%4 = bitcast [26 x i8]* @.S51004 to i8*, !dbg !6692
	store i8*  %4, i8** %..inline.addr.2, align 8, !dbg !6692
	%5 = load %struct._ZSt6vectorISt5arrayIdLm3EESaIS1_EE*, %struct._ZSt6vectorISt5arrayIdLm3EESaIS1_EE** %..inline.addr, align 8, !dbg !6693
	%6 = bitcast %struct._ZSt6vectorISt5arrayIdLm3EESaIS1_EE*  %5 to i8*, !dbg !6693
	%7 = bitcast %struct._ZSt6vectorISt5arrayIdLm3EESaIS1_EE** %..inline.addr.3 to i8**, !dbg !6693
	store i8*  %6, i8**  %7, align 8, !dbg !6693
	%8 = load %struct._ZSt6vectorISt5arrayIdLm3EESaIS1_EE*, %struct._ZSt6vectorISt5arrayIdLm3EESaIS1_EE** %..inline.addr.3, align 8, !dbg !6693
	%9 = bitcast %struct._ZSt6vectorISt5arrayIdLm3EESaIS1_EE*  %8 to i8*, !dbg !6693
	%10 = bitcast %struct._ZSt12_Vector_baseISt5arrayIdLm3EESaIS1_EE** %..inline.addr.4 to i8**, !dbg !6693
	store i8*  %9, i8**  %10, align 8, !dbg !6693
	%11 = load %struct._ZSt12_Vector_baseISt5arrayIdLm3EESaIS1_EE*, %struct._ZSt12_Vector_baseISt5arrayIdLm3EESaIS1_EE** %..inline.addr.4, align 8, !dbg !6693
	%12 = bitcast %struct._ZSt12_Vector_baseISt5arrayIdLm3EESaIS1_EE*  %11 to i8*, !dbg !6693
	%13 = bitcast %struct._ZSaISt5arrayIdLm3EEE** %..inline.addr.5 to i8**, !dbg !6693
	store i8*  %12, i8**  %13, align 8, !dbg !6693
	%14 = load %struct._ZSaISt5arrayIdLm3EEE*, %struct._ZSaISt5arrayIdLm3EEE** %..inline.addr.5, align 8, !dbg !6693
	%15 = call i64  @_ZNSt6vectorISt5arrayIdLm3EESaIS1_EE11_S_max_sizeERKS2_ (%struct._ZSaISt5arrayIdLm3EEE*  %14) nounwind, !dbg !6693
	store i64  %15, i64* %..inline.addr.6, align 8, !dbg !6693
	store i64  %15, i64* %..inline.addr.7, align 8, !dbg !6693
	%16 = load %struct._ZSt6vectorISt5arrayIdLm3EESaIS1_EE*, %struct._ZSt6vectorISt5arrayIdLm3EESaIS1_EE** %..inline.addr, align 8, !dbg !6693
	%17 = bitcast %struct._ZSt6vectorISt5arrayIdLm3EESaIS1_EE*  %16 to i8*, !dbg !6693
	%18 = bitcast %struct._ZSt6vectorISt5arrayIdLm3EESaIS1_EE** %..inline.addr.8 to i8**, !dbg !6693
	store i8*  %17, i8**  %18, align 8, !dbg !6693
	%19 = load %struct._ZSt6vectorISt5arrayIdLm3EESaIS1_EE*, %struct._ZSt6vectorISt5arrayIdLm3EESaIS1_EE** %..inline.addr.8, align 8, !dbg !6693
	%20 = bitcast %struct._ZSt6vectorISt5arrayIdLm3EESaIS1_EE*  %19 to i8*, !dbg !6693
	%21 = getelementptr i8, i8*  %20, i64 8, !dbg !6693
	%22 = bitcast i8*  %21 to i8**, !dbg !6693
	%23 = load i8*, i8**  %22, align 8, !dbg !6693
	%24 = bitcast %struct._ZSt6vectorISt5arrayIdLm3EESaIS1_EE*  %19 to i8**, !dbg !6693
	%25 = load i8*, i8**  %24, align 8, !dbg !6693
	%26 = ptrtoint i8*  %25 to i64, !dbg !6693
	%27 = sub i64 0,  %26, !dbg !6693
	%28 = getelementptr i8, i8*  %23, i64  %27, !dbg !6693
	%29 = ptrtoint i8*  %28 to i64, !dbg !6693
	%30 = sext i64 3074457345618258603 to i128, !dbg !6693
	%31 = sext i64  %29 to i128, !dbg !6693
	%32 = mul i128  %30,  %31, !dbg !6693
	%33 = ashr i128  %32, 64, !dbg !6693
	%34 = trunc i128  %33 to i64, !dbg !6693
	%35 = sext i32 2 to i64, !dbg !6693
	%36 = ashr i64  %34,  %35, !dbg !6693
	%37 = sub i64 0,  %26, !dbg !6693
	%38 = getelementptr i8, i8*  %23, i64  %37, !dbg !6693
	%39 = ptrtoint i8*  %38 to i64, !dbg !6693
	%40 = sext i32 63 to i64, !dbg !6693
	%41 = ashr i64  %39,  %40, !dbg !6693
	%42 = sub i64  %36,  %41, !dbg !6693
	store i64  %42, i64* %..inline.addr.9, align 8, !dbg !6693
	store i64  %42, i64* %..inline.addr.160, align 8, !dbg !6693
	%43 = sub i64  %15,  %42, !dbg !6693
	%44 = load i64, i64* %..inline.addr.1, align 8, !dbg !6693
	%45 = icmp uge i64  %43,  %44, !dbg !6693
	br i1  %45, label %L..inline.65659, label %L.B1325, !dbg !6693
L.B1325:
	%46 = load i8*, i8** %..inline.addr.2, align 8, !dbg !6694
	call void  @_ZSt20__throw_length_errorPKc (i8*  %46) noreturn, !dbg !6694
	br label %L..inline.65659
L..inline.65659:
	%47 = load %struct._ZSt6vectorISt5arrayIdLm3EESaIS1_EE*, %struct._ZSt6vectorISt5arrayIdLm3EESaIS1_EE** %..inline.addr, align 8, !dbg !6695
	%48 = bitcast %struct._ZSt6vectorISt5arrayIdLm3EESaIS1_EE*  %47 to i8*, !dbg !6695
	%49 = bitcast %struct._ZSt6vectorISt5arrayIdLm3EESaIS1_EE** %..inline.addr.170 to i8**, !dbg !6695
	store i8*  %48, i8**  %49, align 8, !dbg !6695
	%50 = load %struct._ZSt6vectorISt5arrayIdLm3EESaIS1_EE*, %struct._ZSt6vectorISt5arrayIdLm3EESaIS1_EE** %..inline.addr.170, align 8, !dbg !6695
	%51 = bitcast %struct._ZSt6vectorISt5arrayIdLm3EESaIS1_EE*  %50 to i8*, !dbg !6695
	%52 = getelementptr i8, i8*  %51, i64 8, !dbg !6695
	%53 = bitcast i8*  %52 to i8**, !dbg !6695
	%54 = load i8*, i8**  %53, align 8, !dbg !6695
	%55 = bitcast %struct._ZSt6vectorISt5arrayIdLm3EESaIS1_EE*  %50 to i8**, !dbg !6695
	%56 = load i8*, i8**  %55, align 8, !dbg !6695
	%57 = ptrtoint i8*  %56 to i64, !dbg !6695
	%58 = sub i64 0,  %57, !dbg !6695
	%59 = getelementptr i8, i8*  %54, i64  %58, !dbg !6695
	%60 = ptrtoint i8*  %59 to i64, !dbg !6695
	%61 = sext i64 3074457345618258603 to i128, !dbg !6695
	%62 = sext i64  %60 to i128, !dbg !6695
	%63 = mul i128  %61,  %62, !dbg !6695
	%64 = ashr i128  %63, 64, !dbg !6695
	%65 = trunc i128  %64 to i64, !dbg !6695
	%66 = sext i32 2 to i64, !dbg !6695
	%67 = ashr i64  %65,  %66, !dbg !6695
	%68 = sub i64 0,  %57, !dbg !6695
	%69 = getelementptr i8, i8*  %54, i64  %68, !dbg !6695
	%70 = ptrtoint i8*  %69 to i64, !dbg !6695
	%71 = sext i32 63 to i64, !dbg !6695
	%72 = ashr i64  %70,  %71, !dbg !6695
	%73 = sub i64  %67,  %72, !dbg !6695
	store i64  %73, i64* %..inline.addr.180, align 8, !dbg !6695
	store i64  %73, i64* %..inline.addr.190, align 8, !dbg !6695
	store i64  %73, i64* %..inline.addr.200, align 8, !dbg !6695
	%74 = bitcast %struct._ZSt6vectorISt5arrayIdLm3EESaIS1_EE** %..inline.addr.210 to i8**, !dbg !6695
	store i8*  %48, i8**  %74, align 8, !dbg !6695
	%75 = load %struct._ZSt6vectorISt5arrayIdLm3EESaIS1_EE*, %struct._ZSt6vectorISt5arrayIdLm3EESaIS1_EE** %..inline.addr.210, align 8, !dbg !6695
	%76 = bitcast %struct._ZSt6vectorISt5arrayIdLm3EESaIS1_EE*  %75 to i8*, !dbg !6695
	%77 = getelementptr i8, i8*  %76, i64 8, !dbg !6695
	%78 = bitcast i8*  %77 to i8**, !dbg !6695
	%79 = load i8*, i8**  %78, align 8, !dbg !6695
	%80 = bitcast %struct._ZSt6vectorISt5arrayIdLm3EESaIS1_EE*  %75 to i8**, !dbg !6695
	%81 = load i8*, i8**  %80, align 8, !dbg !6695
	%82 = ptrtoint i8*  %81 to i64, !dbg !6695
	%83 = sub i64 0,  %82, !dbg !6695
	%84 = getelementptr i8, i8*  %79, i64  %83, !dbg !6695
	%85 = ptrtoint i8*  %84 to i64, !dbg !6695
	%86 = sext i64 3074457345618258603 to i128, !dbg !6695
	%87 = sext i64  %85 to i128, !dbg !6695
	%88 = mul i128  %86,  %87, !dbg !6695
	%89 = ashr i128  %88, 64, !dbg !6695
	%90 = trunc i128  %89 to i64, !dbg !6695
	%91 = sext i32 2 to i64, !dbg !6695
	%92 = ashr i64  %90,  %91, !dbg !6695
	%93 = sub i64 0,  %82, !dbg !6695
	%94 = getelementptr i8, i8*  %79, i64  %93, !dbg !6695
	%95 = ptrtoint i8*  %94 to i64, !dbg !6695
	%96 = sext i32 63 to i64, !dbg !6695
	%97 = ashr i64  %95,  %96, !dbg !6695
	%98 = sub i64  %92,  %97, !dbg !6695
	store i64  %98, i64* %..inline.addr.220, align 8, !dbg !6695
	store i64  %98, i64* %..inline.addr.230, align 8, !dbg !6695
	%99 = load i64, i64* %..inline.addr.1, align 8, !dbg !6695
	%100 = icmp uge i64  %73,  %99, !dbg !6695
	br i1  %100, label %L..inline.65682, label %L.B1326, !dbg !6695
L.B1326:
	%101 = bitcast i64* %..inline.addr.1 to i8*, !dbg !6695
	%102 = bitcast i64** %..inline.addr.240 to i8**, !dbg !6695
	store i8*  %101, i8**  %102, align 8, !dbg !6695
	br label %L..inline.65684, !dbg !6695
L..inline.65682:
	%103 = bitcast i64* %..inline.addr.200 to i8*, !dbg !6695
	%104 = bitcast i64** %..inline.addr.240 to i8**, !dbg !6695
	store i8*  %103, i8**  %104, align 8, !dbg !6695
	br label %L..inline.65684
L..inline.65684:
	%105 = load i64*, i64** %..inline.addr.240, align 8, !dbg !6695
	%106 = load i64, i64*  %105, align 8, !dbg !6695
	%107 = load i64, i64* %..inline.addr.230, align 8, !dbg !6695
	%108 = add i64  %106,  %107, !dbg !6695
	store i64  %108, i64* %..inline.addr.250, align 8, !dbg !6695
	%109 = load %struct._ZSt6vectorISt5arrayIdLm3EESaIS1_EE*, %struct._ZSt6vectorISt5arrayIdLm3EESaIS1_EE** %..inline.addr, align 8, !dbg !6696
	%110 = bitcast %struct._ZSt6vectorISt5arrayIdLm3EESaIS1_EE*  %109 to i8*, !dbg !6696
	%111 = bitcast %struct._ZSt6vectorISt5arrayIdLm3EESaIS1_EE** %..inline.addr.260 to i8**, !dbg !6696
	store i8*  %110, i8**  %111, align 8, !dbg !6696
	%112 = load %struct._ZSt6vectorISt5arrayIdLm3EESaIS1_EE*, %struct._ZSt6vectorISt5arrayIdLm3EESaIS1_EE** %..inline.addr.260, align 8, !dbg !6696
	%113 = bitcast %struct._ZSt6vectorISt5arrayIdLm3EESaIS1_EE*  %112 to i8*, !dbg !6696
	%114 = getelementptr i8, i8*  %113, i64 8, !dbg !6696
	%115 = bitcast i8*  %114 to i8**, !dbg !6696
	%116 = load i8*, i8**  %115, align 8, !dbg !6696
	%117 = bitcast %struct._ZSt6vectorISt5arrayIdLm3EESaIS1_EE*  %112 to i8**, !dbg !6696
	%118 = load i8*, i8**  %117, align 8, !dbg !6696
	%119 = ptrtoint i8*  %118 to i64, !dbg !6696
	%120 = sub i64 0,  %119, !dbg !6696
	%121 = getelementptr i8, i8*  %116, i64  %120, !dbg !6696
	%122 = ptrtoint i8*  %121 to i64, !dbg !6696
	%123 = sext i64 3074457345618258603 to i128, !dbg !6696
	%124 = sext i64  %122 to i128, !dbg !6696
	%125 = mul i128  %123,  %124, !dbg !6696
	%126 = ashr i128  %125, 64, !dbg !6696
	%127 = trunc i128  %126 to i64, !dbg !6696
	%128 = sext i32 2 to i64, !dbg !6696
	%129 = ashr i64  %127,  %128, !dbg !6696
	%130 = sub i64 0,  %119, !dbg !6696
	%131 = getelementptr i8, i8*  %116, i64  %130, !dbg !6696
	%132 = ptrtoint i8*  %131 to i64, !dbg !6696
	%133 = sext i32 63 to i64, !dbg !6696
	%134 = ashr i64  %132,  %133, !dbg !6696
	%135 = sub i64  %129,  %134, !dbg !6696
	store i64  %135, i64* %..inline.addr.270, align 8, !dbg !6696
	store i64  %135, i64* %..inline.addr.280, align 8, !dbg !6696
	%136 = icmp ult i64  %108,  %135, !dbg !6696
	br i1  %136, label %L..inline.65692, label %L.B1327, !dbg !6696
L.B1327:
	%137 = load %struct._ZSt6vectorISt5arrayIdLm3EESaIS1_EE*, %struct._ZSt6vectorISt5arrayIdLm3EESaIS1_EE** %..inline.addr, align 8, !dbg !6696
	%138 = bitcast %struct._ZSt6vectorISt5arrayIdLm3EESaIS1_EE*  %137 to i8*, !dbg !6696
	%139 = bitcast %struct._ZSt6vectorISt5arrayIdLm3EESaIS1_EE** %..inline.addr.290 to i8**, !dbg !6696
	store i8*  %138, i8**  %139, align 8, !dbg !6696
	%140 = load %struct._ZSt6vectorISt5arrayIdLm3EESaIS1_EE*, %struct._ZSt6vectorISt5arrayIdLm3EESaIS1_EE** %..inline.addr.290, align 8, !dbg !6696
	%141 = bitcast %struct._ZSt6vectorISt5arrayIdLm3EESaIS1_EE*  %140 to i8*, !dbg !6696
	%142 = bitcast %struct._ZSt12_Vector_baseISt5arrayIdLm3EESaIS1_EE** %..inline.addr.300 to i8**, !dbg !6696
	store i8*  %141, i8**  %142, align 8, !dbg !6696
	%143 = load %struct._ZSt12_Vector_baseISt5arrayIdLm3EESaIS1_EE*, %struct._ZSt12_Vector_baseISt5arrayIdLm3EESaIS1_EE** %..inline.addr.300, align 8, !dbg !6696
	%144 = bitcast %struct._ZSt12_Vector_baseISt5arrayIdLm3EESaIS1_EE*  %143 to i8*, !dbg !6696
	%145 = bitcast %struct._ZSaISt5arrayIdLm3EEE** %..inline.addr.310 to i8**, !dbg !6696
	store i8*  %144, i8**  %145, align 8, !dbg !6696
	%146 = load %struct._ZSaISt5arrayIdLm3EEE*, %struct._ZSaISt5arrayIdLm3EEE** %..inline.addr.310, align 8, !dbg !6696
	%147 = call i64  @_ZNSt6vectorISt5arrayIdLm3EESaIS1_EE11_S_max_sizeERKS2_ (%struct._ZSaISt5arrayIdLm3EEE*  %146) nounwind, !dbg !6696
	store i64  %147, i64* %..inline.addr.320, align 8, !dbg !6696
	store i64  %147, i64* %..inline.addr.330, align 8, !dbg !6696
	%148 = load i64, i64* %..inline.addr.250, align 8, !dbg !6696
	%149 = icmp ule i64  %148,  %147, !dbg !6696
	br i1  %149, label %L..inline.65707, label %L.B1328, !dbg !6696
L.B1328:
	br label %L..inline.65692
L..inline.65692:
	%150 = load %struct._ZSt6vectorISt5arrayIdLm3EESaIS1_EE*, %struct._ZSt6vectorISt5arrayIdLm3EESaIS1_EE** %..inline.addr, align 8, !dbg !6696
	%151 = bitcast %struct._ZSt6vectorISt5arrayIdLm3EESaIS1_EE*  %150 to i8*, !dbg !6696
	%152 = bitcast %struct._ZSt6vectorISt5arrayIdLm3EESaIS1_EE** %..inline.addr.340 to i8**, !dbg !6696
	store i8*  %151, i8**  %152, align 8, !dbg !6696
	%153 = load %struct._ZSt6vectorISt5arrayIdLm3EESaIS1_EE*, %struct._ZSt6vectorISt5arrayIdLm3EESaIS1_EE** %..inline.addr.340, align 8, !dbg !6696
	%154 = bitcast %struct._ZSt6vectorISt5arrayIdLm3EESaIS1_EE*  %153 to i8*, !dbg !6696
	%155 = bitcast %struct._ZSt12_Vector_baseISt5arrayIdLm3EESaIS1_EE** %..inline.addr.350 to i8**, !dbg !6696
	store i8*  %154, i8**  %155, align 8, !dbg !6696
	%156 = load %struct._ZSt12_Vector_baseISt5arrayIdLm3EESaIS1_EE*, %struct._ZSt12_Vector_baseISt5arrayIdLm3EESaIS1_EE** %..inline.addr.350, align 8, !dbg !6696
	%157 = bitcast %struct._ZSt12_Vector_baseISt5arrayIdLm3EESaIS1_EE*  %156 to i8*, !dbg !6696
	%158 = bitcast %struct._ZSaISt5arrayIdLm3EEE** %..inline.addr.360 to i8**, !dbg !6696
	store i8*  %157, i8**  %158, align 8, !dbg !6696
	%159 = load %struct._ZSaISt5arrayIdLm3EEE*, %struct._ZSaISt5arrayIdLm3EEE** %..inline.addr.360, align 8, !dbg !6696
	%160 = call i64  @_ZNSt6vectorISt5arrayIdLm3EESaIS1_EE11_S_max_sizeERKS2_ (%struct._ZSaISt5arrayIdLm3EEE*  %159) nounwind, !dbg !6696
	store i64  %160, i64* %..inline.addr.370, align 8, !dbg !6696
	store i64  %160, i64* %..inline.addr.380, align 8, !dbg !6696
	store i64  %160, i64* %..inline.addr.390, align 8, !dbg !6696
	br label %L..inline.65723, !dbg !6696
L..inline.65707:
	%161 = load i64, i64* %..inline.addr.250, align 8, !dbg !6696
	store i64  %161, i64* %..inline.addr.390, align 8, !dbg !6696
	br label %L..inline.65723
L..inline.65723:
	%162 = load i64, i64* %..inline.addr.390, align 8, !dbg !6696
	store i64  %162, i64* %..inline.addr.400, align 8, !dbg !6696
	call void @llvm.dbg.declare (metadata i64* %__len.addr, metadata !6698, metadata !3652), !dbg !6421
	store i64  %162, i64* %__len.addr, align 8, !dbg !6697
	%163 = load %struct._ZSt6vectorISt5arrayIdLm3EESaIS1_EE*, %struct._ZSt6vectorISt5arrayIdLm3EESaIS1_EE** %_T32778736_48949.addr, align 8, !dbg !6699
	%164 = bitcast %struct._ZSt6vectorISt5arrayIdLm3EESaIS1_EE*  %163 to i8**, !dbg !6699
	%165 = load i8*, i8**  %164, align 8, !dbg !6699
	call void @llvm.dbg.declare (metadata %struct._ZSt5arrayIdLm3EE** %__old_start.addr, metadata !6700, metadata !3652), !dbg !6421
	%166 = bitcast %struct._ZSt5arrayIdLm3EE** %__old_start.addr to i8**, !dbg !6699
	store i8*  %165, i8**  %166, align 8, !dbg !6699
	%167 = load %struct._ZSt6vectorISt5arrayIdLm3EESaIS1_EE*, %struct._ZSt6vectorISt5arrayIdLm3EESaIS1_EE** %_T32778736_48949.addr, align 8, !dbg !6701
	%168 = bitcast %struct._ZSt6vectorISt5arrayIdLm3EESaIS1_EE*  %167 to i8*, !dbg !6701
	%169 = getelementptr i8, i8*  %168, i64 8, !dbg !6701
	%170 = bitcast i8*  %169 to i8**, !dbg !6701
	%171 = load i8*, i8**  %170, align 8, !dbg !6701
	call void @llvm.dbg.declare (metadata %struct._ZSt5arrayIdLm3EE** %__old_finish.addr, metadata !6702, metadata !3652), !dbg !6421
	%172 = bitcast %struct._ZSt5arrayIdLm3EE** %__old_finish.addr to i8**, !dbg !6701
	store i8*  %171, i8**  %172, align 8, !dbg !6701
	%173 = load %struct._ZSt6vectorISt5arrayIdLm3EESaIS1_EE*, %struct._ZSt6vectorISt5arrayIdLm3EESaIS1_EE** %_T32778736_48949.addr, align 8, !dbg !6703
	%174 = bitcast %struct._ZSt6vectorISt5arrayIdLm3EESaIS1_EE*  %173 to i8*, !dbg !6703
	%175 = bitcast %struct._ZSt6vectorISt5arrayIdLm3EESaIS1_EE** %..inline.addr.440 to i8**, !dbg !6703
	store i8*  %174, i8**  %175, align 8, !dbg !6703
	%176 = load %struct._ZSt6vectorISt5arrayIdLm3EESaIS1_EE*, %struct._ZSt6vectorISt5arrayIdLm3EESaIS1_EE** %..inline.addr.440, align 8, !dbg !6704
	%177 = bitcast %struct._ZSt6vectorISt5arrayIdLm3EESaIS1_EE*  %176 to i8*, !dbg !6704
	%178 = bitcast %struct._ZSt5arrayIdLm3EE*** %..inline.addr.450 to i8**, !dbg !6704
	store i8*  %177, i8**  %178, align 8, !dbg !6704
	%179 = load %struct._ZSt5arrayIdLm3EE**, %struct._ZSt5arrayIdLm3EE*** %..inline.addr.450, align 8, !dbg !6704
	%180 = bitcast %struct._ZSt5arrayIdLm3EE**  %179 to i8**, !dbg !6704
	%181 = load i8*, i8**  %180, align 8, !dbg !6704
	%182 = bitcast %struct._ZN9__gnu_cxx17__normal_iteratorIPSt5arrayIdLm3EESt6vectorIS2_SaIS2_EEEE* %..inline.addr.460 to i8**, !dbg !6704
	store i8*  %181, i8**  %182, align 8, !dbg !6704
	%183 = bitcast %struct._ZN9__gnu_cxx17__normal_iteratorIPSt5arrayIdLm3EESt6vectorIS2_SaIS2_EEEE* %..inline.addr.470 to i8**, !dbg !6704
	store i8*  %181, i8**  %183, align 8, !dbg !6704
	%184 = bitcast %struct._ZN9__gnu_cxx17__normal_iteratorIPSt5arrayIdLm3EESt6vectorIS2_SaIS2_EEEE* %_T32781400_48949.addr to i8**, !dbg !6704
	store i8*  %181, i8**  %184, align 8, !dbg !6704
	%185 = bitcast %struct._ZN9__gnu_cxx17__normal_iteratorIPSt5arrayIdLm3EESt6vectorIS2_SaIS2_EEEE* %__position.addr to i8*, !dbg !6705
	%186 = bitcast %struct._ZN9__gnu_cxx17__normal_iteratorIPSt5arrayIdLm3EESt6vectorIS2_SaIS2_EEEE** %..inline.addr.490 to i8**, !dbg !6705
	store i8*  %185, i8**  %186, align 8, !dbg !6705
	%187 = bitcast %struct._ZN9__gnu_cxx17__normal_iteratorIPSt5arrayIdLm3EESt6vectorIS2_SaIS2_EEEE* %_T32781400_48949.addr to i8*, !dbg !6705
	%188 = bitcast %struct._ZN9__gnu_cxx17__normal_iteratorIPSt5arrayIdLm3EESt6vectorIS2_SaIS2_EEEE** %..inline.addr.500 to i8**, !dbg !6705
	store i8*  %187, i8**  %188, align 8, !dbg !6705
	%189 = load %struct._ZN9__gnu_cxx17__normal_iteratorIPSt5arrayIdLm3EESt6vectorIS2_SaIS2_EEEE*, %struct._ZN9__gnu_cxx17__normal_iteratorIPSt5arrayIdLm3EESt6vectorIS2_SaIS2_EEEE** %..inline.addr.490, align 8, !dbg !6705
	%190 = bitcast %struct._ZN9__gnu_cxx17__normal_iteratorIPSt5arrayIdLm3EESt6vectorIS2_SaIS2_EEEE*  %189 to i8**, !dbg !6705
	%191 = load i8*, i8**  %190, align 8, !dbg !6705
	%192 = load %struct._ZN9__gnu_cxx17__normal_iteratorIPSt5arrayIdLm3EESt6vectorIS2_SaIS2_EEEE*, %struct._ZN9__gnu_cxx17__normal_iteratorIPSt5arrayIdLm3EESt6vectorIS2_SaIS2_EEEE** %..inline.addr.500, align 8, !dbg !6705
	%193 = bitcast %struct._ZN9__gnu_cxx17__normal_iteratorIPSt5arrayIdLm3EESt6vectorIS2_SaIS2_EEEE*  %192 to i8**, !dbg !6705
	%194 = load i8*, i8**  %193, align 8, !dbg !6705
	%195 = ptrtoint i8*  %194 to i64, !dbg !6705
	%196 = sub i64 0,  %195, !dbg !6705
	%197 = getelementptr i8, i8*  %191, i64  %196, !dbg !6705
	%198 = ptrtoint i8*  %197 to i64, !dbg !6705
	%199 = sext i64 3074457345618258603 to i128, !dbg !6705
	%200 = sext i64  %198 to i128, !dbg !6705
	%201 = mul i128  %199,  %200, !dbg !6705
	%202 = ashr i128  %201, 64, !dbg !6705
	%203 = trunc i128  %202 to i64, !dbg !6705
	%204 = sext i32 2 to i64, !dbg !6705
	%205 = ashr i64  %203,  %204, !dbg !6705
	%206 = sub i64 0,  %195, !dbg !6705
	%207 = getelementptr i8, i8*  %191, i64  %206, !dbg !6705
	%208 = ptrtoint i8*  %207 to i64, !dbg !6705
	%209 = sext i32 63 to i64, !dbg !6705
	%210 = ashr i64  %208,  %209, !dbg !6705
	%211 = sub i64  %205,  %210, !dbg !6705
	store i64  %211, i64* %..inline.addr.510, align 8, !dbg !6705
	store i64  %211, i64* %..inline.addr.520, align 8, !dbg !6705
	call void @llvm.dbg.declare (metadata i64* %__elems_before.addr, metadata !6706, metadata !3652), !dbg !6421
	store i64  %211, i64* %__elems_before.addr, align 8, !dbg !6705
	%212 = load %struct._ZSt6vectorISt5arrayIdLm3EESaIS1_EE*, %struct._ZSt6vectorISt5arrayIdLm3EESaIS1_EE** %_T32778736_48949.addr, align 8, !dbg !6707
	%213 = bitcast %struct._ZSt6vectorISt5arrayIdLm3EESaIS1_EE*  %212 to i8*, !dbg !6707
	%214 = bitcast %struct._ZSt12_Vector_baseISt5arrayIdLm3EESaIS1_EE** %..inline.addr.540 to i8**, !dbg !6707
	store i8*  %213, i8**  %214, align 8, !dbg !6707
	%215 = load i64, i64* %__len.addr, align 8, !dbg !6707
