; ModuleID = 'projects/test_trans/test_trans.cpp'
target datalayout = "e-p:64:64-i64:64-f80:128-n8:16:32:64-S128"
target triple = "x86_64-pc-linux-gnu"
define internal void @pgCplus_compiled.() noinline {
L.entry:
	ret void
}

%struct.T3DFunction = type <{ i32 (...)* (...)*}> 



define linkonce_odr void @_ZN11T3DFunctionD1Ev(%struct.T3DFunction* %_T44708872_52324.arg) #0 inlinehint !dbg !3837 {
L.entry:
	%_T44708872_52324.addr = alloca %struct.T3DFunction*, align 8

	call void @llvm.dbg.declare (metadata %struct.T3DFunction** %_T44708872_52324.addr, metadata !3841, metadata !3842), !dbg !3838
	store %struct.T3DFunction* %_T44708872_52324.arg, %struct.T3DFunction** %_T44708872_52324.addr, align 8, !tbaa !3850
	call void @llvm.dbg.declare (metadata %struct.T3DFunction** %_T44708872_52324.addr, metadata !3843, metadata !3842), !dbg !3838
	%0 = bitcast [5 x i32 (...)* (...)*]* @_ZTV11T3DFunction to i8*, !dbg !3844
	%1 = getelementptr i8, i8*  %0, i64 16, !dbg !3844
	%2 = load %struct.T3DFunction*, %struct.T3DFunction** %_T44708872_52324.addr, align 8, !tbaa !3850, !dbg !3844
	%3 = bitcast %struct.T3DFunction*  %2 to i8**, !dbg !3844
	store i8*  %1, i8**  %3, align 8, !tbaa !3850, !dbg !3844
	ret void, !dbg !3844
}
define linkonce_odr void @_ZN11T3DFunctionD0Ev(%struct.T3DFunction* %_T44708872_52325.arg) #0 inlinehint !dbg !3852 {
L.entry:
	%_T44708872_52325.addr = alloca %struct.T3DFunction*, align 8

	store %struct.T3DFunction* %_T44708872_52325.arg, %struct.T3DFunction** %_T44708872_52325.addr, align 8, !tbaa !3850
	%0 = bitcast [5 x i32 (...)* (...)*]* @_ZTV11T3DFunction to i8*, !dbg !3860
	%1 = getelementptr i8, i8*  %0, i64 16, !dbg !3860
	%2 = load %struct.T3DFunction*, %struct.T3DFunction** %_T44708872_52325.addr, align 8, !tbaa !3850, !dbg !3860
	%3 = bitcast %struct.T3DFunction*  %2 to i8**, !dbg !3860
	store i8*  %1, i8**  %3, align 8, !tbaa !3850, !dbg !3860
	%4 = bitcast %struct.T3DFunction*  %2 to i8*, !dbg !3860
	call void  @_ZdlPvm (i8*  %4, i64 8) nounwind, !dbg !3860
	ret void, !dbg !3860
}
define linkonce_odr void @_ZN11T3DFunctionD2Ev(%struct.T3DFunction* %_T44708872_52326.arg) #0 inlinehint !dbg !3862 {
L.entry:
	%_T44708872_52326.addr = alloca %struct.T3DFunction*, align 8

	store %struct.T3DFunction* %_T44708872_52326.arg, %struct.T3DFunction** %_T44708872_52326.addr, align 8, !tbaa !3850
	%0 = bitcast [5 x i32 (...)* (...)*]* @_ZTV11T3DFunction to i8*, !dbg !3870
	%1 = getelementptr i8, i8*  %0, i64 16, !dbg !3870
	%2 = load %struct.T3DFunction*, %struct.T3DFunction** %_T44708872_52326.addr, align 8, !tbaa !3850, !dbg !3870
	%3 = bitcast %struct.T3DFunction*  %2 to i8**, !dbg !3870
	store i8*  %1, i8**  %3, align 8, !tbaa !3850, !dbg !3870
	ret void, !dbg !3870
}
define linkonce_odr void @_ZN11T3DFunctionC1Ev(%struct.T3DFunction* %_T44708872_52327.arg) #0 inlinehint !dbg !3872 {
L.entry:
	%_T44708872_52327.addr = alloca %struct.T3DFunction*, align 8

	call void @llvm.dbg.declare (metadata %struct.T3DFunction** %_T44708872_52327.addr, metadata !3876, metadata !3842), !dbg !3873
	store %struct.T3DFunction* %_T44708872_52327.arg, %struct.T3DFunction** %_T44708872_52327.addr, align 8, !tbaa !3850
	call void @llvm.dbg.declare (metadata %struct.T3DFunction** %_T44708872_52327.addr, metadata !3877, metadata !3842), !dbg !3873
	%0 = bitcast [5 x i32 (...)* (...)*]* @_ZTV11T3DFunction to i8*, !dbg !3878
	%1 = getelementptr i8, i8*  %0, i64 16, !dbg !3878
	%2 = load %struct.T3DFunction*, %struct.T3DFunction** %_T44708872_52327.addr, align 8, !tbaa !3850, !dbg !3878
	%3 = bitcast %struct.T3DFunction*  %2 to i8**, !dbg !3878
	store i8*  %1, i8**  %3, align 8, !tbaa !3850, !dbg !3878
	ret void, !dbg !3878
}
define linkonce_odr void @_ZN11T3DFunctionC2Ev(%struct.T3DFunction* %_T44708872_52328.arg) #0 inlinehint !dbg !3880 {
L.entry:
	%_T44708872_52328.addr = alloca %struct.T3DFunction*, align 8

	store %struct.T3DFunction* %_T44708872_52328.arg, %struct.T3DFunction** %_T44708872_52328.addr, align 8, !tbaa !3850
	%0 = bitcast [5 x i32 (...)* (...)*]* @_ZTV11T3DFunction to i8*, !dbg !3888
	%1 = getelementptr i8, i8*  %0, i64 16, !dbg !3888
	%2 = load %struct.T3DFunction*, %struct.T3DFunction** %_T44708872_52328.addr, align 8, !tbaa !3850, !dbg !3888
	%3 = bitcast %struct.T3DFunction*  %2 to i8**, !dbg !3888
	store i8*  %1, i8**  %3, align 8, !tbaa !3850, !dbg !3888
	ret void, !dbg !3888
}

%astruct.dt64 = type <{ i8*, i32}> 
%struct.FieldFunction = type <{ %struct.T3DFunction, i32, i32, i32, [4 x i8]}> 

define linkonce_odr void @_ZN13FieldFunctionC1Ev(%struct.FieldFunction* %_T44708872_52329.arg) #0 inlinehint personality i8* bitcast (i32 (...)* @__gxx_personality_v0 to i8*) !dbg !3895 {
L.entry:
	%_T44708872_52329.addr = alloca %struct.FieldFunction*, align 8

	call void @llvm.dbg.declare (metadata %struct.FieldFunction** %_T44708872_52329.addr, metadata !3951, metadata !3842), !dbg !3896
	store %struct.FieldFunction* %_T44708872_52329.arg, %struct.FieldFunction** %_T44708872_52329.addr, align 8, !tbaa !3850
	call void @llvm.dbg.declare (metadata %struct.FieldFunction** %_T44708872_52329.addr, metadata !3952, metadata !3842), !dbg !3896
	%0 = bitcast [5 x i32 (...)* (...)*]* @_ZTV11T3DFunction to i8*, !dbg !3953
	%1 = getelementptr i8, i8*  %0, i64 16, !dbg !3953
	%2 = load %struct.FieldFunction*, %struct.FieldFunction** %_T44708872_52329.addr, align 8, !tbaa !3850, !dbg !3953
	%3 = bitcast %struct.FieldFunction*  %2 to i8**, !dbg !3953
	store i8*  %1, i8**  %3, align 8, !tbaa !3850, !dbg !3953
	%4 = bitcast [5 x i32 (...)* (...)*]* @_ZTV13FieldFunction to i8*, !dbg !3953
	%5 = getelementptr i8, i8*  %4, i64 16, !dbg !3953
	store i8*  %5, i8**  %3, align 8, !tbaa !3850, !dbg !3953
	%6 = bitcast %struct.FieldFunction*  %2 to i8*, !dbg !3956
	%7 = getelementptr i8, i8*  %6, i64 8, !dbg !3956
	%8 = bitcast i8*  %7 to i32*, !dbg !3956
	store i32 0, i32*  %8, align 4, !tbaa !3960, !dbg !3956
	%9 = getelementptr i8, i8*  %6, i64 12, !dbg !3957
	%10 = bitcast i8*  %9 to i32*, !dbg !3957
	store i32 0, i32*  %10, align 4, !tbaa !3960, !dbg !3957
	%11 = getelementptr i8, i8*  %6, i64 16, !dbg !3958
	%12 = bitcast i8*  %11 to i32*, !dbg !3958
	store i32 0, i32*  %12, align 4, !tbaa !3960, !dbg !3958
	br label %L.R0005, !dbg !3958
L_T44709760_52329:
	%13 = landingpad %astruct.dt64
	cleanup
	br label %L.R0005
L.R0005:
	ret void, !dbg !3959
}
define linkonce_odr void @_ZN13FieldFunctionC2Ev(%struct.FieldFunction* %_T44708872_52330.arg) #0 inlinehint !dbg !3962 {
L.entry:
	%_T44708872_52330.addr = alloca %struct.FieldFunction*, align 8

	store %struct.FieldFunction* %_T44708872_52330.arg, %struct.FieldFunction** %_T44708872_52330.addr, align 8, !tbaa !3850
	%0 = load %struct.FieldFunction*, %struct.FieldFunction** %_T44708872_52330.addr, align 8, !tbaa !3850, !dbg !3966
	call void  @_ZN13FieldFunctionC1Ev (%struct.FieldFunction*  %0), !dbg !3966
	ret void, !dbg !3966
}
define linkonce_odr void @_ZN13FieldFunction12setComponentE10coordinate(%struct.FieldFunction* %_T44708872_52331.arg, i32 zeroext %fComponent.arg) #0 inlinehint !dbg !3970 {
L.entry:
	%_T44708872_52331.addr = alloca %struct.FieldFunction*, align 8
	%fComponent.addr = alloca i32, align 4

	call void @llvm.dbg.declare (metadata %struct.FieldFunction** %_T44708872_52331.addr, metadata !3974, metadata !3842), !dbg !3971
	store %struct.FieldFunction* %_T44708872_52331.arg, %struct.FieldFunction** %_T44708872_52331.addr, align 8, !tbaa !3850
	call void @llvm.dbg.declare (metadata %struct.FieldFunction** %_T44708872_52331.addr, metadata !3975, metadata !3842), !dbg !3971
	call void @llvm.dbg.declare (metadata i32* %fComponent.addr, metadata !3976, metadata !3842), !dbg !3971
	store i32 %fComponent.arg, i32* %fComponent.addr, align 4, !tbaa !3960
	call void @llvm.dbg.declare (metadata i32* %fComponent.addr, metadata !3977, metadata !3842), !dbg !3971
	%0 = load i32, i32* %fComponent.addr, align 4, !tbaa !3960, !dbg !3978
	%1 = load %struct.FieldFunction*, %struct.FieldFunction** %_T44708872_52331.addr, align 8, !tbaa !3850, !dbg !3978
	%2 = bitcast %struct.FieldFunction*  %1 to i8*, !dbg !3978
	%3 = getelementptr i8, i8*  %2, i64 8, !dbg !3978
	%4 = bitcast i8*  %3 to i32*, !dbg !3978
	store i32  %0, i32*  %4, align 4, !tbaa !3960, !dbg !3978
	ret void, !dbg !3978
}
define linkonce_odr void @_ZN13FieldFunction17setDerivComponentE10coordinate(%struct.FieldFunction* %_T44708872_52332.arg, i32 zeroext %dComponent.arg) #0 inlinehint !dbg !3980 {
L.entry:
	%_T44708872_52332.addr = alloca %struct.FieldFunction*, align 8
	%dComponent.addr = alloca i32, align 4

	call void @llvm.dbg.declare (metadata %struct.FieldFunction** %_T44708872_52332.addr, metadata !3984, metadata !3842), !dbg !3981
	store %struct.FieldFunction* %_T44708872_52332.arg, %struct.FieldFunction** %_T44708872_52332.addr, align 8, !tbaa !3850
	call void @llvm.dbg.declare (metadata %struct.FieldFunction** %_T44708872_52332.addr, metadata !3985, metadata !3842), !dbg !3981
	call void @llvm.dbg.declare (metadata i32* %dComponent.addr, metadata !3986, metadata !3842), !dbg !3981
	store i32 %dComponent.arg, i32* %dComponent.addr, align 4, !tbaa !3960
	call void @llvm.dbg.declare (metadata i32* %dComponent.addr, metadata !3987, metadata !3842), !dbg !3981
	%0 = load i32, i32* %dComponent.addr, align 4, !tbaa !3960, !dbg !3988
	%1 = load %struct.FieldFunction*, %struct.FieldFunction** %_T44708872_52332.addr, align 8, !tbaa !3850, !dbg !3988
	%2 = bitcast %struct.FieldFunction*  %1 to i8*, !dbg !3988
	%3 = getelementptr i8, i8*  %2, i64 12, !dbg !3988
	%4 = bitcast i8*  %3 to i32*, !dbg !3988
	store i32  %0, i32*  %4, align 4, !tbaa !3960, !dbg !3988
	ret void, !dbg !3988
}

%struct._ZSt7num_getIcSt19istreambuf_iteratorIcSt11char_traitsIcEEE = type <{ %struct.__SO__NSt6locale5facetE, [4 x i8]}> 
%struct._ZSt5ctypeIcE = type <{ %struct.__SO__NSt6locale5facetE, [4 x i8], %struct.__locale_struct*, i8, [7 x i8], i32*, i32*, i16*, i8, [256 x i8], [256 x i8], i8, [6 x i8]}> 
%struct.__locale_data = type opaque
%struct._ZSt6locale = type <{ %struct._ZNSt6locale5_ImplE*}> 
%struct.__SO__NSt6locale5facetE = type <{ i32 (...)* (...)*, i32}> 
%struct._ZNSt8ios_base14_Callback_listE = type <{ %struct._ZNSt8ios_base14_Callback_listE*, void (i32, %struct._ZSt8ios_base*, i32)*, i32, i32}> 
%struct._ZSo = type <{ i32 (...)* (...)*, %struct._ZSt9basic_iosIcSt11char_traitsIcEE}> 
%struct.__locale_struct = type <{ [13 x %struct.__locale_data*], i16*, i32*, i32*, [13 x i8*]}> 
%struct._ZNSt6locale5_ImplE = type <{ i32, [4 x i8], %struct._ZNSt6locale5facetE**, i64, %struct._ZNSt6locale5facetE**, i8**}> 
%struct._ZSt8ios_base = type <{ i32 (...)* (...)*, i64, i64, i32, i32, i32, [4 x i8], %struct._ZNSt8ios_base14_Callback_listE*, %struct._ZNSt8ios_base6_WordsE, [8 x %struct._ZNSt8ios_base6_WordsE], i32, [4 x i8], %struct._ZNSt8ios_base6_WordsE*, %struct._ZSt6locale}> 
%struct._ZSt15basic_streambufIcSt11char_traitsIcEE = type <{ i32 (...)* (...)*, i8*, i8*, i8*, i8*, i8*, i8*, %struct._ZSt6locale}> 
%struct._ZSt9basic_iosIcSt11char_traitsIcEE = type <{ %struct._ZSt8ios_base, %struct._ZSo*, i8, i8, [6 x i8], %struct._ZSt15basic_streambufIcSt11char_traitsIcEE*, %struct._ZSt5ctypeIcE*, %struct._ZSt7num_putIcSt19ostreambuf_iteratorIcSt11char_traitsIcEEE*, %struct._ZSt7num_getIcSt19istreambuf_iteratorIcSt11char_traitsIcEEE*}> 
%struct._ZSt7num_putIcSt19ostreambuf_iteratorIcSt11char_traitsIcEEE = type <{ %struct.__SO__NSt6locale5facetE, [4 x i8]}> 
%struct._ZNSt6locale5facetE = type <{ i32 (...)* (...)*, i32, [4 x i8]}> 
%struct._ZNSt8ios_base6_WordsE = type <{ i8*, i64}> 

define linkonce_odr void @_ZN13FieldFunction13setDerivativeEj(%struct.FieldFunction* %_T44709056_52333.arg, i32 zeroext %derivative.arg) #0 inlinehint !dbg !3992 {
L.entry:
	%_T44709056_52333.addr = alloca %struct.FieldFunction*, align 8
	%derivative.addr = alloca i32, align 4
	%..inline.addr = alloca %struct._ZSt9basic_iosIcSt11char_traitsIcEE*, align 8
	%..inline.addr.1 = alloca %struct._ZSt9basic_iosIcSt11char_traitsIcEE*, align 8
	%..inline.addr.2 = alloca i32, align 4
	%..inline.addr.3 = alloca i64, align 8
	%.Q0003.addr = alloca %struct._ZSo*, align 8
	%..inline.addr.4 = alloca i32, align 4
	%.Q0004.addr = alloca %struct._ZSo*, align 8
	%..inline.addr.5 = alloca %struct._ZSo*, align 8
	%.Q0005.addr = alloca %struct._ZSo*, align 8

	call void @llvm.dbg.declare (metadata %struct.FieldFunction** %_T44709056_52333.addr, metadata !4024, metadata !3842), !dbg !3993
	store %struct.FieldFunction* %_T44709056_52333.arg, %struct.FieldFunction** %_T44709056_52333.addr, align 8, !tbaa !3850
	call void @llvm.dbg.declare (metadata %struct.FieldFunction** %_T44709056_52333.addr, metadata !4025, metadata !3842), !dbg !3993
	call void @llvm.dbg.declare (metadata i32* %derivative.addr, metadata !4026, metadata !3842), !dbg !3993
	store i32 %derivative.arg, i32* %derivative.addr, align 4, !tbaa !3960
	call void @llvm.dbg.declare (metadata i32* %derivative.addr, metadata !4027, metadata !3842), !dbg !3993
	%0 = load i32, i32* %derivative.addr, align 4, !tbaa !4041, !dbg !4028
	%1 = load %struct.FieldFunction*, %struct.FieldFunction** %_T44709056_52333.addr, align 8, !tbaa !3850, !dbg !4028
	%2 = bitcast %struct.FieldFunction*  %1 to i8*, !dbg !4028
	%3 = getelementptr i8, i8*  %2, i64 16, !dbg !4028
	%4 = bitcast i8*  %3 to i32*, !dbg !4028
	store i32  %0, i32*  %4, align 4, !tbaa !3960, !dbg !4028
	%5 = icmp ule i32  %0, 1, !dbg !4029
	br i1  %5, label %L.B0000, label %L.B0001, !dbg !4029
L.B0001:
	%6 = bitcast [36 x i8]* @.S53631 to i8*, !dbg !4030
	%7 = icmp ne i8*  %6,  null, !dbg !4030
	br i1  %7, label %L..inline.63588, label %L.B0834, !dbg !4030
L.B0834:
	%8 = bitcast %struct._ZSo* @_ZSt4cerr to i8*, !dbg !4031
	%9 = bitcast %struct._ZSo* @_ZSt4cerr to i8**, !dbg !4031
	%10 = load i8*, i8**  %9, align 8, !tbaa !3850, !dbg !4031
	%11 = getelementptr i8, i8*  %10, i64 18446744073709551592, !dbg !4031
	%12 = bitcast i8*  %11 to i64*, !dbg !4031
	%13 = load i64, i64*  %12, align 8, !tbaa !3960, !dbg !4031
	%14 = getelementptr i8, i8*  %8, i64  %13, !dbg !4031
	%15 = bitcast %struct._ZSt9basic_iosIcSt11char_traitsIcEE** %..inline.addr to i8**, !dbg !4031
	store i8*  %14, i8**  %15, align 8, !tbaa !3850, !dbg !4031
	%16 = load %struct._ZSt9basic_iosIcSt11char_traitsIcEE*, %struct._ZSt9basic_iosIcSt11char_traitsIcEE** %..inline.addr, align 8, !tbaa !3850, !dbg !4031
	%17 = bitcast %struct._ZSt9basic_iosIcSt11char_traitsIcEE*  %16 to i8*, !dbg !4031
	%18 = bitcast %struct._ZSt9basic_iosIcSt11char_traitsIcEE** %..inline.addr.1 to i8**, !dbg !4031
	store i8*  %17, i8**  %18, align 8, !tbaa !3850, !dbg !4031
	%19 = load %struct._ZSt9basic_iosIcSt11char_traitsIcEE*, %struct._ZSt9basic_iosIcSt11char_traitsIcEE** %..inline.addr.1, align 8, !tbaa !3850, !dbg !4031
	%20 = bitcast %struct._ZSt9basic_iosIcSt11char_traitsIcEE*  %19 to i8*, !dbg !4031
	%21 = getelementptr i8, i8*  %20, i64 32, !dbg !4031
	%22 = bitcast i8*  %21 to i32*, !dbg !4031
	%23 = load i32, i32*  %22, align 4, !tbaa !3960, !dbg !4031
	%24 = or i32  %23, 1, !dbg !4031
	call void  @_ZNSt9basic_iosIcSt11char_traitsIcEE5clearESt12_Ios_Iostate (%struct._ZSt9basic_iosIcSt11char_traitsIcEE*  %16, i32  %24), !dbg !4031
	br label %L..inline.63609, !dbg !4031
L..inline.63588:
	%25 = bitcast [36 x i8]* @.S53631 to i8*, !dbg !4034
	%26 = call i64  @strlen (i8*  %25) nounwind, !dbg !4034
	%27 = call %struct._ZSo*  @_ZSt16__ostream_insertIcSt11char_traitsIcEERSt13basic_ostreamIT_T0_ES6_PKS3_l (%struct._ZSo* @_ZSt4cerr, i8*  %25, i64  %26), !dbg !4034
	%28 = bitcast %struct._ZSo*  %27 to i8*, !dbg !4034
	%29 = bitcast %struct._ZSo** %.Q0003.addr to i8**, !dbg !4034
	store i8*  %28, i8**  %29, align 8, !tbaa !3850, !dbg !4034
	br label %L..inline.63609
L..inline.63609:
	%30 = load i32, i32* %derivative.addr, align 4, !tbaa !4041, !dbg !4035
	%31 = zext i32  %30 to i64, !dbg !4036
	%32 = call %struct._ZSo*  @_ZNSo9_M_insertImEERSoT_ (%struct._ZSo* @_ZSt4cerr, i64  %31), !dbg !4036
	%33 = bitcast %struct._ZSo*  %32 to i8*, !dbg !4036
	%34 = bitcast %struct._ZSo** %.Q0004.addr to i8**, !dbg !4036
	store i8*  %33, i8**  %34, align 8, !tbaa !3850, !dbg !4036
	%35 = load %struct._ZSo*, %struct._ZSo** %.Q0004.addr, align 8, !tbaa !3850, !dbg !4036
	%36 = bitcast %struct._ZSo*  %35 to i8*, !dbg !4036
	%37 = bitcast %struct._ZSo** %..inline.addr.5 to i8**, !dbg !4036
	store i8*  %36, i8**  %37, align 8, !tbaa !3850, !dbg !4036
	%38 = load %struct._ZSo*, %struct._ZSo** %..inline.addr.5, align 8, !tbaa !3850, !dbg !4037
	%39 = call %struct._ZSo*  @_ZSt4endlIcSt11char_traitsIcEERSt13basic_ostreamIT_T0_ES6_ (%struct._ZSo*  %38), !dbg !4037
	%40 = bitcast %struct._ZSo*  %39 to i8*, !dbg !4037
	%41 = bitcast %struct._ZSo** %.Q0005.addr to i8**, !dbg !4037
	store i8*  %40, i8**  %41, align 8, !tbaa !3850, !dbg !4037
	call void  @exit (i32 1) nounwind noreturn, !dbg !4038
	br label %L.B0002
L.B0002:
	br label %L.B0000
L.B0000:
	ret void, !dbg !4039
}
define linkonce_odr void @_ZN13FieldFunctionD1Ev(%struct.FieldFunction* %_T44708872_52334.arg) #0 inlinehint !dbg !4043 {
L.entry:
	%_T44708872_52334.addr = alloca %struct.FieldFunction*, align 8

	call void @llvm.dbg.declare (metadata %struct.FieldFunction** %_T44708872_52334.addr, metadata !4055, metadata !3842), !dbg !4044
	store %struct.FieldFunction* %_T44708872_52334.arg, %struct.FieldFunction** %_T44708872_52334.addr, align 8, !tbaa !3850
	call void @llvm.dbg.declare (metadata %struct.FieldFunction** %_T44708872_52334.addr, metadata !4056, metadata !3842), !dbg !4044
	%0 = bitcast [5 x i32 (...)* (...)*]* @_ZTV13FieldFunction to i8*, !dbg !4057
	%1 = getelementptr i8, i8*  %0, i64 16, !dbg !4057
	%2 = load %struct.FieldFunction*, %struct.FieldFunction** %_T44708872_52334.addr, align 8, !tbaa !3850, !dbg !4057
	%3 = bitcast %struct.FieldFunction*  %2 to i8**, !dbg !4057
	store i8*  %1, i8**  %3, align 8, !tbaa !3850, !dbg !4057
	%4 = bitcast [5 x i32 (...)* (...)*]* @_ZTV11T3DFunction to i8*, !dbg !4057
	%5 = getelementptr i8, i8*  %4, i64 16, !dbg !4057
	store i8*  %5, i8**  %3, align 8, !tbaa !3850, !dbg !4057
	ret void, !dbg !4058
}
define linkonce_odr void @_ZN13FieldFunctionD0Ev(%struct.FieldFunction* %_T44708872_52335.arg) #0 inlinehint !dbg !4060 {
L.entry:
	%_T44708872_52335.addr = alloca %struct.FieldFunction*, align 8
	%..inline.addr = alloca %struct.FieldFunction*, align 8

	store %struct.FieldFunction* %_T44708872_52335.arg, %struct.FieldFunction** %_T44708872_52335.addr, align 8, !tbaa !3850
	%0 = load %struct.FieldFunction*, %struct.FieldFunction** %_T44708872_52335.addr, align 8, !tbaa !3850, !dbg !4076
	%1 = bitcast %struct.FieldFunction*  %0 to i8*, !dbg !4076
	%2 = bitcast %struct.FieldFunction** %..inline.addr to i8**, !dbg !4076
	store i8*  %1, i8**  %2, align 8, !tbaa !3850, !dbg !4076
	%3 = bitcast [5 x i32 (...)* (...)*]* @_ZTV13FieldFunction to i8*, !dbg !4076
	%4 = getelementptr i8, i8*  %3, i64 16, !dbg !4076
	%5 = load %struct.FieldFunction*, %struct.FieldFunction** %..inline.addr, align 8, !tbaa !3850, !dbg !4076
	%6 = bitcast %struct.FieldFunction*  %5 to i8**, !dbg !4076
	store i8*  %4, i8**  %6, align 8, !tbaa !3850, !dbg !4076
	%7 = bitcast [5 x i32 (...)* (...)*]* @_ZTV11T3DFunction to i8*, !dbg !4076
	%8 = getelementptr i8, i8*  %7, i64 16, !dbg !4076
	store i8*  %8, i8**  %6, align 8, !tbaa !3850, !dbg !4076
	call void  @_ZdlPvm (i8*  %1, i64 24) nounwind, !dbg !4076
	ret void, !dbg !4076
}
define linkonce_odr void @_ZN13FieldFunctionD2Ev(%struct.FieldFunction* %_T44708872_52336.arg) #0 inlinehint !dbg !4078 {
L.entry:
	%_T44708872_52336.addr = alloca %struct.FieldFunction*, align 8
	%..inline.addr = alloca %struct.FieldFunction*, align 8

	store %struct.FieldFunction* %_T44708872_52336.arg, %struct.FieldFunction** %_T44708872_52336.addr, align 8, !tbaa !3850
	%0 = load %struct.FieldFunction*, %struct.FieldFunction** %_T44708872_52336.addr, align 8, !tbaa !3850, !dbg !4094
	%1 = bitcast %struct.FieldFunction*  %0 to i8*, !dbg !4094
	%2 = bitcast %struct.FieldFunction** %..inline.addr to i8**, !dbg !4094
	store i8*  %1, i8**  %2, align 8, !tbaa !3850, !dbg !4094
	%3 = bitcast [5 x i32 (...)* (...)*]* @_ZTV13FieldFunction to i8*, !dbg !4094
	%4 = getelementptr i8, i8*  %3, i64 16, !dbg !4094
	%5 = load %struct.FieldFunction*, %struct.FieldFunction** %..inline.addr, align 8, !tbaa !3850, !dbg !4094
	%6 = bitcast %struct.FieldFunction*  %5 to i8**, !dbg !4094
	store i8*  %4, i8**  %6, align 8, !tbaa !3850, !dbg !4094
	%7 = bitcast [5 x i32 (...)* (...)*]* @_ZTV11T3DFunction to i8*, !dbg !4094
	%8 = getelementptr i8, i8*  %7, i64 16, !dbg !4094
	store i8*  %8, i8**  %6, align 8, !tbaa !3850, !dbg !4094
	ret void, !dbg !4094
}

%struct.ConstantField = type <{ %struct.__SO__13FieldFunction, i8, [3 x i8], [3 x double]}> 
%struct.__SO__13FieldFunction = type <{ %struct.T3DFunction, i32, i32, i32}> 

define linkonce_odr void @_ZN13ConstantFieldC1Ev(%struct.ConstantField* %_T44709056_52337.arg) #0 inlinehint !dbg !4101 {
L.entry:
	%_T44709056_52337.addr = alloca %struct.ConstantField*, align 8
	%..inline.addr = alloca %struct.FieldFunction*, align 8

	call void @llvm.dbg.declare (metadata %struct.ConstantField** %_T44709056_52337.addr, metadata !4109, metadata !3842), !dbg !4102
	store %struct.ConstantField* %_T44709056_52337.arg, %struct.ConstantField** %_T44709056_52337.addr, align 8, !tbaa !3850
	call void @llvm.dbg.declare (metadata %struct.ConstantField** %_T44709056_52337.addr, metadata !4110, metadata !3842), !dbg !4102
	%0 = load %struct.ConstantField*, %struct.ConstantField** %_T44709056_52337.addr, align 8, !tbaa !3850, !dbg !4111
	%1 = bitcast %struct.ConstantField*  %0 to i8*, !dbg !4111
	%2 = bitcast %struct.FieldFunction** %..inline.addr to i8**, !dbg !4111
	store i8*  %1, i8**  %2, align 8, !tbaa !3850, !dbg !4111
	%3 = load %struct.FieldFunction*, %struct.FieldFunction** %..inline.addr, align 8, !tbaa !3850, !dbg !4111
	call void  @_ZN13FieldFunctionC1Ev (%struct.FieldFunction*  %3), !dbg !4111
	%4 = bitcast [5 x i32 (...)* (...)*]* @_ZTV13ConstantField to i8*, !dbg !4111
	%5 = getelementptr i8, i8*  %4, i64 16, !dbg !4111
	%6 = load %struct.ConstantField*, %struct.ConstantField** %_T44709056_52337.addr, align 8, !tbaa !3850, !dbg !4111
	%7 = bitcast %struct.ConstantField*  %6 to i8**, !dbg !4111
	store i8*  %5, i8**  %7, align 8, !tbaa !3850, !dbg !4111
	%8 = bitcast %struct.ConstantField*  %6 to i8*, !dbg !4114
	%9 = getelementptr i8, i8*  %8, i64 20, !dbg !4114
	store i8 0, i8*  %9, align 1, !tbaa !3960, !dbg !4114
	ret void, !dbg !4115
}
define linkonce_odr void @_ZN13ConstantFieldC2Ev(%struct.ConstantField* %_T44708872_52338.arg) #0 inlinehint !dbg !4117 {
L.entry:
	%_T44708872_52338.addr = alloca %struct.ConstantField*, align 8
	%..inline.addr = alloca %struct.ConstantField*, align 8
	%..inline.addr.1 = alloca %struct.FieldFunction*, align 8

	store %struct.ConstantField* %_T44708872_52338.arg, %struct.ConstantField** %_T44708872_52338.addr, align 8, !tbaa !3850
	%0 = load %struct.ConstantField*, %struct.ConstantField** %_T44708872_52338.addr, align 8, !tbaa !3850, !dbg !4129
	%1 = bitcast %struct.ConstantField*  %0 to i8*, !dbg !4129
	%2 = bitcast %struct.ConstantField** %..inline.addr to i8**, !dbg !4129
	store i8*  %1, i8**  %2, align 8, !tbaa !3850, !dbg !4129
	%3 = load %struct.ConstantField*, %struct.ConstantField** %..inline.addr, align 8, !tbaa !3850, !dbg !4130
	%4 = bitcast %struct.ConstantField*  %3 to i8*, !dbg !4130
	%5 = bitcast %struct.FieldFunction** %..inline.addr.1 to i8**, !dbg !4130
	store i8*  %4, i8**  %5, align 8, !tbaa !3850, !dbg !4130
	%6 = load %struct.FieldFunction*, %struct.FieldFunction** %..inline.addr.1, align 8, !tbaa !3850, !dbg !4130
	call void  @_ZN13FieldFunctionC1Ev (%struct.FieldFunction*  %6), !dbg !4130
	%7 = bitcast [5 x i32 (...)* (...)*]* @_ZTV13ConstantField to i8*, !dbg !4130
	%8 = getelementptr i8, i8*  %7, i64 16, !dbg !4130
	%9 = load %struct.ConstantField*, %struct.ConstantField** %..inline.addr, align 8, !tbaa !3850, !dbg !4130
	%10 = bitcast %struct.ConstantField*  %9 to i8**, !dbg !4130
	store i8*  %8, i8**  %10, align 8, !tbaa !3850, !dbg !4130
	%11 = bitcast %struct.ConstantField*  %9 to i8*, !dbg !4130
	%12 = getelementptr i8, i8*  %11, i64 20, !dbg !4130
	store i8 0, i8*  %12, align 1, !tbaa !3960, !dbg !4130
	ret void, !dbg !4129
}
define linkonce_odr void @_ZN13ConstantFieldD1Ev(%struct.ConstantField* %_T44708872_52339.arg) #0 inlinehint !dbg !4132 {
L.entry:
	%_T44708872_52339.addr = alloca %struct.ConstantField*, align 8
	%..inline.addr = alloca %struct.FieldFunction*, align 8

	call void @llvm.dbg.declare (metadata %struct.ConstantField** %_T44708872_52339.addr, metadata !4152, metadata !3842), !dbg !4133
	store %struct.ConstantField* %_T44708872_52339.arg, %struct.ConstantField** %_T44708872_52339.addr, align 8, !tbaa !3850
	call void @llvm.dbg.declare (metadata %struct.ConstantField** %_T44708872_52339.addr, metadata !4153, metadata !3842), !dbg !4133
	%0 = bitcast [5 x i32 (...)* (...)*]* @_ZTV13ConstantField to i8*, !dbg !4154
	%1 = getelementptr i8, i8*  %0, i64 16, !dbg !4154
	%2 = load %struct.ConstantField*, %struct.ConstantField** %_T44708872_52339.addr, align 8, !tbaa !3850, !dbg !4154
	%3 = bitcast %struct.ConstantField*  %2 to i8**, !dbg !4154
	store i8*  %1, i8**  %3, align 8, !tbaa !3850, !dbg !4154
	%4 = bitcast %struct.ConstantField*  %2 to i8*, !dbg !4154
	%5 = bitcast %struct.FieldFunction** %..inline.addr to i8**, !dbg !4154
	store i8*  %4, i8**  %5, align 8, !tbaa !3850, !dbg !4154
	%6 = bitcast [5 x i32 (...)* (...)*]* @_ZTV13FieldFunction to i8*, !dbg !4154
	%7 = getelementptr i8, i8*  %6, i64 16, !dbg !4154
	%8 = load %struct.FieldFunction*, %struct.FieldFunction** %..inline.addr, align 8, !tbaa !3850, !dbg !4154
	%9 = bitcast %struct.FieldFunction*  %8 to i8**, !dbg !4154
	store i8*  %7, i8**  %9, align 8, !tbaa !3850, !dbg !4154
	%10 = bitcast [5 x i32 (...)* (...)*]* @_ZTV11T3DFunction to i8*, !dbg !4154
	%11 = getelementptr i8, i8*  %10, i64 16, !dbg !4154
	store i8*  %11, i8**  %9, align 8, !tbaa !3850, !dbg !4154
	ret void, !dbg !4154
}
define linkonce_odr void @_ZN13ConstantFieldD0Ev(%struct.ConstantField* %_T44708872_52340.arg) #0 inlinehint !dbg !4156 {
L.entry:
	%_T44708872_52340.addr = alloca %struct.ConstantField*, align 8
	%..inline.addr = alloca %struct.ConstantField*, align 8
	%..inline.addr.1 = alloca %struct.FieldFunction*, align 8

	store %struct.ConstantField* %_T44708872_52340.arg, %struct.ConstantField** %_T44708872_52340.addr, align 8, !tbaa !3850
	%0 = load %struct.ConstantField*, %struct.ConstantField** %_T44708872_52340.addr, align 8, !tbaa !3850, !dbg !4180
	%1 = bitcast %struct.ConstantField*  %0 to i8*, !dbg !4180
	%2 = bitcast %struct.ConstantField** %..inline.addr to i8**, !dbg !4180
	store i8*  %1, i8**  %2, align 8, !tbaa !3850, !dbg !4180
	%3 = bitcast [5 x i32 (...)* (...)*]* @_ZTV13ConstantField to i8*, !dbg !4180
	%4 = getelementptr i8, i8*  %3, i64 16, !dbg !4180
	%5 = load %struct.ConstantField*, %struct.ConstantField** %..inline.addr, align 8, !tbaa !3850, !dbg !4180
	%6 = bitcast %struct.ConstantField*  %5 to i8**, !dbg !4180
	store i8*  %4, i8**  %6, align 8, !tbaa !3850, !dbg !4180
	%7 = bitcast %struct.ConstantField*  %5 to i8*, !dbg !4180
	%8 = bitcast %struct.FieldFunction** %..inline.addr.1 to i8**, !dbg !4180
	store i8*  %7, i8**  %8, align 8, !tbaa !3850, !dbg !4180
	%9 = bitcast [5 x i32 (...)* (...)*]* @_ZTV13FieldFunction to i8*, !dbg !4180
	%10 = getelementptr i8, i8*  %9, i64 16, !dbg !4180
	store i8*  %10, i8**  %6, align 8, !tbaa !3850, !dbg !4180
	%11 = bitcast [5 x i32 (...)* (...)*]* @_ZTV11T3DFunction to i8*, !dbg !4180
	%12 = getelementptr i8, i8*  %11, i64 16, !dbg !4180
	%13 = load %struct.FieldFunction*, %struct.FieldFunction** %..inline.addr.1, align 8, !tbaa !3850, !dbg !4180
	%14 = bitcast %struct.FieldFunction*  %13 to i8**, !dbg !4180
	store i8*  %12, i8**  %14, align 8, !tbaa !3850, !dbg !4180
	call void  @_ZdlPvm (i8*  %1, i64 48) nounwind, !dbg !4180
	ret void, !dbg !4180
}
define linkonce_odr void @_ZN13ConstantFieldD2Ev(%struct.ConstantField* %_T44708872_52341.arg) #0 inlinehint !dbg !4182 {
L.entry:
	%_T44708872_52341.addr = alloca %struct.ConstantField*, align 8
	%..inline.addr = alloca %struct.ConstantField*, align 8
	%..inline.addr.1 = alloca %struct.FieldFunction*, align 8

	store %struct.ConstantField* %_T44708872_52341.arg, %struct.ConstantField** %_T44708872_52341.addr, align 8, !tbaa !3850
	%0 = load %struct.ConstantField*, %struct.ConstantField** %_T44708872_52341.addr, align 8, !tbaa !3850, !dbg !4206
	%1 = bitcast %struct.ConstantField*  %0 to i8*, !dbg !4206
	%2 = bitcast %struct.ConstantField** %..inline.addr to i8**, !dbg !4206
	store i8*  %1, i8**  %2, align 8, !tbaa !3850, !dbg !4206
	%3 = bitcast [5 x i32 (...)* (...)*]* @_ZTV13ConstantField to i8*, !dbg !4206
	%4 = getelementptr i8, i8*  %3, i64 16, !dbg !4206
	%5 = load %struct.ConstantField*, %struct.ConstantField** %..inline.addr, align 8, !tbaa !3850, !dbg !4206
	%6 = bitcast %struct.ConstantField*  %5 to i8**, !dbg !4206
	store i8*  %4, i8**  %6, align 8, !tbaa !3850, !dbg !4206
	%7 = bitcast %struct.ConstantField*  %5 to i8*, !dbg !4206
	%8 = bitcast %struct.FieldFunction** %..inline.addr.1 to i8**, !dbg !4206
	store i8*  %7, i8**  %8, align 8, !tbaa !3850, !dbg !4206
	%9 = bitcast [5 x i32 (...)* (...)*]* @_ZTV13FieldFunction to i8*, !dbg !4206
	%10 = getelementptr i8, i8*  %9, i64 16, !dbg !4206
	store i8*  %10, i8**  %6, align 8, !tbaa !3850, !dbg !4206
	%11 = bitcast [5 x i32 (...)* (...)*]* @_ZTV11T3DFunction to i8*, !dbg !4206
	%12 = getelementptr i8, i8*  %11, i64 16, !dbg !4206
	%13 = load %struct.FieldFunction*, %struct.FieldFunction** %..inline.addr.1, align 8, !tbaa !3850, !dbg !4206
	%14 = bitcast %struct.FieldFunction*  %13 to i8**, !dbg !4206
	store i8*  %12, i8**  %14, align 8, !tbaa !3850, !dbg !4206
	ret void, !dbg !4206
}
define linkonce_odr void @_ZNSt11char_traitsIcE6assignERcRKc(i8* %__c1.arg, i8* %__c2.arg) #0 inlinehint !dbg !4213 {
L.entry:
	%__c1.addr = alloca i8*, align 8
	%__c2.addr = alloca i8*, align 8

	call void @llvm.dbg.declare (metadata i8** %__c1.addr, metadata !4217, metadata !3842), !dbg !4214
	store i8* %__c1.arg, i8** %__c1.addr, align 8, !tbaa !3850
	call void @llvm.dbg.declare (metadata i8** %__c1.addr, metadata !4218, metadata !3842), !dbg !4214
	call void @llvm.dbg.declare (metadata i8** %__c2.addr, metadata !4219, metadata !3842), !dbg !4214
	store i8* %__c2.arg, i8** %__c2.addr, align 8, !tbaa !3850
	call void @llvm.dbg.declare (metadata i8** %__c2.addr, metadata !4220, metadata !3842), !dbg !4214
	%0 = load i8*, i8** %__c2.addr, align 8, !tbaa !3850, !dbg !4221
	%1 = load i8, i8*  %0, align 1, !tbaa !3960, !dbg !4221
	%2 = load i8*, i8** %__c1.addr, align 8, !tbaa !3850, !dbg !4221
	store i8  %1, i8*  %2, align 1, !tbaa !3960, !dbg !4221
	ret void, !dbg !4221
}
define linkonce_odr i64 @_ZNSt11char_traitsIcE6lengthEPKc(i8* %__s.arg) #0 inlinehint !dbg !4225 {
L.entry:
	%__s.addr = alloca i8*, align 8

	call void @llvm.dbg.declare (metadata i8** %__s.addr, metadata !4229, metadata !3842), !dbg !4226
	store i8* %__s.arg, i8** %__s.addr, align 8, !tbaa !3850
	call void @llvm.dbg.declare (metadata i8** %__s.addr, metadata !4230, metadata !3842), !dbg !4226
	%0 = load i8*, i8** %__s.addr, align 8, !tbaa !3850, !dbg !4231
	%1 = call i64  @strlen (i8*  %0) nounwind, !dbg !4231
	ret i64  %1, !dbg !4231
}
define linkonce_odr i8* @_ZNSt11char_traitsIcE4copyEPcPKcm(i8* %__s1.arg, i8* %__s2.arg, i64 %__n.arg) #0 inlinehint !dbg !4236 {
L.entry:
	%__s1.addr = alloca i8*, align 8
	%__s2.addr = alloca i8*, align 8
	%__n.addr = alloca i64, align 8

	call void @llvm.dbg.declare (metadata i8** %__s1.addr, metadata !4240, metadata !3842), !dbg !4237
	store i8* %__s1.arg, i8** %__s1.addr, align 8, !tbaa !3850
	call void @llvm.dbg.declare (metadata i8** %__s1.addr, metadata !4241, metadata !3842), !dbg !4237
	call void @llvm.dbg.declare (metadata i8** %__s2.addr, metadata !4242, metadata !3842), !dbg !4237
	store i8* %__s2.arg, i8** %__s2.addr, align 8, !tbaa !3850
	call void @llvm.dbg.declare (metadata i8** %__s2.addr, metadata !4243, metadata !3842), !dbg !4237
	call void @llvm.dbg.declare (metadata i64* %__n.addr, metadata !4244, metadata !3842), !dbg !4237
	store i64 %__n.arg, i64* %__n.addr, align 8, !tbaa !3960
	call void @llvm.dbg.declare (metadata i64* %__n.addr, metadata !4245, metadata !3842), !dbg !4237
	%0 = load i64, i64* %__n.addr, align 8, !tbaa !4251, !dbg !4246
	%1 = icmp ne i64  %0, 0, !dbg !4246
	br i1  %1, label %L.B0004, label %L.B0851, !dbg !4246
L.B0851:
	%2 = load i8*, i8** %__s1.addr, align 8, !tbaa !3850, !dbg !4247
	ret i8*  %2, !dbg !4247
L.B0852:
	br label %L.R0020, !dbg !4247
L.B0004:
	%3 = load i8*, i8** %__s1.addr, align 8, !tbaa !3850, !dbg !4248
	%4 = load i8*, i8** %__s2.addr, align 8, !tbaa !3850, !dbg !4248
	%5 = load i64, i64* %__n.addr, align 8, !tbaa !4251, !dbg !4248
	%6 = call i8*  @memcpy (i8*  %3, i8*  %4, i64  %5) nounwind, !dbg !4248
	ret i8*  %6, !dbg !4248
L.R0020:
	ret i8* null
}

%struct._ZSaIcE = type <{ [1 x i8]}> 

define linkonce_odr void @_ZNSaIcEC1Ev(%struct._ZSaIcE* %_T44708872_52350.arg) #0 inlinehint !dbg !4258 {
L.entry:
	%_T44708872_52350.addr = alloca %struct._ZSaIcE*, align 8

	call void @llvm.dbg.declare (metadata %struct._ZSaIcE** %_T44708872_52350.addr, metadata !4262, metadata !3842), !dbg !4259
	store %struct._ZSaIcE* %_T44708872_52350.arg, %struct._ZSaIcE** %_T44708872_52350.addr, align 8, !tbaa !3850
	call void @llvm.dbg.declare (metadata %struct._ZSaIcE** %_T44708872_52350.addr, metadata !4263, metadata !3842), !dbg !4259
	ret void, !dbg !4264
}
define linkonce_odr void @_ZNSaIcEC2Ev(%struct._ZSaIcE* %_T44708872_52351.arg) #0 inlinehint !dbg !4266 {
L.entry:
	%_T44708872_52351.addr = alloca %struct._ZSaIcE*, align 8

	store %struct._ZSaIcE* %_T44708872_52351.arg, %struct._ZSaIcE** %_T44708872_52351.addr, align 8, !tbaa !3850
	ret void, !dbg !4274
}
define linkonce_odr void @_ZNSaIcED1Ev(%struct._ZSaIcE* %_T44708872_52352.arg) #0 inlinehint !dbg !4276 {
L.entry:
	%_T44708872_52352.addr = alloca %struct._ZSaIcE*, align 8

	call void @llvm.dbg.declare (metadata %struct._ZSaIcE** %_T44708872_52352.addr, metadata !4280, metadata !3842), !dbg !4277
	store %struct._ZSaIcE* %_T44708872_52352.arg, %struct._ZSaIcE** %_T44708872_52352.addr, align 8, !tbaa !3850
	call void @llvm.dbg.declare (metadata %struct._ZSaIcE** %_T44708872_52352.addr, metadata !4281, metadata !3842), !dbg !4277
	ret void, !dbg !4282
}
define linkonce_odr void @_ZNSaIcED2Ev(%struct._ZSaIcE* %_T44708872_52353.arg) #0 inlinehint !dbg !4284 {
L.entry:
	%_T44708872_52353.addr = alloca %struct._ZSaIcE*, align 8

	store %struct._ZSaIcE* %_T44708872_52353.arg, %struct._ZSaIcE** %_T44708872_52353.addr, align 8, !tbaa !3850
	ret void, !dbg !4292
}
define linkonce_odr void @_ZNSt16allocator_traitsISaIcEE10deallocateERS0_Pcm(%struct._ZSaIcE* %__a.arg, i8* %__p.arg, i64 %__n.arg) #0 inlinehint !dbg !4302 {
L.entry:
	%__a.addr = alloca %struct._ZSaIcE*, align 8
	%__p.addr = alloca i8*, align 8
	%__n.addr = alloca i64, align 8
	%..inline.addr = alloca i8*, align 8

	call void @llvm.dbg.declare (metadata %struct._ZSaIcE** %__a.addr, metadata !4310, metadata !3842), !dbg !4303
	store %struct._ZSaIcE* %__a.arg, %struct._ZSaIcE** %__a.addr, align 8, !tbaa !3850
	call void @llvm.dbg.declare (metadata %struct._ZSaIcE** %__a.addr, metadata !4311, metadata !3842), !dbg !4303
	call void @llvm.dbg.declare (metadata i8** %__p.addr, metadata !4312, metadata !3842), !dbg !4303
	store i8* %__p.arg, i8** %__p.addr, align 8, !tbaa !3850
	call void @llvm.dbg.declare (metadata i8** %__p.addr, metadata !4313, metadata !3842), !dbg !4303
	call void @llvm.dbg.declare (metadata i64* %__n.addr, metadata !4314, metadata !3842), !dbg !4303
	store i64 %__n.arg, i64* %__n.addr, align 8, !tbaa !3960
	call void @llvm.dbg.declare (metadata i64* %__n.addr, metadata !4315, metadata !3842), !dbg !4303
	%0 = load i8*, i8** %__p.addr, align 8, !tbaa !3850, !dbg !4316
	call void  @_ZdlPv (i8*  %0) nounwind, !dbg !4317
	ret void, !dbg !4316
}
define linkonce_odr signext i8 @_ZNKSt5ctypeIcE5widenEc(%struct._ZSt5ctypeIcE* %_T44709056_52361.arg, i8 signext %__c.arg) #0 inlinehint !dbg !4323 {
L.entry:
	%_T44709056_52361.addr = alloca %struct._ZSt5ctypeIcE*, align 8
	%__c.addr = alloca i8, align 1
	%.Q0006.addr = alloca i32, align 4

	call void @llvm.dbg.declare (metadata %struct._ZSt5ctypeIcE** %_T44709056_52361.addr, metadata !4327, metadata !3842), !dbg !4324
	store %struct._ZSt5ctypeIcE* %_T44709056_52361.arg, %struct._ZSt5ctypeIcE** %_T44709056_52361.addr, align 8, !tbaa !3850
	call void @llvm.dbg.declare (metadata %struct._ZSt5ctypeIcE** %_T44709056_52361.addr, metadata !4328, metadata !3842), !dbg !4324
	call void @llvm.dbg.declare (metadata i8* %__c.addr, metadata !4329, metadata !3842), !dbg !4324
	store i8 %__c.arg, i8* %__c.addr, align 1, !tbaa !3960
	call void @llvm.dbg.declare (metadata i8* %__c.addr, metadata !4330, metadata !3842), !dbg !4324
	%0 = load %struct._ZSt5ctypeIcE*, %struct._ZSt5ctypeIcE** %_T44709056_52361.addr, align 8, !tbaa !3850, !dbg !4331
	%1 = bitcast %struct._ZSt5ctypeIcE*  %0 to i8*, !dbg !4331
	%2 = getelementptr i8, i8*  %1, i64 56, !dbg !4331
	%3 = load i8, i8*  %2, align 1, !tbaa !3960, !dbg !4331
	%4 = sext i8  %3 to i32, !dbg !4331
	%5 = icmp eq i32  %4, 0, !dbg !4331
	br i1  %5, label %L.B0005, label %L.B0859, !dbg !4331
L.B0859:
	%6 = bitcast %struct._ZSt5ctypeIcE*  %0 to i8*, !dbg !4332
	%7 = getelementptr i8, i8*  %6, i64 57, !dbg !4332
	%8 = load i8, i8* %__c.addr, align 1, !tbaa !3960, !dbg !4332
	%9 = sext i8  %8 to i32, !dbg !4332
	%10 = and i32  %9, 255, !dbg !4332
	%11 = sext i32  %10 to i64, !dbg !4332
	%12 = getelementptr i8, i8*  %7, i64  %11, !dbg !4332
	%13 = load i8, i8*  %12, align 1, !tbaa !3960, !dbg !4332
	ret i8  %13, !dbg !4332
L.B0860:
	br label %L.R0026, !dbg !4332
L.B0005:
	%14 = load %struct._ZSt5ctypeIcE*, %struct._ZSt5ctypeIcE** %_T44709056_52361.addr, align 8, !tbaa !3850, !dbg !4333
	call void  @_ZNKSt5ctypeIcE13_M_widen_initEv (%struct._ZSt5ctypeIcE*  %14), !dbg !4333
	%15 = load %struct._ZSt5ctypeIcE*, %struct._ZSt5ctypeIcE** %_T44709056_52361.addr, align 8, !tbaa !3850, !dbg !4334
	%16 = load i8, i8* %__c.addr, align 1, !tbaa !3960, !dbg !4334
	%17 = bitcast %struct._ZSt5ctypeIcE*  %15 to i8**, !dbg !4334
	%18 = load i8*, i8**  %17, align 8, !tbaa !3850, !dbg !4334
	%19 = getelementptr i8, i8*  %18, i64 48, !dbg !4334
	%20 = bitcast i8*  %19 to i8 (%struct._ZSt5ctypeIcE*, i8)**, !dbg !4334
	%21 = load i8 (%struct._ZSt5ctypeIcE*, i8)*, i8 (%struct._ZSt5ctypeIcE*, i8)**  %20, align 8, !tbaa !3850, !dbg !4334
	%22 = call i8  %21 (%struct._ZSt5ctypeIcE*  %15, i8  %16), !dbg !4334
	%23 = sext i8  %22 to i32, !dbg !4334
	store i32  %23, i32* %.Q0006.addr, align 4, !tbaa !4041, !dbg !4334
	%24 = shl i32  %23, 24, !dbg !4334
	%25 = ashr i32  %24, 24, !dbg !4334
	%26 = trunc i32  %25 to i8, !dbg !4334
	ret i8  %26, !dbg !4334
L.R0026:
	ret i8 0
}
define linkonce_odr signext i32 @_ZNKSt9basic_iosIcSt11char_traitsIcEE7rdstateEv(%struct._ZSt9basic_iosIcSt11char_traitsIcEE* %_T44708872_52364.arg) #0 inlinehint !dbg !4342 {
L.entry:
	%_T44708872_52364.addr = alloca %struct._ZSt9basic_iosIcSt11char_traitsIcEE*, align 8

	call void @llvm.dbg.declare (metadata %struct._ZSt9basic_iosIcSt11char_traitsIcEE** %_T44708872_52364.addr, metadata !4346, metadata !3842), !dbg !4343
	store %struct._ZSt9basic_iosIcSt11char_traitsIcEE* %_T44708872_52364.arg, %struct._ZSt9basic_iosIcSt11char_traitsIcEE** %_T44708872_52364.addr, align 8, !tbaa !3850
	call void @llvm.dbg.declare (metadata %struct._ZSt9basic_iosIcSt11char_traitsIcEE** %_T44708872_52364.addr, metadata !4347, metadata !3842), !dbg !4343
	%0 = load %struct._ZSt9basic_iosIcSt11char_traitsIcEE*, %struct._ZSt9basic_iosIcSt11char_traitsIcEE** %_T44708872_52364.addr, align 8, !tbaa !3850, !dbg !4348
	%1 = bitcast %struct._ZSt9basic_iosIcSt11char_traitsIcEE*  %0 to i8*, !dbg !4348
	%2 = getelementptr i8, i8*  %1, i64 32, !dbg !4348
	%3 = bitcast i8*  %2 to i32*, !dbg !4348
	%4 = load i32, i32*  %3, align 4, !tbaa !3960, !dbg !4348
	ret i32  %4, !dbg !4348
}
define linkonce_odr void @_ZNSt9basic_iosIcSt11char_traitsIcEE8setstateESt12_Ios_Iostate(%struct._ZSt9basic_iosIcSt11char_traitsIcEE* %_T44708872_52368.arg, i32 signext %__state.arg) #0 inlinehint !dbg !4352 {
L.entry:
	%_T44708872_52368.addr = alloca %struct._ZSt9basic_iosIcSt11char_traitsIcEE*, align 8
	%__state.addr = alloca i32, align 4
	%..inline.addr = alloca i32, align 4

	call void @llvm.dbg.declare (metadata %struct._ZSt9basic_iosIcSt11char_traitsIcEE** %_T44708872_52368.addr, metadata !4364, metadata !3842), !dbg !4353
	store %struct._ZSt9basic_iosIcSt11char_traitsIcEE* %_T44708872_52368.arg, %struct._ZSt9basic_iosIcSt11char_traitsIcEE** %_T44708872_52368.addr, align 8, !tbaa !3850
	call void @llvm.dbg.declare (metadata %struct._ZSt9basic_iosIcSt11char_traitsIcEE** %_T44708872_52368.addr, metadata !4365, metadata !3842), !dbg !4353
	call void @llvm.dbg.declare (metadata i32* %__state.addr, metadata !4366, metadata !3842), !dbg !4353
	store i32 %__state.arg, i32* %__state.addr, align 4, !tbaa !3960
	call void @llvm.dbg.declare (metadata i32* %__state.addr, metadata !4367, metadata !3842), !dbg !4353
	%0 = load i32, i32* %__state.addr, align 4, !tbaa !3960, !dbg !4368
	%1 = load %struct._ZSt9basic_iosIcSt11char_traitsIcEE*, %struct._ZSt9basic_iosIcSt11char_traitsIcEE** %_T44708872_52368.addr, align 8, !tbaa !3850, !dbg !4368
	%2 = bitcast %struct._ZSt9basic_iosIcSt11char_traitsIcEE*  %1 to i8*, !dbg !4368
	%3 = getelementptr i8, i8*  %2, i64 32, !dbg !4368
	%4 = bitcast i8*  %3 to i32*, !dbg !4368
	%5 = load i32, i32*  %4, align 4, !tbaa !3960, !dbg !4368
	%6 = or i32  %0,  %5, !dbg !4368
	call void  @_ZNSt9basic_iosIcSt11char_traitsIcEE5clearESt12_Ios_Iostate (%struct._ZSt9basic_iosIcSt11char_traitsIcEE*  %1, i32  %6), !dbg !4369
	ret void, !dbg !4368
}
define linkonce_odr signext i8 @_ZNKSt9basic_iosIcSt11char_traitsIcEE5widenEc(%struct._ZSt9basic_iosIcSt11char_traitsIcEE* %_T44708872_52370.arg, i8 signext %__c.arg) #0 inlinehint !dbg !4373 {
L.entry:
	%_T44708872_52370.addr = alloca %struct._ZSt9basic_iosIcSt11char_traitsIcEE*, align 8
	%__c.addr = alloca i8, align 1
	%..inline.addr = alloca %struct._ZSt5ctypeIcE*, align 8
	%..inline.addr.1 = alloca %struct._ZSt5ctypeIcE*, align 8
	%..inline.addr.2 = alloca i8, align 1
	%..inline.addr.3 = alloca i8, align 1
	%.Q0007.addr = alloca i32, align 4

	call void @llvm.dbg.declare (metadata %struct._ZSt9basic_iosIcSt11char_traitsIcEE** %_T44708872_52370.addr, metadata !4385, metadata !3842), !dbg !4374
	store %struct._ZSt9basic_iosIcSt11char_traitsIcEE* %_T44708872_52370.arg, %struct._ZSt9basic_iosIcSt11char_traitsIcEE** %_T44708872_52370.addr, align 8, !tbaa !3850
	call void @llvm.dbg.declare (metadata %struct._ZSt9basic_iosIcSt11char_traitsIcEE** %_T44708872_52370.addr, metadata !4386, metadata !3842), !dbg !4374
	call void @llvm.dbg.declare (metadata i8* %__c.addr, metadata !4387, metadata !3842), !dbg !4374
	store i8 %__c.arg, i8* %__c.addr, align 1, !tbaa !3960
	call void @llvm.dbg.declare (metadata i8* %__c.addr, metadata !4388, metadata !3842), !dbg !4374
	%0 = load %struct._ZSt9basic_iosIcSt11char_traitsIcEE*, %struct._ZSt9basic_iosIcSt11char_traitsIcEE** %_T44708872_52370.addr, align 8, !tbaa !3850, !dbg !4389
	%1 = bitcast %struct._ZSt9basic_iosIcSt11char_traitsIcEE*  %0 to i8*, !dbg !4389
	%2 = getelementptr i8, i8*  %1, i64 240, !dbg !4389
	%3 = bitcast i8*  %2 to i8**, !dbg !4389
	%4 = load i8*, i8**  %3, align 8, !tbaa !3850, !dbg !4389
	%5 = bitcast %struct._ZSt5ctypeIcE** %..inline.addr to i8**, !dbg !4389
	store i8*  %4, i8**  %5, align 8, !tbaa !3850, !dbg !4389
	%6 = load %struct._ZSt5ctypeIcE*, %struct._ZSt5ctypeIcE** %..inline.addr, align 8, !tbaa !3850, !dbg !4389
	%7 = bitcast %struct._ZSt5ctypeIcE*  %6 to i8*, !dbg !4389
	%8 = icmp ne i8*  %7,  null, !dbg !4389
	br i1  %8, label %L..inline.63929, label %L.B0869, !dbg !4389
L.B0869:
	call void  @_ZSt16__throw_bad_castv () noreturn, !dbg !4390
	br label %L..inline.63929
L..inline.63929:
	%9 = load %struct._ZSt5ctypeIcE*, %struct._ZSt5ctypeIcE** %..inline.addr, align 8, !tbaa !3850, !dbg !4391
	%10 = bitcast %struct._ZSt5ctypeIcE*  %9 to i8*, !dbg !4391
	%11 = bitcast %struct._ZSt5ctypeIcE** %..inline.addr.1 to i8**, !dbg !4391
	store i8*  %10, i8**  %11, align 8, !tbaa !3850, !dbg !4391
	%12 = load i8, i8* %__c.addr, align 1, !tbaa !3960, !dbg !4389
	store i8  %12, i8* %..inline.addr.2, align 1, !tbaa !3960, !dbg !4389
	%13 = load %struct._ZSt5ctypeIcE*, %struct._ZSt5ctypeIcE** %..inline.addr.1, align 8, !tbaa !3850, !dbg !4389
	%14 = bitcast %struct._ZSt5ctypeIcE*  %13 to i8*, !dbg !4389
	%15 = getelementptr i8, i8*  %14, i64 56, !dbg !4389
	%16 = load i8, i8*  %15, align 1, !tbaa !3960, !dbg !4389
	%17 = sext i8  %16 to i32, !dbg !4389
	%18 = icmp eq i32  %17, 0, !dbg !4389
	br i1  %18, label %L..inline.63935, label %L.B0870, !dbg !4389
L.B0870:
	%19 = bitcast %struct._ZSt5ctypeIcE*  %13 to i8*, !dbg !4392
	%20 = getelementptr i8, i8*  %19, i64 57, !dbg !4392
	%21 = sext i8  %12 to i32, !dbg !4392
	%22 = and i32  %21, 255, !dbg !4392
	%23 = sext i32  %22 to i64, !dbg !4392
	%24 = getelementptr i8, i8*  %20, i64  %23, !dbg !4392
	%25 = load i8, i8*  %24, align 1, !tbaa !3960, !dbg !4392
	store i8  %25, i8* %..inline.addr.3, align 1, !tbaa !3960, !dbg !4392
	br label %L..inline.63939, !dbg !4393
L..inline.63935:
	%26 = load %struct._ZSt5ctypeIcE*, %struct._ZSt5ctypeIcE** %..inline.addr.1, align 8, !tbaa !3850, !dbg !4394
	call void  @_ZNKSt5ctypeIcE13_M_widen_initEv (%struct._ZSt5ctypeIcE*  %26), !dbg !4394
	%27 = load %struct._ZSt5ctypeIcE*, %struct._ZSt5ctypeIcE** %..inline.addr.1, align 8, !tbaa !3850, !dbg !4395
	%28 = load i8, i8* %..inline.addr.2, align 1, !tbaa !3960, !dbg !4395
	%29 = bitcast %struct._ZSt5ctypeIcE*  %27 to i8**, !dbg !4395
	%30 = load i8*, i8**  %29, align 8, !tbaa !3850, !dbg !4395
	%31 = getelementptr i8, i8*  %30, i64 48, !dbg !4395
	%32 = bitcast i8*  %31 to i8 (%struct._ZSt5ctypeIcE*, i8)**, !dbg !4395
	%33 = load i8 (%struct._ZSt5ctypeIcE*, i8)*, i8 (%struct._ZSt5ctypeIcE*, i8)**  %32, align 8, !tbaa !3850, !dbg !4395
	%34 = call i8  %33 (%struct._ZSt5ctypeIcE*  %27, i8  %28), !dbg !4395
	%35 = sext i8  %34 to i32, !dbg !4395
	store i32  %35, i32* %.Q0007.addr, align 4, !tbaa !4041, !dbg !4395
	%36 = shl i32  %35, 24, !dbg !4395
	%37 = ashr i32  %36, 24, !dbg !4395
	%38 = trunc i32  %37 to i8, !dbg !4395
	store i8  %38, i8* %..inline.addr.3, align 1, !tbaa !3960, !dbg !4395
	br label %L..inline.63939
L..inline.63939:
	%39 = load i8, i8* %..inline.addr.3, align 1, !tbaa !3960, !dbg !4396
	ret i8  %39, !dbg !4396
}
define linkonce_odr %struct._ZSo* @_ZNSolsEPFRSoS_E(%struct._ZSo* %_T44708872_52372.arg, %struct._ZSo* (%struct._ZSo*)* %__pf.arg) #0 inlinehint !dbg !4405 {
L.entry:
	%_T44708872_52372.addr = alloca %struct._ZSo*, align 8
	%__pf.addr = alloca %struct._ZSo* (%struct._ZSo*)*, align 8
	%.Q0008.addr = alloca %struct._ZSo*, align 8

	call void @llvm.dbg.declare (metadata %struct._ZSo** %_T44708872_52372.addr, metadata !4409, metadata !3842), !dbg !4406
	store %struct._ZSo* %_T44708872_52372.arg, %struct._ZSo** %_T44708872_52372.addr, align 8, !tbaa !3850
	call void @llvm.dbg.declare (metadata %struct._ZSo** %_T44708872_52372.addr, metadata !4410, metadata !3842), !dbg !4406
	call void @llvm.dbg.declare (metadata %struct._ZSo* (%struct._ZSo*)** %__pf.addr, metadata !4411, metadata !3842), !dbg !4406
	store %struct._ZSo* (%struct._ZSo*)* %__pf.arg, %struct._ZSo* (%struct._ZSo*)** %__pf.addr, align 8, !tbaa !3850
	call void @llvm.dbg.declare (metadata %struct._ZSo* (%struct._ZSo*)** %__pf.addr, metadata !4412, metadata !3842), !dbg !4406
	%0 = load %struct._ZSo*, %struct._ZSo** %_T44708872_52372.addr, align 8, !tbaa !3850, !dbg !4413
	%1 = load %struct._ZSo* (%struct._ZSo*)*, %struct._ZSo* (%struct._ZSo*)** %__pf.addr, align 8, !tbaa !3850, !dbg !4413
	%2 = call %struct._ZSo*  %1 (%struct._ZSo*  %0), !dbg !4413
	%3 = bitcast %struct._ZSo*  %2 to i8*, !dbg !4413
	%4 = bitcast %struct._ZSo** %.Q0008.addr to i8**, !dbg !4413
	store i8*  %3, i8**  %4, align 8, !tbaa !3850, !dbg !4413
	%5 = load %struct._ZSo*, %struct._ZSo** %.Q0008.addr, align 8, !tbaa !3850, !dbg !4413
	ret %struct._ZSo*  %5, !dbg !4413
}
define linkonce_odr %struct._ZSo* @_ZNSolsEj(%struct._ZSo* %_T44708872_52374.arg, i32 zeroext %__n.arg) #0 inlinehint !dbg !4418 {
L.entry:
	%_T44708872_52374.addr = alloca %struct._ZSo*, align 8
	%__n.addr = alloca i32, align 4
	%.Q0009.addr = alloca %struct._ZSo*, align 8

	call void @llvm.dbg.declare (metadata %struct._ZSo** %_T44708872_52374.addr, metadata !4422, metadata !3842), !dbg !4419
	store %struct._ZSo* %_T44708872_52374.arg, %struct._ZSo** %_T44708872_52374.addr, align 8, !tbaa !3850
	call void @llvm.dbg.declare (metadata %struct._ZSo** %_T44708872_52374.addr, metadata !4423, metadata !3842), !dbg !4419
	call void @llvm.dbg.declare (metadata i32* %__n.addr, metadata !4424, metadata !3842), !dbg !4419
	store i32 %__n.arg, i32* %__n.addr, align 4, !tbaa !3960
	call void @llvm.dbg.declare (metadata i32* %__n.addr, metadata !4425, metadata !3842), !dbg !4419
	%0 = load %struct._ZSo*, %struct._ZSo** %_T44708872_52374.addr, align 8, !tbaa !3850, !dbg !4426
	%1 = load i32, i32* %__n.addr, align 4, !tbaa !4041, !dbg !4426
	%2 = zext i32  %1 to i64, !dbg !4426
	%3 = call %struct._ZSo*  @_ZNSo9_M_insertImEERSoT_ (%struct._ZSo*  %0, i64  %2), !dbg !4426
	%4 = bitcast %struct._ZSo*  %3 to i8*, !dbg !4426
	%5 = bitcast %struct._ZSo** %.Q0009.addr to i8**, !dbg !4426
	store i8*  %4, i8**  %5, align 8, !tbaa !3850, !dbg !4426
	%6 = load %struct._ZSo*, %struct._ZSo** %.Q0009.addr, align 8, !tbaa !3850, !dbg !4426
	ret %struct._ZSo*  %6, !dbg !4426
}
define linkonce_odr void @_ZNSt12_Destroy_auxILb1EE9__destroyIPjEEvT_S3_(i32* %_T44708872_52381.arg, i32* %_T44709168_52381.arg) #0 inlinehint !dbg !4433 {
L.entry:
	%_T44708872_52381.addr = alloca i32*, align 8
	%_T44709168_52381.addr = alloca i32*, align 8

	call void @llvm.dbg.declare (metadata i32** %_T44708872_52381.addr, metadata !4437, metadata !3842), !dbg !4434
	store i32* %_T44708872_52381.arg, i32** %_T44708872_52381.addr, align 8, !tbaa !3850
	call void @llvm.dbg.declare (metadata i32** %_T44708872_52381.addr, metadata !4438, metadata !3842), !dbg !4434
	call void @llvm.dbg.declare (metadata i32** %_T44709168_52381.addr, metadata !4439, metadata !3842), !dbg !4434
	store i32* %_T44709168_52381.arg, i32** %_T44709168_52381.addr, align 8, !tbaa !3850
	call void @llvm.dbg.declare (metadata i32** %_T44709168_52381.addr, metadata !4440, metadata !3842), !dbg !4434
	ret void, !dbg !4441
}
define linkonce_odr void @_ZNSt12_Destroy_auxILb1EE9__destroyIPdEEvT_S3_(double* %_T44708872_52384.arg, double* %_T44709168_52384.arg) #0 inlinehint !dbg !4445 {
L.entry:
	%_T44708872_52384.addr = alloca double*, align 8
	%_T44709168_52384.addr = alloca double*, align 8

	call void @llvm.dbg.declare (metadata double** %_T44708872_52384.addr, metadata !4449, metadata !3842), !dbg !4446
	store double* %_T44708872_52384.arg, double** %_T44708872_52384.addr, align 8, !tbaa !3850
	call void @llvm.dbg.declare (metadata double** %_T44708872_52384.addr, metadata !4450, metadata !3842), !dbg !4446
	call void @llvm.dbg.declare (metadata double** %_T44709168_52384.addr, metadata !4451, metadata !3842), !dbg !4446
	store double* %_T44709168_52384.arg, double** %_T44709168_52384.addr, align 8, !tbaa !3850
	call void @llvm.dbg.declare (metadata double** %_T44709168_52384.addr, metadata !4452, metadata !3842), !dbg !4446
	ret void, !dbg !4453
}

%struct._ZSaIjE = type <{ [1 x i8]}> 

define linkonce_odr void @_ZNSaIjED1Ev(%struct._ZSaIjE* %_T44708872_52385.arg) #0 inlinehint !dbg !4461 {
L.entry:
	%_T44708872_52385.addr = alloca %struct._ZSaIjE*, align 8

	call void @llvm.dbg.declare (metadata %struct._ZSaIjE** %_T44708872_52385.addr, metadata !4465, metadata !3842), !dbg !4462
	store %struct._ZSaIjE* %_T44708872_52385.arg, %struct._ZSaIjE** %_T44708872_52385.addr, align 8, !tbaa !3850
	call void @llvm.dbg.declare (metadata %struct._ZSaIjE** %_T44708872_52385.addr, metadata !4466, metadata !3842), !dbg !4462
	ret void, !dbg !4467
}
define linkonce_odr void @_ZNSaIjED2Ev(%struct._ZSaIjE* %_T44708872_52386.arg) #0 inlinehint !dbg !4469 {
L.entry:
	%_T44708872_52386.addr = alloca %struct._ZSaIjE*, align 8

	store %struct._ZSaIjE* %_T44708872_52386.arg, %struct._ZSaIjE** %_T44708872_52386.addr, align 8, !tbaa !3850
	ret void, !dbg !4477
}
define linkonce_odr void @_ZNSt16allocator_traitsISaIjEE10deallocateERS0_Pjm(%struct._ZSaIjE* %__a.arg, i32* %__p.arg, i64 %__n.arg) #0 inlinehint !dbg !4485 {
L.entry:
	%__a.addr = alloca %struct._ZSaIjE*, align 8
	%__p.addr = alloca i32*, align 8
	%__n.addr = alloca i64, align 8
	%..inline.addr = alloca i32*, align 8

	call void @llvm.dbg.declare (metadata %struct._ZSaIjE** %__a.addr, metadata !4493, metadata !3842), !dbg !4486
	store %struct._ZSaIjE* %__a.arg, %struct._ZSaIjE** %__a.addr, align 8, !tbaa !3850
	call void @llvm.dbg.declare (metadata %struct._ZSaIjE** %__a.addr, metadata !4494, metadata !3842), !dbg !4486
	call void @llvm.dbg.declare (metadata i32** %__p.addr, metadata !4495, metadata !3842), !dbg !4486
	store i32* %__p.arg, i32** %__p.addr, align 8, !tbaa !3850
	call void @llvm.dbg.declare (metadata i32** %__p.addr, metadata !4496, metadata !3842), !dbg !4486
	call void @llvm.dbg.declare (metadata i64* %__n.addr, metadata !4497, metadata !3842), !dbg !4486
	store i64 %__n.arg, i64* %__n.addr, align 8, !tbaa !3960
	call void @llvm.dbg.declare (metadata i64* %__n.addr, metadata !4498, metadata !3842), !dbg !4486
	%0 = load i32*, i32** %__p.addr, align 8, !tbaa !3850, !dbg !4499
	%1 = bitcast i32*  %0 to i8*, !dbg !4499
	%2 = bitcast i32** %..inline.addr to i8**, !dbg !4499
	store i8*  %1, i8**  %2, align 8, !tbaa !3850, !dbg !4499
	%3 = load i32*, i32** %..inline.addr, align 8, !tbaa !3850, !dbg !4500
	%4 = bitcast i32*  %3 to i8*, !dbg !4500
	call void  @_ZdlPv (i8*  %4) nounwind, !dbg !4500
	ret void, !dbg !4499
}

%struct._ZNSt12_Vector_baseIjSaIjEE17_Vector_impl_dataE = type <{ i32*, i32*, i32*}> 
%struct._ZSt12_Vector_baseIjSaIjEE = type <{ %struct._ZNSt12_Vector_baseIjSaIjEE12_Vector_implE}> 
%struct._ZNSt12_Vector_baseIjSaIjEE12_Vector_implE = type <{ %struct._ZNSt12_Vector_baseIjSaIjEE17_Vector_impl_dataE}> 

define linkonce_odr %struct._ZSaIjE* @_ZNSt12_Vector_baseIjSaIjEE19_M_get_Tp_allocatorEv(%struct._ZSt12_Vector_baseIjSaIjEE* %_T44708872_52392.arg) #0 inlinehint !dbg !4508 {
L.entry:
	%_T44708872_52392.addr = alloca %struct._ZSt12_Vector_baseIjSaIjEE*, align 8

	call void @llvm.dbg.declare (metadata %struct._ZSt12_Vector_baseIjSaIjEE** %_T44708872_52392.addr, metadata !4512, metadata !3842), !dbg !4509
	store %struct._ZSt12_Vector_baseIjSaIjEE* %_T44708872_52392.arg, %struct._ZSt12_Vector_baseIjSaIjEE** %_T44708872_52392.addr, align 8, !tbaa !3850
	call void @llvm.dbg.declare (metadata %struct._ZSt12_Vector_baseIjSaIjEE** %_T44708872_52392.addr, metadata !4513, metadata !3842), !dbg !4509
	%0 = load %struct._ZSt12_Vector_baseIjSaIjEE*, %struct._ZSt12_Vector_baseIjSaIjEE** %_T44708872_52392.addr, align 8, !tbaa !3850, !dbg !4514
	%1 = bitcast %struct._ZSt12_Vector_baseIjSaIjEE*  %0 to %struct._ZSaIjE*, !dbg !4514
	ret %struct._ZSaIjE*  %1, !dbg !4514
}
define linkonce_odr void @_ZNSt12_Vector_baseIjSaIjEED1Ev(%struct._ZSt12_Vector_baseIjSaIjEE* %_T44708872_52393.arg) #0 inlinehint !dbg !4518 {
L.entry:
	%_T44708872_52393.addr = alloca %struct._ZSt12_Vector_baseIjSaIjEE*, align 8
	%..inline.addr = alloca i32*, align 8

	call void @llvm.dbg.declare (metadata %struct._ZSt12_Vector_baseIjSaIjEE** %_T44708872_52393.addr, metadata !4546, metadata !3842), !dbg !4519
	store %struct._ZSt12_Vector_baseIjSaIjEE* %_T44708872_52393.arg, %struct._ZSt12_Vector_baseIjSaIjEE** %_T44708872_52393.addr, align 8, !tbaa !3850
	call void @llvm.dbg.declare (metadata %struct._ZSt12_Vector_baseIjSaIjEE** %_T44708872_52393.addr, metadata !4547, metadata !3842), !dbg !4519
	%0 = load %struct._ZSt12_Vector_baseIjSaIjEE*, %struct._ZSt12_Vector_baseIjSaIjEE** %_T44708872_52393.addr, align 8, !tbaa !3850, !dbg !4548
	%1 = bitcast %struct._ZSt12_Vector_baseIjSaIjEE*  %0 to i8**, !dbg !4548
	%2 = load i8*, i8**  %1, align 8, !tbaa !3850, !dbg !4548
	%3 = icmp eq i8*  %2,  null, !dbg !4548
	br i1  %3, label %L..inline.64004, label %L.B0879, !dbg !4548
L.B0879:
	%4 = bitcast %struct._ZSt12_Vector_baseIjSaIjEE*  %0 to i8**, !dbg !4549
	%5 = load i8*, i8**  %4, align 8, !tbaa !3850, !dbg !4549
	%6 = bitcast i32** %..inline.addr to i8**, !dbg !4549
	store i8*  %5, i8**  %6, align 8, !tbaa !3850, !dbg !4549
	%7 = load i32*, i32** %..inline.addr, align 8, !tbaa !3850, !dbg !4549
	%8 = bitcast i32*  %7 to i8*, !dbg !4549
	call void  @_ZdlPv (i8*  %8) nounwind, !dbg !4549
	br label %L..inline.64004
L..inline.64004:
	ret void, !dbg !4550
}
define linkonce_odr void @_ZNSt12_Vector_baseIjSaIjEED2Ev(%struct._ZSt12_Vector_baseIjSaIjEE* %_T44708872_52394.arg) #0 inlinehint !dbg !4552 {
L.entry:
	%_T44708872_52394.addr = alloca %struct._ZSt12_Vector_baseIjSaIjEE*, align 8
	%..inline.addr = alloca %struct._ZSt12_Vector_baseIjSaIjEE*, align 8
	%..inline.addr.1 = alloca i32*, align 8

	store %struct._ZSt12_Vector_baseIjSaIjEE* %_T44708872_52394.arg, %struct._ZSt12_Vector_baseIjSaIjEE** %_T44708872_52394.addr, align 8, !tbaa !3850
	%0 = load %struct._ZSt12_Vector_baseIjSaIjEE*, %struct._ZSt12_Vector_baseIjSaIjEE** %_T44708872_52394.addr, align 8, !tbaa !3850, !dbg !4584
	%1 = bitcast %struct._ZSt12_Vector_baseIjSaIjEE*  %0 to i8*, !dbg !4584
	%2 = bitcast %struct._ZSt12_Vector_baseIjSaIjEE** %..inline.addr to i8**, !dbg !4584
	store i8*  %1, i8**  %2, align 8, !tbaa !3850, !dbg !4584
	%3 = load %struct._ZSt12_Vector_baseIjSaIjEE*, %struct._ZSt12_Vector_baseIjSaIjEE** %..inline.addr, align 8, !tbaa !3850, !dbg !4584
	%4 = bitcast %struct._ZSt12_Vector_baseIjSaIjEE*  %3 to i8**, !dbg !4584
	%5 = load i8*, i8**  %4, align 8, !tbaa !3850, !dbg !4584
	%6 = icmp eq i8*  %5,  null, !dbg !4584
	br i1  %6, label %L..inline.64064, label %L.B0882, !dbg !4584
L.B0882:
	%7 = bitcast %struct._ZSt12_Vector_baseIjSaIjEE*  %3 to i8**, !dbg !4584
	%8 = load i8*, i8**  %7, align 8, !tbaa !3850, !dbg !4584
	%9 = bitcast i32** %..inline.addr.1 to i8**, !dbg !4584
	store i8*  %8, i8**  %9, align 8, !tbaa !3850, !dbg !4584
	%10 = load i32*, i32** %..inline.addr.1, align 8, !tbaa !3850, !dbg !4584
	%11 = bitcast i32*  %10 to i8*, !dbg !4584
	call void  @_ZdlPv (i8*  %11) nounwind, !dbg !4584
	br label %L..inline.64064
L..inline.64064:
	ret void, !dbg !4585
}
define linkonce_odr void @_ZNSt12_Vector_baseIjSaIjEE13_M_deallocateEPjm(%struct._ZSt12_Vector_baseIjSaIjEE* %_T44708872_52397.arg, i32* %__p.arg, i64 %__n.arg) #0 inlinehint !dbg !4589 {
L.entry:
	%_T44708872_52397.addr = alloca %struct._ZSt12_Vector_baseIjSaIjEE*, align 8
	%__p.addr = alloca i32*, align 8
	%__n.addr = alloca i64, align 8
	%..inline.addr = alloca i32*, align 8

	call void @llvm.dbg.declare (metadata %struct._ZSt12_Vector_baseIjSaIjEE** %_T44708872_52397.addr, metadata !4601, metadata !3842), !dbg !4590
	store %struct._ZSt12_Vector_baseIjSaIjEE* %_T44708872_52397.arg, %struct._ZSt12_Vector_baseIjSaIjEE** %_T44708872_52397.addr, align 8, !tbaa !3850
	call void @llvm.dbg.declare (metadata %struct._ZSt12_Vector_baseIjSaIjEE** %_T44708872_52397.addr, metadata !4602, metadata !3842), !dbg !4590
	call void @llvm.dbg.declare (metadata i32** %__p.addr, metadata !4603, metadata !3842), !dbg !4590
	store i32* %__p.arg, i32** %__p.addr, align 8, !tbaa !3850
	call void @llvm.dbg.declare (metadata i32** %__p.addr, metadata !4604, metadata !3842), !dbg !4590
	call void @llvm.dbg.declare (metadata i64* %__n.addr, metadata !4605, metadata !3842), !dbg !4590
	store i64 %__n.arg, i64* %__n.addr, align 8, !tbaa !3960
	call void @llvm.dbg.declare (metadata i64* %__n.addr, metadata !4606, metadata !3842), !dbg !4590
	%0 = load i32*, i32** %__p.addr, align 8, !tbaa !3850, !dbg !4607
	%1 = bitcast i32*  %0 to i8*, !dbg !4607
	%2 = icmp eq i8*  %1,  null, !dbg !4607
	br i1  %2, label %L.B0006, label %L.B0885, !dbg !4607
L.B0885:
	%3 = bitcast i32*  %0 to i8*, !dbg !4608
	%4 = bitcast i32** %..inline.addr to i8**, !dbg !4608
	store i8*  %3, i8**  %4, align 8, !tbaa !3850, !dbg !4608
	%5 = load i32*, i32** %..inline.addr, align 8, !tbaa !3850, !dbg !4608
	%6 = bitcast i32*  %5 to i8*, !dbg !4608
	call void  @_ZdlPv (i8*  %6) nounwind, !dbg !4608
	br label %L.B0006
L.B0006:
	ret void, !dbg !4609
}
define linkonce_odr void @_ZNSt12_Vector_baseIjSaIjEE12_Vector_implD1Ev(%struct._ZNSt12_Vector_baseIjSaIjEE12_Vector_implE* %_T44708872_52398.arg) #0 inlinehint !dbg !4614 {
L.entry:
	%_T44708872_52398.addr = alloca %struct._ZNSt12_Vector_baseIjSaIjEE12_Vector_implE*, align 8

	call void @llvm.dbg.declare (metadata %struct._ZNSt12_Vector_baseIjSaIjEE12_Vector_implE** %_T44708872_52398.addr, metadata !4626, metadata !3842), !dbg !4615
	store %struct._ZNSt12_Vector_baseIjSaIjEE12_Vector_implE* %_T44708872_52398.arg, %struct._ZNSt12_Vector_baseIjSaIjEE12_Vector_implE** %_T44708872_52398.addr, align 8, !tbaa !3850
	call void @llvm.dbg.declare (metadata %struct._ZNSt12_Vector_baseIjSaIjEE12_Vector_implE** %_T44708872_52398.addr, metadata !4627, metadata !3842), !dbg !4615
	ret void, !dbg !4628
}
define linkonce_odr void @_ZNSt12_Vector_baseIjSaIjEE12_Vector_implD2Ev(%struct._ZNSt12_Vector_baseIjSaIjEE12_Vector_implE* %_T44708872_52399.arg) #0 inlinehint !dbg !4630 {
L.entry:
	%_T44708872_52399.addr = alloca %struct._ZNSt12_Vector_baseIjSaIjEE12_Vector_implE*, align 8

	store %struct._ZNSt12_Vector_baseIjSaIjEE12_Vector_implE* %_T44708872_52399.arg, %struct._ZNSt12_Vector_baseIjSaIjEE12_Vector_implE** %_T44708872_52399.addr, align 8, !tbaa !3850
	ret void, !dbg !4646
}

%struct._ZSt6vectorIjSaIjEE = type <{ %struct._ZSt12_Vector_baseIjSaIjEE}> 

define linkonce_odr void @_ZNSt6vectorIjSaIjEED1Ev(%struct._ZSt6vectorIjSaIjEE* %_T44708872_52400.arg) #0 inlinehint !dbg !4650 {
L.entry:
	%_T44708872_52400.addr = alloca %struct._ZSt6vectorIjSaIjEE*, align 8
	%..inline.addr = alloca %struct._ZSt12_Vector_baseIjSaIjEE*, align 8
	%..inline.addr.1 = alloca i32*, align 8

	call void @llvm.dbg.declare (metadata %struct._ZSt6vectorIjSaIjEE** %_T44708872_52400.addr, metadata !4702, metadata !3842), !dbg !4651
	store %struct._ZSt6vectorIjSaIjEE* %_T44708872_52400.arg, %struct._ZSt6vectorIjSaIjEE** %_T44708872_52400.addr, align 8, !tbaa !3850
	call void @llvm.dbg.declare (metadata %struct._ZSt6vectorIjSaIjEE** %_T44708872_52400.addr, metadata !4703, metadata !3842), !dbg !4651
	%0 = load %struct._ZSt6vectorIjSaIjEE*, %struct._ZSt6vectorIjSaIjEE** %_T44708872_52400.addr, align 8, !tbaa !3850, !dbg !4704
	%1 = bitcast %struct._ZSt6vectorIjSaIjEE*  %0 to i8*, !dbg !4704
	%2 = bitcast %struct._ZSt12_Vector_baseIjSaIjEE** %..inline.addr to i8**, !dbg !4704
	store i8*  %1, i8**  %2, align 8, !tbaa !3850, !dbg !4704
	%3 = load %struct._ZSt12_Vector_baseIjSaIjEE*, %struct._ZSt12_Vector_baseIjSaIjEE** %..inline.addr, align 8, !tbaa !3850, !dbg !4705
	%4 = bitcast %struct._ZSt12_Vector_baseIjSaIjEE*  %3 to i8**, !dbg !4705
	%5 = load i8*, i8**  %4, align 8, !tbaa !3850, !dbg !4705
	%6 = icmp eq i8*  %5,  null, !dbg !4705
	br i1  %6, label %L..inline.64215, label %L.B0896, !dbg !4705
L.B0896:
	%7 = bitcast %struct._ZSt12_Vector_baseIjSaIjEE*  %3 to i8**, !dbg !4705
	%8 = load i8*, i8**  %7, align 8, !tbaa !3850, !dbg !4705
	%9 = bitcast i32** %..inline.addr.1 to i8**, !dbg !4705
	store i8*  %8, i8**  %9, align 8, !tbaa !3850, !dbg !4705
	%10 = load i32*, i32** %..inline.addr.1, align 8, !tbaa !3850, !dbg !4705
	%11 = bitcast i32*  %10 to i8*, !dbg !4705
	call void  @_ZdlPv (i8*  %11) nounwind, !dbg !4705
	br label %L..inline.64215
L..inline.64215:
	ret void, !dbg !4704
}
define linkonce_odr void @_ZNSt6vectorIjSaIjEED2Ev(%struct._ZSt6vectorIjSaIjEE* %_T44708872_52401.arg) #0 inlinehint !dbg !4707 {
L.entry:
	%_T44708872_52401.addr = alloca %struct._ZSt6vectorIjSaIjEE*, align 8
	%..inline.addr = alloca %struct._ZSt12_Vector_baseIjSaIjEE*, align 8
	%..inline.addr.1 = alloca i32*, align 8

	store %struct._ZSt6vectorIjSaIjEE* %_T44708872_52401.arg, %struct._ZSt6vectorIjSaIjEE** %_T44708872_52401.addr, align 8, !tbaa !3850
	%0 = load %struct._ZSt6vectorIjSaIjEE*, %struct._ZSt6vectorIjSaIjEE** %_T44708872_52401.addr, align 8, !tbaa !3850, !dbg !4763
	%1 = bitcast %struct._ZSt6vectorIjSaIjEE*  %0 to i8*, !dbg !4763
	%2 = bitcast %struct._ZSt12_Vector_baseIjSaIjEE** %..inline.addr to i8**, !dbg !4763
	store i8*  %1, i8**  %2, align 8, !tbaa !3850, !dbg !4763
	%3 = load %struct._ZSt12_Vector_baseIjSaIjEE*, %struct._ZSt12_Vector_baseIjSaIjEE** %..inline.addr, align 8, !tbaa !3850, !dbg !4763
	%4 = bitcast %struct._ZSt12_Vector_baseIjSaIjEE*  %3 to i8**, !dbg !4763
	%5 = load i8*, i8**  %4, align 8, !tbaa !3850, !dbg !4763
	%6 = icmp eq i8*  %5,  null, !dbg !4763
	br i1  %6, label %L..inline.64319, label %L.B0899, !dbg !4763
L.B0899:
	%7 = bitcast %struct._ZSt12_Vector_baseIjSaIjEE*  %3 to i8**, !dbg !4763
	%8 = load i8*, i8**  %7, align 8, !tbaa !3850, !dbg !4763
	%9 = bitcast i32** %..inline.addr.1 to i8**, !dbg !4763
	store i8*  %8, i8**  %9, align 8, !tbaa !3850, !dbg !4763
	%10 = load i32*, i32** %..inline.addr.1, align 8, !tbaa !3850, !dbg !4763
	%11 = bitcast i32*  %10 to i8*, !dbg !4763
	call void  @_ZdlPv (i8*  %11) nounwind, !dbg !4763
	br label %L..inline.64319
L..inline.64319:
	ret void, !dbg !4763
}

%struct._ZSaIdE = type <{ [1 x i8]}> 

define linkonce_odr void @_ZNSaIdED1Ev(%struct._ZSaIdE* %_T44708872_52402.arg) #0 inlinehint !dbg !4771 {
L.entry:
	%_T44708872_52402.addr = alloca %struct._ZSaIdE*, align 8

	call void @llvm.dbg.declare (metadata %struct._ZSaIdE** %_T44708872_52402.addr, metadata !4775, metadata !3842), !dbg !4772
	store %struct._ZSaIdE* %_T44708872_52402.arg, %struct._ZSaIdE** %_T44708872_52402.addr, align 8, !tbaa !3850
	call void @llvm.dbg.declare (metadata %struct._ZSaIdE** %_T44708872_52402.addr, metadata !4776, metadata !3842), !dbg !4772
	ret void, !dbg !4777
}
define linkonce_odr void @_ZNSaIdED2Ev(%struct._ZSaIdE* %_T44708872_52403.arg) #0 inlinehint !dbg !4779 {
L.entry:
	%_T44708872_52403.addr = alloca %struct._ZSaIdE*, align 8

	store %struct._ZSaIdE* %_T44708872_52403.arg, %struct._ZSaIdE** %_T44708872_52403.addr, align 8, !tbaa !3850
	ret void, !dbg !4787
}
define linkonce_odr void @_ZNSt16allocator_traitsISaIdEE10deallocateERS0_Pdm(%struct._ZSaIdE* %__a.arg, double* %__p.arg, i64 %__n.arg) #0 inlinehint !dbg !4795 {
L.entry:
	%__a.addr = alloca %struct._ZSaIdE*, align 8
	%__p.addr = alloca double*, align 8
	%__n.addr = alloca i64, align 8
	%..inline.addr = alloca double*, align 8

	call void @llvm.dbg.declare (metadata %struct._ZSaIdE** %__a.addr, metadata !4803, metadata !3842), !dbg !4796
	store %struct._ZSaIdE* %__a.arg, %struct._ZSaIdE** %__a.addr, align 8, !tbaa !3850
	call void @llvm.dbg.declare (metadata %struct._ZSaIdE** %__a.addr, metadata !4804, metadata !3842), !dbg !4796
	call void @llvm.dbg.declare (metadata double** %__p.addr, metadata !4805, metadata !3842), !dbg !4796
	store double* %__p.arg, double** %__p.addr, align 8, !tbaa !3850
	call void @llvm.dbg.declare (metadata double** %__p.addr, metadata !4806, metadata !3842), !dbg !4796
	call void @llvm.dbg.declare (metadata i64* %__n.addr, metadata !4807, metadata !3842), !dbg !4796
	store i64 %__n.arg, i64* %__n.addr, align 8, !tbaa !3960
	call void @llvm.dbg.declare (metadata i64* %__n.addr, metadata !4808, metadata !3842), !dbg !4796
	%0 = load double*, double** %__p.addr, align 8, !tbaa !3850, !dbg !4809
	%1 = bitcast double*  %0 to i8*, !dbg !4809
	%2 = bitcast double** %..inline.addr to i8**, !dbg !4809
	store i8*  %1, i8**  %2, align 8, !tbaa !3850, !dbg !4809
	%3 = load double*, double** %..inline.addr, align 8, !tbaa !3850, !dbg !4810
	%4 = bitcast double*  %3 to i8*, !dbg !4810
	call void  @_ZdlPv (i8*  %4) nounwind, !dbg !4810
	ret void, !dbg !4809
}

%struct._ZSt12_Vector_baseIdSaIdEE = type <{ %struct._ZNSt12_Vector_baseIdSaIdEE12_Vector_implE}> 
%struct._ZNSt12_Vector_baseIdSaIdEE12_Vector_implE = type <{ %struct._ZNSt12_Vector_baseIdSaIdEE17_Vector_impl_dataE}> 
%struct._ZNSt12_Vector_baseIdSaIdEE17_Vector_impl_dataE = type <{ double*, double*, double*}> 

define linkonce_odr %struct._ZSaIdE* @_ZNSt12_Vector_baseIdSaIdEE19_M_get_Tp_allocatorEv(%struct._ZSt12_Vector_baseIdSaIdEE* %_T44708872_52409.arg) #0 inlinehint !dbg !4816 {
L.entry:
	%_T44708872_52409.addr = alloca %struct._ZSt12_Vector_baseIdSaIdEE*, align 8

	call void @llvm.dbg.declare (metadata %struct._ZSt12_Vector_baseIdSaIdEE** %_T44708872_52409.addr, metadata !4820, metadata !3842), !dbg !4817
	store %struct._ZSt12_Vector_baseIdSaIdEE* %_T44708872_52409.arg, %struct._ZSt12_Vector_baseIdSaIdEE** %_T44708872_52409.addr, align 8, !tbaa !3850
	call void @llvm.dbg.declare (metadata %struct._ZSt12_Vector_baseIdSaIdEE** %_T44708872_52409.addr, metadata !4821, metadata !3842), !dbg !4817
	%0 = load %struct._ZSt12_Vector_baseIdSaIdEE*, %struct._ZSt12_Vector_baseIdSaIdEE** %_T44708872_52409.addr, align 8, !tbaa !3850, !dbg !4822
	%1 = bitcast %struct._ZSt12_Vector_baseIdSaIdEE*  %0 to %struct._ZSaIdE*, !dbg !4822
	ret %struct._ZSaIdE*  %1, !dbg !4822
}
define linkonce_odr void @_ZNSt12_Vector_baseIdSaIdEED1Ev(%struct._ZSt12_Vector_baseIdSaIdEE* %_T44708872_52410.arg) #0 inlinehint !dbg !4826 {
L.entry:
	%_T44708872_52410.addr = alloca %struct._ZSt12_Vector_baseIdSaIdEE*, align 8
	%..inline.addr = alloca double*, align 8

	call void @llvm.dbg.declare (metadata %struct._ZSt12_Vector_baseIdSaIdEE** %_T44708872_52410.addr, metadata !4854, metadata !3842), !dbg !4827
	store %struct._ZSt12_Vector_baseIdSaIdEE* %_T44708872_52410.arg, %struct._ZSt12_Vector_baseIdSaIdEE** %_T44708872_52410.addr, align 8, !tbaa !3850
	call void @llvm.dbg.declare (metadata %struct._ZSt12_Vector_baseIdSaIdEE** %_T44708872_52410.addr, metadata !4855, metadata !3842), !dbg !4827
	%0 = load %struct._ZSt12_Vector_baseIdSaIdEE*, %struct._ZSt12_Vector_baseIdSaIdEE** %_T44708872_52410.addr, align 8, !tbaa !3850, !dbg !4856
	%1 = bitcast %struct._ZSt12_Vector_baseIdSaIdEE*  %0 to i8**, !dbg !4856
	%2 = load i8*, i8**  %1, align 8, !tbaa !3850, !dbg !4856
	%3 = icmp eq i8*  %2,  null, !dbg !4856
	br i1  %3, label %L..inline.64415, label %L.B0908, !dbg !4856
L.B0908:
	%4 = bitcast %struct._ZSt12_Vector_baseIdSaIdEE*  %0 to i8**, !dbg !4857
	%5 = load i8*, i8**  %4, align 8, !tbaa !3850, !dbg !4857
	%6 = bitcast double** %..inline.addr to i8**, !dbg !4857
	store i8*  %5, i8**  %6, align 8, !tbaa !3850, !dbg !4857
	%7 = load double*, double** %..inline.addr, align 8, !tbaa !3850, !dbg !4857
	%8 = bitcast double*  %7 to i8*, !dbg !4857
	call void  @_ZdlPv (i8*  %8) nounwind, !dbg !4857
	br label %L..inline.64415
L..inline.64415:
	ret void, !dbg !4858
}
define linkonce_odr void @_ZNSt12_Vector_baseIdSaIdEED2Ev(%struct._ZSt12_Vector_baseIdSaIdEE* %_T44708872_52411.arg) #0 inlinehint !dbg !4860 {
L.entry:
	%_T44708872_52411.addr = alloca %struct._ZSt12_Vector_baseIdSaIdEE*, align 8
	%..inline.addr = alloca %struct._ZSt12_Vector_baseIdSaIdEE*, align 8
	%..inline.addr.1 = alloca double*, align 8

	store %struct._ZSt12_Vector_baseIdSaIdEE* %_T44708872_52411.arg, %struct._ZSt12_Vector_baseIdSaIdEE** %_T44708872_52411.addr, align 8, !tbaa !3850
	%0 = load %struct._ZSt12_Vector_baseIdSaIdEE*, %struct._ZSt12_Vector_baseIdSaIdEE** %_T44708872_52411.addr, align 8, !tbaa !3850, !dbg !4892
	%1 = bitcast %struct._ZSt12_Vector_baseIdSaIdEE*  %0 to i8*, !dbg !4892
	%2 = bitcast %struct._ZSt12_Vector_baseIdSaIdEE** %..inline.addr to i8**, !dbg !4892
	store i8*  %1, i8**  %2, align 8, !tbaa !3850, !dbg !4892
	%3 = load %struct._ZSt12_Vector_baseIdSaIdEE*, %struct._ZSt12_Vector_baseIdSaIdEE** %..inline.addr, align 8, !tbaa !3850, !dbg !4892
	%4 = bitcast %struct._ZSt12_Vector_baseIdSaIdEE*  %3 to i8**, !dbg !4892
	%5 = load i8*, i8**  %4, align 8, !tbaa !3850, !dbg !4892
	%6 = icmp eq i8*  %5,  null, !dbg !4892
	br i1  %6, label %L..inline.64474, label %L.B0911, !dbg !4892
L.B0911:
	%7 = bitcast %struct._ZSt12_Vector_baseIdSaIdEE*  %3 to i8**, !dbg !4892
	%8 = load i8*, i8**  %7, align 8, !tbaa !3850, !dbg !4892
	%9 = bitcast double** %..inline.addr.1 to i8**, !dbg !4892
	store i8*  %8, i8**  %9, align 8, !tbaa !3850, !dbg !4892
	%10 = load double*, double** %..inline.addr.1, align 8, !tbaa !3850, !dbg !4892
	%11 = bitcast double*  %10 to i8*, !dbg !4892
	call void  @_ZdlPv (i8*  %11) nounwind, !dbg !4892
	br label %L..inline.64474
L..inline.64474:
	ret void, !dbg !4893
}
define linkonce_odr void @_ZNSt12_Vector_baseIdSaIdEE13_M_deallocateEPdm(%struct._ZSt12_Vector_baseIdSaIdEE* %_T44708872_52414.arg, double* %__p.arg, i64 %__n.arg) #0 inlinehint !dbg !4897 {
L.entry:
	%_T44708872_52414.addr = alloca %struct._ZSt12_Vector_baseIdSaIdEE*, align 8
	%__p.addr = alloca double*, align 8
	%__n.addr = alloca i64, align 8
	%..inline.addr = alloca double*, align 8

	call void @llvm.dbg.declare (metadata %struct._ZSt12_Vector_baseIdSaIdEE** %_T44708872_52414.addr, metadata !4909, metadata !3842), !dbg !4898
	store %struct._ZSt12_Vector_baseIdSaIdEE* %_T44708872_52414.arg, %struct._ZSt12_Vector_baseIdSaIdEE** %_T44708872_52414.addr, align 8, !tbaa !3850
	call void @llvm.dbg.declare (metadata %struct._ZSt12_Vector_baseIdSaIdEE** %_T44708872_52414.addr, metadata !4910, metadata !3842), !dbg !4898
	call void @llvm.dbg.declare (metadata double** %__p.addr, metadata !4911, metadata !3842), !dbg !4898
	store double* %__p.arg, double** %__p.addr, align 8, !tbaa !3850
	call void @llvm.dbg.declare (metadata double** %__p.addr, metadata !4912, metadata !3842), !dbg !4898
	call void @llvm.dbg.declare (metadata i64* %__n.addr, metadata !4913, metadata !3842), !dbg !4898
	store i64 %__n.arg, i64* %__n.addr, align 8, !tbaa !3960
	call void @llvm.dbg.declare (metadata i64* %__n.addr, metadata !4914, metadata !3842), !dbg !4898
	%0 = load double*, double** %__p.addr, align 8, !tbaa !3850, !dbg !4915
	%1 = bitcast double*  %0 to i8*, !dbg !4915
	%2 = icmp eq i8*  %1,  null, !dbg !4915
	br i1  %2, label %L.B0007, label %L.B0914, !dbg !4915
L.B0914:
	%3 = bitcast double*  %0 to i8*, !dbg !4916
	%4 = bitcast double** %..inline.addr to i8**, !dbg !4916
	store i8*  %3, i8**  %4, align 8, !tbaa !3850, !dbg !4916
	%5 = load double*, double** %..inline.addr, align 8, !tbaa !3850, !dbg !4916
	%6 = bitcast double*  %5 to i8*, !dbg !4916
	call void  @_ZdlPv (i8*  %6) nounwind, !dbg !4916
	br label %L.B0007
L.B0007:
	ret void, !dbg !4917
}
define linkonce_odr void @_ZNSt12_Vector_baseIdSaIdEE12_Vector_implD1Ev(%struct._ZNSt12_Vector_baseIdSaIdEE12_Vector_implE* %_T44708872_52415.arg) #0 inlinehint !dbg !4922 {
L.entry:
	%_T44708872_52415.addr = alloca %struct._ZNSt12_Vector_baseIdSaIdEE12_Vector_implE*, align 8

	call void @llvm.dbg.declare (metadata %struct._ZNSt12_Vector_baseIdSaIdEE12_Vector_implE** %_T44708872_52415.addr, metadata !4934, metadata !3842), !dbg !4923
	store %struct._ZNSt12_Vector_baseIdSaIdEE12_Vector_implE* %_T44708872_52415.arg, %struct._ZNSt12_Vector_baseIdSaIdEE12_Vector_implE** %_T44708872_52415.addr, align 8, !tbaa !3850
	call void @llvm.dbg.declare (metadata %struct._ZNSt12_Vector_baseIdSaIdEE12_Vector_implE** %_T44708872_52415.addr, metadata !4935, metadata !3842), !dbg !4923
	ret void, !dbg !4936
}
define linkonce_odr void @_ZNSt12_Vector_baseIdSaIdEE12_Vector_implD2Ev(%struct._ZNSt12_Vector_baseIdSaIdEE12_Vector_implE* %_T44708872_52416.arg) #0 inlinehint !dbg !4938 {
L.entry:
	%_T44708872_52416.addr = alloca %struct._ZNSt12_Vector_baseIdSaIdEE12_Vector_implE*, align 8

	store %struct._ZNSt12_Vector_baseIdSaIdEE12_Vector_implE* %_T44708872_52416.arg, %struct._ZNSt12_Vector_baseIdSaIdEE12_Vector_implE** %_T44708872_52416.addr, align 8, !tbaa !3850
	ret void, !dbg !4954
}

%struct._ZSt6vectorIdSaIdEE = type <{ %struct._ZSt12_Vector_baseIdSaIdEE}> 

define linkonce_odr void @_ZNSt6vectorIdSaIdEED1Ev(%struct._ZSt6vectorIdSaIdEE* %_T44708872_52417.arg) #0 inlinehint !dbg !4959 {
L.entry:
	%_T44708872_52417.addr = alloca %struct._ZSt6vectorIdSaIdEE*, align 8
	%..inline.addr = alloca %struct._ZSt12_Vector_baseIdSaIdEE*, align 8
	%..inline.addr.1 = alloca double*, align 8

	call void @llvm.dbg.declare (metadata %struct._ZSt6vectorIdSaIdEE** %_T44708872_52417.addr, metadata !5011, metadata !3842), !dbg !4960
	store %struct._ZSt6vectorIdSaIdEE* %_T44708872_52417.arg, %struct._ZSt6vectorIdSaIdEE** %_T44708872_52417.addr, align 8, !tbaa !3850
	call void @llvm.dbg.declare (metadata %struct._ZSt6vectorIdSaIdEE** %_T44708872_52417.addr, metadata !5012, metadata !3842), !dbg !4960
	%0 = load %struct._ZSt6vectorIdSaIdEE*, %struct._ZSt6vectorIdSaIdEE** %_T44708872_52417.addr, align 8, !tbaa !3850, !dbg !5013
	%1 = bitcast %struct._ZSt6vectorIdSaIdEE*  %0 to i8*, !dbg !5013
	%2 = bitcast %struct._ZSt12_Vector_baseIdSaIdEE** %..inline.addr to i8**, !dbg !5013
	store i8*  %1, i8**  %2, align 8, !tbaa !3850, !dbg !5013
	%3 = load %struct._ZSt12_Vector_baseIdSaIdEE*, %struct._ZSt12_Vector_baseIdSaIdEE** %..inline.addr, align 8, !tbaa !3850, !dbg !5014
	%4 = bitcast %struct._ZSt12_Vector_baseIdSaIdEE*  %3 to i8**, !dbg !5014
	%5 = load i8*, i8**  %4, align 8, !tbaa !3850, !dbg !5014
	%6 = icmp eq i8*  %5,  null, !dbg !5014
	br i1  %6, label %L..inline.64625, label %L.B0925, !dbg !5014
L.B0925:
	%7 = bitcast %struct._ZSt12_Vector_baseIdSaIdEE*  %3 to i8**, !dbg !5014
	%8 = load i8*, i8**  %7, align 8, !tbaa !3850, !dbg !5014
	%9 = bitcast double** %..inline.addr.1 to i8**, !dbg !5014
	store i8*  %8, i8**  %9, align 8, !tbaa !3850, !dbg !5014
	%10 = load double*, double** %..inline.addr.1, align 8, !tbaa !3850, !dbg !5014
	%11 = bitcast double*  %10 to i8*, !dbg !5014
	call void  @_ZdlPv (i8*  %11) nounwind, !dbg !5014
	br label %L..inline.64625
L..inline.64625:
	ret void, !dbg !5013
}
define linkonce_odr void @_ZNSt6vectorIdSaIdEED2Ev(%struct._ZSt6vectorIdSaIdEE* %_T44708872_52418.arg) #0 inlinehint !dbg !5016 {
L.entry:
	%_T44708872_52418.addr = alloca %struct._ZSt6vectorIdSaIdEE*, align 8
	%..inline.addr = alloca %struct._ZSt12_Vector_baseIdSaIdEE*, align 8
	%..inline.addr.1 = alloca double*, align 8

	store %struct._ZSt6vectorIdSaIdEE* %_T44708872_52418.arg, %struct._ZSt6vectorIdSaIdEE** %_T44708872_52418.addr, align 8, !tbaa !3850
	%0 = load %struct._ZSt6vectorIdSaIdEE*, %struct._ZSt6vectorIdSaIdEE** %_T44708872_52418.addr, align 8, !tbaa !3850, !dbg !5072
	%1 = bitcast %struct._ZSt6vectorIdSaIdEE*  %0 to i8*, !dbg !5072
	%2 = bitcast %struct._ZSt12_Vector_baseIdSaIdEE** %..inline.addr to i8**, !dbg !5072
	store i8*  %1, i8**  %2, align 8, !tbaa !3850, !dbg !5072
	%3 = load %struct._ZSt12_Vector_baseIdSaIdEE*, %struct._ZSt12_Vector_baseIdSaIdEE** %..inline.addr, align 8, !tbaa !3850, !dbg !5072
	%4 = bitcast %struct._ZSt12_Vector_baseIdSaIdEE*  %3 to i8**, !dbg !5072
	%5 = load i8*, i8**  %4, align 8, !tbaa !3850, !dbg !5072
	%6 = icmp eq i8*  %5,  null, !dbg !5072
	br i1  %6, label %L..inline.64729, label %L.B0928, !dbg !5072
L.B0928:
	%7 = bitcast %struct._ZSt12_Vector_baseIdSaIdEE*  %3 to i8**, !dbg !5072
	%8 = load i8*, i8**  %7, align 8, !tbaa !3850, !dbg !5072
	%9 = bitcast double** %..inline.addr.1 to i8**, !dbg !5072
	store i8*  %8, i8**  %9, align 8, !tbaa !3850, !dbg !5072
	%10 = load double*, double** %..inline.addr.1, align 8, !tbaa !3850, !dbg !5072
	%11 = bitcast double*  %10 to i8*, !dbg !5072
	call void  @_ZdlPv (i8*  %11) nounwind, !dbg !5072
	br label %L..inline.64729
L..inline.64729:
	ret void, !dbg !5072
}

%struct._ZSaIN5vmesh14MeshParametersEE = type <{ [1 x i8]}> 

define linkonce_odr void @_ZNSaIN5vmesh14MeshParametersEED1Ev(%struct._ZSaIN5vmesh14MeshParametersEE* %_T44708872_52419.arg) #0 inlinehint !dbg !5080 {
L.entry:
	%_T44708872_52419.addr = alloca %struct._ZSaIN5vmesh14MeshParametersEE*, align 8

	call void @llvm.dbg.declare (metadata %struct._ZSaIN5vmesh14MeshParametersEE** %_T44708872_52419.addr, metadata !5084, metadata !3842), !dbg !5081
	store %struct._ZSaIN5vmesh14MeshParametersEE* %_T44708872_52419.arg, %struct._ZSaIN5vmesh14MeshParametersEE** %_T44708872_52419.addr, align 8, !tbaa !3850
	call void @llvm.dbg.declare (metadata %struct._ZSaIN5vmesh14MeshParametersEE** %_T44708872_52419.addr, metadata !5085, metadata !3842), !dbg !5081
	ret void, !dbg !5086
}
define linkonce_odr void @_ZNSaIN5vmesh14MeshParametersEED2Ev(%struct._ZSaIN5vmesh14MeshParametersEE* %_T44708872_52420.arg) #0 inlinehint !dbg !5088 {
L.entry:
	%_T44708872_52420.addr = alloca %struct._ZSaIN5vmesh14MeshParametersEE*, align 8

	store %struct._ZSaIN5vmesh14MeshParametersEE* %_T44708872_52420.arg, %struct._ZSaIN5vmesh14MeshParametersEE** %_T44708872_52420.addr, align 8, !tbaa !3850
	ret void, !dbg !5096
}

%union.__C6 = type <{ [16 x i8]}> 
%struct._ZNSt7__cxx1112basic_stringIcSt11char_traitsIcESaIcEEE = type <{ %struct._ZNSt7__cxx1112basic_stringIcSt11char_traitsIcESaIcEE12_Alloc_hiderE, i64, %union.__C6}> 
%struct._ZN5vmesh14MeshParametersE = type <{ %struct._ZNSt7__cxx1112basic_stringIcSt11char_traitsIcESaIcEEE, i32, [4 x i8], [6 x double], [3 x i32], [3 x i32], i8, i8, [6 x i8], [3 x double], [3 x double], [3 x double], [3 x double], [3 x double], %struct._ZSt6vectorIjSaIjEE, %struct._ZSt6vectorIdSaIdEE, %struct._ZSt6vectorIdSaIdEE, %struct._ZSt6vectorIjSaIjEE}> 
%struct._ZNSt7__cxx1112basic_stringIcSt11char_traitsIcESaIcEE12_Alloc_hiderE = type <{ i8*}> 

define linkonce_odr void @_ZNSt16allocator_traitsISaIN5vmesh14MeshParametersEEE10deallocateERS2_PS1_m(%struct._ZSaIN5vmesh14MeshParametersEE* %__a.arg, %struct._ZN5vmesh14MeshParametersE* %__p.arg, i64 %__n.arg) #0 inlinehint !dbg !5104 {
L.entry:
	%__a.addr = alloca %struct._ZSaIN5vmesh14MeshParametersEE*, align 8
	%__p.addr = alloca %struct._ZN5vmesh14MeshParametersE*, align 8
	%__n.addr = alloca i64, align 8
	%..inline.addr = alloca %struct._ZN5vmesh14MeshParametersE*, align 8

	call void @llvm.dbg.declare (metadata %struct._ZSaIN5vmesh14MeshParametersEE** %__a.addr, metadata !5112, metadata !3842), !dbg !5105
	store %struct._ZSaIN5vmesh14MeshParametersEE* %__a.arg, %struct._ZSaIN5vmesh14MeshParametersEE** %__a.addr, align 8, !tbaa !3850
	call void @llvm.dbg.declare (metadata %struct._ZSaIN5vmesh14MeshParametersEE** %__a.addr, metadata !5113, metadata !3842), !dbg !5105
	call void @llvm.dbg.declare (metadata %struct._ZN5vmesh14MeshParametersE** %__p.addr, metadata !5114, metadata !3842), !dbg !5105
	store %struct._ZN5vmesh14MeshParametersE* %__p.arg, %struct._ZN5vmesh14MeshParametersE** %__p.addr, align 8, !tbaa !3850
	call void @llvm.dbg.declare (metadata %struct._ZN5vmesh14MeshParametersE** %__p.addr, metadata !5115, metadata !3842), !dbg !5105
	call void @llvm.dbg.declare (metadata i64* %__n.addr, metadata !5116, metadata !3842), !dbg !5105
	store i64 %__n.arg, i64* %__n.addr, align 8, !tbaa !3960
	call void @llvm.dbg.declare (metadata i64* %__n.addr, metadata !5117, metadata !3842), !dbg !5105
	%0 = load %struct._ZN5vmesh14MeshParametersE*, %struct._ZN5vmesh14MeshParametersE** %__p.addr, align 8, !tbaa !3850, !dbg !5118
	%1 = bitcast %struct._ZN5vmesh14MeshParametersE*  %0 to i8*, !dbg !5118
	%2 = bitcast %struct._ZN5vmesh14MeshParametersE** %..inline.addr to i8**, !dbg !5118
	store i8*  %1, i8**  %2, align 8, !tbaa !3850, !dbg !5118
	%3 = load %struct._ZN5vmesh14MeshParametersE*, %struct._ZN5vmesh14MeshParametersE** %..inline.addr, align 8, !tbaa !3850, !dbg !5119
	%4 = bitcast %struct._ZN5vmesh14MeshParametersE*  %3 to i8*, !dbg !5119
	call void  @_ZdlPv (i8*  %4) nounwind, !dbg !5119
	ret void, !dbg !5118
}

%struct._ZNSt12_Vector_baseIN5vmesh14MeshParametersESaIS1_EE17_Vector_impl_dataE = type <{ %struct._ZN5vmesh14MeshParametersE*, %struct._ZN5vmesh14MeshParametersE*, %struct._ZN5vmesh14MeshParametersE*}> 
%struct._ZSt12_Vector_baseIN5vmesh14MeshParametersESaIS1_EE = type <{ %struct._ZNSt12_Vector_baseIN5vmesh14MeshParametersESaIS1_EE12_Vector_implE}> 
%struct._ZNSt12_Vector_baseIN5vmesh14MeshParametersESaIS1_EE12_Vector_implE = type <{ %struct._ZNSt12_Vector_baseIN5vmesh14MeshParametersESaIS1_EE17_Vector_impl_dataE}> 

define linkonce_odr %struct._ZSaIN5vmesh14MeshParametersEE* @_ZNSt12_Vector_baseIN5vmesh14MeshParametersESaIS1_EE19_M_get_Tp_allocatorEv(%struct._ZSt12_Vector_baseIN5vmesh14MeshParametersESaIS1_EE* %_T44708872_52426.arg) #0 inlinehint !dbg !5125 {
L.entry:
	%_T44708872_52426.addr = alloca %struct._ZSt12_Vector_baseIN5vmesh14MeshParametersESaIS1_EE*, align 8

	call void @llvm.dbg.declare (metadata %struct._ZSt12_Vector_baseIN5vmesh14MeshParametersESaIS1_EE** %_T44708872_52426.addr, metadata !5129, metadata !3842), !dbg !5126
	store %struct._ZSt12_Vector_baseIN5vmesh14MeshParametersESaIS1_EE* %_T44708872_52426.arg, %struct._ZSt12_Vector_baseIN5vmesh14MeshParametersESaIS1_EE** %_T44708872_52426.addr, align 8, !tbaa !3850
	call void @llvm.dbg.declare (metadata %struct._ZSt12_Vector_baseIN5vmesh14MeshParametersESaIS1_EE** %_T44708872_52426.addr, metadata !5130, metadata !3842), !dbg !5126
	%0 = load %struct._ZSt12_Vector_baseIN5vmesh14MeshParametersESaIS1_EE*, %struct._ZSt12_Vector_baseIN5vmesh14MeshParametersESaIS1_EE** %_T44708872_52426.addr, align 8, !tbaa !3850, !dbg !5131
	%1 = bitcast %struct._ZSt12_Vector_baseIN5vmesh14MeshParametersESaIS1_EE*  %0 to %struct._ZSaIN5vmesh14MeshParametersEE*, !dbg !5131
	ret %struct._ZSaIN5vmesh14MeshParametersEE*  %1, !dbg !5131
}
define linkonce_odr void @_ZNSt12_Vector_baseIN5vmesh14MeshParametersESaIS1_EEC1Ev(%struct._ZSt12_Vector_baseIN5vmesh14MeshParametersESaIS1_EE* %_T44708872_52427.arg) #0 inlinehint !dbg !5135 {
L.entry:
	%_T44708872_52427.addr = alloca %struct._ZSt12_Vector_baseIN5vmesh14MeshParametersESaIS1_EE*, align 8
	%..inline.addr = alloca %struct._ZNSt12_Vector_baseIN5vmesh14MeshParametersESaIS1_EE17_Vector_impl_dataE*, align 8

	call void @llvm.dbg.declare (metadata %struct._ZSt12_Vector_baseIN5vmesh14MeshParametersESaIS1_EE** %_T44708872_52427.addr, metadata !5151, metadata !3842), !dbg !5136
	store %struct._ZSt12_Vector_baseIN5vmesh14MeshParametersESaIS1_EE* %_T44708872_52427.arg, %struct._ZSt12_Vector_baseIN5vmesh14MeshParametersESaIS1_EE** %_T44708872_52427.addr, align 8, !tbaa !3850
	call void @llvm.dbg.declare (metadata %struct._ZSt12_Vector_baseIN5vmesh14MeshParametersESaIS1_EE** %_T44708872_52427.addr, metadata !5152, metadata !3842), !dbg !5136
	%0 = load %struct._ZSt12_Vector_baseIN5vmesh14MeshParametersESaIS1_EE*, %struct._ZSt12_Vector_baseIN5vmesh14MeshParametersESaIS1_EE** %_T44708872_52427.addr, align 8, !tbaa !3850, !dbg !5153
	%1 = bitcast %struct._ZSt12_Vector_baseIN5vmesh14MeshParametersESaIS1_EE*  %0 to i8*, !dbg !5153
	%2 = bitcast %struct._ZNSt12_Vector_baseIN5vmesh14MeshParametersESaIS1_EE17_Vector_impl_dataE** %..inline.addr to i8**, !dbg !5153
	store i8*  %1, i8**  %2, align 8, !tbaa !3850, !dbg !5153
	%3 = load %struct._ZNSt12_Vector_baseIN5vmesh14MeshParametersESaIS1_EE17_Vector_impl_dataE*, %struct._ZNSt12_Vector_baseIN5vmesh14MeshParametersESaIS1_EE17_Vector_impl_dataE** %..inline.addr, align 8, !tbaa !3850, !dbg !5153
	%4 = bitcast %struct._ZNSt12_Vector_baseIN5vmesh14MeshParametersESaIS1_EE17_Vector_impl_dataE*  %3 to i8**, !dbg !5153
	store i8* null, i8**  %4, align 8, !tbaa !3850, !dbg !5153
	%5 = bitcast %struct._ZNSt12_Vector_baseIN5vmesh14MeshParametersESaIS1_EE17_Vector_impl_dataE*  %3 to i8*, !dbg !5153
	%6 = getelementptr i8, i8*  %5, i64 8, !dbg !5153
	%7 = bitcast i8*  %6 to i8**, !dbg !5153
	store i8* null, i8**  %7, align 8, !tbaa !3850, !dbg !5153
	%8 = getelementptr i8, i8*  %5, i64 16, !dbg !5153
	%9 = bitcast i8*  %8 to i8**, !dbg !5153
	store i8* null, i8**  %9, align 8, !tbaa !3850, !dbg !5153
	ret void, !dbg !5153
}
define linkonce_odr void @_ZNSt12_Vector_baseIN5vmesh14MeshParametersESaIS1_EEC2Ev(%struct._ZSt12_Vector_baseIN5vmesh14MeshParametersESaIS1_EE* %_T44708872_52428.arg) #0 inlinehint !dbg !5155 {
L.entry:
	%_T44708872_52428.addr = alloca %struct._ZSt12_Vector_baseIN5vmesh14MeshParametersESaIS1_EE*, align 8
	%..inline.addr = alloca %struct._ZNSt12_Vector_baseIN5vmesh14MeshParametersESaIS1_EE17_Vector_impl_dataE*, align 8

	store %struct._ZSt12_Vector_baseIN5vmesh14MeshParametersESaIS1_EE* %_T44708872_52428.arg, %struct._ZSt12_Vector_baseIN5vmesh14MeshParametersESaIS1_EE** %_T44708872_52428.addr, align 8, !tbaa !3850
	%0 = load %struct._ZSt12_Vector_baseIN5vmesh14MeshParametersESaIS1_EE*, %struct._ZSt12_Vector_baseIN5vmesh14MeshParametersESaIS1_EE** %_T44708872_52428.addr, align 8, !tbaa !3850, !dbg !5175
	%1 = bitcast %struct._ZSt12_Vector_baseIN5vmesh14MeshParametersESaIS1_EE*  %0 to i8*, !dbg !5175
	%2 = bitcast %struct._ZNSt12_Vector_baseIN5vmesh14MeshParametersESaIS1_EE17_Vector_impl_dataE** %..inline.addr to i8**, !dbg !5175
	store i8*  %1, i8**  %2, align 8, !tbaa !3850, !dbg !5175
	%3 = load %struct._ZNSt12_Vector_baseIN5vmesh14MeshParametersESaIS1_EE17_Vector_impl_dataE*, %struct._ZNSt12_Vector_baseIN5vmesh14MeshParametersESaIS1_EE17_Vector_impl_dataE** %..inline.addr, align 8, !tbaa !3850, !dbg !5175
	%4 = bitcast %struct._ZNSt12_Vector_baseIN5vmesh14MeshParametersESaIS1_EE17_Vector_impl_dataE*  %3 to i8**, !dbg !5175
	store i8* null, i8**  %4, align 8, !tbaa !3850, !dbg !5175
	%5 = bitcast %struct._ZNSt12_Vector_baseIN5vmesh14MeshParametersESaIS1_EE17_Vector_impl_dataE*  %3 to i8*, !dbg !5175
	%6 = getelementptr i8, i8*  %5, i64 8, !dbg !5175
	%7 = bitcast i8*  %6 to i8**, !dbg !5175
	store i8* null, i8**  %7, align 8, !tbaa !3850, !dbg !5175
	%8 = getelementptr i8, i8*  %5, i64 16, !dbg !5175
	%9 = bitcast i8*  %8 to i8**, !dbg !5175
	store i8* null, i8**  %9, align 8, !tbaa !3850, !dbg !5175
	ret void, !dbg !5175
}
define linkonce_odr void @_ZNSt12_Vector_baseIN5vmesh14MeshParametersESaIS1_EED1Ev(%struct._ZSt12_Vector_baseIN5vmesh14MeshParametersESaIS1_EE* %_T44708872_52429.arg) #0 inlinehint !dbg !5177 {
L.entry:
	%_T44708872_52429.addr = alloca %struct._ZSt12_Vector_baseIN5vmesh14MeshParametersESaIS1_EE*, align 8
	%..inline.addr = alloca %struct._ZN5vmesh14MeshParametersE*, align 8

	call void @llvm.dbg.declare (metadata %struct._ZSt12_Vector_baseIN5vmesh14MeshParametersESaIS1_EE** %_T44708872_52429.addr, metadata !5205, metadata !3842), !dbg !5178
	store %struct._ZSt12_Vector_baseIN5vmesh14MeshParametersESaIS1_EE* %_T44708872_52429.arg, %struct._ZSt12_Vector_baseIN5vmesh14MeshParametersESaIS1_EE** %_T44708872_52429.addr, align 8, !tbaa !3850
	call void @llvm.dbg.declare (metadata %struct._ZSt12_Vector_baseIN5vmesh14MeshParametersESaIS1_EE** %_T44708872_52429.addr, metadata !5206, metadata !3842), !dbg !5178
	%0 = load %struct._ZSt12_Vector_baseIN5vmesh14MeshParametersESaIS1_EE*, %struct._ZSt12_Vector_baseIN5vmesh14MeshParametersESaIS1_EE** %_T44708872_52429.addr, align 8, !tbaa !3850, !dbg !5207
	%1 = bitcast %struct._ZSt12_Vector_baseIN5vmesh14MeshParametersESaIS1_EE*  %0 to i8**, !dbg !5207
	%2 = load i8*, i8**  %1, align 8, !tbaa !3850, !dbg !5207
	%3 = icmp eq i8*  %2,  null, !dbg !5207
	br i1  %3, label %L..inline.64873, label %L.B0941, !dbg !5207
L.B0941:
	%4 = bitcast %struct._ZSt12_Vector_baseIN5vmesh14MeshParametersESaIS1_EE*  %0 to i8**, !dbg !5208
	%5 = load i8*, i8**  %4, align 8, !tbaa !3850, !dbg !5208
	%6 = bitcast %struct._ZN5vmesh14MeshParametersE** %..inline.addr to i8**, !dbg !5208
	store i8*  %5, i8**  %6, align 8, !tbaa !3850, !dbg !5208
	%7 = load %struct._ZN5vmesh14MeshParametersE*, %struct._ZN5vmesh14MeshParametersE** %..inline.addr, align 8, !tbaa !3850, !dbg !5208
	%8 = bitcast %struct._ZN5vmesh14MeshParametersE*  %7 to i8*, !dbg !5208
	call void  @_ZdlPv (i8*  %8) nounwind, !dbg !5208
	br label %L..inline.64873
L..inline.64873:
	ret void, !dbg !5209
}
define linkonce_odr void @_ZNSt12_Vector_baseIN5vmesh14MeshParametersESaIS1_EED2Ev(%struct._ZSt12_Vector_baseIN5vmesh14MeshParametersESaIS1_EE* %_T44708872_52430.arg) #0 inlinehint !dbg !5211 {
L.entry:
	%_T44708872_52430.addr = alloca %struct._ZSt12_Vector_baseIN5vmesh14MeshParametersESaIS1_EE*, align 8
	%..inline.addr = alloca %struct._ZSt12_Vector_baseIN5vmesh14MeshParametersESaIS1_EE*, align 8
	%..inline.addr.1 = alloca %struct._ZN5vmesh14MeshParametersE*, align 8

	store %struct._ZSt12_Vector_baseIN5vmesh14MeshParametersESaIS1_EE* %_T44708872_52430.arg, %struct._ZSt12_Vector_baseIN5vmesh14MeshParametersESaIS1_EE** %_T44708872_52430.addr, align 8, !tbaa !3850
	%0 = load %struct._ZSt12_Vector_baseIN5vmesh14MeshParametersESaIS1_EE*, %struct._ZSt12_Vector_baseIN5vmesh14MeshParametersESaIS1_EE** %_T44708872_52430.addr, align 8, !tbaa !3850, !dbg !5243
	%1 = bitcast %struct._ZSt12_Vector_baseIN5vmesh14MeshParametersESaIS1_EE*  %0 to i8*, !dbg !5243
	%2 = bitcast %struct._ZSt12_Vector_baseIN5vmesh14MeshParametersESaIS1_EE** %..inline.addr to i8**, !dbg !5243
	store i8*  %1, i8**  %2, align 8, !tbaa !3850, !dbg !5243
	%3 = load %struct._ZSt12_Vector_baseIN5vmesh14MeshParametersESaIS1_EE*, %struct._ZSt12_Vector_baseIN5vmesh14MeshParametersESaIS1_EE** %..inline.addr, align 8, !tbaa !3850, !dbg !5243
	%4 = bitcast %struct._ZSt12_Vector_baseIN5vmesh14MeshParametersESaIS1_EE*  %3 to i8**, !dbg !5243
	%5 = load i8*, i8**  %4, align 8, !tbaa !3850, !dbg !5243
	%6 = icmp eq i8*  %5,  null, !dbg !5243
	br i1  %6, label %L..inline.64936, label %L.B0944, !dbg !5243
L.B0944:
	%7 = bitcast %struct._ZSt12_Vector_baseIN5vmesh14MeshParametersESaIS1_EE*  %3 to i8**, !dbg !5243
	%8 = load i8*, i8**  %7, align 8, !tbaa !3850, !dbg !5243
	%9 = bitcast %struct._ZN5vmesh14MeshParametersE** %..inline.addr.1 to i8**, !dbg !5243
	store i8*  %8, i8**  %9, align 8, !tbaa !3850, !dbg !5243
	%10 = load %struct._ZN5vmesh14MeshParametersE*, %struct._ZN5vmesh14MeshParametersE** %..inline.addr.1, align 8, !tbaa !3850, !dbg !5243
	%11 = bitcast %struct._ZN5vmesh14MeshParametersE*  %10 to i8*, !dbg !5243
	call void  @_ZdlPv (i8*  %11) nounwind, !dbg !5243
	br label %L..inline.64936
L..inline.64936:
	ret void, !dbg !5244
}
define linkonce_odr void @_ZNSt12_Vector_baseIN5vmesh14MeshParametersESaIS1_EE13_M_deallocateEPS1_m(%struct._ZSt12_Vector_baseIN5vmesh14MeshParametersESaIS1_EE* %_T44708872_52433.arg, %struct._ZN5vmesh14MeshParametersE* %__p.arg, i64 %__n.arg) #0 inlinehint !dbg !5248 {
L.entry:
	%_T44708872_52433.addr = alloca %struct._ZSt12_Vector_baseIN5vmesh14MeshParametersESaIS1_EE*, align 8
	%__p.addr = alloca %struct._ZN5vmesh14MeshParametersE*, align 8
	%__n.addr = alloca i64, align 8
	%..inline.addr = alloca %struct._ZN5vmesh14MeshParametersE*, align 8

	call void @llvm.dbg.declare (metadata %struct._ZSt12_Vector_baseIN5vmesh14MeshParametersESaIS1_EE** %_T44708872_52433.addr, metadata !5260, metadata !3842), !dbg !5249
	store %struct._ZSt12_Vector_baseIN5vmesh14MeshParametersESaIS1_EE* %_T44708872_52433.arg, %struct._ZSt12_Vector_baseIN5vmesh14MeshParametersESaIS1_EE** %_T44708872_52433.addr, align 8, !tbaa !3850
	call void @llvm.dbg.declare (metadata %struct._ZSt12_Vector_baseIN5vmesh14MeshParametersESaIS1_EE** %_T44708872_52433.addr, metadata !5261, metadata !3842), !dbg !5249
	call void @llvm.dbg.declare (metadata %struct._ZN5vmesh14MeshParametersE** %__p.addr, metadata !5262, metadata !3842), !dbg !5249
	store %struct._ZN5vmesh14MeshParametersE* %__p.arg, %struct._ZN5vmesh14MeshParametersE** %__p.addr, align 8, !tbaa !3850
	call void @llvm.dbg.declare (metadata %struct._ZN5vmesh14MeshParametersE** %__p.addr, metadata !5263, metadata !3842), !dbg !5249
	call void @llvm.dbg.declare (metadata i64* %__n.addr, metadata !5264, metadata !3842), !dbg !5249
	store i64 %__n.arg, i64* %__n.addr, align 8, !tbaa !3960
	call void @llvm.dbg.declare (metadata i64* %__n.addr, metadata !5265, metadata !3842), !dbg !5249
	%0 = load %struct._ZN5vmesh14MeshParametersE*, %struct._ZN5vmesh14MeshParametersE** %__p.addr, align 8, !tbaa !3850, !dbg !5266
	%1 = bitcast %struct._ZN5vmesh14MeshParametersE*  %0 to i8*, !dbg !5266
	%2 = icmp eq i8*  %1,  null, !dbg !5266
	br i1  %2, label %L.B0008, label %L.B0947, !dbg !5266
L.B0947:
	%3 = bitcast %struct._ZN5vmesh14MeshParametersE*  %0 to i8*, !dbg !5267
	%4 = bitcast %struct._ZN5vmesh14MeshParametersE** %..inline.addr to i8**, !dbg !5267
	store i8*  %3, i8**  %4, align 8, !tbaa !3850, !dbg !5267
	%5 = load %struct._ZN5vmesh14MeshParametersE*, %struct._ZN5vmesh14MeshParametersE** %..inline.addr, align 8, !tbaa !3850, !dbg !5267
	%6 = bitcast %struct._ZN5vmesh14MeshParametersE*  %5 to i8*, !dbg !5267
	call void  @_ZdlPv (i8*  %6) nounwind, !dbg !5267
	br label %L.B0008
L.B0008:
	ret void, !dbg !5268
}
define linkonce_odr void @_ZNSt12_Vector_baseIN5vmesh14MeshParametersESaIS1_EE17_Vector_impl_dataC1Ev(%struct._ZNSt12_Vector_baseIN5vmesh14MeshParametersESaIS1_EE17_Vector_impl_dataE* %_T44708872_52434.arg) #0 inlinehint !dbg !5273 {
L.entry:
	%_T44708872_52434.addr = alloca %struct._ZNSt12_Vector_baseIN5vmesh14MeshParametersESaIS1_EE17_Vector_impl_dataE*, align 8

	call void @llvm.dbg.declare (metadata %struct._ZNSt12_Vector_baseIN5vmesh14MeshParametersESaIS1_EE17_Vector_impl_dataE** %_T44708872_52434.addr, metadata !5277, metadata !3842), !dbg !5274
	store %struct._ZNSt12_Vector_baseIN5vmesh14MeshParametersESaIS1_EE17_Vector_impl_dataE* %_T44708872_52434.arg, %struct._ZNSt12_Vector_baseIN5vmesh14MeshParametersESaIS1_EE17_Vector_impl_dataE** %_T44708872_52434.addr, align 8, !tbaa !3850
	call void @llvm.dbg.declare (metadata %struct._ZNSt12_Vector_baseIN5vmesh14MeshParametersESaIS1_EE17_Vector_impl_dataE** %_T44708872_52434.addr, metadata !5278, metadata !3842), !dbg !5274
	%0 = load %struct._ZNSt12_Vector_baseIN5vmesh14MeshParametersESaIS1_EE17_Vector_impl_dataE*, %struct._ZNSt12_Vector_baseIN5vmesh14MeshParametersESaIS1_EE17_Vector_impl_dataE** %_T44708872_52434.addr, align 8, !tbaa !3850, !dbg !5279
	%1 = bitcast %struct._ZNSt12_Vector_baseIN5vmesh14MeshParametersESaIS1_EE17_Vector_impl_dataE*  %0 to i8**, !dbg !5279
	store i8* null, i8**  %1, align 8, !tbaa !3850, !dbg !5279
	%2 = bitcast %struct._ZNSt12_Vector_baseIN5vmesh14MeshParametersESaIS1_EE17_Vector_impl_dataE*  %0 to i8*, !dbg !5279
	%3 = getelementptr i8, i8*  %2, i64 8, !dbg !5279
	%4 = bitcast i8*  %3 to i8**, !dbg !5279
	store i8* null, i8**  %4, align 8, !tbaa !3850, !dbg !5279
	%5 = getelementptr i8, i8*  %2, i64 16, !dbg !5279
	%6 = bitcast i8*  %5 to i8**, !dbg !5279
	store i8* null, i8**  %6, align 8, !tbaa !3850, !dbg !5279
	ret void, !dbg !5279
}
define linkonce_odr void @_ZNSt12_Vector_baseIN5vmesh14MeshParametersESaIS1_EE17_Vector_impl_dataC2Ev(%struct._ZNSt12_Vector_baseIN5vmesh14MeshParametersESaIS1_EE17_Vector_impl_dataE* %_T44708872_52435.arg) #0 inlinehint !dbg !5281 {
L.entry:
	%_T44708872_52435.addr = alloca %struct._ZNSt12_Vector_baseIN5vmesh14MeshParametersESaIS1_EE17_Vector_impl_dataE*, align 8
	%..inline.addr = alloca %struct._ZNSt12_Vector_baseIN5vmesh14MeshParametersESaIS1_EE17_Vector_impl_dataE*, align 8

	store %struct._ZNSt12_Vector_baseIN5vmesh14MeshParametersESaIS1_EE17_Vector_impl_dataE* %_T44708872_52435.arg, %struct._ZNSt12_Vector_baseIN5vmesh14MeshParametersESaIS1_EE17_Vector_impl_dataE** %_T44708872_52435.addr, align 8, !tbaa !3850
	%0 = load %struct._ZNSt12_Vector_baseIN5vmesh14MeshParametersESaIS1_EE17_Vector_impl_dataE*, %struct._ZNSt12_Vector_baseIN5vmesh14MeshParametersESaIS1_EE17_Vector_impl_dataE** %_T44708872_52435.addr, align 8, !tbaa !3850, !dbg !5289
	%1 = bitcast %struct._ZNSt12_Vector_baseIN5vmesh14MeshParametersESaIS1_EE17_Vector_impl_dataE*  %0 to i8*, !dbg !5289
	%2 = bitcast %struct._ZNSt12_Vector_baseIN5vmesh14MeshParametersESaIS1_EE17_Vector_impl_dataE** %..inline.addr to i8**, !dbg !5289
	store i8*  %1, i8**  %2, align 8, !tbaa !3850, !dbg !5289
	%3 = load %struct._ZNSt12_Vector_baseIN5vmesh14MeshParametersESaIS1_EE17_Vector_impl_dataE*, %struct._ZNSt12_Vector_baseIN5vmesh14MeshParametersESaIS1_EE17_Vector_impl_dataE** %..inline.addr, align 8, !tbaa !3850, !dbg !5289
	%4 = bitcast %struct._ZNSt12_Vector_baseIN5vmesh14MeshParametersESaIS1_EE17_Vector_impl_dataE*  %3 to i8**, !dbg !5289
	store i8* null, i8**  %4, align 8, !tbaa !3850, !dbg !5289
	%5 = bitcast %struct._ZNSt12_Vector_baseIN5vmesh14MeshParametersESaIS1_EE17_Vector_impl_dataE*  %3 to i8*, !dbg !5289
	%6 = getelementptr i8, i8*  %5, i64 8, !dbg !5289
	%7 = bitcast i8*  %6 to i8**, !dbg !5289
	store i8* null, i8**  %7, align 8, !tbaa !3850, !dbg !5289
	%8 = getelementptr i8, i8*  %5, i64 16, !dbg !5289
	%9 = bitcast i8*  %8 to i8**, !dbg !5289
	store i8* null, i8**  %9, align 8, !tbaa !3850, !dbg !5289
	ret void, !dbg !5289
}
define linkonce_odr void @_ZNSt12_Vector_baseIN5vmesh14MeshParametersESaIS1_EE12_Vector_implC1Ev(%struct._ZNSt12_Vector_baseIN5vmesh14MeshParametersESaIS1_EE12_Vector_implE* %_T44708872_52436.arg) #0 inlinehint !dbg !5294 {
L.entry:
	%_T44708872_52436.addr = alloca %struct._ZNSt12_Vector_baseIN5vmesh14MeshParametersESaIS1_EE12_Vector_implE*, align 8
	%..inline.addr = alloca %struct._ZNSt12_Vector_baseIN5vmesh14MeshParametersESaIS1_EE17_Vector_impl_dataE*, align 8

	call void @llvm.dbg.declare (metadata %struct._ZNSt12_Vector_baseIN5vmesh14MeshParametersESaIS1_EE12_Vector_implE** %_T44708872_52436.addr, metadata !5306, metadata !3842), !dbg !5295
	store %struct._ZNSt12_Vector_baseIN5vmesh14MeshParametersESaIS1_EE12_Vector_implE* %_T44708872_52436.arg, %struct._ZNSt12_Vector_baseIN5vmesh14MeshParametersESaIS1_EE12_Vector_implE** %_T44708872_52436.addr, align 8, !tbaa !3850
	call void @llvm.dbg.declare (metadata %struct._ZNSt12_Vector_baseIN5vmesh14MeshParametersESaIS1_EE12_Vector_implE** %_T44708872_52436.addr, metadata !5307, metadata !3842), !dbg !5295
	%0 = load %struct._ZNSt12_Vector_baseIN5vmesh14MeshParametersESaIS1_EE12_Vector_implE*, %struct._ZNSt12_Vector_baseIN5vmesh14MeshParametersESaIS1_EE12_Vector_implE** %_T44708872_52436.addr, align 8, !tbaa !3850, !dbg !5308
	%1 = bitcast %struct._ZNSt12_Vector_baseIN5vmesh14MeshParametersESaIS1_EE12_Vector_implE*  %0 to i8*, !dbg !5308
	%2 = bitcast %struct._ZNSt12_Vector_baseIN5vmesh14MeshParametersESaIS1_EE17_Vector_impl_dataE** %..inline.addr to i8**, !dbg !5308
	store i8*  %1, i8**  %2, align 8, !tbaa !3850, !dbg !5308
	%3 = load %struct._ZNSt12_Vector_baseIN5vmesh14MeshParametersESaIS1_EE17_Vector_impl_dataE*, %struct._ZNSt12_Vector_baseIN5vmesh14MeshParametersESaIS1_EE17_Vector_impl_dataE** %..inline.addr, align 8, !tbaa !3850, !dbg !5308
	%4 = bitcast %struct._ZNSt12_Vector_baseIN5vmesh14MeshParametersESaIS1_EE17_Vector_impl_dataE*  %3 to i8**, !dbg !5308
	store i8* null, i8**  %4, align 8, !tbaa !3850, !dbg !5308
	%5 = bitcast %struct._ZNSt12_Vector_baseIN5vmesh14MeshParametersESaIS1_EE17_Vector_impl_dataE*  %3 to i8*, !dbg !5309
	%6 = getelementptr i8, i8*  %5, i64 8, !dbg !5309
	%7 = bitcast i8*  %6 to i8**, !dbg !5309
	store i8* null, i8**  %7, align 8, !tbaa !3850, !dbg !5309
	%8 = getelementptr i8, i8*  %5, i64 16, !dbg !5309
	%9 = bitcast i8*  %8 to i8**, !dbg !5309
	store i8* null, i8**  %9, align 8, !tbaa !3850, !dbg !5309
	ret void, !dbg !5308
}
define linkonce_odr void @_ZNSt12_Vector_baseIN5vmesh14MeshParametersESaIS1_EE12_Vector_implC2Ev(%struct._ZNSt12_Vector_baseIN5vmesh14MeshParametersESaIS1_EE12_Vector_implE* %_T44708872_52437.arg) #0 inlinehint !dbg !5311 {
L.entry:
	%_T44708872_52437.addr = alloca %struct._ZNSt12_Vector_baseIN5vmesh14MeshParametersESaIS1_EE12_Vector_implE*, align 8
	%..inline.addr = alloca %struct._ZNSt12_Vector_baseIN5vmesh14MeshParametersESaIS1_EE17_Vector_impl_dataE*, align 8

	store %struct._ZNSt12_Vector_baseIN5vmesh14MeshParametersESaIS1_EE12_Vector_implE* %_T44708872_52437.arg, %struct._ZNSt12_Vector_baseIN5vmesh14MeshParametersESaIS1_EE12_Vector_implE** %_T44708872_52437.addr, align 8, !tbaa !3850
	%0 = load %struct._ZNSt12_Vector_baseIN5vmesh14MeshParametersESaIS1_EE12_Vector_implE*, %struct._ZNSt12_Vector_baseIN5vmesh14MeshParametersESaIS1_EE12_Vector_implE** %_T44708872_52437.addr, align 8, !tbaa !3850, !dbg !5327
	%1 = bitcast %struct._ZNSt12_Vector_baseIN5vmesh14MeshParametersESaIS1_EE12_Vector_implE*  %0 to i8*, !dbg !5327
	%2 = bitcast %struct._ZNSt12_Vector_baseIN5vmesh14MeshParametersESaIS1_EE17_Vector_impl_dataE** %..inline.addr to i8**, !dbg !5327
	store i8*  %1, i8**  %2, align 8, !tbaa !3850, !dbg !5327
	%3 = load %struct._ZNSt12_Vector_baseIN5vmesh14MeshParametersESaIS1_EE17_Vector_impl_dataE*, %struct._ZNSt12_Vector_baseIN5vmesh14MeshParametersESaIS1_EE17_Vector_impl_dataE** %..inline.addr, align 8, !tbaa !3850, !dbg !5327
	%4 = bitcast %struct._ZNSt12_Vector_baseIN5vmesh14MeshParametersESaIS1_EE17_Vector_impl_dataE*  %3 to i8**, !dbg !5327
	store i8* null, i8**  %4, align 8, !tbaa !3850, !dbg !5327
	%5 = bitcast %struct._ZNSt12_Vector_baseIN5vmesh14MeshParametersESaIS1_EE17_Vector_impl_dataE*  %3 to i8*, !dbg !5327
	%6 = getelementptr i8, i8*  %5, i64 8, !dbg !5327
	%7 = bitcast i8*  %6 to i8**, !dbg !5327
	store i8* null, i8**  %7, align 8, !tbaa !3850, !dbg !5327
	%8 = getelementptr i8, i8*  %5, i64 16, !dbg !5327
	%9 = bitcast i8*  %8 to i8**, !dbg !5327
	store i8* null, i8**  %9, align 8, !tbaa !3850, !dbg !5327
	ret void, !dbg !5327
}
define linkonce_odr void @_ZNSt12_Vector_baseIN5vmesh14MeshParametersESaIS1_EE12_Vector_implD1Ev(%struct._ZNSt12_Vector_baseIN5vmesh14MeshParametersESaIS1_EE12_Vector_implE* %_T44708872_52438.arg) #0 inlinehint !dbg !5329 {
L.entry:
	%_T44708872_52438.addr = alloca %struct._ZNSt12_Vector_baseIN5vmesh14MeshParametersESaIS1_EE12_Vector_implE*, align 8

	call void @llvm.dbg.declare (metadata %struct._ZNSt12_Vector_baseIN5vmesh14MeshParametersESaIS1_EE12_Vector_implE** %_T44708872_52438.addr, metadata !5341, metadata !3842), !dbg !5330
	store %struct._ZNSt12_Vector_baseIN5vmesh14MeshParametersESaIS1_EE12_Vector_implE* %_T44708872_52438.arg, %struct._ZNSt12_Vector_baseIN5vmesh14MeshParametersESaIS1_EE12_Vector_implE** %_T44708872_52438.addr, align 8, !tbaa !3850
	call void @llvm.dbg.declare (metadata %struct._ZNSt12_Vector_baseIN5vmesh14MeshParametersESaIS1_EE12_Vector_implE** %_T44708872_52438.addr, metadata !5342, metadata !3842), !dbg !5330
	ret void, !dbg !5343
}
define linkonce_odr void @_ZNSt12_Vector_baseIN5vmesh14MeshParametersESaIS1_EE12_Vector_implD2Ev(%struct._ZNSt12_Vector_baseIN5vmesh14MeshParametersESaIS1_EE12_Vector_implE* %_T44708872_52439.arg) #0 inlinehint !dbg !5345 {
L.entry:
	%_T44708872_52439.addr = alloca %struct._ZNSt12_Vector_baseIN5vmesh14MeshParametersESaIS1_EE12_Vector_implE*, align 8

	store %struct._ZNSt12_Vector_baseIN5vmesh14MeshParametersESaIS1_EE12_Vector_implE* %_T44708872_52439.arg, %struct._ZNSt12_Vector_baseIN5vmesh14MeshParametersESaIS1_EE12_Vector_implE** %_T44708872_52439.addr, align 8, !tbaa !3850
	ret void, !dbg !5361
}

%struct._ZSt6vectorIN5vmesh14MeshParametersESaIS1_EE = type <{ %struct._ZSt12_Vector_baseIN5vmesh14MeshParametersESaIS1_EE}> 

define linkonce_odr void @_ZNSt6vectorIN5vmesh14MeshParametersESaIS1_EEC1Ev(%struct._ZSt6vectorIN5vmesh14MeshParametersESaIS1_EE* %_T44708872_52440.arg) #0 inlinehint !dbg !5366 {
L.entry:
	%_T44708872_52440.addr = alloca %struct._ZSt6vectorIN5vmesh14MeshParametersESaIS1_EE*, align 8
	%..inline.addr = alloca %struct._ZNSt12_Vector_baseIN5vmesh14MeshParametersESaIS1_EE17_Vector_impl_dataE*, align 8

	call void @llvm.dbg.declare (metadata %struct._ZSt6vectorIN5vmesh14MeshParametersESaIS1_EE** %_T44708872_52440.addr, metadata !5390, metadata !3842), !dbg !5367
	store %struct._ZSt6vectorIN5vmesh14MeshParametersESaIS1_EE* %_T44708872_52440.arg, %struct._ZSt6vectorIN5vmesh14MeshParametersESaIS1_EE** %_T44708872_52440.addr, align 8, !tbaa !3850
	call void @llvm.dbg.declare (metadata %struct._ZSt6vectorIN5vmesh14MeshParametersESaIS1_EE** %_T44708872_52440.addr, metadata !5391, metadata !3842), !dbg !5367
	%0 = load %struct._ZSt6vectorIN5vmesh14MeshParametersESaIS1_EE*, %struct._ZSt6vectorIN5vmesh14MeshParametersESaIS1_EE** %_T44708872_52440.addr, align 8, !tbaa !3850, !dbg !5392
	%1 = bitcast %struct._ZSt6vectorIN5vmesh14MeshParametersESaIS1_EE*  %0 to i8*, !dbg !5392
	%2 = bitcast %struct._ZNSt12_Vector_baseIN5vmesh14MeshParametersESaIS1_EE17_Vector_impl_dataE** %..inline.addr to i8**, !dbg !5392
	store i8*  %1, i8**  %2, align 8, !tbaa !3850, !dbg !5392
	%3 = load %struct._ZNSt12_Vector_baseIN5vmesh14MeshParametersESaIS1_EE17_Vector_impl_dataE*, %struct._ZNSt12_Vector_baseIN5vmesh14MeshParametersESaIS1_EE17_Vector_impl_dataE** %..inline.addr, align 8, !tbaa !3850, !dbg !5392
	%4 = bitcast %struct._ZNSt12_Vector_baseIN5vmesh14MeshParametersESaIS1_EE17_Vector_impl_dataE*  %3 to i8**, !dbg !5392
	store i8* null, i8**  %4, align 8, !tbaa !3850, !dbg !5392
	%5 = bitcast %struct._ZNSt12_Vector_baseIN5vmesh14MeshParametersESaIS1_EE17_Vector_impl_dataE*  %3 to i8*, !dbg !5392
	%6 = getelementptr i8, i8*  %5, i64 8, !dbg !5392
	%7 = bitcast i8*  %6 to i8**, !dbg !5392
	store i8* null, i8**  %7, align 8, !tbaa !3850, !dbg !5392
	%8 = getelementptr i8, i8*  %5, i64 16, !dbg !5392
	%9 = bitcast i8*  %8 to i8**, !dbg !5392
	store i8* null, i8**  %9, align 8, !tbaa !3850, !dbg !5392
	ret void, !dbg !5392
}
define linkonce_odr void @_ZNSt6vectorIN5vmesh14MeshParametersESaIS1_EEC2Ev(%struct._ZSt6vectorIN5vmesh14MeshParametersESaIS1_EE* %_T44708872_52441.arg) #0 inlinehint !dbg !5394 {
L.entry:
	%_T44708872_52441.addr = alloca %struct._ZSt6vectorIN5vmesh14MeshParametersESaIS1_EE*, align 8
	%..inline.addr = alloca %struct._ZNSt12_Vector_baseIN5vmesh14MeshParametersESaIS1_EE17_Vector_impl_dataE*, align 8

	store %struct._ZSt6vectorIN5vmesh14MeshParametersESaIS1_EE* %_T44708872_52441.arg, %struct._ZSt6vectorIN5vmesh14MeshParametersESaIS1_EE** %_T44708872_52441.addr, align 8, !tbaa !3850
	%0 = load %struct._ZSt6vectorIN5vmesh14MeshParametersESaIS1_EE*, %struct._ZSt6vectorIN5vmesh14MeshParametersESaIS1_EE** %_T44708872_52441.addr, align 8, !tbaa !3850, !dbg !5422
	%1 = bitcast %struct._ZSt6vectorIN5vmesh14MeshParametersESaIS1_EE*  %0 to i8*, !dbg !5422
	%2 = bitcast %struct._ZNSt12_Vector_baseIN5vmesh14MeshParametersESaIS1_EE17_Vector_impl_dataE** %..inline.addr to i8**, !dbg !5422
	store i8*  %1, i8**  %2, align 8, !tbaa !3850, !dbg !5422
	%3 = load %struct._ZNSt12_Vector_baseIN5vmesh14MeshParametersESaIS1_EE17_Vector_impl_dataE*, %struct._ZNSt12_Vector_baseIN5vmesh14MeshParametersESaIS1_EE17_Vector_impl_dataE** %..inline.addr, align 8, !tbaa !3850, !dbg !5422
	%4 = bitcast %struct._ZNSt12_Vector_baseIN5vmesh14MeshParametersESaIS1_EE17_Vector_impl_dataE*  %3 to i8**, !dbg !5422
	store i8* null, i8**  %4, align 8, !tbaa !3850, !dbg !5422
	%5 = bitcast %struct._ZNSt12_Vector_baseIN5vmesh14MeshParametersESaIS1_EE17_Vector_impl_dataE*  %3 to i8*, !dbg !5422
	%6 = getelementptr i8, i8*  %5, i64 8, !dbg !5422
	%7 = bitcast i8*  %6 to i8**, !dbg !5422
	store i8* null, i8**  %7, align 8, !tbaa !3850, !dbg !5422
	%8 = getelementptr i8, i8*  %5, i64 16, !dbg !5422
	%9 = bitcast i8*  %8 to i8**, !dbg !5422
	store i8* null, i8**  %9, align 8, !tbaa !3850, !dbg !5422
	ret void, !dbg !5422
}
define linkonce_odr void @_ZNSt6vectorIN5vmesh14MeshParametersESaIS1_EED1Ev(%struct._ZSt6vectorIN5vmesh14MeshParametersESaIS1_EE* %_T44708872_52442.arg) #0 inlinehint !dbg !5424 {
L.entry:
	%_T44708872_52442.addr = alloca %struct._ZSt6vectorIN5vmesh14MeshParametersESaIS1_EE*, align 8
	%..inline.addr = alloca %struct._ZN5vmesh14MeshParametersE*, align 8
	%..inline.addr.1 = alloca %struct._ZN5vmesh14MeshParametersE*, align 8
	%.lcr4474753.addr = alloca i8*, align 8
	%..inline.addr.2 = alloca %struct._ZN5vmesh14MeshParametersE*, align 8
	%..inline.addr.3 = alloca %struct._ZSt12_Vector_baseIN5vmesh14MeshParametersESaIS1_EE*, align 8
	%..inline.addr.4 = alloca %struct._ZN5vmesh14MeshParametersE*, align 8

	call void @llvm.dbg.declare (metadata %struct._ZSt6vectorIN5vmesh14MeshParametersESaIS1_EE** %_T44708872_52442.addr, metadata !5484, metadata !3842), !dbg !5425
	store %struct._ZSt6vectorIN5vmesh14MeshParametersESaIS1_EE* %_T44708872_52442.arg, %struct._ZSt6vectorIN5vmesh14MeshParametersESaIS1_EE** %_T44708872_52442.addr, align 8, !tbaa !3850
	call void @llvm.dbg.declare (metadata %struct._ZSt6vectorIN5vmesh14MeshParametersESaIS1_EE** %_T44708872_52442.addr, metadata !5485, metadata !3842), !dbg !5425
	%0 = load %struct._ZSt6vectorIN5vmesh14MeshParametersESaIS1_EE*, %struct._ZSt6vectorIN5vmesh14MeshParametersESaIS1_EE** %_T44708872_52442.addr, align 8, !tbaa !3850, !dbg !5486
	%1 = bitcast %struct._ZSt6vectorIN5vmesh14MeshParametersESaIS1_EE*  %0 to i8**, !dbg !5486
	%2 = load i8*, i8**  %1, align 8, !tbaa !3850, !dbg !5486
	%3 = bitcast %struct._ZN5vmesh14MeshParametersE** %..inline.addr to i8**, !dbg !5486
	store i8*  %2, i8**  %3, align 8, !tbaa !3850, !dbg !5486
	%4 = bitcast %struct._ZSt6vectorIN5vmesh14MeshParametersESaIS1_EE*  %0 to i8*, !dbg !5486
	%5 = getelementptr i8, i8*  %4, i64 8, !dbg !5486
	%6 = bitcast i8*  %5 to i8**, !dbg !5486
	%7 = load i8*, i8**  %6, align 8, !tbaa !3850, !dbg !5486
	%8 = bitcast %struct._ZN5vmesh14MeshParametersE** %..inline.addr.1 to i8**, !dbg !5486
	store i8*  %7, i8**  %8, align 8, !tbaa !3850, !dbg !5486
	%9 = load %struct._ZN5vmesh14MeshParametersE*, %struct._ZN5vmesh14MeshParametersE** %..inline.addr, align 8, !tbaa !3850, !dbg !5486
	%10 = bitcast %struct._ZN5vmesh14MeshParametersE*  %9 to i8*, !dbg !5486
	%11 = load %struct._ZN5vmesh14MeshParametersE*, %struct._ZN5vmesh14MeshParametersE** %..inline.addr.1, align 8, !tbaa !3850, !dbg !5486
	%12 = bitcast %struct._ZN5vmesh14MeshParametersE*  %11 to i8*, !dbg !5486
	%13 = icmp eq i8*  %10,  %12, !dbg !5486
	br i1  %13, label %L..inline.65189, label %L.B0968, !dbg !5486
L.B0968:
	%14 = bitcast %struct._ZN5vmesh14MeshParametersE*  %9 to i8*, !dbg !5486
	%15 = bitcast %struct._ZN5vmesh14MeshParametersE*  %11 to i8*, !dbg !5486
	%16 = ptrtoint i8*  %14 to i64, !dbg !5486
	%17 = sub i64 0,  %16, !dbg !5486
	%18 = getelementptr i8, i8*  %15, i64  %17, !dbg !5486
	%19 = ptrtoint i8*  %18 to i64, !dbg !5486
	%20 = add i64  %19, 335, !dbg !5486
	%21 = sub i64 0,  %16, !dbg !5486
	%22 = getelementptr i8, i8*  %15, i64  %21, !dbg !5486
	%23 = ptrtoint i8*  %22 to i64, !dbg !5486
	%24 = add i64  %23, 335, !dbg !5486
	%25 = sext i64 -4392081922311798003 to i128, !dbg !5486
	%26 = sext i64  %24 to i128, !dbg !5486
	%27 = mul i128  %25,  %26, !dbg !5486
	%28 = ashr i128  %27, 64, !dbg !5486
	%29 = trunc i128  %28 to i64, !dbg !5486
	%30 = add i64  %20,  %29, !dbg !5486
	%31 = sext i32 8 to i64, !dbg !5486
	%32 = ashr i64  %30,  %31, !dbg !5486
	%33 = sub i64 0,  %16, !dbg !5486
	%34 = getelementptr i8, i8*  %15, i64  %33, !dbg !5486
	%35 = ptrtoint i8*  %34 to i64, !dbg !5486
	%36 = add i64  %35, 335, !dbg !5486
	%37 = sext i32 63 to i64, !dbg !5486
	%38 = ashr i64  %36,  %37, !dbg !5486
	%39 = sub i64  %32,  %38, !dbg !5486
	%40 = mul i64  %39, 336, !dbg !5486
	%41 = getelementptr i8, i8*  %14, i64  %40, !dbg !5486
	store i8*  %41, i8** %.lcr4474753.addr, align 8, !tbaa !3850, !dbg !5486
	br label %L..inline.65188
L..inline.65188:
	%42 = load %struct._ZN5vmesh14MeshParametersE*, %struct._ZN5vmesh14MeshParametersE** %..inline.addr, align 8, !tbaa !3850, !dbg !5486
	%43 = bitcast %struct._ZN5vmesh14MeshParametersE*  %42 to i8*, !dbg !5486
	%44 = bitcast %struct._ZN5vmesh14MeshParametersE** %..inline.addr.2 to i8**, !dbg !5486
	store i8*  %43, i8**  %44, align 8, !tbaa !3850, !dbg !5486
	%45 = load %struct._ZN5vmesh14MeshParametersE*, %struct._ZN5vmesh14MeshParametersE** %..inline.addr.2, align 8, !tbaa !3850, !dbg !5486
	call void  @_ZN5vmesh14MeshParametersD1Ev (%struct._ZN5vmesh14MeshParametersE*  %45) nounwind, !dbg !5486
	%46 = load %struct._ZN5vmesh14MeshParametersE*, %struct._ZN5vmesh14MeshParametersE** %..inline.addr, align 8, !tbaa !3850, !dbg !5486
	%47 = bitcast %struct._ZN5vmesh14MeshParametersE*  %46 to i8*, !dbg !5486
	%48 = getelementptr i8, i8*  %47, i64 336, !dbg !5486
	%49 = bitcast %struct._ZN5vmesh14MeshParametersE** %..inline.addr to i8**, !dbg !5486
	store i8*  %48, i8**  %49, align 8, !tbaa !3850, !dbg !5486
	%50 = load %struct._ZN5vmesh14MeshParametersE*, %struct._ZN5vmesh14MeshParametersE** %..inline.addr, align 8, !tbaa !3850, !dbg !5486
	%51 = bitcast %struct._ZN5vmesh14MeshParametersE*  %50 to i8*, !dbg !5486
	%52 = load i8*, i8** %.lcr4474753.addr, align 8, !tbaa !3850, !dbg !5486
	%53 = icmp ult i8*  %51,  %52, !dbg !5486
	br i1  %53, label %L..inline.65188, label %L..inline.65189, !dbg !5486
L..inline.65189:
	%54 = load %struct._ZSt6vectorIN5vmesh14MeshParametersESaIS1_EE*, %struct._ZSt6vectorIN5vmesh14MeshParametersESaIS1_EE** %_T44708872_52442.addr, align 8, !tbaa !3850, !dbg !5487
	%55 = bitcast %struct._ZSt6vectorIN5vmesh14MeshParametersESaIS1_EE*  %54 to i8*, !dbg !5487
	%56 = bitcast %struct._ZSt12_Vector_baseIN5vmesh14MeshParametersESaIS1_EE** %..inline.addr.3 to i8**, !dbg !5487
	store i8*  %55, i8**  %56, align 8, !tbaa !3850, !dbg !5487
	%57 = load %struct._ZSt12_Vector_baseIN5vmesh14MeshParametersESaIS1_EE*, %struct._ZSt12_Vector_baseIN5vmesh14MeshParametersESaIS1_EE** %..inline.addr.3, align 8, !tbaa !3850, !dbg !5488
	%58 = bitcast %struct._ZSt12_Vector_baseIN5vmesh14MeshParametersESaIS1_EE*  %57 to i8**, !dbg !5488
	%59 = load i8*, i8**  %58, align 8, !tbaa !3850, !dbg !5488
	%60 = icmp eq i8*  %59,  null, !dbg !5488
	br i1  %60, label %L..inline.65221, label %L.B0969, !dbg !5488
L.B0969:
	%61 = bitcast %struct._ZSt12_Vector_baseIN5vmesh14MeshParametersESaIS1_EE*  %57 to i8**, !dbg !5488
	%62 = load i8*, i8**  %61, align 8, !tbaa !3850, !dbg !5488
	%63 = bitcast %struct._ZN5vmesh14MeshParametersE** %..inline.addr.4 to i8**, !dbg !5488
	store i8*  %62, i8**  %63, align 8, !tbaa !3850, !dbg !5488
	%64 = load %struct._ZN5vmesh14MeshParametersE*, %struct._ZN5vmesh14MeshParametersE** %..inline.addr.4, align 8, !tbaa !3850, !dbg !5488
	%65 = bitcast %struct._ZN5vmesh14MeshParametersE*  %64 to i8*, !dbg !5488
	call void  @_ZdlPv (i8*  %65) nounwind, !dbg !5488
	br label %L..inline.65221
L..inline.65221:
	ret void, !dbg !5487
}
define linkonce_odr void @_ZNSt6vectorIN5vmesh14MeshParametersESaIS1_EED2Ev(%struct._ZSt6vectorIN5vmesh14MeshParametersESaIS1_EE* %_T44708872_52443.arg) #0 inlinehint !dbg !5490 {
L.entry:
	%_T44708872_52443.addr = alloca %struct._ZSt6vectorIN5vmesh14MeshParametersESaIS1_EE*, align 8
	%..inline.addr = alloca %struct._ZSt6vectorIN5vmesh14MeshParametersESaIS1_EE*, align 8
	%..inline.addr.1 = alloca %struct._ZN5vmesh14MeshParametersE*, align 8
	%..inline.addr.2 = alloca %struct._ZN5vmesh14MeshParametersE*, align 8
	%.lcr4475777.addr = alloca i8*, align 8
	%..inline.addr.3 = alloca %struct._ZN5vmesh14MeshParametersE*, align 8
	%..inline.addr.4 = alloca %struct._ZN5vmesh14MeshParametersE*, align 8

	store %struct._ZSt6vectorIN5vmesh14MeshParametersESaIS1_EE* %_T44708872_52443.arg, %struct._ZSt6vectorIN5vmesh14MeshParametersESaIS1_EE** %_T44708872_52443.addr, align 8, !tbaa !3850
	%0 = load %struct._ZSt6vectorIN5vmesh14MeshParametersESaIS1_EE*, %struct._ZSt6vectorIN5vmesh14MeshParametersESaIS1_EE** %_T44708872_52443.addr, align 8, !tbaa !3850, !dbg !5554
	%1 = bitcast %struct._ZSt6vectorIN5vmesh14MeshParametersESaIS1_EE*  %0 to i8*, !dbg !5554
	%2 = bitcast %struct._ZSt6vectorIN5vmesh14MeshParametersESaIS1_EE** %..inline.addr to i8**, !dbg !5554
	store i8*  %1, i8**  %2, align 8, !tbaa !3850, !dbg !5554
	%3 = load %struct._ZSt6vectorIN5vmesh14MeshParametersESaIS1_EE*, %struct._ZSt6vectorIN5vmesh14MeshParametersESaIS1_EE** %..inline.addr, align 8, !tbaa !3850, !dbg !5555
	%4 = bitcast %struct._ZSt6vectorIN5vmesh14MeshParametersESaIS1_EE*  %3 to i8**, !dbg !5555
	%5 = load i8*, i8**  %4, align 8, !tbaa !3850, !dbg !5555
	%6 = bitcast %struct._ZN5vmesh14MeshParametersE** %..inline.addr.1 to i8**, !dbg !5555
	store i8*  %5, i8**  %6, align 8, !tbaa !3850, !dbg !5555
	%7 = bitcast %struct._ZSt6vectorIN5vmesh14MeshParametersESaIS1_EE*  %3 to i8*, !dbg !5555
	%8 = getelementptr i8, i8*  %7, i64 8, !dbg !5555
	%9 = bitcast i8*  %8 to i8**, !dbg !5555
	%10 = load i8*, i8**  %9, align 8, !tbaa !3850, !dbg !5555
	%11 = bitcast %struct._ZN5vmesh14MeshParametersE** %..inline.addr.2 to i8**, !dbg !5555
	store i8*  %10, i8**  %11, align 8, !tbaa !3850, !dbg !5555
	%12 = load %struct._ZN5vmesh14MeshParametersE*, %struct._ZN5vmesh14MeshParametersE** %..inline.addr.1, align 8, !tbaa !3850, !dbg !5555
	%13 = bitcast %struct._ZN5vmesh14MeshParametersE*  %12 to i8*, !dbg !5555
	%14 = load %struct._ZN5vmesh14MeshParametersE*, %struct._ZN5vmesh14MeshParametersE** %..inline.addr.2, align 8, !tbaa !3850, !dbg !5555
	%15 = bitcast %struct._ZN5vmesh14MeshParametersE*  %14 to i8*, !dbg !5555
	%16 = icmp eq i8*  %13,  %15, !dbg !5555
	br i1  %16, label %L..inline.65320, label %L.B0972, !dbg !5555
L.B0972:
	%17 = bitcast %struct._ZN5vmesh14MeshParametersE*  %12 to i8*, !dbg !5555
	%18 = bitcast %struct._ZN5vmesh14MeshParametersE*  %14 to i8*, !dbg !5555
	%19 = ptrtoint i8*  %17 to i64, !dbg !5555
	%20 = sub i64 0,  %19, !dbg !5555
	%21 = getelementptr i8, i8*  %18, i64  %20, !dbg !5555
	%22 = ptrtoint i8*  %21 to i64, !dbg !5555
	%23 = add i64  %22, 335, !dbg !5555
	%24 = sub i64 0,  %19, !dbg !5555
	%25 = getelementptr i8, i8*  %18, i64  %24, !dbg !5555
	%26 = ptrtoint i8*  %25 to i64, !dbg !5555
	%27 = add i64  %26, 335, !dbg !5555
	%28 = sext i64 -4392081922311798003 to i128, !dbg !5555
	%29 = sext i64  %27 to i128, !dbg !5555
	%30 = mul i128  %28,  %29, !dbg !5555
	%31 = ashr i128  %30, 64, !dbg !5555
	%32 = trunc i128  %31 to i64, !dbg !5555
	%33 = add i64  %23,  %32, !dbg !5555
	%34 = sext i32 8 to i64, !dbg !5555
	%35 = ashr i64  %33,  %34, !dbg !5555
	%36 = sub i64 0,  %19, !dbg !5555
	%37 = getelementptr i8, i8*  %18, i64  %36, !dbg !5555
	%38 = ptrtoint i8*  %37 to i64, !dbg !5555
	%39 = add i64  %38, 335, !dbg !5555
	%40 = sext i32 63 to i64, !dbg !5555
	%41 = ashr i64  %39,  %40, !dbg !5555
	%42 = sub i64  %35,  %41, !dbg !5555
	%43 = mul i64  %42, 336, !dbg !5555
	%44 = getelementptr i8, i8*  %17, i64  %43, !dbg !5555
	store i8*  %44, i8** %.lcr4475777.addr, align 8, !tbaa !3850, !dbg !5555
	br label %L..inline.65319
L..inline.65319:
	%45 = load %struct._ZN5vmesh14MeshParametersE*, %struct._ZN5vmesh14MeshParametersE** %..inline.addr.1, align 8, !tbaa !3850, !dbg !5555
	%46 = bitcast %struct._ZN5vmesh14MeshParametersE*  %45 to i8*, !dbg !5555
	%47 = bitcast %struct._ZN5vmesh14MeshParametersE** %..inline.addr.3 to i8**, !dbg !5555
	store i8*  %46, i8**  %47, align 8, !tbaa !3850, !dbg !5555
	%48 = load %struct._ZN5vmesh14MeshParametersE*, %struct._ZN5vmesh14MeshParametersE** %..inline.addr.3, align 8, !tbaa !3850, !dbg !5555
	call void  @_ZN5vmesh14MeshParametersD1Ev (%struct._ZN5vmesh14MeshParametersE*  %48) nounwind, !dbg !5555
	%49 = load %struct._ZN5vmesh14MeshParametersE*, %struct._ZN5vmesh14MeshParametersE** %..inline.addr.1, align 8, !tbaa !3850, !dbg !5555
	%50 = bitcast %struct._ZN5vmesh14MeshParametersE*  %49 to i8*, !dbg !5555
	%51 = getelementptr i8, i8*  %50, i64 336, !dbg !5555
	%52 = bitcast %struct._ZN5vmesh14MeshParametersE** %..inline.addr.1 to i8**, !dbg !5555
	store i8*  %51, i8**  %52, align 8, !tbaa !3850, !dbg !5555
	%53 = load %struct._ZN5vmesh14MeshParametersE*, %struct._ZN5vmesh14MeshParametersE** %..inline.addr.1, align 8, !tbaa !3850, !dbg !5555
	%54 = bitcast %struct._ZN5vmesh14MeshParametersE*  %53 to i8*, !dbg !5555
	%55 = load i8*, i8** %.lcr4475777.addr, align 8, !tbaa !3850, !dbg !5555
	%56 = icmp ult i8*  %54,  %55, !dbg !5555
	br i1  %56, label %L..inline.65319, label %L..inline.65320, !dbg !5555
L..inline.65320:
	%57 = load %struct._ZSt6vectorIN5vmesh14MeshParametersESaIS1_EE*, %struct._ZSt6vectorIN5vmesh14MeshParametersESaIS1_EE** %..inline.addr, align 8, !tbaa !3850, !dbg !5556
	%58 = bitcast %struct._ZSt6vectorIN5vmesh14MeshParametersESaIS1_EE*  %57 to i8**, !dbg !5556
	%59 = load i8*, i8**  %58, align 8, !tbaa !3850, !dbg !5556
	%60 = icmp eq i8*  %59,  null, !dbg !5556
	br i1  %60, label %L..inline.65350, label %L.B0973, !dbg !5556
L.B0973:
	%61 = bitcast %struct._ZSt6vectorIN5vmesh14MeshParametersESaIS1_EE*  %57 to i8**, !dbg !5556
	%62 = load i8*, i8**  %61, align 8, !tbaa !3850, !dbg !5556
	%63 = bitcast %struct._ZN5vmesh14MeshParametersE** %..inline.addr.4 to i8**, !dbg !5556
	store i8*  %62, i8**  %63, align 8, !tbaa !3850, !dbg !5556
	%64 = load %struct._ZN5vmesh14MeshParametersE*, %struct._ZN5vmesh14MeshParametersE** %..inline.addr.4, align 8, !tbaa !3850, !dbg !5556
	%65 = bitcast %struct._ZN5vmesh14MeshParametersE*  %64 to i8*, !dbg !5556
	call void  @_ZdlPv (i8*  %65) nounwind, !dbg !5556
	br label %L..inline.65350
L..inline.65350:
	ret void, !dbg !5556
}

%struct._ZSt12_Vector_baseIN7species7SpeciesESaIS1_EE = type <{ %struct._ZNSt12_Vector_baseIN7species7SpeciesESaIS1_EE12_Vector_implE}> 
%struct._ZNSt12_Vector_baseIN7species7SpeciesESaIS1_EE12_Vector_implE = type <{ %struct._ZNSt12_Vector_baseIN7species7SpeciesESaIS1_EE17_Vector_impl_dataE}> 
%struct._ZN7species7SpeciesE = type <{ %struct._ZNSt7__cxx1112basic_stringIcSt11char_traitsIcESaIcEEE, double, double, double, i64, i32, i8, [3 x i8], i32, [4 x i8], double, double, double, double, double, %struct._ZSt5arrayIdLm3EE, double, double, double, double, i32, [4 x i8], double, double, double}> 
%struct._ZNSt12_Vector_baseIN7species7SpeciesESaIS1_EE17_Vector_impl_dataE = type <{ %struct._ZN7species7SpeciesE*, %struct._ZN7species7SpeciesE*, %struct._ZN7species7SpeciesE*}> 
%struct._ZSt5arrayIdLm3EE = type <{ [3 x double]}> 
%struct._ZSt6vectorIN7species7SpeciesESaIS1_EE = type <{ %struct._ZSt12_Vector_baseIN7species7SpeciesESaIS1_EE}> 

define linkonce_odr i64 @_ZNKSt6vectorIN7species7SpeciesESaIS1_EE4sizeEv(%struct._ZSt6vectorIN7species7SpeciesESaIS1_EE* %_T44708872_52445.arg) #0 inlinehint !dbg !5561 {
L.entry:
	%_T44708872_52445.addr = alloca %struct._ZSt6vectorIN7species7SpeciesESaIS1_EE*, align 8
	%_T44709760_52445.addr = alloca i64, align 8

	call void @llvm.dbg.declare (metadata %struct._ZSt6vectorIN7species7SpeciesESaIS1_EE** %_T44708872_52445.addr, metadata !5565, metadata !3842), !dbg !5562
	store %struct._ZSt6vectorIN7species7SpeciesESaIS1_EE* %_T44708872_52445.arg, %struct._ZSt6vectorIN7species7SpeciesESaIS1_EE** %_T44708872_52445.addr, align 8, !tbaa !3850
	call void @llvm.dbg.declare (metadata %struct._ZSt6vectorIN7species7SpeciesESaIS1_EE** %_T44708872_52445.addr, metadata !5566, metadata !3842), !dbg !5562
	%0 = load %struct._ZSt6vectorIN7species7SpeciesESaIS1_EE*, %struct._ZSt6vectorIN7species7SpeciesESaIS1_EE** %_T44708872_52445.addr, align 8, !tbaa !3850, !dbg !5567
	%1 = bitcast %struct._ZSt6vectorIN7species7SpeciesESaIS1_EE*  %0 to i8*, !dbg !5567
	%2 = getelementptr i8, i8*  %1, i64 8, !dbg !5567
	%3 = bitcast i8*  %2 to i8**, !dbg !5567
	%4 = load i8*, i8**  %3, align 8, !tbaa !3850, !dbg !5567
	%5 = bitcast %struct._ZSt6vectorIN7species7SpeciesESaIS1_EE*  %0 to i8**, !dbg !5567
	%6 = load i8*, i8**  %5, align 8, !tbaa !3850, !dbg !5567
	%7 = ptrtoint i8*  %6 to i64, !dbg !5567
	%8 = sub i64 0,  %7, !dbg !5567
	%9 = getelementptr i8, i8*  %4, i64  %8, !dbg !5567
	%10 = ptrtoint i8*  %9 to i64, !dbg !5567
	%11 = sext i64 5675921253449092805 to i128, !dbg !5567
	%12 = sext i64  %10 to i128, !dbg !5567
	%13 = mul i128  %11,  %12, !dbg !5567
	%14 = ashr i128  %13, 64, !dbg !5567
	%15 = trunc i128  %14 to i64, !dbg !5567
	%16 = sext i32 6 to i64, !dbg !5567
	%17 = ashr i64  %15,  %16, !dbg !5567
	%18 = sub i64 0,  %7, !dbg !5567
	%19 = getelementptr i8, i8*  %4, i64  %18, !dbg !5567
	%20 = ptrtoint i8*  %19 to i64, !dbg !5567
	%21 = sext i32 63 to i64, !dbg !5567
	%22 = ashr i64  %20,  %21, !dbg !5567
	%23 = sub i64  %17,  %22, !dbg !5567
	ret i64  %23, !dbg !5567
}
define linkonce_odr i8* @_ZNSt14pointer_traitsIPcE10pointer_toERc(i8* %__r.arg) #0 inlinehint !dbg !5573 {
L.entry:
	%__r.addr = alloca i8*, align 8

	call void @llvm.dbg.declare (metadata i8** %__r.addr, metadata !5585, metadata !3842), !dbg !5574
	store i8* %__r.arg, i8** %__r.addr, align 8, !tbaa !3850
	call void @llvm.dbg.declare (metadata i8** %__r.addr, metadata !5586, metadata !3842), !dbg !5574
	%0 = load i8*, i8** %__r.addr, align 8, !tbaa !3850, !dbg !5587
	ret i8*  %0, !dbg !5587
}
define linkonce_odr i8* @_ZNSt14pointer_traitsIPKcE10pointer_toERS0_(i8* %__r.arg) #0 inlinehint !dbg !5589 {
L.entry:
	%__r.addr = alloca i8*, align 8

	call void @llvm.dbg.declare (metadata i8** %__r.addr, metadata !5601, metadata !3842), !dbg !5590
	store i8* %__r.arg, i8** %__r.addr, align 8, !tbaa !3850
	call void @llvm.dbg.declare (metadata i8** %__r.addr, metadata !5602, metadata !3842), !dbg !5590
	%0 = load i8*, i8** %__r.addr, align 8, !tbaa !3850, !dbg !5603
	ret i8*  %0, !dbg !5603
}
define linkonce_odr void @_ZNSt12_Destroy_auxILb0EE9__destroyIPN5vmesh14MeshParametersEEEvT_S5_(%struct._ZN5vmesh14MeshParametersE* %__first.arg, %struct._ZN5vmesh14MeshParametersE* %__last.arg) #0 inlinehint !dbg !5607 {
L.entry:
	%__first.addr = alloca %struct._ZN5vmesh14MeshParametersE*, align 8
	%__last.addr = alloca %struct._ZN5vmesh14MeshParametersE*, align 8
	%.lcr4479873.addr = alloca i8*, align 8
	%..inline.addr = alloca %struct._ZN5vmesh14MeshParametersE*, align 8

	call void @llvm.dbg.declare (metadata %struct._ZN5vmesh14MeshParametersE** %__first.addr, metadata !5619, metadata !3842), !dbg !5608
	store %struct._ZN5vmesh14MeshParametersE* %__first.arg, %struct._ZN5vmesh14MeshParametersE** %__first.addr, align 8, !tbaa !3850
	call void @llvm.dbg.declare (metadata %struct._ZN5vmesh14MeshParametersE** %__first.addr, metadata !5620, metadata !3842), !dbg !5608
	call void @llvm.dbg.declare (metadata %struct._ZN5vmesh14MeshParametersE** %__last.addr, metadata !5621, metadata !3842), !dbg !5608
	store %struct._ZN5vmesh14MeshParametersE* %__last.arg, %struct._ZN5vmesh14MeshParametersE** %__last.addr, align 8, !tbaa !3850
	call void @llvm.dbg.declare (metadata %struct._ZN5vmesh14MeshParametersE** %__last.addr, metadata !5622, metadata !3842), !dbg !5608
	%0 = load %struct._ZN5vmesh14MeshParametersE*, %struct._ZN5vmesh14MeshParametersE** %__first.addr, align 8, !tbaa !3850, !dbg !5623
	%1 = bitcast %struct._ZN5vmesh14MeshParametersE*  %0 to i8*, !dbg !5623
	%2 = load %struct._ZN5vmesh14MeshParametersE*, %struct._ZN5vmesh14MeshParametersE** %__last.addr, align 8, !tbaa !3850, !dbg !5623
	%3 = bitcast %struct._ZN5vmesh14MeshParametersE*  %2 to i8*, !dbg !5623
	%4 = icmp eq i8*  %1,  %3, !dbg !5623
	br i1  %4, label %L.B0010, label %L.B0982, !dbg !5623
L.B0982:
	%5 = bitcast %struct._ZN5vmesh14MeshParametersE*  %0 to i8*, !dbg !5623
	%6 = bitcast %struct._ZN5vmesh14MeshParametersE*  %2 to i8*, !dbg !5623
	%7 = ptrtoint i8*  %5 to i64, !dbg !5623
	%8 = sub i64 0,  %7, !dbg !5623
	%9 = getelementptr i8, i8*  %6, i64  %8, !dbg !5623
	%10 = ptrtoint i8*  %9 to i64, !dbg !5623
	%11 = add i64  %10, 335, !dbg !5623
	%12 = sub i64 0,  %7, !dbg !5623
	%13 = getelementptr i8, i8*  %6, i64  %12, !dbg !5623
	%14 = ptrtoint i8*  %13 to i64, !dbg !5623
	%15 = add i64  %14, 335, !dbg !5623
	%16 = sext i64 -4392081922311798003 to i128, !dbg !5623
	%17 = sext i64  %15 to i128, !dbg !5623
	%18 = mul i128  %16,  %17, !dbg !5623
	%19 = ashr i128  %18, 64, !dbg !5623
	%20 = trunc i128  %19 to i64, !dbg !5623
	%21 = add i64  %11,  %20, !dbg !5623
	%22 = sext i32 8 to i64, !dbg !5623
	%23 = ashr i64  %21,  %22, !dbg !5623
	%24 = sub i64 0,  %7, !dbg !5623
	%25 = getelementptr i8, i8*  %6, i64  %24, !dbg !5623
	%26 = ptrtoint i8*  %25 to i64, !dbg !5623
	%27 = add i64  %26, 335, !dbg !5623
	%28 = sext i32 63 to i64, !dbg !5623
	%29 = ashr i64  %27,  %28, !dbg !5623
	%30 = sub i64  %23,  %29, !dbg !5623
	%31 = mul i64  %30, 336, !dbg !5623
	%32 = getelementptr i8, i8*  %5, i64  %31, !dbg !5623
	store i8*  %32, i8** %.lcr4479873.addr, align 8, !tbaa !3850, !dbg !5623
	br label %L.B0009
L.B0009:
	%33 = load %struct._ZN5vmesh14MeshParametersE*, %struct._ZN5vmesh14MeshParametersE** %__first.addr, align 8, !tbaa !3850, !dbg !5624
	%34 = bitcast %struct._ZN5vmesh14MeshParametersE*  %33 to i8*, !dbg !5624
	%35 = bitcast %struct._ZN5vmesh14MeshParametersE** %..inline.addr to i8**, !dbg !5624
	store i8*  %34, i8**  %35, align 8, !tbaa !3850, !dbg !5624
	%36 = load %struct._ZN5vmesh14MeshParametersE*, %struct._ZN5vmesh14MeshParametersE** %..inline.addr, align 8, !tbaa !3850, !dbg !5625
	call void  @_ZN5vmesh14MeshParametersD1Ev (%struct._ZN5vmesh14MeshParametersE*  %36) nounwind, !dbg !5625
	%37 = load %struct._ZN5vmesh14MeshParametersE*, %struct._ZN5vmesh14MeshParametersE** %__first.addr, align 8, !tbaa !3850, !dbg !5626
	%38 = bitcast %struct._ZN5vmesh14MeshParametersE*  %37 to i8*, !dbg !5626
	%39 = getelementptr i8, i8*  %38, i64 336, !dbg !5626
	%40 = bitcast %struct._ZN5vmesh14MeshParametersE** %__first.addr to i8**, !dbg !5626
	store i8*  %39, i8**  %40, align 8, !tbaa !3850, !dbg !5626
	%41 = load %struct._ZN5vmesh14MeshParametersE*, %struct._ZN5vmesh14MeshParametersE** %__first.addr, align 8, !tbaa !3850, !dbg !5626
	%42 = bitcast %struct._ZN5vmesh14MeshParametersE*  %41 to i8*, !dbg !5626
	%43 = load i8*, i8** %.lcr4479873.addr, align 8, !tbaa !3850, !dbg !5626
	%44 = icmp ult i8*  %42,  %43, !dbg !5626
	br i1  %44, label %L.B0009, label %L.B0010, !dbg !5626
L.B0010:
	ret void, !dbg !5627
}
define linkonce_odr void @_ZNSt7__cxx1112basic_stringIcSt11char_traitsIcESaIcEE7_M_dataEPc(%struct._ZNSt7__cxx1112basic_stringIcSt11char_traitsIcESaIcEEE* %_T44708872_52456.arg, i8* %__p.arg) #0 inlinehint !dbg !5634 {
L.entry:
	%_T44708872_52456.addr = alloca %struct._ZNSt7__cxx1112basic_stringIcSt11char_traitsIcESaIcEEE*, align 8
	%__p.addr = alloca i8*, align 8

	call void @llvm.dbg.declare (metadata %struct._ZNSt7__cxx1112basic_stringIcSt11char_traitsIcESaIcEEE** %_T44708872_52456.addr, metadata !5638, metadata !3842), !dbg !5635
	store %struct._ZNSt7__cxx1112basic_stringIcSt11char_traitsIcESaIcEEE* %_T44708872_52456.arg, %struct._ZNSt7__cxx1112basic_stringIcSt11char_traitsIcESaIcEEE** %_T44708872_52456.addr, align 8, !tbaa !3850
	call void @llvm.dbg.declare (metadata %struct._ZNSt7__cxx1112basic_stringIcSt11char_traitsIcESaIcEEE** %_T44708872_52456.addr, metadata !5639, metadata !3842), !dbg !5635
	call void @llvm.dbg.declare (metadata i8** %__p.addr, metadata !5640, metadata !3842), !dbg !5635
	store i8* %__p.arg, i8** %__p.addr, align 8, !tbaa !3850
	call void @llvm.dbg.declare (metadata i8** %__p.addr, metadata !5641, metadata !3842), !dbg !5635
	%0 = load i8*, i8** %__p.addr, align 8, !tbaa !3850, !dbg !5642
	%1 = load %struct._ZNSt7__cxx1112basic_stringIcSt11char_traitsIcESaIcEEE*, %struct._ZNSt7__cxx1112basic_stringIcSt11char_traitsIcESaIcEEE** %_T44708872_52456.addr, align 8, !tbaa !3850, !dbg !5642
	%2 = bitcast %struct._ZNSt7__cxx1112basic_stringIcSt11char_traitsIcESaIcEEE*  %1 to i8**, !dbg !5642
	store i8*  %0, i8**  %2, align 8, !tbaa !3850, !dbg !5642
	ret void, !dbg !5642
}
define linkonce_odr void @_ZNSt7__cxx1112basic_stringIcSt11char_traitsIcESaIcEE9_M_lengthEm(%struct._ZNSt7__cxx1112basic_stringIcSt11char_traitsIcESaIcEEE* %_T44708872_52458.arg, i64 %__length.arg) #0 inlinehint !dbg !5646 {
L.entry:
	%_T44708872_52458.addr = alloca %struct._ZNSt7__cxx1112basic_stringIcSt11char_traitsIcESaIcEEE*, align 8
	%__length.addr = alloca i64, align 8

	call void @llvm.dbg.declare (metadata %struct._ZNSt7__cxx1112basic_stringIcSt11char_traitsIcESaIcEEE** %_T44708872_52458.addr, metadata !5650, metadata !3842), !dbg !5647
	store %struct._ZNSt7__cxx1112basic_stringIcSt11char_traitsIcESaIcEEE* %_T44708872_52458.arg, %struct._ZNSt7__cxx1112basic_stringIcSt11char_traitsIcESaIcEEE** %_T44708872_52458.addr, align 8, !tbaa !3850
	call void @llvm.dbg.declare (metadata %struct._ZNSt7__cxx1112basic_stringIcSt11char_traitsIcESaIcEEE** %_T44708872_52458.addr, metadata !5651, metadata !3842), !dbg !5647
	call void @llvm.dbg.declare (metadata i64* %__length.addr, metadata !5652, metadata !3842), !dbg !5647
	store i64 %__length.arg, i64* %__length.addr, align 8, !tbaa !3960
	call void @llvm.dbg.declare (metadata i64* %__length.addr, metadata !5653, metadata !3842), !dbg !5647
	%0 = load i64, i64* %__length.addr, align 8, !tbaa !4251, !dbg !5654
	%1 = load %struct._ZNSt7__cxx1112basic_stringIcSt11char_traitsIcESaIcEEE*, %struct._ZNSt7__cxx1112basic_stringIcSt11char_traitsIcESaIcEEE** %_T44708872_52458.addr, align 8, !tbaa !3850, !dbg !5654
	%2 = bitcast %struct._ZNSt7__cxx1112basic_stringIcSt11char_traitsIcESaIcEEE*  %1 to i8*, !dbg !5654
	%3 = getelementptr i8, i8*  %2, i64 8, !dbg !5654
	%4 = bitcast i8*  %3 to i64*, !dbg !5654
	store i64  %0, i64*  %4, align 8, !tbaa !3960, !dbg !5654
	ret void, !dbg !5654
}
define linkonce_odr i8* @_ZNKSt7__cxx1112basic_stringIcSt11char_traitsIcESaIcEE7_M_dataEv(%struct._ZNSt7__cxx1112basic_stringIcSt11char_traitsIcESaIcEEE* %_T44708872_52460.arg) #0 inlinehint !dbg !5658 {
L.entry:
	%_T44708872_52460.addr = alloca %struct._ZNSt7__cxx1112basic_stringIcSt11char_traitsIcESaIcEEE*, align 8

	call void @llvm.dbg.declare (metadata %struct._ZNSt7__cxx1112basic_stringIcSt11char_traitsIcESaIcEEE** %_T44708872_52460.addr, metadata !5662, metadata !3842), !dbg !5659
	store %struct._ZNSt7__cxx1112basic_stringIcSt11char_traitsIcESaIcEEE* %_T44708872_52460.arg, %struct._ZNSt7__cxx1112basic_stringIcSt11char_traitsIcESaIcEEE** %_T44708872_52460.addr, align 8, !tbaa !3850
	call void @llvm.dbg.declare (metadata %struct._ZNSt7__cxx1112basic_stringIcSt11char_traitsIcESaIcEEE** %_T44708872_52460.addr, metadata !5663, metadata !3842), !dbg !5659
	%0 = load %struct._ZNSt7__cxx1112basic_stringIcSt11char_traitsIcESaIcEEE*, %struct._ZNSt7__cxx1112basic_stringIcSt11char_traitsIcESaIcEEE** %_T44708872_52460.addr, align 8, !tbaa !3850, !dbg !5664
	%1 = bitcast %struct._ZNSt7__cxx1112basic_stringIcSt11char_traitsIcESaIcEEE*  %0 to i8**, !dbg !5664
	%2 = load i8*, i8**  %1, align 8, !tbaa !3850, !dbg !5664
	ret i8*  %2, !dbg !5664
}
define linkonce_odr i8* @_ZNSt7__cxx1112basic_stringIcSt11char_traitsIcESaIcEE13_M_local_dataEv(%struct._ZNSt7__cxx1112basic_stringIcSt11char_traitsIcESaIcEEE* %_T44708872_52462.arg) #0 inlinehint !dbg !5666 {
L.entry:
	%_T44708872_52462.addr = alloca %struct._ZNSt7__cxx1112basic_stringIcSt11char_traitsIcESaIcEEE*, align 8

	call void @llvm.dbg.declare (metadata %struct._ZNSt7__cxx1112basic_stringIcSt11char_traitsIcESaIcEEE** %_T44708872_52462.addr, metadata !5682, metadata !3842), !dbg !5667
	store %struct._ZNSt7__cxx1112basic_stringIcSt11char_traitsIcESaIcEEE* %_T44708872_52462.arg, %struct._ZNSt7__cxx1112basic_stringIcSt11char_traitsIcESaIcEEE** %_T44708872_52462.addr, align 8, !tbaa !3850
	call void @llvm.dbg.declare (metadata %struct._ZNSt7__cxx1112basic_stringIcSt11char_traitsIcESaIcEEE** %_T44708872_52462.addr, metadata !5683, metadata !3842), !dbg !5667
	%0 = load %struct._ZNSt7__cxx1112basic_stringIcSt11char_traitsIcESaIcEEE*, %struct._ZNSt7__cxx1112basic_stringIcSt11char_traitsIcESaIcEEE** %_T44708872_52462.addr, align 8, !tbaa !3850, !dbg !5684
	%1 = bitcast %struct._ZNSt7__cxx1112basic_stringIcSt11char_traitsIcESaIcEEE*  %0 to i8*, !dbg !5684
	%2 = getelementptr i8, i8*  %1, i64 16, !dbg !5684
	ret i8*  %2, !dbg !5684
}
define linkonce_odr i8* @_ZNKSt7__cxx1112basic_stringIcSt11char_traitsIcESaIcEE13_M_local_dataEv(%struct._ZNSt7__cxx1112basic_stringIcSt11char_traitsIcESaIcEEE* %_T44708872_52464.arg) #0 inlinehint !dbg !5687 {
L.entry:
	%_T44708872_52464.addr = alloca %struct._ZNSt7__cxx1112basic_stringIcSt11char_traitsIcESaIcEEE*, align 8

	call void @llvm.dbg.declare (metadata %struct._ZNSt7__cxx1112basic_stringIcSt11char_traitsIcESaIcEEE** %_T44708872_52464.addr, metadata !5703, metadata !3842), !dbg !5688
	store %struct._ZNSt7__cxx1112basic_stringIcSt11char_traitsIcESaIcEEE* %_T44708872_52464.arg, %struct._ZNSt7__cxx1112basic_stringIcSt11char_traitsIcESaIcEEE** %_T44708872_52464.addr, align 8, !tbaa !3850
	call void @llvm.dbg.declare (metadata %struct._ZNSt7__cxx1112basic_stringIcSt11char_traitsIcESaIcEEE** %_T44708872_52464.addr, metadata !5704, metadata !3842), !dbg !5688
	%0 = load %struct._ZNSt7__cxx1112basic_stringIcSt11char_traitsIcESaIcEEE*, %struct._ZNSt7__cxx1112basic_stringIcSt11char_traitsIcESaIcEEE** %_T44708872_52464.addr, align 8, !tbaa !3850, !dbg !5705
	%1 = bitcast %struct._ZNSt7__cxx1112basic_stringIcSt11char_traitsIcESaIcEEE*  %0 to i8*, !dbg !5705
	%2 = getelementptr i8, i8*  %1, i64 16, !dbg !5705
	ret i8*  %2, !dbg !5705
}
define linkonce_odr void @_ZNSt7__cxx1112basic_stringIcSt11char_traitsIcESaIcEE11_M_capacityEm(%struct._ZNSt7__cxx1112basic_stringIcSt11char_traitsIcESaIcEEE* %_T44708872_52466.arg, i64 %__capacity.arg) #0 inlinehint !dbg !5708 {
L.entry:
	%_T44708872_52466.addr = alloca %struct._ZNSt7__cxx1112basic_stringIcSt11char_traitsIcESaIcEEE*, align 8
	%__capacity.addr = alloca i64, align 8

	call void @llvm.dbg.declare (metadata %struct._ZNSt7__cxx1112basic_stringIcSt11char_traitsIcESaIcEEE** %_T44708872_52466.addr, metadata !5712, metadata !3842), !dbg !5709
	store %struct._ZNSt7__cxx1112basic_stringIcSt11char_traitsIcESaIcEEE* %_T44708872_52466.arg, %struct._ZNSt7__cxx1112basic_stringIcSt11char_traitsIcESaIcEEE** %_T44708872_52466.addr, align 8, !tbaa !3850
	call void @llvm.dbg.declare (metadata %struct._ZNSt7__cxx1112basic_stringIcSt11char_traitsIcESaIcEEE** %_T44708872_52466.addr, metadata !5713, metadata !3842), !dbg !5709
	call void @llvm.dbg.declare (metadata i64* %__capacity.addr, metadata !5714, metadata !3842), !dbg !5709
	store i64 %__capacity.arg, i64* %__capacity.addr, align 8, !tbaa !3960
	call void @llvm.dbg.declare (metadata i64* %__capacity.addr, metadata !5715, metadata !3842), !dbg !5709
	%0 = load i64, i64* %__capacity.addr, align 8, !tbaa !4251, !dbg !5716
	%1 = load %struct._ZNSt7__cxx1112basic_stringIcSt11char_traitsIcESaIcEEE*, %struct._ZNSt7__cxx1112basic_stringIcSt11char_traitsIcESaIcEEE** %_T44708872_52466.addr, align 8, !tbaa !3850, !dbg !5716
	%2 = bitcast %struct._ZNSt7__cxx1112basic_stringIcSt11char_traitsIcESaIcEEE*  %1 to i8*, !dbg !5716
	%3 = getelementptr i8, i8*  %2, i64 16, !dbg !5716
	%4 = bitcast i8*  %3 to i64*, !dbg !5716
	store i64  %0, i64*  %4, align 8, !tbaa !3960, !dbg !5716
	ret void, !dbg !5716
}
define linkonce_odr void @_ZNSt7__cxx1112basic_stringIcSt11char_traitsIcESaIcEE13_M_set_lengthEm(%struct._ZNSt7__cxx1112basic_stringIcSt11char_traitsIcESaIcEEE* %_T44708872_52468.arg, i64 %__n.arg) #0 inlinehint !dbg !5718 {
L.entry:
	%_T44708872_52468.addr = alloca %struct._ZNSt7__cxx1112basic_stringIcSt11char_traitsIcESaIcEEE*, align 8
	%__n.addr = alloca i64, align 8
	%..inline.addr = alloca i8*, align 8

	call void @llvm.dbg.declare (metadata %struct._ZNSt7__cxx1112basic_stringIcSt11char_traitsIcESaIcEEE** %_T44708872_52468.addr, metadata !5734, metadata !3842), !dbg !5719
	store %struct._ZNSt7__cxx1112basic_stringIcSt11char_traitsIcESaIcEEE* %_T44708872_52468.arg, %struct._ZNSt7__cxx1112basic_stringIcSt11char_traitsIcESaIcEEE** %_T44708872_52468.addr, align 8, !tbaa !3850
	call void @llvm.dbg.declare (metadata %struct._ZNSt7__cxx1112basic_stringIcSt11char_traitsIcESaIcEEE** %_T44708872_52468.addr, metadata !5735, metadata !3842), !dbg !5719
	call void @llvm.dbg.declare (metadata i64* %__n.addr, metadata !5736, metadata !3842), !dbg !5719
	store i64 %__n.arg, i64* %__n.addr, align 8, !tbaa !3960
	call void @llvm.dbg.declare (metadata i64* %__n.addr, metadata !5737, metadata !3842), !dbg !5719
	%0 = load i64, i64* %__n.addr, align 8, !tbaa !4251, !dbg !5738
	%1 = load %struct._ZNSt7__cxx1112basic_stringIcSt11char_traitsIcESaIcEEE*, %struct._ZNSt7__cxx1112basic_stringIcSt11char_traitsIcESaIcEEE** %_T44708872_52468.addr, align 8, !tbaa !3850, !dbg !5738
	%2 = bitcast %struct._ZNSt7__cxx1112basic_stringIcSt11char_traitsIcESaIcEEE*  %1 to i8*, !dbg !5738
	%3 = getelementptr i8, i8*  %2, i64 8, !dbg !5738
	%4 = bitcast i8*  %3 to i64*, !dbg !5738
	store i64  %0, i64*  %4, align 8, !tbaa !3960, !dbg !5738
	%5 = bitcast %struct._ZNSt7__cxx1112basic_stringIcSt11char_traitsIcESaIcEEE*  %1 to i8**, !dbg !5739
	%6 = load i8*, i8**  %5, align 8, !tbaa !3850, !dbg !5739
	%7 = getelementptr i8, i8*  %6, i64  %0, !dbg !5739
	store i8 0, i8*  %7, align 1, !tbaa !3960, !dbg !5740
	ret void, !dbg !5741
}
define linkonce_odr signext i8 @_ZNKSt7__cxx1112basic_stringIcSt11char_traitsIcESaIcEE11_M_is_localEv(%struct._ZNSt7__cxx1112basic_stringIcSt11char_traitsIcESaIcEEE* %_T44708872_52469.arg) #0 inlinehint !dbg !5745 {
L.entry:
	%_T44708872_52469.addr = alloca %struct._ZNSt7__cxx1112basic_stringIcSt11char_traitsIcESaIcEEE*, align 8

	call void @llvm.dbg.declare (metadata %struct._ZNSt7__cxx1112basic_stringIcSt11char_traitsIcESaIcEEE** %_T44708872_52469.addr, metadata !5769, metadata !3842), !dbg !5746
	store %struct._ZNSt7__cxx1112basic_stringIcSt11char_traitsIcESaIcEEE* %_T44708872_52469.arg, %struct._ZNSt7__cxx1112basic_stringIcSt11char_traitsIcESaIcEEE** %_T44708872_52469.addr, align 8, !tbaa !3850
	call void @llvm.dbg.declare (metadata %struct._ZNSt7__cxx1112basic_stringIcSt11char_traitsIcESaIcEEE** %_T44708872_52469.addr, metadata !5770, metadata !3842), !dbg !5746
	%0 = load %struct._ZNSt7__cxx1112basic_stringIcSt11char_traitsIcESaIcEEE*, %struct._ZNSt7__cxx1112basic_stringIcSt11char_traitsIcESaIcEEE** %_T44708872_52469.addr, align 8, !tbaa !3850, !dbg !5771
	%1 = bitcast %struct._ZNSt7__cxx1112basic_stringIcSt11char_traitsIcESaIcEEE*  %0 to i8**, !dbg !5771
	%2 = load i8*, i8**  %1, align 8, !tbaa !3850, !dbg !5771
	%3 = bitcast %struct._ZNSt7__cxx1112basic_stringIcSt11char_traitsIcESaIcEEE*  %0 to i8*, !dbg !5771
	%4 = getelementptr i8, i8*  %3, i64 16, !dbg !5771
	%5 = icmp eq i8*  %2,  %4, !dbg !5771
	%6 = zext i1  %5 to i32, !dbg !5771
	%7 = trunc i32  %6 to i8, !dbg !5771
	ret i8  %7, !dbg !5771
}
define linkonce_odr void @_ZNSt7__cxx1112basic_stringIcSt11char_traitsIcESaIcEE10_M_disposeEv(%struct._ZNSt7__cxx1112basic_stringIcSt11char_traitsIcESaIcEEE* %_T44708872_52474.arg) #0 inlinehint !dbg !5776 {
L.entry:
	%_T44708872_52474.addr = alloca %struct._ZNSt7__cxx1112basic_stringIcSt11char_traitsIcESaIcEEE*, align 8
	%..inline.addr = alloca i8*, align 8

	call void @llvm.dbg.declare (metadata %struct._ZNSt7__cxx1112basic_stringIcSt11char_traitsIcESaIcEEE** %_T44708872_52474.addr, metadata !5824, metadata !3842), !dbg !5777
	store %struct._ZNSt7__cxx1112basic_stringIcSt11char_traitsIcESaIcEEE* %_T44708872_52474.arg, %struct._ZNSt7__cxx1112basic_stringIcSt11char_traitsIcESaIcEEE** %_T44708872_52474.addr, align 8, !tbaa !3850
	call void @llvm.dbg.declare (metadata %struct._ZNSt7__cxx1112basic_stringIcSt11char_traitsIcESaIcEEE** %_T44708872_52474.addr, metadata !5825, metadata !3842), !dbg !5777
	%0 = load %struct._ZNSt7__cxx1112basic_stringIcSt11char_traitsIcESaIcEEE*, %struct._ZNSt7__cxx1112basic_stringIcSt11char_traitsIcESaIcEEE** %_T44708872_52474.addr, align 8, !tbaa !3850, !dbg !5826
	%1 = bitcast %struct._ZNSt7__cxx1112basic_stringIcSt11char_traitsIcESaIcEEE*  %0 to i8**, !dbg !5826
	%2 = load i8*, i8**  %1, align 8, !tbaa !3850, !dbg !5826
	%3 = bitcast %struct._ZNSt7__cxx1112basic_stringIcSt11char_traitsIcESaIcEEE*  %0 to i8*, !dbg !5826
	%4 = getelementptr i8, i8*  %3, i64 16, !dbg !5826
	%5 = icmp eq i8*  %2,  %4, !dbg !5826
	br i1  %5, label %L.B0011, label %L.B1001, !dbg !5826
L.B1001:
	%6 = bitcast %struct._ZNSt7__cxx1112basic_stringIcSt11char_traitsIcESaIcEEE*  %0 to i8**, !dbg !5827
	%7 = load i8*, i8**  %6, align 8, !tbaa !3850, !dbg !5827
	call void  @_ZdlPv (i8*  %7) nounwind, !dbg !5827
	br label %L.B0011
L.B0011:
	ret void, !dbg !5828
}
define linkonce_odr void @_ZNSt7__cxx1112basic_stringIcSt11char_traitsIcESaIcEE10_M_destroyEm(%struct._ZNSt7__cxx1112basic_stringIcSt11char_traitsIcESaIcEEE* %_T44708872_52476.arg, i64 %__size.arg) #0 inlinehint !dbg !5830 {
L.entry:
	%_T44708872_52476.addr = alloca %struct._ZNSt7__cxx1112basic_stringIcSt11char_traitsIcESaIcEEE*, align 8
	%__size.addr = alloca i64, align 8
	%..inline.addr = alloca i8*, align 8

	call void @llvm.dbg.declare (metadata %struct._ZNSt7__cxx1112basic_stringIcSt11char_traitsIcESaIcEEE** %_T44708872_52476.addr, metadata !5850, metadata !3842), !dbg !5831
	store %struct._ZNSt7__cxx1112basic_stringIcSt11char_traitsIcESaIcEEE* %_T44708872_52476.arg, %struct._ZNSt7__cxx1112basic_stringIcSt11char_traitsIcESaIcEEE** %_T44708872_52476.addr, align 8, !tbaa !3850
	call void @llvm.dbg.declare (metadata %struct._ZNSt7__cxx1112basic_stringIcSt11char_traitsIcESaIcEEE** %_T44708872_52476.addr, metadata !5851, metadata !3842), !dbg !5831
	call void @llvm.dbg.declare (metadata i64* %__size.addr, metadata !5852, metadata !3842), !dbg !5831
	store i64 %__size.arg, i64* %__size.addr, align 8, !tbaa !3960
	call void @llvm.dbg.declare (metadata i64* %__size.addr, metadata !5853, metadata !3842), !dbg !5831
	%0 = load %struct._ZNSt7__cxx1112basic_stringIcSt11char_traitsIcESaIcEEE*, %struct._ZNSt7__cxx1112basic_stringIcSt11char_traitsIcESaIcEEE** %_T44708872_52476.addr, align 8, !tbaa !3850, !dbg !5854
	%1 = bitcast %struct._ZNSt7__cxx1112basic_stringIcSt11char_traitsIcESaIcEEE*  %0 to i8**, !dbg !5854
	%2 = load i8*, i8**  %1, align 8, !tbaa !3850, !dbg !5854
	call void  @_ZdlPv (i8*  %2) nounwind, !dbg !5854
	ret void, !dbg !5855
}
define linkonce_odr %struct._ZSaIcE* @_ZNSt7__cxx1112basic_stringIcSt11char_traitsIcESaIcEE16_M_get_allocatorEv(%struct._ZNSt7__cxx1112basic_stringIcSt11char_traitsIcESaIcEEE* %_T44708872_52478.arg) #0 inlinehint !dbg !5860 {
L.entry:
	%_T44708872_52478.addr = alloca %struct._ZNSt7__cxx1112basic_stringIcSt11char_traitsIcESaIcEEE*, align 8

	call void @llvm.dbg.declare (metadata %struct._ZNSt7__cxx1112basic_stringIcSt11char_traitsIcESaIcEEE** %_T44708872_52478.addr, metadata !5864, metadata !3842), !dbg !5861
	store %struct._ZNSt7__cxx1112basic_stringIcSt11char_traitsIcESaIcEEE* %_T44708872_52478.arg, %struct._ZNSt7__cxx1112basic_stringIcSt11char_traitsIcESaIcEEE** %_T44708872_52478.addr, align 8, !tbaa !3850
	call void @llvm.dbg.declare (metadata %struct._ZNSt7__cxx1112basic_stringIcSt11char_traitsIcESaIcEEE** %_T44708872_52478.addr, metadata !5865, metadata !3842), !dbg !5861
	%0 = load %struct._ZNSt7__cxx1112basic_stringIcSt11char_traitsIcESaIcEEE*, %struct._ZNSt7__cxx1112basic_stringIcSt11char_traitsIcESaIcEEE** %_T44708872_52478.addr, align 8, !tbaa !3850, !dbg !5866
	%1 = bitcast %struct._ZNSt7__cxx1112basic_stringIcSt11char_traitsIcESaIcEEE*  %0 to %struct._ZSaIcE*, !dbg !5866
	ret %struct._ZSaIcE*  %1, !dbg !5866
}
define linkonce_odr void @_ZNSt7__cxx1112basic_stringIcSt11char_traitsIcESaIcEE7_S_copyEPcPKcm(i8* %__d.arg, i8* %__s.arg, i64 %__n.arg) #0 inlinehint !dbg !5870 {
L.entry:
	%__d.addr = alloca i8*, align 8
	%__s.addr = alloca i8*, align 8
	%__n.addr = alloca i64, align 8
	%..inline.addr = alloca i8*, align 8
	%..inline.addr.1 = alloca i8*, align 8
	%..inline.addr.2 = alloca i64, align 8
	%..inline.addr.3 = alloca i8*, align 8

	call void @llvm.dbg.declare (metadata i8** %__d.addr, metadata !5882, metadata !3842), !dbg !5871
	store i8* %__d.arg, i8** %__d.addr, align 8, !tbaa !3850
	call void @llvm.dbg.declare (metadata i8** %__d.addr, metadata !5883, metadata !3842), !dbg !5871
	call void @llvm.dbg.declare (metadata i8** %__s.addr, metadata !5884, metadata !3842), !dbg !5871
	store i8* %__s.arg, i8** %__s.addr, align 8, !tbaa !3850
	call void @llvm.dbg.declare (metadata i8** %__s.addr, metadata !5885, metadata !3842), !dbg !5871
	call void @llvm.dbg.declare (metadata i64* %__n.addr, metadata !5886, metadata !3842), !dbg !5871
	store i64 %__n.arg, i64* %__n.addr, align 8, !tbaa !3960
	call void @llvm.dbg.declare (metadata i64* %__n.addr, metadata !5887, metadata !3842), !dbg !5871
	%0 = load i64, i64* %__n.addr, align 8, !tbaa !4251, !dbg !5888
	%1 = icmp ne i64  %0, 1, !dbg !5888
	br i1  %1, label %L.B0012, label %L.B1012, !dbg !5888
L.B1012:
	%2 = load i8*, i8** %__s.addr, align 8, !tbaa !3850, !dbg !5889
	%3 = load i8, i8*  %2, align 1, !tbaa !3960, !dbg !5889
	%4 = load i8*, i8** %__d.addr, align 8, !tbaa !3850, !dbg !5889
	store i8  %3, i8*  %4, align 1, !tbaa !3960, !dbg !5889
	br label %L.B0013, !dbg !5889
L.B0012:
	%5 = load i8*, i8** %__d.addr, align 8, !tbaa !3850, !dbg !5890
	store i8*  %5, i8** %..inline.addr, align 8, !tbaa !3850, !dbg !5890
	%6 = load i8*, i8** %__s.addr, align 8, !tbaa !3850, !dbg !5890
	store i8*  %6, i8** %..inline.addr.1, align 8, !tbaa !3850, !dbg !5890
	%7 = load i64, i64* %__n.addr, align 8, !tbaa !4251, !dbg !5890
	store i64  %7, i64* %..inline.addr.2, align 8, !tbaa !4251, !dbg !5890
	%8 = icmp ne i64  %7, 0, !dbg !5890
	br i1  %8, label %L..inline.65787, label %L.B1013, !dbg !5890
L.B1013:
	br label %L..inline.65792, !dbg !5891
L..inline.65787:
	%9 = load i8*, i8** %..inline.addr, align 8, !tbaa !3850, !dbg !5892
	%10 = load i8*, i8** %..inline.addr.1, align 8, !tbaa !3850, !dbg !5892
	%11 = load i64, i64* %..inline.addr.2, align 8, !tbaa !4251, !dbg !5892
	%12 = call i8*  @memcpy (i8*  %9, i8*  %10, i64  %11) nounwind, !dbg !5892
	store i8*  %12, i8** %..inline.addr.3, align 8, !tbaa !3850, !dbg !5892
	br label %L..inline.65792
L..inline.65792:
	br label %L.B0013
L.B0013:
	ret void, !dbg !5893
}
define linkonce_odr void @_ZNSt7__cxx1112basic_stringIcSt11char_traitsIcESaIcEE13_S_copy_charsEPcPKcS7_(i8* %__p.arg, i8* %__k1.arg, i8* %__k2.arg) #0 inlinehint !dbg !5897 {
L.entry:
	%__p.addr = alloca i8*, align 8
	%__k1.addr = alloca i8*, align 8
	%__k2.addr = alloca i8*, align 8
	%..inline.addr = alloca i64, align 8
	%..inline.addr.1 = alloca i8*, align 8
	%..inline.addr.2 = alloca i8*, align 8
	%..inline.addr.3 = alloca i64, align 8
	%..inline.addr.4 = alloca i8*, align 8

	call void @llvm.dbg.declare (metadata i8** %__p.addr, metadata !5913, metadata !3842), !dbg !5898
	store i8* %__p.arg, i8** %__p.addr, align 8, !tbaa !3850
	call void @llvm.dbg.declare (metadata i8** %__p.addr, metadata !5914, metadata !3842), !dbg !5898
	call void @llvm.dbg.declare (metadata i8** %__k1.addr, metadata !5915, metadata !3842), !dbg !5898
	store i8* %__k1.arg, i8** %__k1.addr, align 8, !tbaa !3850
	call void @llvm.dbg.declare (metadata i8** %__k1.addr, metadata !5916, metadata !3842), !dbg !5898
	call void @llvm.dbg.declare (metadata i8** %__k2.addr, metadata !5917, metadata !3842), !dbg !5898
	store i8* %__k2.arg, i8** %__k2.addr, align 8, !tbaa !3850
	call void @llvm.dbg.declare (metadata i8** %__k2.addr, metadata !5918, metadata !3842), !dbg !5898
	%0 = load i8*, i8** %__k2.addr, align 8, !tbaa !3850, !dbg !5919
	%1 = load i8*, i8** %__k1.addr, align 8, !tbaa !3850, !dbg !5919
	%2 = ptrtoint i8*  %1 to i64, !dbg !5919
	%3 = sub i64 0,  %2, !dbg !5919
	%4 = getelementptr i8, i8*  %0, i64  %3, !dbg !5919
	%5 = ptrtoint i8*  %4 to i64, !dbg !5919
	store i64  %5, i64* %..inline.addr, align 8, !tbaa !4251, !dbg !5919
	%6 = icmp ne i64  %5, 1, !dbg !5919
	br i1  %6, label %L..inline.65809, label %L.B1016, !dbg !5919
L.B1016:
	%7 = load i8, i8*  %1, align 1, !tbaa !3960, !dbg !5920
	%8 = load i8*, i8** %__p.addr, align 8, !tbaa !3850, !dbg !5920
	store i8  %7, i8*  %8, align 1, !tbaa !3960, !dbg !5920
	br label %L..inline.65818, !dbg !5920
L..inline.65809:
	%9 = load i8*, i8** %__p.addr, align 8, !tbaa !3850, !dbg !5921
	store i8*  %9, i8** %..inline.addr.1, align 8, !tbaa !3850, !dbg !5921
	%10 = load i8*, i8** %__k1.addr, align 8, !tbaa !3850, !dbg !5921
	store i8*  %10, i8** %..inline.addr.2, align 8, !tbaa !3850, !dbg !5921
	%11 = load i64, i64* %..inline.addr, align 8, !tbaa !4251, !dbg !5921
	store i64  %11, i64* %..inline.addr.3, align 8, !tbaa !4251, !dbg !5921
	%12 = icmp ne i64  %11, 0, !dbg !5921
	br i1  %12, label %L..inline.65825, label %L.B1017, !dbg !5921
L.B1017:
	br label %L..inline.65827, !dbg !5921
L..inline.65825:
	%13 = load i8*, i8** %..inline.addr.1, align 8, !tbaa !3850, !dbg !5921
	%14 = load i8*, i8** %..inline.addr.2, align 8, !tbaa !3850, !dbg !5921
	%15 = load i64, i64* %..inline.addr.3, align 8, !tbaa !4251, !dbg !5921
	%16 = call i8*  @memcpy (i8*  %13, i8*  %14, i64  %15) nounwind, !dbg !5921
	store i8*  %16, i8** %..inline.addr.4, align 8, !tbaa !3850, !dbg !5921
	br label %L..inline.65827
L..inline.65827:
	br label %L..inline.65818
L..inline.65818:
	ret void, !dbg !5919
}

%struct._ZSt26random_access_iterator_tag = type <{ [1 x i8]}> 

define linkonce_odr void @_ZNSt7__cxx1112basic_stringIcSt11char_traitsIcESaIcEEC1EPKcRKS3_(%struct._ZNSt7__cxx1112basic_stringIcSt11char_traitsIcESaIcEEE* %_T44709056_52482.arg, i8* %__s.arg, %struct._ZSaIcE* %__a.arg) #0 inlinehint !dbg !5929 {
L.entry:
	%_T44709056_52482.addr = alloca %struct._ZNSt7__cxx1112basic_stringIcSt11char_traitsIcESaIcEEE*, align 8
	%__s.addr = alloca i8*, align 8
	%__a.addr = alloca %struct._ZSaIcE*, align 8
	%..inline.addr = alloca i8*, align 8
	%..inline.addr.1 = alloca i64, align 8
	%.I0001.addr = alloca i8*, align 8
	%..inline.addr.2 = alloca %struct._ZNSt7__cxx1112basic_stringIcSt11char_traitsIcESaIcEEE*, align 8
	%..inline.addr.3 = alloca i8*, align 8
	%..inline.addr.4 = alloca i8*, align 8
	%....inline.__FILL_CHARARRAY.addr = alloca [1 x i8], align 1
	%....inline.__FILL_CHARARRAY.addr.1 = alloca [1 x i8], align 1
	%..inline.addr.5 = alloca %struct._ZSt26random_access_iterator_tag, align 1

	call void @llvm.dbg.declare (metadata %struct._ZNSt7__cxx1112basic_stringIcSt11char_traitsIcESaIcEEE** %_T44709056_52482.addr, metadata !5965, metadata !3842), !dbg !5930
	store %struct._ZNSt7__cxx1112basic_stringIcSt11char_traitsIcESaIcEEE* %_T44709056_52482.arg, %struct._ZNSt7__cxx1112basic_stringIcSt11char_traitsIcESaIcEEE** %_T44709056_52482.addr, align 8, !tbaa !3850
	call void @llvm.dbg.declare (metadata %struct._ZNSt7__cxx1112basic_stringIcSt11char_traitsIcESaIcEEE** %_T44709056_52482.addr, metadata !5966, metadata !3842), !dbg !5930
	call void @llvm.dbg.declare (metadata i8** %__s.addr, metadata !5967, metadata !3842), !dbg !5930
	store i8* %__s.arg, i8** %__s.addr, align 8, !tbaa !3850
	call void @llvm.dbg.declare (metadata i8** %__s.addr, metadata !5968, metadata !3842), !dbg !5930
	call void @llvm.dbg.declare (metadata %struct._ZSaIcE** %__a.addr, metadata !5969, metadata !3842), !dbg !5930
	store %struct._ZSaIcE* %__a.arg, %struct._ZSaIcE** %__a.addr, align 8, !tbaa !3850
	call void @llvm.dbg.declare (metadata %struct._ZSaIcE** %__a.addr, metadata !5970, metadata !3842), !dbg !5930
	%0 = load %struct._ZNSt7__cxx1112basic_stringIcSt11char_traitsIcESaIcEEE*, %struct._ZNSt7__cxx1112basic_stringIcSt11char_traitsIcESaIcEEE** %_T44709056_52482.addr, align 8, !tbaa !3850, !dbg !5971
	%1 = bitcast %struct._ZNSt7__cxx1112basic_stringIcSt11char_traitsIcESaIcEEE*  %0 to i8*, !dbg !5971
	%2 = getelementptr i8, i8*  %1, i64 16, !dbg !5971
	%3 = bitcast %struct._ZNSt7__cxx1112basic_stringIcSt11char_traitsIcESaIcEEE*  %0 to i8**, !dbg !5971
	store i8*  %2, i8**  %3, align 8, !tbaa !3850, !dbg !5971
	%4 = load i8*, i8** %__s.addr, align 8, !tbaa !3850, !dbg !5971
	%5 = icmp eq i8*  %4,  null, !dbg !5971
	br i1  %5, label %L.B0014, label %L.B1026, !dbg !5971
L.B1026:
	%6 = call i64  @strlen (i8*  %4) nounwind, !dbg !5972
	%7 = load i8*, i8** %__s.addr, align 8, !tbaa !3850, !dbg !5973
	%8 = getelementptr i8, i8*  %7, i64  %6, !dbg !5973
	store i8*  %8, i8** %.I0001.addr, align 8, !tbaa !3850, !dbg !5973
	br label %L.B0015, !dbg !5971
L.B0014:
	%9 = load i8*, i8** %__s.addr, align 8, !tbaa !3850, !dbg !5971
	%10 = getelementptr i8, i8*  %9, i64 18446744073709551615, !dbg !5971
	store i8*  %10, i8** %.I0001.addr, align 8, !tbaa !3850, !dbg !5971
	br label %L.B0015
L.B0015:
	%11 = load %struct._ZNSt7__cxx1112basic_stringIcSt11char_traitsIcESaIcEEE*, %struct._ZNSt7__cxx1112basic_stringIcSt11char_traitsIcESaIcEEE** %_T44709056_52482.addr, align 8, !tbaa !3850, !dbg !5974
	%12 = bitcast %struct._ZNSt7__cxx1112basic_stringIcSt11char_traitsIcESaIcEEE*  %11 to i8*, !dbg !5974
	%13 = bitcast %struct._ZNSt7__cxx1112basic_stringIcSt11char_traitsIcESaIcEEE** %..inline.addr.2 to i8**, !dbg !5974
	store i8*  %12, i8**  %13, align 8, !tbaa !3850, !dbg !5974
	%14 = load i8*, i8** %__s.addr, align 8, !tbaa !3850, !dbg !5974
	store i8*  %14, i8** %..inline.addr.3, align 8, !tbaa !3850, !dbg !5974
	%15 = load i8*, i8** %.I0001.addr, align 8, !tbaa !3850, !dbg !5974
	store i8*  %15, i8** %..inline.addr.4, align 8, !tbaa !3850, !dbg !5974
	call void @llvm.dbg.declare (metadata [1 x i8]* %....inline.__FILL_CHARARRAY.addr, metadata !5975, metadata !3842), !dbg !5932
	%16 = bitcast [1 x i8]* %....inline.__FILL_CHARARRAY.addr to i8*, !dbg !5971
	%17 = load i8, i8*  %16, align 1, !tbaa !3960, !dbg !5971
	%18 = zext i8  %17 to i32, !dbg !5971
	%19 = trunc i32  %18 to i8, !dbg !5971
	call void @llvm.dbg.declare (metadata [1 x i8]* %....inline.__FILL_CHARARRAY.addr.1, metadata !5975, metadata !3842), !dbg !5932
	%20 = bitcast [1 x i8]* %....inline.__FILL_CHARARRAY.addr.1 to i8*, !dbg !5971
	store i8  %19, i8*  %20, align 1, !tbaa !3960, !dbg !5971
	%21 = load %struct._ZNSt7__cxx1112basic_stringIcSt11char_traitsIcESaIcEEE*, %struct._ZNSt7__cxx1112basic_stringIcSt11char_traitsIcESaIcEEE** %..inline.addr.2, align 8, !tbaa !3850, !dbg !5974
	%22 = load i8*, i8** %..inline.addr.3, align 8, !tbaa !3850, !dbg !5974
	%23 = load i8*, i8** %..inline.addr.4, align 8, !tbaa !3850, !dbg !5974
	%24 = bitcast %struct._ZSt26random_access_iterator_tag* %..inline.addr.5 to i8*, !dbg !5974
	%25 = load i8, i8*  %24, align 1, !tbaa !3960, !dbg !5974
	call void  @_ZNSt7__cxx1112basic_stringIcSt11char_traitsIcESaIcEE12_M_constructIPKcEEvT_S8_St20forward_iterator_tag (%struct._ZNSt7__cxx1112basic_stringIcSt11char_traitsIcESaIcEEE*  %21, i8*  %22, i8*  %23, i8  %25), !dbg !5974
	ret void, !dbg !5971
}
define linkonce_odr void @_ZNSt7__cxx1112basic_stringIcSt11char_traitsIcESaIcEEC2EPKcRKS3_(%struct._ZNSt7__cxx1112basic_stringIcSt11char_traitsIcESaIcEEE* %_T44708872_52483.arg, i8* %_T44709168_52483.arg, %struct._ZSaIcE* %_T44709464_52483.arg) #0 inlinehint !dbg !5977 {
L.entry:
	%_T44708872_52483.addr = alloca %struct._ZNSt7__cxx1112basic_stringIcSt11char_traitsIcESaIcEEE*, align 8
	%_T44709168_52483.addr = alloca i8*, align 8
	%_T44709464_52483.addr = alloca %struct._ZSaIcE*, align 8
	%..inline.addr = alloca %struct._ZNSt7__cxx1112basic_stringIcSt11char_traitsIcESaIcEEE*, align 8
	%..inline.addr.1 = alloca i8*, align 8
	%..inline.addr.2 = alloca i8*, align 8
	%..inline.addr.3 = alloca i64, align 8
	%..inline.addr.4 = alloca i8*, align 8
	%..inline.addr.5 = alloca %struct._ZNSt7__cxx1112basic_stringIcSt11char_traitsIcESaIcEEE*, align 8
	%..inline.addr.6 = alloca i8*, align 8
	%..inline.addr.7 = alloca i8*, align 8
	%....inline.__FILL_CHARARRAY.addr = alloca [1 x i8], align 1
	%....inline.__FILL_CHARARRAY.addr.1 = alloca [1 x i8], align 1
	%..inline.addr.8 = alloca %struct._ZSt26random_access_iterator_tag, align 1

	store %struct._ZNSt7__cxx1112basic_stringIcSt11char_traitsIcESaIcEEE* %_T44708872_52483.arg, %struct._ZNSt7__cxx1112basic_stringIcSt11char_traitsIcESaIcEEE** %_T44708872_52483.addr, align 8, !tbaa !3850
	store i8* %_T44709168_52483.arg, i8** %_T44709168_52483.addr, align 8, !tbaa !3850
	store %struct._ZSaIcE* %_T44709464_52483.arg, %struct._ZSaIcE** %_T44709464_52483.addr, align 8, !tbaa !3850
	%0 = load %struct._ZNSt7__cxx1112basic_stringIcSt11char_traitsIcESaIcEEE*, %struct._ZNSt7__cxx1112basic_stringIcSt11char_traitsIcESaIcEEE** %_T44708872_52483.addr, align 8, !tbaa !3850, !dbg !6017
	%1 = bitcast %struct._ZNSt7__cxx1112basic_stringIcSt11char_traitsIcESaIcEEE*  %0 to i8*, !dbg !6017
	%2 = bitcast %struct._ZNSt7__cxx1112basic_stringIcSt11char_traitsIcESaIcEEE** %..inline.addr to i8**, !dbg !6017
	store i8*  %1, i8**  %2, align 8, !tbaa !3850, !dbg !6017
	%3 = load i8*, i8** %_T44709168_52483.addr, align 8, !tbaa !3850, !dbg !6017
	store i8*  %3, i8** %..inline.addr.1, align 8, !tbaa !3850, !dbg !6017
	%4 = getelementptr i8, i8*  %1, i64 16, !dbg !6017
	%5 = bitcast %struct._ZNSt7__cxx1112basic_stringIcSt11char_traitsIcESaIcEEE*  %0 to i8**, !dbg !6017
	store i8*  %4, i8**  %5, align 8, !tbaa !3850, !dbg !6017
	%6 = icmp eq i8*  %3,  null, !dbg !6017
	br i1  %6, label %L..inline.65979, label %L.B1029, !dbg !6017
L.B1029:
	%7 = call i64  @strlen (i8*  %3) nounwind, !dbg !6017
	%8 = load i8*, i8** %..inline.addr.1, align 8, !tbaa !3850, !dbg !6017
	%9 = getelementptr i8, i8*  %8, i64  %7, !dbg !6017
	store i8*  %9, i8** %..inline.addr.4, align 8, !tbaa !3850, !dbg !6017
	br label %L..inline.65987, !dbg !6017
L..inline.65979:
	%10 = load i8*, i8** %..inline.addr.1, align 8, !tbaa !3850, !dbg !6017
	%11 = getelementptr i8, i8*  %10, i64 18446744073709551615, !dbg !6017
	store i8*  %11, i8** %..inline.addr.4, align 8, !tbaa !3850, !dbg !6017
	br label %L..inline.65987
L..inline.65987:
	%12 = load %struct._ZNSt7__cxx1112basic_stringIcSt11char_traitsIcESaIcEEE*, %struct._ZNSt7__cxx1112basic_stringIcSt11char_traitsIcESaIcEEE** %..inline.addr, align 8, !tbaa !3850, !dbg !6017
	%13 = bitcast %struct._ZNSt7__cxx1112basic_stringIcSt11char_traitsIcESaIcEEE*  %12 to i8*, !dbg !6017
	%14 = bitcast %struct._ZNSt7__cxx1112basic_stringIcSt11char_traitsIcESaIcEEE** %..inline.addr.5 to i8**, !dbg !6017
	store i8*  %13, i8**  %14, align 8, !tbaa !3850, !dbg !6017
	%15 = load i8*, i8** %..inline.addr.1, align 8, !tbaa !3850, !dbg !6017
	store i8*  %15, i8** %..inline.addr.6, align 8, !tbaa !3850, !dbg !6017
	%16 = load i8*, i8** %..inline.addr.4, align 8, !tbaa !3850, !dbg !6017
	store i8*  %16, i8** %..inline.addr.7, align 8, !tbaa !3850, !dbg !6017
	call void @llvm.dbg.declare (metadata [1 x i8]* %....inline.__FILL_CHARARRAY.addr, metadata !6018, metadata !3842), !dbg !5980
	%17 = bitcast [1 x i8]* %....inline.__FILL_CHARARRAY.addr to i8*, !dbg !6017
	%18 = load i8, i8*  %17, align 1, !tbaa !3960, !dbg !6017
	%19 = zext i8  %18 to i32, !dbg !6017
	%20 = trunc i32  %19 to i8, !dbg !6017
	call void @llvm.dbg.declare (metadata [1 x i8]* %....inline.__FILL_CHARARRAY.addr.1, metadata !6018, metadata !3842), !dbg !5980
	%21 = bitcast [1 x i8]* %....inline.__FILL_CHARARRAY.addr.1 to i8*, !dbg !6017
	store i8  %20, i8*  %21, align 1, !tbaa !3960, !dbg !6017
	%22 = load %struct._ZNSt7__cxx1112basic_stringIcSt11char_traitsIcESaIcEEE*, %struct._ZNSt7__cxx1112basic_stringIcSt11char_traitsIcESaIcEEE** %..inline.addr.5, align 8, !tbaa !3850, !dbg !6017
	%23 = load i8*, i8** %..inline.addr.6, align 8, !tbaa !3850, !dbg !6017
	%24 = load i8*, i8** %..inline.addr.7, align 8, !tbaa !3850, !dbg !6017
	%25 = bitcast %struct._ZSt26random_access_iterator_tag* %..inline.addr.8 to i8*, !dbg !6017
	%26 = load i8, i8*  %25, align 1, !tbaa !3960, !dbg !6017
	call void  @_ZNSt7__cxx1112basic_stringIcSt11char_traitsIcESaIcEE12_M_constructIPKcEEvT_S8_St20forward_iterator_tag (%struct._ZNSt7__cxx1112basic_stringIcSt11char_traitsIcESaIcEEE*  %22, i8*  %23, i8*  %24, i8  %26), !dbg !6017
	ret void, !dbg !6017
}
define linkonce_odr void @_ZNSt7__cxx1112basic_stringIcSt11char_traitsIcESaIcEED1Ev(%struct._ZNSt7__cxx1112basic_stringIcSt11char_traitsIcESaIcEEE* %_T44708872_52484.arg) #0 inlinehint !dbg !6020 {
L.entry:
	%_T44708872_52484.addr = alloca %struct._ZNSt7__cxx1112basic_stringIcSt11char_traitsIcESaIcEEE*, align 8
	%..inline.addr = alloca i8*, align 8

	call void @llvm.dbg.declare (metadata %struct._ZNSt7__cxx1112basic_stringIcSt11char_traitsIcESaIcEEE** %_T44708872_52484.addr, metadata !6072, metadata !3842), !dbg !6021
	store %struct._ZNSt7__cxx1112basic_stringIcSt11char_traitsIcESaIcEEE* %_T44708872_52484.arg, %struct._ZNSt7__cxx1112basic_stringIcSt11char_traitsIcESaIcEEE** %_T44708872_52484.addr, align 8, !tbaa !3850
	call void @llvm.dbg.declare (metadata %struct._ZNSt7__cxx1112basic_stringIcSt11char_traitsIcESaIcEEE** %_T44708872_52484.addr, metadata !6073, metadata !3842), !dbg !6021
	%0 = load %struct._ZNSt7__cxx1112basic_stringIcSt11char_traitsIcESaIcEEE*, %struct._ZNSt7__cxx1112basic_stringIcSt11char_traitsIcESaIcEEE** %_T44708872_52484.addr, align 8, !tbaa !3850, !dbg !6074
	%1 = bitcast %struct._ZNSt7__cxx1112basic_stringIcSt11char_traitsIcESaIcEEE*  %0 to i8**, !dbg !6074
	%2 = load i8*, i8**  %1, align 8, !tbaa !3850, !dbg !6074
	%3 = bitcast %struct._ZNSt7__cxx1112basic_stringIcSt11char_traitsIcESaIcEEE*  %0 to i8*, !dbg !6074
	%4 = getelementptr i8, i8*  %3, i64 16, !dbg !6074
	%5 = icmp eq i8*  %2,  %4, !dbg !6074
	br i1  %5, label %L..inline.66086, label %L.B1032, !dbg !6074
L.B1032:
	%6 = bitcast %struct._ZNSt7__cxx1112basic_stringIcSt11char_traitsIcESaIcEEE*  %0 to i8**, !dbg !6075
	%7 = load i8*, i8**  %6, align 8, !tbaa !3850, !dbg !6075
	call void  @_ZdlPv (i8*  %7) nounwind, !dbg !6075
	br label %L..inline.66086
L..inline.66086:
	ret void, !dbg !6076
}
define linkonce_odr void @_ZNSt7__cxx1112basic_stringIcSt11char_traitsIcESaIcEED2Ev(%struct._ZNSt7__cxx1112basic_stringIcSt11char_traitsIcESaIcEEE* %_T44708872_52485.arg) #0 inlinehint !dbg !6078 {
L.entry:
	%_T44708872_52485.addr = alloca %struct._ZNSt7__cxx1112basic_stringIcSt11char_traitsIcESaIcEEE*, align 8
	%..inline.addr = alloca i8*, align 8

	store %struct._ZNSt7__cxx1112basic_stringIcSt11char_traitsIcESaIcEEE* %_T44708872_52485.arg, %struct._ZNSt7__cxx1112basic_stringIcSt11char_traitsIcESaIcEEE** %_T44708872_52485.addr, align 8, !tbaa !3850
	%0 = load %struct._ZNSt7__cxx1112basic_stringIcSt11char_traitsIcESaIcEEE*, %struct._ZNSt7__cxx1112basic_stringIcSt11char_traitsIcESaIcEEE** %_T44708872_52485.addr, align 8, !tbaa !3850, !dbg !6134
	%1 = bitcast %struct._ZNSt7__cxx1112basic_stringIcSt11char_traitsIcESaIcEEE*  %0 to i8**, !dbg !6134
	%2 = load i8*, i8**  %1, align 8, !tbaa !3850, !dbg !6134
	%3 = bitcast %struct._ZNSt7__cxx1112basic_stringIcSt11char_traitsIcESaIcEEE*  %0 to i8*, !dbg !6134
	%4 = getelementptr i8, i8*  %3, i64 16, !dbg !6134
	%5 = icmp eq i8*  %2,  %4, !dbg !6134
	br i1  %5, label %L..inline.66192, label %L.B1035, !dbg !6134
L.B1035:
	%6 = bitcast %struct._ZNSt7__cxx1112basic_stringIcSt11char_traitsIcESaIcEEE*  %0 to i8**, !dbg !6134
	%7 = load i8*, i8**  %6, align 8, !tbaa !3850, !dbg !6134
	call void  @_ZdlPv (i8*  %7) nounwind, !dbg !6134
	br label %L..inline.66192
L..inline.66192:
	ret void, !dbg !6134
}
define linkonce_odr void @_ZNSt7__cxx1112basic_stringIcSt11char_traitsIcESaIcEE12_M_constructIPKcEEvT_S8_(%struct._ZNSt7__cxx1112basic_stringIcSt11char_traitsIcESaIcEEE* %_T44708872_52486.arg, i8* %__beg.arg, i8* %__end.arg) #0 inlinehint !dbg !6138 {
L.entry:
	%_T44708872_52486.addr = alloca %struct._ZNSt7__cxx1112basic_stringIcSt11char_traitsIcESaIcEEE*, align 8
	%__beg.addr = alloca i8*, align 8
	%__end.addr = alloca i8*, align 8
	%..inline.addr = alloca %struct._ZNSt7__cxx1112basic_stringIcSt11char_traitsIcESaIcEEE*, align 8
	%..inline.addr.1 = alloca i8*, align 8
	%..inline.addr.2 = alloca i8*, align 8
	%.._T44710352_52486.__FILL_CHARARRAY.addr = alloca [1 x i8], align 1
	%....inline.__FILL_CHARARRAY.addr = alloca [1 x i8], align 1
	%..inline.addr.3 = alloca %struct._ZSt26random_access_iterator_tag, align 1

	call void @llvm.dbg.declare (metadata %struct._ZNSt7__cxx1112basic_stringIcSt11char_traitsIcESaIcEEE** %_T44708872_52486.addr, metadata !6146, metadata !3842), !dbg !6139
	store %struct._ZNSt7__cxx1112basic_stringIcSt11char_traitsIcESaIcEEE* %_T44708872_52486.arg, %struct._ZNSt7__cxx1112basic_stringIcSt11char_traitsIcESaIcEEE** %_T44708872_52486.addr, align 8, !tbaa !3850
	call void @llvm.dbg.declare (metadata %struct._ZNSt7__cxx1112basic_stringIcSt11char_traitsIcESaIcEEE** %_T44708872_52486.addr, metadata !6147, metadata !3842), !dbg !6139
	call void @llvm.dbg.declare (metadata i8** %__beg.addr, metadata !6148, metadata !3842), !dbg !6139
	store i8* %__beg.arg, i8** %__beg.addr, align 8, !tbaa !3850
	call void @llvm.dbg.declare (metadata i8** %__beg.addr, metadata !6149, metadata !3842), !dbg !6139
	call void @llvm.dbg.declare (metadata i8** %__end.addr, metadata !6150, metadata !3842), !dbg !6139
	store i8* %__end.arg, i8** %__end.addr, align 8, !tbaa !3850
	call void @llvm.dbg.declare (metadata i8** %__end.addr, metadata !6151, metadata !3842), !dbg !6139
	%0 = load %struct._ZNSt7__cxx1112basic_stringIcSt11char_traitsIcESaIcEEE*, %struct._ZNSt7__cxx1112basic_stringIcSt11char_traitsIcESaIcEEE** %_T44708872_52486.addr, align 8, !tbaa !3850, !dbg !6152
	%1 = bitcast %struct._ZNSt7__cxx1112basic_stringIcSt11char_traitsIcESaIcEEE*  %0 to i8*, !dbg !6152
	%2 = bitcast %struct._ZNSt7__cxx1112basic_stringIcSt11char_traitsIcESaIcEEE** %..inline.addr to i8**, !dbg !6152
	store i8*  %1, i8**  %2, align 8, !tbaa !3850, !dbg !6152
	%3 = load i8*, i8** %__beg.addr, align 8, !tbaa !3850, !dbg !6152
	store i8*  %3, i8** %..inline.addr.1, align 8, !tbaa !3850, !dbg !6152
	%4 = load i8*, i8** %__end.addr, align 8, !tbaa !3850, !dbg !6152
	store i8*  %4, i8** %..inline.addr.2, align 8, !tbaa !3850, !dbg !6152
	call void @llvm.dbg.declare (metadata [1 x i8]* %.._T44710352_52486.__FILL_CHARARRAY.addr, metadata !6154, metadata !3842), !dbg !6141
	%5 = bitcast [1 x i8]* %.._T44710352_52486.__FILL_CHARARRAY.addr to i8*, !dbg !6153
	%6 = load i8, i8*  %5, align 1, !tbaa !3960, !dbg !6153
	%7 = zext i8  %6 to i32, !dbg !6153
	%8 = trunc i32  %7 to i8, !dbg !6153
	call void @llvm.dbg.declare (metadata [1 x i8]* %....inline.__FILL_CHARARRAY.addr, metadata !6155, metadata !3842), !dbg !6141
	%9 = bitcast [1 x i8]* %....inline.__FILL_CHARARRAY.addr to i8*, !dbg !6153
	store i8  %8, i8*  %9, align 1, !tbaa !3960, !dbg !6153
	%10 = load %struct._ZNSt7__cxx1112basic_stringIcSt11char_traitsIcESaIcEEE*, %struct._ZNSt7__cxx1112basic_stringIcSt11char_traitsIcESaIcEEE** %..inline.addr, align 8, !tbaa !3850, !dbg !6156
	%11 = load i8*, i8** %..inline.addr.1, align 8, !tbaa !3850, !dbg !6156
	%12 = load i8*, i8** %..inline.addr.2, align 8, !tbaa !3850, !dbg !6156
	%13 = bitcast %struct._ZSt26random_access_iterator_tag* %..inline.addr.3 to i8*, !dbg !6156
	%14 = load i8, i8*  %13, align 1, !tbaa !3960, !dbg !6156
	call void  @_ZNSt7__cxx1112basic_stringIcSt11char_traitsIcESaIcEE12_M_constructIPKcEEvT_S8_St20forward_iterator_tag (%struct._ZNSt7__cxx1112basic_stringIcSt11char_traitsIcESaIcEEE*  %10, i8*  %11, i8*  %12, i8  %14), !dbg !6156
	ret void, !dbg !6153
}

%struct._ZSt12__false_type = type <{ [1 x i8]}> 

define linkonce_odr void @_ZNSt7__cxx1112basic_stringIcSt11char_traitsIcESaIcEE16_M_construct_auxIPKcEEvT_S8_St12__false_type(%struct._ZNSt7__cxx1112basic_stringIcSt11char_traitsIcESaIcEEE* %_T44708872_52487.arg, i8* %__beg.arg, i8* %__end.arg, i8 %_T44709760_52487.coerce) #0 inlinehint !dbg !6160 {
L.entry:
	%_T44708872_52487.addr = alloca %struct._ZNSt7__cxx1112basic_stringIcSt11char_traitsIcESaIcEEE*, align 8
	%__beg.addr = alloca i8*, align 8
	%__end.addr = alloca i8*, align 8
	%_T44709760_52487.addr = alloca %struct._ZSt12__false_type, align 1
	%_T44710648_52487.addr = alloca %struct._ZSt26random_access_iterator_tag, align 1

	call void @llvm.dbg.declare (metadata %struct._ZNSt7__cxx1112basic_stringIcSt11char_traitsIcESaIcEEE** %_T44708872_52487.addr, metadata !6164, metadata !3842), !dbg !6161
	store %struct._ZNSt7__cxx1112basic_stringIcSt11char_traitsIcESaIcEEE* %_T44708872_52487.arg, %struct._ZNSt7__cxx1112basic_stringIcSt11char_traitsIcESaIcEEE** %_T44708872_52487.addr, align 8, !tbaa !3850
	call void @llvm.dbg.declare (metadata %struct._ZNSt7__cxx1112basic_stringIcSt11char_traitsIcESaIcEEE** %_T44708872_52487.addr, metadata !6165, metadata !3842), !dbg !6161
	call void @llvm.dbg.declare (metadata i8** %__beg.addr, metadata !6166, metadata !3842), !dbg !6161
	store i8* %__beg.arg, i8** %__beg.addr, align 8, !tbaa !3850
	call void @llvm.dbg.declare (metadata i8** %__beg.addr, metadata !6167, metadata !3842), !dbg !6161
	call void @llvm.dbg.declare (metadata i8** %__end.addr, metadata !6168, metadata !3842), !dbg !6161
	store i8* %__end.arg, i8** %__end.addr, align 8, !tbaa !3850
	call void @llvm.dbg.declare (metadata i8** %__end.addr, metadata !6169, metadata !3842), !dbg !6161
	call void @llvm.dbg.declare (metadata %struct._ZSt12__false_type* %_T44709760_52487.addr, metadata !6170, metadata !3842), !dbg !6161
	%0 = bitcast %struct._ZSt12__false_type* %_T44709760_52487.addr to i8*
	store i8 %_T44709760_52487.coerce, i8*  %0, align 1, !tbaa !3960
	call void @llvm.dbg.declare (metadata %struct._ZSt12__false_type* %_T44709760_52487.addr, metadata !6171, metadata !3842), !dbg !6161
	%1 = load %struct._ZNSt7__cxx1112basic_stringIcSt11char_traitsIcESaIcEEE*, %struct._ZNSt7__cxx1112basic_stringIcSt11char_traitsIcESaIcEEE** %_T44708872_52487.addr, align 8, !tbaa !3850, !dbg !6172
	%2 = load i8*, i8** %__beg.addr, align 8, !tbaa !3850, !dbg !6172
	%3 = load i8*, i8** %__end.addr, align 8, !tbaa !3850, !dbg !6172
	%4 = bitcast %struct._ZSt26random_access_iterator_tag* %_T44710648_52487.addr to i8*, !dbg !6172
	%5 = load i8, i8*  %4, align 1, !tbaa !3960, !dbg !6172
	call void  @_ZNSt7__cxx1112basic_stringIcSt11char_traitsIcESaIcEE12_M_constructIPKcEEvT_S8_St20forward_iterator_tag (%struct._ZNSt7__cxx1112basic_stringIcSt11char_traitsIcESaIcEEE*  %1, i8*  %2, i8*  %3, i8  %5), !dbg !6172
	ret void, !dbg !6173
}

%struct._ZSt20forward_iterator_tag = type <{ [1 x i8]}> 

define linkonce_odr void @_ZNSt7__cxx1112basic_stringIcSt11char_traitsIcESaIcEE12_M_constructIPKcEEvT_S8_St20forward_iterator_tag(%struct._ZNSt7__cxx1112basic_stringIcSt11char_traitsIcESaIcEEE* %_T44708872_52488.arg, i8* %__beg.arg, i8* %__end.arg, i8 %_T44709760_52488.coerce) #0 inlinehint personality i8* bitcast (i32 (...)* @__gxx_personality_v0 to i8*) !dbg !6179 {
L.entry:
	%_T44708872_52488.addr = alloca %struct._ZNSt7__cxx1112basic_stringIcSt11char_traitsIcESaIcEEE*, align 8
	%__beg.addr = alloca i8*, align 8
	%__end.addr = alloca i8*, align 8
	%_T44709760_52488.addr = alloca %struct._ZSt20forward_iterator_tag, align 1
	%..inline.addr = alloca i8*, align 8
	%..inline.addr.1 = alloca i8, align 1
	%..inline.addr.2 = alloca i8*, align 8
	%..inline.addr.3 = alloca i8*, align 8
	%..inline.addr.4 = alloca %struct._ZSt26random_access_iterator_tag, align 1
	%..inline.addr.5 = alloca i8*, align 8
	%..inline.addr.6 = alloca i8*, align 8
	%..inline.addr.7 = alloca %struct._ZSt26random_access_iterator_tag, align 1
	%..inline.addr.8 = alloca i64, align 8
	%..inline.addr.9 = alloca i64, align 8
	%__dnew.addr = alloca i64, align 8
	%..inline.addr.190 = alloca %struct._ZNSt7__cxx1112basic_stringIcSt11char_traitsIcESaIcEEE*, align 8
	%.Q0010.addr = alloca i8*, align 8
	%..inline.addr.210 = alloca i8*, align 8
	%..inline.addr.220 = alloca %struct._ZNSt7__cxx1112basic_stringIcSt11char_traitsIcESaIcEEE*, align 8
	%..inline.addr.230 = alloca i64, align 8
	%..inline.addr.240 = alloca %struct._ZNSt7__cxx1112basic_stringIcSt11char_traitsIcESaIcEEE*, align 8
	%..inline.addr.250 = alloca i8*, align 8
	%..inline.addr.260 = alloca i8*, align 8
	%..inline.addr.270 = alloca i8*, align 8
	%..inline.addr.280 = alloca i8*, align 8
	%..inline.addr.290 = alloca i8*, align 8
	%..inline.addr.300 = alloca i64, align 8
	%..inline.addr.310 = alloca i8*, align 8
	%..inline.addr.320 = alloca i8*, align 8
	%..inline.addr.330 = alloca i8*, align 8
	%..inline.addr.340 = alloca i8*, align 8
	%..inline.addr.350 = alloca i64, align 8
	%..inline.addr.360 = alloca i8*, align 8
	%..inline.addr.370 = alloca %struct._ZNSt7__cxx1112basic_stringIcSt11char_traitsIcESaIcEEE*, align 8
	%..inline.addr.380 = alloca i64, align 8
	%..inline.addr.390 = alloca %struct._ZNSt7__cxx1112basic_stringIcSt11char_traitsIcESaIcEEE*, align 8
	%..inline.addr.400 = alloca i64, align 8
	%..inline.addr.410 = alloca i8, align 1
	%..inline.addr.420 = alloca %struct._ZNSt7__cxx1112basic_stringIcSt11char_traitsIcESaIcEEE*, align 8
	%..inline.addr.430 = alloca i8*, align 8
	%__caught_object_address.addr = alloca i8*, align 8
	%__catch_clause_number.addr = alloca i32, align 4
	%..inline.addr.460 = alloca %struct._ZNSt7__cxx1112basic_stringIcSt11char_traitsIcESaIcEEE*, align 8
	%..inline.addr.470 = alloca %struct._ZNSt7__cxx1112basic_stringIcSt11char_traitsIcESaIcEEE*, align 8
	%..inline.addr.480 = alloca %struct._ZNSt7__cxx1112basic_stringIcSt11char_traitsIcESaIcEEE*, align 8
	%..inline.addr.490 = alloca %struct._ZNSt7__cxx1112basic_stringIcSt11char_traitsIcESaIcEEE*, align 8
	%..inline.addr.500 = alloca i8*, align 8
	%..inline.addr.510 = alloca i8*, align 8
	%..inline.addr.520 = alloca i8*, align 8
	%..inline.addr.530 = alloca i8*, align 8
	%..inline.addr.540 = alloca i8*, align 8
	%..inline.addr.550 = alloca i8*, align 8
	%..inline.addr.560 = alloca i8, align 1
	%..inline.addr.570 = alloca %struct._ZNSt7__cxx1112basic_stringIcSt11char_traitsIcESaIcEEE*, align 8
	%..inline.addr.580 = alloca i64, align 8
	%..inline.addr.590 = alloca %struct._ZNSt7__cxx1112basic_stringIcSt11char_traitsIcESaIcEEE*, align 8
	%..inline.addr.600 = alloca %struct._ZNSt7__cxx1112basic_stringIcSt11char_traitsIcESaIcEEE*, align 8
	%..inline.addr.610 = alloca %struct._ZSaIcE*, align 8
	%..inline.addr.620 = alloca i8*, align 8
	%..inline.addr.630 = alloca i64, align 8
	%..inline.addr.640 = alloca i8*, align 8

	call void @llvm.dbg.declare (metadata %struct._ZNSt7__cxx1112basic_stringIcSt11char_traitsIcESaIcEEE** %_T44708872_52488.addr, metadata !6289, metadata !3842), !dbg !6180
	store %struct._ZNSt7__cxx1112basic_stringIcSt11char_traitsIcESaIcEEE* %_T44708872_52488.arg, %struct._ZNSt7__cxx1112basic_stringIcSt11char_traitsIcESaIcEEE** %_T44708872_52488.addr, align 8
	call void @llvm.dbg.declare (metadata %struct._ZNSt7__cxx1112basic_stringIcSt11char_traitsIcESaIcEEE** %_T44708872_52488.addr, metadata !6290, metadata !3842), !dbg !6180
	call void @llvm.dbg.declare (metadata i8** %__beg.addr, metadata !6291, metadata !3842), !dbg !6180
	store i8* %__beg.arg, i8** %__beg.addr, align 8
	call void @llvm.dbg.declare (metadata i8** %__beg.addr, metadata !6292, metadata !3842), !dbg !6180
	call void @llvm.dbg.declare (metadata i8** %__end.addr, metadata !6293, metadata !3842), !dbg !6180
	store i8* %__end.arg, i8** %__end.addr, align 8
	call void @llvm.dbg.declare (metadata i8** %__end.addr, metadata !6294, metadata !3842), !dbg !6180
	call void @llvm.dbg.declare (metadata %struct._ZSt20forward_iterator_tag* %_T44709760_52488.addr, metadata !6295, metadata !3842), !dbg !6180
	%0 = bitcast %struct._ZSt20forward_iterator_tag* %_T44709760_52488.addr to i8*
	store i8 %_T44709760_52488.coerce, i8*  %0, align 1
	call void @llvm.dbg.declare (metadata %struct._ZSt20forward_iterator_tag* %_T44709760_52488.addr, metadata !6296, metadata !3842), !dbg !6180
	%1 = load i8*, i8** %__beg.addr, align 8, !dbg !6297
	store i8*  %1, i8** %..inline.addr, align 8, !dbg !6297
	%2 = icmp eq i8*  %1,  null, !dbg !6297
	%3 = zext i1  %2 to i32, !dbg !6297
	%4 = shl i32  %3, 24, !dbg !6297
	%5 = ashr i32  %4, 24, !dbg !6297
	%6 = trunc i32  %5 to i8, !dbg !6297
	store i8  %6, i8* %..inline.addr.1, align 1, !dbg !6297
	%7 = sext i8  %6 to i32, !dbg !6298
	%8 = icmp eq i32  %7, 0, !dbg !6298
	br i1  %8, label %L.B0016, label %L.B1054, !dbg !6298
L.B1054:
	%9 = load i8*, i8** %__beg.addr, align 8, !dbg !6297
	%10 = load i8*, i8** %__end.addr, align 8, !dbg !6297
	%11 = icmp eq i8*  %9,  %10, !dbg !6297
	br i1  %11, label %L.B0016, label %L.B1055, !dbg !6297
L.B1055:
	%12 = bitcast [42 x i8]* @.S54233 to i8*, !dbg !6299
	call void  @_ZSt19__throw_logic_errorPKc (i8*  %12) noreturn, !dbg !6299
	br label %L.B0016
L.B0016:
	%13 = load i8*, i8** %__beg.addr, align 8, !dbg !6300
	store i8*  %13, i8** %..inline.addr.2, align 8, !dbg !6300
	%14 = load i8*, i8** %__end.addr, align 8, !dbg !6300
	store i8*  %14, i8** %..inline.addr.3, align 8, !dbg !6300
	%15 = bitcast %struct._ZSt26random_access_iterator_tag* %..inline.addr.4 to i8*, !dbg !6300
	store i8 0, i8*  %15, align 1, !dbg !6300
	store i8*  %13, i8** %..inline.addr.5, align 8, !dbg !6301
	store i8*  %14, i8** %..inline.addr.6, align 8, !dbg !6301
	%16 = zext i8 0 to i32, !dbg !6302
	%17 = trunc i32  %16 to i8, !dbg !6302
	%18 = bitcast %struct._ZSt26random_access_iterator_tag* %..inline.addr.7 to i8*, !dbg !6302
	store i8  %17, i8*  %18, align 1, !dbg !6302
	%19 = ptrtoint i8*  %13 to i64, !dbg !6301
	%20 = sub i64 0,  %19, !dbg !6301
	%21 = getelementptr i8, i8*  %14, i64  %20, !dbg !6301
	%22 = ptrtoint i8*  %21 to i64, !dbg !6301
	store i64  %22, i64* %..inline.addr.8, align 8, !dbg !6301
	store i64  %22, i64* %..inline.addr.9, align 8, !dbg !6301
	br label %L..inline.66309, !dbg !6301
L..inline.66309:
	%23 = load i64, i64* %..inline.addr.9, align 8, !dbg !6303
	call void @llvm.dbg.declare (metadata i64* %__dnew.addr, metadata !6304, metadata !3842), !dbg !6180
	store i64  %23, i64* %__dnew.addr, align 8, !dbg !6303
	%24 = icmp ule i64  %23, 15, !dbg !6305
	br i1  %24, label %L.B0017, label %L.B1056, !dbg !6305
L.B1056:
	%25 = load %struct._ZNSt7__cxx1112basic_stringIcSt11char_traitsIcESaIcEEE*, %struct._ZNSt7__cxx1112basic_stringIcSt11char_traitsIcESaIcEEE** %_T44708872_52488.addr, align 8, !dbg !6306
	%26 = bitcast %struct._ZNSt7__cxx1112basic_stringIcSt11char_traitsIcESaIcEEE*  %25 to i8*, !dbg !6306
	%27 = bitcast %struct._ZNSt7__cxx1112basic_stringIcSt11char_traitsIcESaIcEEE** %..inline.addr.190 to i8**, !dbg !6306
	store i8*  %26, i8**  %27, align 8, !dbg !6306
	%28 = call i8*  @_ZNSt7__cxx1112basic_stringIcSt11char_traitsIcESaIcEE9_M_createERmm (%struct._ZNSt7__cxx1112basic_stringIcSt11char_traitsIcESaIcEEE*  %25, i64* %__dnew.addr, i64 0), !dbg !6306
	store i8*  %28, i8** %.Q0010.addr, align 8, !dbg !6306
	%29 = load i8*, i8** %.Q0010.addr, align 8, !dbg !6306
	store i8*  %29, i8** %..inline.addr.210, align 8, !dbg !6306
	%30 = load %struct._ZNSt7__cxx1112basic_stringIcSt11char_traitsIcESaIcEEE*, %struct._ZNSt7__cxx1112basic_stringIcSt11char_traitsIcESaIcEEE** %..inline.addr.190, align 8, !dbg !6306
	%31 = bitcast %struct._ZNSt7__cxx1112basic_stringIcSt11char_traitsIcESaIcEEE*  %30 to i8**, !dbg !6306
	store i8*  %29, i8**  %31, align 8, !dbg !6306
	%32 = load %struct._ZNSt7__cxx1112basic_stringIcSt11char_traitsIcESaIcEEE*, %struct._ZNSt7__cxx1112basic_stringIcSt11char_traitsIcESaIcEEE** %_T44708872_52488.addr, align 8, !dbg !6307
	%33 = bitcast %struct._ZNSt7__cxx1112basic_stringIcSt11char_traitsIcESaIcEEE*  %32 to i8*, !dbg !6307
	%34 = bitcast %struct._ZNSt7__cxx1112basic_stringIcSt11char_traitsIcESaIcEEE** %..inline.addr.220 to i8**, !dbg !6307
	store i8*  %33, i8**  %34, align 8, !dbg !6307
	%35 = load i64, i64* %__dnew.addr, align 8, !dbg !6307
	store i64  %35, i64* %..inline.addr.230, align 8, !dbg !6307
	%36 = load %struct._ZNSt7__cxx1112basic_stringIcSt11char_traitsIcESaIcEEE*, %struct._ZNSt7__cxx1112basic_stringIcSt11char_traitsIcESaIcEEE** %..inline.addr.220, align 8, !dbg !6307
	%37 = bitcast %struct._ZNSt7__cxx1112basic_stringIcSt11char_traitsIcESaIcEEE*  %36 to i8*, !dbg !6307
	%38 = getelementptr i8, i8*  %37, i64 16, !dbg !6307
	%39 = bitcast i8*  %38 to i64*, !dbg !6307
	store i64  %35, i64*  %39, align 8, !dbg !6307
	br label %L.B0017
L.B0017:
	%40 = load %struct._ZNSt7__cxx1112basic_stringIcSt11char_traitsIcESaIcEEE*, %struct._ZNSt7__cxx1112basic_stringIcSt11char_traitsIcESaIcEEE** %_T44708872_52488.addr, align 8, !dbg !6308
	%41 = bitcast %struct._ZNSt7__cxx1112basic_stringIcSt11char_traitsIcESaIcEEE*  %40 to i8*, !dbg !6308
	%42 = bitcast %struct._ZNSt7__cxx1112basic_stringIcSt11char_traitsIcESaIcEEE** %..inline.addr.240 to i8**, !dbg !6308
	store i8*  %41, i8**  %42, align 8, !dbg !6308
	%43 = load %struct._ZNSt7__cxx1112basic_stringIcSt11char_traitsIcESaIcEEE*, %struct._ZNSt7__cxx1112basic_stringIcSt11char_traitsIcESaIcEEE** %..inline.addr.240, align 8, !dbg !6309
	%44 = bitcast %struct._ZNSt7__cxx1112basic_stringIcSt11char_traitsIcESaIcEEE*  %43 to i8**, !dbg !6309
	%45 = load i8*, i8**  %44, align 8, !dbg !6309
	store i8*  %45, i8** %..inline.addr.250, align 8, !dbg !6309
	%46 = load i8*, i8** %__beg.addr, align 8, !dbg !6308
	store i8*  %46, i8** %..inline.addr.260, align 8, !dbg !6308
	%47 = load i8*, i8** %__end.addr, align 8, !dbg !6308
	store i8*  %47, i8** %..inline.addr.270, align 8, !dbg !6308
	store i8*  %45, i8** %..inline.addr.280, align 8, !dbg !6310
	store i8*  %46, i8** %..inline.addr.290, align 8, !dbg !6310
	%48 = ptrtoint i8*  %46 to i64, !dbg !6310
	%49 = sub i64 0,  %48, !dbg !6310
	%50 = getelementptr i8, i8*  %47, i64  %49, !dbg !6310
	%51 = ptrtoint i8*  %50 to i64, !dbg !6310
	store i64  %51, i64* %..inline.addr.300, align 8, !dbg !6310
	%52 = icmp ne i64  %51, 1, !dbg !6310
	br i1  %52, label %L..inline.66338, label %L.B1057, !dbg !6310
L.B1057:
	%53 = load i8*, i8** %..inline.addr.280, align 8, !dbg !6310
	store i8*  %53, i8** %..inline.addr.310, align 8, !dbg !6310
	%54 = load i8*, i8** %..inline.addr.290, align 8, !dbg !6310
	store i8*  %54, i8** %..inline.addr.320, align 8, !dbg !6310
	%55 = load i8, i8*  %54, align 1, !dbg !6310
	store i8  %55, i8*  %53, align 1, !dbg !6310
	br label %L..inline.66345, !dbg !6310
L..inline.66338:
	%56 = load i8*, i8** %..inline.addr.280, align 8, !dbg !6310
	store i8*  %56, i8** %..inline.addr.330, align 8, !dbg !6310
	%57 = load i8*, i8** %..inline.addr.290, align 8, !dbg !6310
	store i8*  %57, i8** %..inline.addr.340, align 8, !dbg !6310
	%58 = load i64, i64* %..inline.addr.300, align 8, !dbg !6310
	store i64  %58, i64* %..inline.addr.350, align 8, !dbg !6310
	%59 = icmp ne i64  %58, 0, !dbg !6310
	br i1  %59, label %L..inline.66352, label %L.B1058, !dbg !6310
L.B1058:
	%60 = load i8*, i8** %..inline.addr.330, align 8, !dbg !6310
	store i8*  %60, i8** %..inline.addr.360, align 8, !dbg !6310
	br label %L..inline.66354, !dbg !6310
L..inline.66352:
	%61 = load i8*, i8** %..inline.addr.330, align 8, !dbg !6310
	%62 = load i8*, i8** %..inline.addr.340, align 8, !dbg !6310
	%63 = load i64, i64* %..inline.addr.350, align 8, !dbg !6310
	%64 = call i8*  @memcpy (i8*  %61, i8*  %62, i64  %63) nounwind, !dbg !6310
	store i8*  %64, i8** %..inline.addr.360, align 8, !dbg !6310
	br label %L..inline.66354
L..inline.66354:
	br label %L..inline.66345
L..inline.66345:
	br label %L_T44711184_52488
L_T44711184_52488:
	%65 = load %struct._ZNSt7__cxx1112basic_stringIcSt11char_traitsIcESaIcEEE*, %struct._ZNSt7__cxx1112basic_stringIcSt11char_traitsIcESaIcEEE** %_T44708872_52488.addr, align 8, !dbg !6311
	%66 = bitcast %struct._ZNSt7__cxx1112basic_stringIcSt11char_traitsIcESaIcEEE*  %65 to i8*, !dbg !6311
	%67 = bitcast %struct._ZNSt7__cxx1112basic_stringIcSt11char_traitsIcESaIcEEE** %..inline.addr.370 to i8**, !dbg !6311
	store i8*  %66, i8**  %67, align 8, !dbg !6311
	%68 = load i64, i64* %__dnew.addr, align 8, !dbg !6311
	store i64  %68, i64* %..inline.addr.380, align 8, !dbg !6311
	%69 = load %struct._ZNSt7__cxx1112basic_stringIcSt11char_traitsIcESaIcEEE*, %struct._ZNSt7__cxx1112basic_stringIcSt11char_traitsIcESaIcEEE** %..inline.addr.370, align 8, !dbg !6312
	%70 = bitcast %struct._ZNSt7__cxx1112basic_stringIcSt11char_traitsIcESaIcEEE*  %69 to i8*, !dbg !6312
	%71 = bitcast %struct._ZNSt7__cxx1112basic_stringIcSt11char_traitsIcESaIcEEE** %..inline.addr.390 to i8**, !dbg !6312
	store i8*  %70, i8**  %71, align 8, !dbg !6312
	store i64  %68, i64* %..inline.addr.400, align 8, !dbg !6312
	%72 = load %struct._ZNSt7__cxx1112basic_stringIcSt11char_traitsIcESaIcEEE*, %struct._ZNSt7__cxx1112basic_stringIcSt11char_traitsIcESaIcEEE** %..inline.addr.390, align 8, !dbg !6312
	%73 = bitcast %struct._ZNSt7__cxx1112basic_stringIcSt11char_traitsIcESaIcEEE*  %72 to i8*, !dbg !6312
	%74 = getelementptr i8, i8*  %73, i64 8, !dbg !6312
	%75 = bitcast i8*  %74 to i64*, !dbg !6312
	store i64  %68, i64*  %75, align 8, !dbg !6312
	store i8 0, i8* %..inline.addr.410, align 1, !dbg !6312
	%76 = bitcast %struct._ZNSt7__cxx1112basic_stringIcSt11char_traitsIcESaIcEEE** %..inline.addr.420 to i8**, !dbg !6305
	store i8*  %70, i8**  %76, align 8, !dbg !6305
	%77 = load %struct._ZNSt7__cxx1112basic_stringIcSt11char_traitsIcESaIcEEE*, %struct._ZNSt7__cxx1112basic_stringIcSt11char_traitsIcESaIcEEE** %..inline.addr.420, align 8, !dbg !6305
	%78 = bitcast %struct._ZNSt7__cxx1112basic_stringIcSt11char_traitsIcESaIcEEE*  %77 to i8**, !dbg !6305
	%79 = load i8*, i8**  %78, align 8, !dbg !6305
	%80 = getelementptr i8, i8*  %79, i64  %68, !dbg !6305
	store i8*  %80, i8** %..inline.addr.430, align 8, !dbg !6305
	store i8 0, i8*  %80, align 1, !dbg !6305
	br label %L.R0098, !dbg !6311
L_T44710944_52488:
	%81 = landingpad %astruct.dt64
	catch i8*  null 
	%82 = extractvalue %astruct.dt64  %81, 0, !dbg !6311
	store i8*  %82, i8** %__caught_object_address.addr, align 1, !dbg !6311
	%83 = extractvalue %astruct.dt64  %81, 1, !dbg !6311
	store i32  %83, i32* %__catch_clause_number.addr, align 1, !dbg !6311
	%84 = load i8*, i8** %__caught_object_address.addr, align 8, !dbg !6313
	%85 = call i8*  @__cxa_begin_catch (i8*  %84) nounwind, !dbg !6313
	%86 = load %struct._ZNSt7__cxx1112basic_stringIcSt11char_traitsIcESaIcEEE*, %struct._ZNSt7__cxx1112basic_stringIcSt11char_traitsIcESaIcEEE** %_T44708872_52488.addr, align 8, !dbg !6314
	%87 = bitcast %struct._ZNSt7__cxx1112basic_stringIcSt11char_traitsIcESaIcEEE*  %86 to i8*, !dbg !6314
	%88 = bitcast %struct._ZNSt7__cxx1112basic_stringIcSt11char_traitsIcESaIcEEE** %..inline.addr.460 to i8**, !dbg !6314
	store i8*  %87, i8**  %88, align 8, !dbg !6314
	%89 = load %struct._ZNSt7__cxx1112basic_stringIcSt11char_traitsIcESaIcEEE*, %struct._ZNSt7__cxx1112basic_stringIcSt11char_traitsIcESaIcEEE** %..inline.addr.460, align 8, !dbg !6315
	%90 = bitcast %struct._ZNSt7__cxx1112basic_stringIcSt11char_traitsIcESaIcEEE*  %89 to i8*, !dbg !6315
	%91 = bitcast %struct._ZNSt7__cxx1112basic_stringIcSt11char_traitsIcESaIcEEE** %..inline.addr.470 to i8**, !dbg !6315
	store i8*  %90, i8**  %91, align 8, !dbg !6315
	%92 = load %struct._ZNSt7__cxx1112basic_stringIcSt11char_traitsIcESaIcEEE*, %struct._ZNSt7__cxx1112basic_stringIcSt11char_traitsIcESaIcEEE** %..inline.addr.470, align 8, !dbg !6315
	%93 = bitcast %struct._ZNSt7__cxx1112basic_stringIcSt11char_traitsIcESaIcEEE*  %92 to i8*, !dbg !6315
	%94 = bitcast %struct._ZNSt7__cxx1112basic_stringIcSt11char_traitsIcESaIcEEE** %..inline.addr.480 to i8**, !dbg !6315
	store i8*  %93, i8**  %94, align 8, !dbg !6315
	%95 = bitcast %struct._ZNSt7__cxx1112basic_stringIcSt11char_traitsIcESaIcEEE** %..inline.addr.490 to i8**, !dbg !6315
	store i8*  %93, i8**  %95, align 8, !dbg !6315
	%96 = load %struct._ZNSt7__cxx1112basic_stringIcSt11char_traitsIcESaIcEEE*, %struct._ZNSt7__cxx1112basic_stringIcSt11char_traitsIcESaIcEEE** %..inline.addr.490, align 8, !dbg !6315
	%97 = bitcast %struct._ZNSt7__cxx1112basic_stringIcSt11char_traitsIcESaIcEEE*  %96 to i8*, !dbg !6315
	%98 = getelementptr i8, i8*  %97, i64 16, !dbg !6315
	store i8*  %98, i8** %..inline.addr.500, align 8, !dbg !6315
	store i8*  %98, i8** %..inline.addr.510, align 8, !dbg !6315
	store i8*  %98, i8** %..inline.addr.520, align 8, !dbg !6315
	store i8*  %98, i8** %..inline.addr.530, align 8, !dbg !6315
	store i8*  %98, i8** %..inline.addr.540, align 8, !dbg !6315
	store i8*  %98, i8** %..inline.addr.550, align 8, !dbg !6315
	br label %L..inline.66423, !dbg !6315
L..inline.66423:
	%99 = load %struct._ZNSt7__cxx1112basic_stringIcSt11char_traitsIcESaIcEEE*, %struct._ZNSt7__cxx1112basic_stringIcSt11char_traitsIcESaIcEEE** %..inline.addr.480, align 8, !dbg !6315
	%100 = bitcast %struct._ZNSt7__cxx1112basic_stringIcSt11char_traitsIcESaIcEEE*  %99 to i8**, !dbg !6315
	%101 = load i8*, i8**  %100, align 8, !dbg !6315
	%102 = load i8*, i8** %..inline.addr.550, align 8, !dbg !6315
	%103 = icmp eq i8*  %101,  %102, !dbg !6315
	%104 = zext i1  %103 to i32, !dbg !6315
	%105 = trunc i32  %104 to i8, !dbg !6315
	store i8  %105, i8* %..inline.addr.560, align 1, !dbg !6315
	br label %L..inline.66425, !dbg !6315
L..inline.66425:
	%106 = load i8, i8* %..inline.addr.560, align 1, !dbg !6315
	%107 = sext i8  %106 to i32, !dbg !6315
	%108 = icmp ne i32  %107, 0, !dbg !6315
	br i1  %108, label %L..inline.66426, label %L.B1059, !dbg !6315
L.B1059:
	%109 = load %struct._ZNSt7__cxx1112basic_stringIcSt11char_traitsIcESaIcEEE*, %struct._ZNSt7__cxx1112basic_stringIcSt11char_traitsIcESaIcEEE** %..inline.addr.460, align 8, !dbg !6311
	%110 = bitcast %struct._ZNSt7__cxx1112basic_stringIcSt11char_traitsIcESaIcEEE*  %109 to i8*, !dbg !6311
	%111 = bitcast %struct._ZNSt7__cxx1112basic_stringIcSt11char_traitsIcESaIcEEE** %..inline.addr.570 to i8**, !dbg !6311
	store i8*  %110, i8**  %111, align 8, !dbg !6311
	%112 = getelementptr i8, i8*  %110, i64 16, !dbg !6311
	%113 = bitcast i8*  %112 to i64*, !dbg !6311
	%114 = load i64, i64*  %113, align 8, !dbg !6311
	store i64  %114, i64* %..inline.addr.580, align 8, !dbg !6311
	%115 = load %struct._ZNSt7__cxx1112basic_stringIcSt11char_traitsIcESaIcEEE*, %struct._ZNSt7__cxx1112basic_stringIcSt11char_traitsIcESaIcEEE** %..inline.addr.570, align 8, !dbg !6311
	%116 = bitcast %struct._ZNSt7__cxx1112basic_stringIcSt11char_traitsIcESaIcEEE*  %115 to i8*, !dbg !6311
	%117 = bitcast %struct._ZNSt7__cxx1112basic_stringIcSt11char_traitsIcESaIcEEE** %..inline.addr.590 to i8**, !dbg !6311
	store i8*  %116, i8**  %117, align 8, !dbg !6311
	%118 = bitcast %struct._ZNSt7__cxx1112basic_stringIcSt11char_traitsIcESaIcEEE** %..inline.addr.600 to i8**, !dbg !6311
	store i8*  %116, i8**  %118, align 8, !dbg !6311
	%119 = load %struct._ZNSt7__cxx1112basic_stringIcSt11char_traitsIcESaIcEEE*, %struct._ZNSt7__cxx1112basic_stringIcSt11char_traitsIcESaIcEEE** %..inline.addr.590, align 8, !dbg !6311
	%120 = bitcast %struct._ZNSt7__cxx1112basic_stringIcSt11char_traitsIcESaIcEEE*  %119 to i8*, !dbg !6311
	%121 = bitcast %struct._ZSaIcE** %..inline.addr.610 to i8**, !dbg !6311
	store i8*  %120, i8**  %121, align 8, !dbg !6311
	%122 = load %struct._ZNSt7__cxx1112basic_stringIcSt11char_traitsIcESaIcEEE*, %struct._ZNSt7__cxx1112basic_stringIcSt11char_traitsIcESaIcEEE** %..inline.addr.600, align 8, !dbg !6311
	%123 = bitcast %struct._ZNSt7__cxx1112basic_stringIcSt11char_traitsIcESaIcEEE*  %122 to i8**, !dbg !6311
	%124 = load i8*, i8**  %123, align 8, !dbg !6311
	store i8*  %124, i8** %..inline.addr.620, align 8, !dbg !6311
	%125 = add i64  %114, 1, !dbg !6311
	store i64  %125, i64* %..inline.addr.630, align 8, !dbg !6311
	store i8*  %124, i8** %..inline.addr.640, align 8, !dbg !6311
	call void  @_ZdlPv (i8*  %124) nounwind, !dbg !6311
	br label %L..inline.66426
L..inline.66426:
	invoke void  @__cxa_rethrow () noreturn
		to label %L.B1060
		unwind label %L_T44711304_52488, !dbg !6316
L.B1060:
	br label %L_T44711184_52488, !dbg !6316
L_T44711304_52488:
	%126 = landingpad %astruct.dt64
	cleanup
	%127 = extractvalue %astruct.dt64  %126, 0, !dbg !6317
	store i8*  %127, i8** %__caught_object_address.addr, align 1, !dbg !6317
	%128 = extractvalue %astruct.dt64  %126, 1, !dbg !6317
	store i32  %128, i32* %__catch_clause_number.addr, align 1, !dbg !6317
	call void  @__cxa_end_catch () nounwind, !dbg !6317
	%129 = load i32, i32* %__catch_clause_number.addr, align 4, !dbg !6317
	%130 = load i8*, i8** %__caught_object_address.addr, align 8, !dbg !6317
	%131 = insertvalue %astruct.dt64 undef, i8*  %130, 0, !dbg !6317
	%132 = insertvalue %astruct.dt64  %131, i32  %129, 1, !dbg !6317
	resume %astruct.dt64  %132 , !dbg !6317
L.R0098:
	ret void, !dbg !6302
}
define linkonce_odr void @_ZNSt7__cxx1112basic_stringIcSt11char_traitsIcESaIcEE12_Alloc_hiderC1EPcRKS3_(%struct._ZNSt7__cxx1112basic_stringIcSt11char_traitsIcESaIcEE12_Alloc_hiderE* %_T44708872_52490.arg, i8* %__dat.arg, %struct._ZSaIcE* %__a.arg) #0 inlinehint !dbg !6322 {
L.entry:
	%_T44708872_52490.addr = alloca %struct._ZNSt7__cxx1112basic_stringIcSt11char_traitsIcESaIcEE12_Alloc_hiderE*, align 8
	%__dat.addr = alloca i8*, align 8
	%__a.addr = alloca %struct._ZSaIcE*, align 8

	call void @llvm.dbg.declare (metadata %struct._ZNSt7__cxx1112basic_stringIcSt11char_traitsIcESaIcEE12_Alloc_hiderE** %_T44708872_52490.addr, metadata !6326, metadata !3842), !dbg !6323
	store %struct._ZNSt7__cxx1112basic_stringIcSt11char_traitsIcESaIcEE12_Alloc_hiderE* %_T44708872_52490.arg, %struct._ZNSt7__cxx1112basic_stringIcSt11char_traitsIcESaIcEE12_Alloc_hiderE** %_T44708872_52490.addr, align 8, !tbaa !3850
	call void @llvm.dbg.declare (metadata %struct._ZNSt7__cxx1112basic_stringIcSt11char_traitsIcESaIcEE12_Alloc_hiderE** %_T44708872_52490.addr, metadata !6327, metadata !3842), !dbg !6323
	call void @llvm.dbg.declare (metadata i8** %__dat.addr, metadata !6328, metadata !3842), !dbg !6323
	store i8* %__dat.arg, i8** %__dat.addr, align 8, !tbaa !3850
	call void @llvm.dbg.declare (metadata i8** %__dat.addr, metadata !6329, metadata !3842), !dbg !6323
	call void @llvm.dbg.declare (metadata %struct._ZSaIcE** %__a.addr, metadata !6330, metadata !3842), !dbg !6323
	store %struct._ZSaIcE* %__a.arg, %struct._ZSaIcE** %__a.addr, align 8, !tbaa !3850
	call void @llvm.dbg.declare (metadata %struct._ZSaIcE** %__a.addr, metadata !6331, metadata !3842), !dbg !6323
	%0 = load i8*, i8** %__dat.addr, align 8, !tbaa !3850, !dbg !6332
	%1 = load %struct._ZNSt7__cxx1112basic_stringIcSt11char_traitsIcESaIcEE12_Alloc_hiderE*, %struct._ZNSt7__cxx1112basic_stringIcSt11char_traitsIcESaIcEE12_Alloc_hiderE** %_T44708872_52490.addr, align 8, !tbaa !3850, !dbg !6332
	%2 = bitcast %struct._ZNSt7__cxx1112basic_stringIcSt11char_traitsIcESaIcEE12_Alloc_hiderE*  %1 to i8**, !dbg !6332
	store i8*  %0, i8**  %2, align 8, !tbaa !3850, !dbg !6332
	ret void, !dbg !6332
}
define linkonce_odr void @_ZNSt7__cxx1112basic_stringIcSt11char_traitsIcESaIcEE12_Alloc_hiderC2EPcRKS3_(%struct._ZNSt7__cxx1112basic_stringIcSt11char_traitsIcESaIcEE12_Alloc_hiderE* %_T44708872_52492.arg, i8* %_T44709168_52492.arg, %struct._ZSaIcE* %_T44709464_52492.arg) #0 inlinehint !dbg !6334 {
L.entry:
	%_T44708872_52492.addr = alloca %struct._ZNSt7__cxx1112basic_stringIcSt11char_traitsIcESaIcEE12_Alloc_hiderE*, align 8
	%_T44709168_52492.addr = alloca i8*, align 8
	%_T44709464_52492.addr = alloca %struct._ZSaIcE*, align 8

	store %struct._ZNSt7__cxx1112basic_stringIcSt11char_traitsIcESaIcEE12_Alloc_hiderE* %_T44708872_52492.arg, %struct._ZNSt7__cxx1112basic_stringIcSt11char_traitsIcESaIcEE12_Alloc_hiderE** %_T44708872_52492.addr, align 8, !tbaa !3850
	store i8* %_T44709168_52492.arg, i8** %_T44709168_52492.addr, align 8, !tbaa !3850
	store %struct._ZSaIcE* %_T44709464_52492.arg, %struct._ZSaIcE** %_T44709464_52492.addr, align 8, !tbaa !3850
	%0 = load i8*, i8** %_T44709168_52492.addr, align 8, !tbaa !3850, !dbg !6342
	%1 = load %struct._ZNSt7__cxx1112basic_stringIcSt11char_traitsIcESaIcEE12_Alloc_hiderE*, %struct._ZNSt7__cxx1112basic_stringIcSt11char_traitsIcESaIcEE12_Alloc_hiderE** %_T44708872_52492.addr, align 8, !tbaa !3850, !dbg !6342
	%2 = bitcast %struct._ZNSt7__cxx1112basic_stringIcSt11char_traitsIcESaIcEE12_Alloc_hiderE*  %1 to i8**, !dbg !6342
	store i8*  %0, i8**  %2, align 8, !tbaa !3850, !dbg !6342
	ret void, !dbg !6342
}

%struct._ZN9__gnu_cxx13new_allocatorIcEE = type <{ [1 x i8]}> 

define linkonce_odr void @_ZN9__gnu_cxx13new_allocatorIcE10deallocateEPcm(%struct._ZN9__gnu_cxx13new_allocatorIcEE* %_T44708872_52495.arg, i8* %__p.arg, i64 %_T44709464_52495.arg) #0 inlinehint !dbg !6349 {
L.entry:
	%_T44708872_52495.addr = alloca %struct._ZN9__gnu_cxx13new_allocatorIcEE*, align 8
	%__p.addr = alloca i8*, align 8
	%_T44709464_52495.addr = alloca i64, align 8

	call void @llvm.dbg.declare (metadata %struct._ZN9__gnu_cxx13new_allocatorIcEE** %_T44708872_52495.addr, metadata !6353, metadata !3842), !dbg !6350
	store %struct._ZN9__gnu_cxx13new_allocatorIcEE* %_T44708872_52495.arg, %struct._ZN9__gnu_cxx13new_allocatorIcEE** %_T44708872_52495.addr, align 8, !tbaa !3850
	call void @llvm.dbg.declare (metadata %struct._ZN9__gnu_cxx13new_allocatorIcEE** %_T44708872_52495.addr, metadata !6354, metadata !3842), !dbg !6350
	call void @llvm.dbg.declare (metadata i8** %__p.addr, metadata !6355, metadata !3842), !dbg !6350
	store i8* %__p.arg, i8** %__p.addr, align 8, !tbaa !3850
	call void @llvm.dbg.declare (metadata i8** %__p.addr, metadata !6356, metadata !3842), !dbg !6350
	call void @llvm.dbg.declare (metadata i64* %_T44709464_52495.addr, metadata !6357, metadata !3842), !dbg !6350
	store i64 %_T44709464_52495.arg, i64* %_T44709464_52495.addr, align 8, !tbaa !3960
	call void @llvm.dbg.declare (metadata i64* %_T44709464_52495.addr, metadata !6358, metadata !3842), !dbg !6350
	%0 = load i8*, i8** %__p.addr, align 8, !tbaa !3850, !dbg !6359
	call void  @_ZdlPv (i8*  %0) nounwind, !dbg !6359
	ret void, !dbg !6360
}

%struct._ZN9__gnu_cxx13new_allocatorIjEE = type <{ [1 x i8]}> 

define linkonce_odr void @_ZN9__gnu_cxx13new_allocatorIjE10deallocateEPjm(%struct._ZN9__gnu_cxx13new_allocatorIjEE* %_T44708872_52498.arg, i32* %__p.arg, i64 %_T44709464_52498.arg) #0 inlinehint !dbg !6368 {
L.entry:
	%_T44708872_52498.addr = alloca %struct._ZN9__gnu_cxx13new_allocatorIjEE*, align 8
	%__p.addr = alloca i32*, align 8
	%_T44709464_52498.addr = alloca i64, align 8

	call void @llvm.dbg.declare (metadata %struct._ZN9__gnu_cxx13new_allocatorIjEE** %_T44708872_52498.addr, metadata !6372, metadata !3842), !dbg !6369
	store %struct._ZN9__gnu_cxx13new_allocatorIjEE* %_T44708872_52498.arg, %struct._ZN9__gnu_cxx13new_allocatorIjEE** %_T44708872_52498.addr, align 8, !tbaa !3850
	call void @llvm.dbg.declare (metadata %struct._ZN9__gnu_cxx13new_allocatorIjEE** %_T44708872_52498.addr, metadata !6373, metadata !3842), !dbg !6369
	call void @llvm.dbg.declare (metadata i32** %__p.addr, metadata !6374, metadata !3842), !dbg !6369
	store i32* %__p.arg, i32** %__p.addr, align 8, !tbaa !3850
	call void @llvm.dbg.declare (metadata i32** %__p.addr, metadata !6375, metadata !3842), !dbg !6369
	call void @llvm.dbg.declare (metadata i64* %_T44709464_52498.addr, metadata !6376, metadata !3842), !dbg !6369
	store i64 %_T44709464_52498.arg, i64* %_T44709464_52498.addr, align 8, !tbaa !3960
	call void @llvm.dbg.declare (metadata i64* %_T44709464_52498.addr, metadata !6377, metadata !3842), !dbg !6369
	%0 = load i32*, i32** %__p.addr, align 8, !tbaa !3850, !dbg !6378
	%1 = bitcast i32*  %0 to i8*, !dbg !6378
	call void  @_ZdlPv (i8*  %1) nounwind, !dbg !6378
	ret void, !dbg !6379
}

%struct._ZN9__gnu_cxx13new_allocatorIdEE = type <{ [1 x i8]}> 

define linkonce_odr void @_ZN9__gnu_cxx13new_allocatorIdE10deallocateEPdm(%struct._ZN9__gnu_cxx13new_allocatorIdEE* %_T44708872_52501.arg, double* %__p.arg, i64 %_T44709464_52501.arg) #0 inlinehint !dbg !6387 {
L.entry:
	%_T44708872_52501.addr = alloca %struct._ZN9__gnu_cxx13new_allocatorIdEE*, align 8
	%__p.addr = alloca double*, align 8
	%_T44709464_52501.addr = alloca i64, align 8

	call void @llvm.dbg.declare (metadata %struct._ZN9__gnu_cxx13new_allocatorIdEE** %_T44708872_52501.addr, metadata !6391, metadata !3842), !dbg !6388
	store %struct._ZN9__gnu_cxx13new_allocatorIdEE* %_T44708872_52501.arg, %struct._ZN9__gnu_cxx13new_allocatorIdEE** %_T44708872_52501.addr, align 8, !tbaa !3850
	call void @llvm.dbg.declare (metadata %struct._ZN9__gnu_cxx13new_allocatorIdEE** %_T44708872_52501.addr, metadata !6392, metadata !3842), !dbg !6388
	call void @llvm.dbg.declare (metadata double** %__p.addr, metadata !6393, metadata !3842), !dbg !6388
	store double* %__p.arg, double** %__p.addr, align 8, !tbaa !3850
	call void @llvm.dbg.declare (metadata double** %__p.addr, metadata !6394, metadata !3842), !dbg !6388
	call void @llvm.dbg.declare (metadata i64* %_T44709464_52501.addr, metadata !6395, metadata !3842), !dbg !6388
	store i64 %_T44709464_52501.arg, i64* %_T44709464_52501.addr, align 8, !tbaa !3960
	call void @llvm.dbg.declare (metadata i64* %_T44709464_52501.addr, metadata !6396, metadata !3842), !dbg !6388
	%0 = load double*, double** %__p.addr, align 8, !tbaa !3850, !dbg !6397
	%1 = bitcast double*  %0 to i8*, !dbg !6397
	call void  @_ZdlPv (i8*  %1) nounwind, !dbg !6397
	ret void, !dbg !6398
}

%struct._ZN9__gnu_cxx13new_allocatorIN5vmesh14MeshParametersEEE = type <{ [1 x i8]}> 

define linkonce_odr void @_ZN9__gnu_cxx13new_allocatorIN5vmesh14MeshParametersEE10deallocateEPS2_m(%struct._ZN9__gnu_cxx13new_allocatorIN5vmesh14MeshParametersEEE* %_T44708872_52504.arg, %struct._ZN5vmesh14MeshParametersE* %__p.arg, i64 %_T44709464_52504.arg) #0 inlinehint !dbg !6406 {
L.entry:
	%_T44708872_52504.addr = alloca %struct._ZN9__gnu_cxx13new_allocatorIN5vmesh14MeshParametersEEE*, align 8
	%__p.addr = alloca %struct._ZN5vmesh14MeshParametersE*, align 8
	%_T44709464_52504.addr = alloca i64, align 8

	call void @llvm.dbg.declare (metadata %struct._ZN9__gnu_cxx13new_allocatorIN5vmesh14MeshParametersEEE** %_T44708872_52504.addr, metadata !6410, metadata !3842), !dbg !6407
	store %struct._ZN9__gnu_cxx13new_allocatorIN5vmesh14MeshParametersEEE* %_T44708872_52504.arg, %struct._ZN9__gnu_cxx13new_allocatorIN5vmesh14MeshParametersEEE** %_T44708872_52504.addr, align 8, !tbaa !3850
	call void @llvm.dbg.declare (metadata %struct._ZN9__gnu_cxx13new_allocatorIN5vmesh14MeshParametersEEE** %_T44708872_52504.addr, metadata !6411, metadata !3842), !dbg !6407
	call void @llvm.dbg.declare (metadata %struct._ZN5vmesh14MeshParametersE** %__p.addr, metadata !6412, metadata !3842), !dbg !6407
	store %struct._ZN5vmesh14MeshParametersE* %__p.arg, %struct._ZN5vmesh14MeshParametersE** %__p.addr, align 8, !tbaa !3850
	call void @llvm.dbg.declare (metadata %struct._ZN5vmesh14MeshParametersE** %__p.addr, metadata !6413, metadata !3842), !dbg !6407
	call void @llvm.dbg.declare (metadata i64* %_T44709464_52504.addr, metadata !6414, metadata !3842), !dbg !6407
	store i64 %_T44709464_52504.arg, i64* %_T44709464_52504.addr, align 8, !tbaa !3960
	call void @llvm.dbg.declare (metadata i64* %_T44709464_52504.addr, metadata !6415, metadata !3842), !dbg !6407
	%0 = load %struct._ZN5vmesh14MeshParametersE*, %struct._ZN5vmesh14MeshParametersE** %__p.addr, align 8, !tbaa !3850, !dbg !6416
	%1 = bitcast %struct._ZN5vmesh14MeshParametersE*  %0 to i8*, !dbg !6416
	call void  @_ZdlPv (i8*  %1) nounwind, !dbg !6416
	ret void, !dbg !6417
}
define linkonce_odr void @_ZN5vmesh14MeshParametersD1Ev(%struct._ZN5vmesh14MeshParametersE* %_T44708872_52505.arg) #0 inlinehint !dbg !6423 {
L.entry:
	%_T44708872_52505.addr = alloca %struct._ZN5vmesh14MeshParametersE*, align 8
	%..inline.addr = alloca %struct._ZSt12_Vector_baseIjSaIjEE*, align 8
	%..inline.addr.1 = alloca i32*, align 8
	%..inline.addr.2 = alloca %struct._ZSt12_Vector_baseIdSaIdEE*, align 8
	%..inline.addr.3 = alloca double*, align 8
	%..inline.addr.4 = alloca %struct._ZSt12_Vector_baseIdSaIdEE*, align 8
	%..inline.addr.5 = alloca double*, align 8
	%..inline.addr.6 = alloca %struct._ZSt12_Vector_baseIjSaIjEE*, align 8
	%..inline.addr.7 = alloca i32*, align 8
	%..inline.addr.8 = alloca i8*, align 8

	call void @llvm.dbg.declare (metadata %struct._ZN5vmesh14MeshParametersE** %_T44708872_52505.addr, metadata !6687, metadata !3842), !dbg !6424
	store %struct._ZN5vmesh14MeshParametersE* %_T44708872_52505.arg, %struct._ZN5vmesh14MeshParametersE** %_T44708872_52505.addr, align 8, !tbaa !3850
	call void @llvm.dbg.declare (metadata %struct._ZN5vmesh14MeshParametersE** %_T44708872_52505.addr, metadata !6688, metadata !3842), !dbg !6424
	%0 = load %struct._ZN5vmesh14MeshParametersE*, %struct._ZN5vmesh14MeshParametersE** %_T44708872_52505.addr, align 8, !tbaa !3850, !dbg !6689
	%1 = bitcast %struct._ZN5vmesh14MeshParametersE*  %0 to i8*, !dbg !6689
	%2 = getelementptr i8, i8*  %1, i64 312, !dbg !6689
	%3 = bitcast %struct._ZSt12_Vector_baseIjSaIjEE** %..inline.addr to i8**, !dbg !6689
	store i8*  %2, i8**  %3, align 8, !tbaa !3850, !dbg !6689
	%4 = load %struct._ZSt12_Vector_baseIjSaIjEE*, %struct._ZSt12_Vector_baseIjSaIjEE** %..inline.addr, align 8, !tbaa !3850, !dbg !6689
	%5 = bitcast %struct._ZSt12_Vector_baseIjSaIjEE*  %4 to i8**, !dbg !6689
	%6 = load i8*, i8**  %5, align 8, !tbaa !3850, !dbg !6689
	%7 = icmp eq i8*  %6,  null, !dbg !6689
	br i1  %7, label %L..inline.66611, label %L.B1073, !dbg !6689
L.B1073:
	%8 = bitcast %struct._ZSt12_Vector_baseIjSaIjEE*  %4 to i8**, !dbg !6689
	%9 = load i8*, i8**  %8, align 8, !tbaa !3850, !dbg !6689
	%10 = bitcast i32** %..inline.addr.1 to i8**, !dbg !6689
	store i8*  %9, i8**  %10, align 8, !tbaa !3850, !dbg !6689
	%11 = load i32*, i32** %..inline.addr.1, align 8, !tbaa !3850, !dbg !6689
	%12 = bitcast i32*  %11 to i8*, !dbg !6689
	call void  @_ZdlPv (i8*  %12) nounwind, !dbg !6689
	br label %L..inline.66611
L..inline.66611:
	%13 = load %struct._ZN5vmesh14MeshParametersE*, %struct._ZN5vmesh14MeshParametersE** %_T44708872_52505.addr, align 8, !tbaa !3850, !dbg !6689
	%14 = bitcast %struct._ZN5vmesh14MeshParametersE*  %13 to i8*, !dbg !6689
	%15 = getelementptr i8, i8*  %14, i64 288, !dbg !6689
	%16 = bitcast %struct._ZSt12_Vector_baseIdSaIdEE** %..inline.addr.2 to i8**, !dbg !6689
	store i8*  %15, i8**  %16, align 8, !tbaa !3850, !dbg !6689
	%17 = load %struct._ZSt12_Vector_baseIdSaIdEE*, %struct._ZSt12_Vector_baseIdSaIdEE** %..inline.addr.2, align 8, !tbaa !3850, !dbg !6689
	%18 = bitcast %struct._ZSt12_Vector_baseIdSaIdEE*  %17 to i8**, !dbg !6689
	%19 = load i8*, i8**  %18, align 8, !tbaa !3850, !dbg !6689
	%20 = icmp eq i8*  %19,  null, !dbg !6689
	br i1  %20, label %L..inline.66689, label %L.B1074, !dbg !6689
L.B1074:
	%21 = bitcast %struct._ZSt12_Vector_baseIdSaIdEE*  %17 to i8**, !dbg !6689
	%22 = load i8*, i8**  %21, align 8, !tbaa !3850, !dbg !6689
	%23 = bitcast double** %..inline.addr.3 to i8**, !dbg !6689
	store i8*  %22, i8**  %23, align 8, !tbaa !3850, !dbg !6689
	%24 = load double*, double** %..inline.addr.3, align 8, !tbaa !3850, !dbg !6689
	%25 = bitcast double*  %24 to i8*, !dbg !6689
	call void  @_ZdlPv (i8*  %25) nounwind, !dbg !6689
	br label %L..inline.66689
L..inline.66689:
	%26 = load %struct._ZN5vmesh14MeshParametersE*, %struct._ZN5vmesh14MeshParametersE** %_T44708872_52505.addr, align 8, !tbaa !3850, !dbg !6689
	%27 = bitcast %struct._ZN5vmesh14MeshParametersE*  %26 to i8*, !dbg !6689
	%28 = getelementptr i8, i8*  %27, i64 264, !dbg !6689
	%29 = bitcast %struct._ZSt12_Vector_baseIdSaIdEE** %..inline.addr.4 to i8**, !dbg !6689
	store i8*  %28, i8**  %29, align 8, !tbaa !3850, !dbg !6689
	%30 = load %struct._ZSt12_Vector_baseIdSaIdEE*, %struct._ZSt12_Vector_baseIdSaIdEE** %..inline.addr.4, align 8, !tbaa !3850, !dbg !6689
	%31 = bitcast %struct._ZSt12_Vector_baseIdSaIdEE*  %30 to i8**, !dbg !6689
	%32 = load i8*, i8**  %31, align 8, !tbaa !3850, !dbg !6689
	%33 = icmp eq i8*  %32,  null, !dbg !6689
	br i1  %33, label %L..inline.66767, label %L.B1075, !dbg !6689
L.B1075:
	%34 = bitcast %struct._ZSt12_Vector_baseIdSaIdEE*  %30 to i8**, !dbg !6689
	%35 = load i8*, i8**  %34, align 8, !tbaa !3850, !dbg !6689
	%36 = bitcast double** %..inline.addr.5 to i8**, !dbg !6689
	store i8*  %35, i8**  %36, align 8, !tbaa !3850, !dbg !6689
	%37 = load double*, double** %..inline.addr.5, align 8, !tbaa !3850, !dbg !6689
	%38 = bitcast double*  %37 to i8*, !dbg !6689
	call void  @_ZdlPv (i8*  %38) nounwind, !dbg !6689
	br label %L..inline.66767
L..inline.66767:
	%39 = load %struct._ZN5vmesh14MeshParametersE*, %struct._ZN5vmesh14MeshParametersE** %_T44708872_52505.addr, align 8, !tbaa !3850, !dbg !6689
	%40 = bitcast %struct._ZN5vmesh14MeshParametersE*  %39 to i8*, !dbg !6689
	%41 = getelementptr i8, i8*  %40, i64 240, !dbg !6689
	%42 = bitcast %struct._ZSt12_Vector_baseIjSaIjEE** %..inline.addr.6 to i8**, !dbg !6689
	store i8*  %41, i8**  %42, align 8, !tbaa !3850, !dbg !6689
	%43 = load %struct._ZSt12_Vector_baseIjSaIjEE*, %struct._ZSt12_Vector_baseIjSaIjEE** %..inline.addr.6, align 8, !tbaa !3850, !dbg !6689
	%44 = bitcast %struct._ZSt12_Vector_baseIjSaIjEE*  %43 to i8**, !dbg !6689
	%45 = load i8*, i8**  %44, align 8, !tbaa !3850, !dbg !6689
	%46 = icmp eq i8*  %45,  null, !dbg !6689
	br i1  %46, label %L..inline.66845, label %L.B1076, !dbg !6689
L.B1076:
	%47 = bitcast %struct._ZSt12_Vector_baseIjSaIjEE*  %43 to i8**, !dbg !6689
	%48 = load i8*, i8**  %47, align 8, !tbaa !3850, !dbg !6689
	%49 = bitcast i32** %..inline.addr.7 to i8**, !dbg !6689
	store i8*  %48, i8**  %49, align 8, !tbaa !3850, !dbg !6689
	%50 = load i32*, i32** %..inline.addr.7, align 8, !tbaa !3850, !dbg !6689
	%51 = bitcast i32*  %50 to i8*, !dbg !6689
	call void  @_ZdlPv (i8*  %51) nounwind, !dbg !6689
	br label %L..inline.66845
L..inline.66845:
	%52 = load %struct._ZN5vmesh14MeshParametersE*, %struct._ZN5vmesh14MeshParametersE** %_T44708872_52505.addr, align 8, !tbaa !3850, !dbg !6690
	%53 = bitcast %struct._ZN5vmesh14MeshParametersE*  %52 to i8**, !dbg !6690
	%54 = load i8*, i8**  %53, align 8, !tbaa !3850, !dbg !6690
	%55 = bitcast %struct._ZN5vmesh14MeshParametersE*  %52 to i8*, !dbg !6690
	%56 = getelementptr i8, i8*  %55, i64 16, !dbg !6690
	%57 = icmp eq i8*  %54,  %56, !dbg !6690
	br i1  %57, label %L..inline.66926, label %L.B1077, !dbg !6690
L.B1077:
	%58 = bitcast %struct._ZN5vmesh14MeshParametersE*  %52 to i8**, !dbg !6690
	%59 = load i8*, i8**  %58, align 8, !tbaa !3850, !dbg !6690
	call void  @_ZdlPv (i8*  %59) nounwind, !dbg !6690
	br label %L..inline.66926
L..inline.66926:
	ret void, !dbg !6690
}
define linkonce_odr void @_ZN5vmesh14MeshParametersD2Ev(%struct._ZN5vmesh14MeshParametersE* %_T44708872_52506.arg) #0 inlinehint !dbg !6692 {
L.entry:
	%_T44708872_52506.addr = alloca %struct._ZN5vmesh14MeshParametersE*, align 8

	store %struct._ZN5vmesh14MeshParametersE* %_T44708872_52506.arg, %struct._ZN5vmesh14MeshParametersE** %_T44708872_52506.addr, align 8, !tbaa !3850
	%0 = load %struct._ZN5vmesh14MeshParametersE*, %struct._ZN5vmesh14MeshParametersE** %_T44708872_52506.addr, align 8, !tbaa !3850, !dbg !6696
	call void  @_ZN5vmesh14MeshParametersD1Ev (%struct._ZN5vmesh14MeshParametersE*  %0) nounwind, !dbg !6696
	ret void, !dbg !6696
}

%struct.ompi_datatype_t = type opaque
%struct._ZN3MPI8DatatypeE = type <{ i32 (...)* (...)*, %struct.ompi_datatype_t*}> 

define linkonce_odr void @_ZN3MPI8DatatypeD1Ev(%struct._ZN3MPI8DatatypeE* %_T44708872_52507.arg) #0 inlinehint !dbg !6700 {
L.entry:
	%_T44708872_52507.addr = alloca %struct._ZN3MPI8DatatypeE*, align 8

	call void @llvm.dbg.declare (metadata %struct._ZN3MPI8DatatypeE** %_T44708872_52507.addr, metadata !6704, metadata !3842), !dbg !6701
	store %struct._ZN3MPI8DatatypeE* %_T44708872_52507.arg, %struct._ZN3MPI8DatatypeE** %_T44708872_52507.addr, align 8, !tbaa !3850
	call void @llvm.dbg.declare (metadata %struct._ZN3MPI8DatatypeE** %_T44708872_52507.addr, metadata !6705, metadata !3842), !dbg !6701
	%0 = bitcast [32 x i32 (...)* (...)*]* @_ZTVN3MPI8DatatypeE to i8*, !dbg !6706
	%1 = getelementptr i8, i8*  %0, i64 16, !dbg !6706
	%2 = load %struct._ZN3MPI8DatatypeE*, %struct._ZN3MPI8DatatypeE** %_T44708872_52507.addr, align 8, !tbaa !3850, !dbg !6706
	%3 = bitcast %struct._ZN3MPI8DatatypeE*  %2 to i8**, !dbg !6706
	store i8*  %1, i8**  %3, align 8, !tbaa !3850, !dbg !6706
	ret void, !dbg !6706
}
define linkonce_odr void @_ZN3MPI8DatatypeD0Ev(%struct._ZN3MPI8DatatypeE* %_T44708872_52508.arg) #0 inlinehint !dbg !6711 {
L.entry:
	%_T44708872_52508.addr = alloca %struct._ZN3MPI8DatatypeE*, align 8

	store %struct._ZN3MPI8DatatypeE* %_T44708872_52508.arg, %struct._ZN3MPI8DatatypeE** %_T44708872_52508.addr, align 8, !tbaa !3850
	%0 = bitcast [32 x i32 (...)* (...)*]* @_ZTVN3MPI8DatatypeE to i8*, !dbg !6719
	%1 = getelementptr i8, i8*  %0, i64 16, !dbg !6719
	%2 = load %struct._ZN3MPI8DatatypeE*, %struct._ZN3MPI8DatatypeE** %_T44708872_52508.addr, align 8, !tbaa !3850, !dbg !6719
	%3 = bitcast %struct._ZN3MPI8DatatypeE*  %2 to i8**, !dbg !6719
	store i8*  %1, i8**  %3, align 8, !tbaa !3850, !dbg !6719
	%4 = bitcast %struct._ZN3MPI8DatatypeE*  %2 to i8*, !dbg !6719
	call void  @_ZdlPvm (i8*  %4, i64 16) nounwind, !dbg !6719
	ret void, !dbg !6719
}
define linkonce_odr void @_ZN3MPI8DatatypeD2Ev(%struct._ZN3MPI8DatatypeE* %_T44708872_52509.arg) #0 inlinehint !dbg !6721 {
L.entry:
	%_T44708872_52509.addr = alloca %struct._ZN3MPI8DatatypeE*, align 8

	store %struct._ZN3MPI8DatatypeE* %_T44708872_52509.arg, %struct._ZN3MPI8DatatypeE** %_T44708872_52509.addr, align 8, !tbaa !3850
	%0 = bitcast [32 x i32 (...)* (...)*]* @_ZTVN3MPI8DatatypeE to i8*, !dbg !6729
	%1 = getelementptr i8, i8*  %0, i64 16, !dbg !6729
	%2 = load %struct._ZN3MPI8DatatypeE*, %struct._ZN3MPI8DatatypeE** %_T44708872_52509.addr, align 8, !tbaa !3850, !dbg !6729
	%3 = bitcast %struct._ZN3MPI8DatatypeE*  %2 to i8**, !dbg !6729
	store i8*  %1, i8**  %3, align 8, !tbaa !3850, !dbg !6729
	ret void, !dbg !6729
}
define linkonce_odr void @_ZN3MPI8DatatypeC1EP15ompi_datatype_t(%struct._ZN3MPI8DatatypeE* %_T44708872_52511.arg, %struct.ompi_datatype_t* %i.arg) #0 inlinehint !dbg !6733 {
L.entry:
	%_T44708872_52511.addr = alloca %struct._ZN3MPI8DatatypeE*, align 8
	%i.addr = alloca %struct.ompi_datatype_t*, align 8

	call void @llvm.dbg.declare (metadata %struct._ZN3MPI8DatatypeE** %_T44708872_52511.addr, metadata !6737, metadata !3842), !dbg !6734
	store %struct._ZN3MPI8DatatypeE* %_T44708872_52511.arg, %struct._ZN3MPI8DatatypeE** %_T44708872_52511.addr, align 8, !tbaa !3850
	call void @llvm.dbg.declare (metadata %struct._ZN3MPI8DatatypeE** %_T44708872_52511.addr, metadata !6738, metadata !3842), !dbg !6734
	call void @llvm.dbg.declare (metadata %struct.ompi_datatype_t** %i.addr, metadata !6739, metadata !3842), !dbg !6734
	store %struct.ompi_datatype_t* %i.arg, %struct.ompi_datatype_t** %i.addr, align 8, !tbaa !3850
	call void @llvm.dbg.declare (metadata %struct.ompi_datatype_t** %i.addr, metadata !6740, metadata !3842), !dbg !6734
	%0 = bitcast [32 x i32 (...)* (...)*]* @_ZTVN3MPI8DatatypeE to i8*, !dbg !6741
	%1 = getelementptr i8, i8*  %0, i64 16, !dbg !6741
	%2 = load %struct._ZN3MPI8DatatypeE*, %struct._ZN3MPI8DatatypeE** %_T44708872_52511.addr, align 8, !tbaa !3850, !dbg !6741
	%3 = bitcast %struct._ZN3MPI8DatatypeE*  %2 to i8**, !dbg !6741
	store i8*  %1, i8**  %3, align 8, !tbaa !3850, !dbg !6741
	%4 = load %struct.ompi_datatype_t*, %struct.ompi_datatype_t** %i.addr, align 8, !tbaa !3850, !dbg !6741
	%5 = bitcast %struct.ompi_datatype_t*  %4 to i8*, !dbg !6741
	%6 = bitcast %struct._ZN3MPI8DatatypeE*  %2 to i8*, !dbg !6741
	%7 = getelementptr i8, i8*  %6, i64 8, !dbg !6741
	%8 = bitcast i8*  %7 to i8**, !dbg !6741
	store i8*  %5, i8**  %8, align 8, !tbaa !3850, !dbg !6741
	ret void, !dbg !6741
}
define linkonce_odr void @_ZN3MPI8DatatypeC2EP15ompi_datatype_t(%struct._ZN3MPI8DatatypeE* %_T44708872_52513.arg, %struct.ompi_datatype_t* %_T44709168_52513.arg) #0 inlinehint !dbg !6743 {
L.entry:
	%_T44708872_52513.addr = alloca %struct._ZN3MPI8DatatypeE*, align 8
	%_T44709168_52513.addr = alloca %struct.ompi_datatype_t*, align 8
	%..inline.addr = alloca %struct._ZN3MPI8DatatypeE*, align 8
	%..inline.addr.1 = alloca %struct.ompi_datatype_t*, align 8

	store %struct._ZN3MPI8DatatypeE* %_T44708872_52513.arg, %struct._ZN3MPI8DatatypeE** %_T44708872_52513.addr, align 8, !tbaa !3850
	store %struct.ompi_datatype_t* %_T44709168_52513.arg, %struct.ompi_datatype_t** %_T44709168_52513.addr, align 8, !tbaa !3850
	%0 = load %struct._ZN3MPI8DatatypeE*, %struct._ZN3MPI8DatatypeE** %_T44708872_52513.addr, align 8, !tbaa !3850, !dbg !6751
	%1 = bitcast %struct._ZN3MPI8DatatypeE*  %0 to i8*, !dbg !6751
	%2 = bitcast %struct._ZN3MPI8DatatypeE** %..inline.addr to i8**, !dbg !6751
	store i8*  %1, i8**  %2, align 8, !tbaa !3850, !dbg !6751
	%3 = load %struct.ompi_datatype_t*, %struct.ompi_datatype_t** %_T44709168_52513.addr, align 8, !tbaa !3850, !dbg !6751
	%4 = bitcast %struct.ompi_datatype_t*  %3 to i8*, !dbg !6751
	%5 = bitcast %struct.ompi_datatype_t** %..inline.addr.1 to i8**, !dbg !6751
	store i8*  %4, i8**  %5, align 8, !tbaa !3850, !dbg !6751
	%6 = bitcast [32 x i32 (...)* (...)*]* @_ZTVN3MPI8DatatypeE to i8*, !dbg !6751
	%7 = getelementptr i8, i8*  %6, i64 16, !dbg !6751
	%8 = load %struct._ZN3MPI8DatatypeE*, %struct._ZN3MPI8DatatypeE** %..inline.addr, align 8, !tbaa !3850, !dbg !6751
	%9 = bitcast %struct._ZN3MPI8DatatypeE*  %8 to i8**, !dbg !6751
	store i8*  %7, i8**  %9, align 8, !tbaa !3850, !dbg !6751
	%10 = load %struct.ompi_datatype_t*, %struct.ompi_datatype_t** %..inline.addr.1, align 8, !tbaa !3850, !dbg !6751
	%11 = bitcast %struct.ompi_datatype_t*  %10 to i8*, !dbg !6751
	%12 = bitcast %struct._ZN3MPI8DatatypeE*  %8 to i8*, !dbg !6751
	%13 = getelementptr i8, i8*  %12, i64 8, !dbg !6751
	%14 = bitcast i8*  %13 to i8**, !dbg !6751
	store i8*  %11, i8**  %14, align 8, !tbaa !3850, !dbg !6751
	ret void, !dbg !6751
}
define linkonce_odr %struct._ZN3MPI8DatatypeE* @_ZN3MPI8DatatypeaSERKP15ompi_datatype_t(%struct._ZN3MPI8DatatypeE* %_T44708872_52514.arg, %struct.ompi_datatype_t** %i.arg) #0 inlinehint !dbg !6759 {
L.entry:
	%_T44708872_52514.addr = alloca %struct._ZN3MPI8DatatypeE*, align 8
	%i.addr = alloca %struct.ompi_datatype_t**, align 8

	call void @llvm.dbg.declare (metadata %struct._ZN3MPI8DatatypeE** %_T44708872_52514.addr, metadata !6763, metadata !3842), !dbg !6760
	store %struct._ZN3MPI8DatatypeE* %_T44708872_52514.arg, %struct._ZN3MPI8DatatypeE** %_T44708872_52514.addr, align 8, !tbaa !3850
	call void @llvm.dbg.declare (metadata %struct._ZN3MPI8DatatypeE** %_T44708872_52514.addr, metadata !6764, metadata !3842), !dbg !6760
	call void @llvm.dbg.declare (metadata %struct.ompi_datatype_t*** %i.addr, metadata !6765, metadata !3842), !dbg !6760
	store %struct.ompi_datatype_t** %i.arg, %struct.ompi_datatype_t*** %i.addr, align 8, !tbaa !3850
	call void @llvm.dbg.declare (metadata %struct.ompi_datatype_t*** %i.addr, metadata !6766, metadata !3842), !dbg !6760
	%0 = load %struct.ompi_datatype_t**, %struct.ompi_datatype_t*** %i.addr, align 8, !tbaa !3850, !dbg !6767
	%1 = bitcast %struct.ompi_datatype_t**  %0 to i8**, !dbg !6767
	%2 = load i8*, i8**  %1, align 8, !tbaa !3850, !dbg !6767
	%3 = load %struct._ZN3MPI8DatatypeE*, %struct._ZN3MPI8DatatypeE** %_T44708872_52514.addr, align 8, !tbaa !3850, !dbg !6767
	%4 = bitcast %struct._ZN3MPI8DatatypeE*  %3 to i8*, !dbg !6767
	%5 = getelementptr i8, i8*  %4, i64 8, !dbg !6767
	%6 = bitcast i8*  %5 to i8**, !dbg !6767
	store i8*  %2, i8**  %6, align 8, !tbaa !3850, !dbg !6767
	ret %struct._ZN3MPI8DatatypeE*  %3, !dbg !6767
}
define linkonce_odr %struct.ompi_datatype_t* @_ZNK3MPI8DatatypecvP15ompi_datatype_tEv(%struct._ZN3MPI8DatatypeE* %_T44708872_52516.arg) #0 inlinehint !dbg !6771 {
L.entry:
	%_T44708872_52516.addr = alloca %struct._ZN3MPI8DatatypeE*, align 8

	call void @llvm.dbg.declare (metadata %struct._ZN3MPI8DatatypeE** %_T44708872_52516.addr, metadata !6775, metadata !3842), !dbg !6772
	store %struct._ZN3MPI8DatatypeE* %_T44708872_52516.arg, %struct._ZN3MPI8DatatypeE** %_T44708872_52516.addr, align 8, !tbaa !3850
	call void @llvm.dbg.declare (metadata %struct._ZN3MPI8DatatypeE** %_T44708872_52516.addr, metadata !6776, metadata !3842), !dbg !6772
	%0 = load %struct._ZN3MPI8DatatypeE*, %struct._ZN3MPI8DatatypeE** %_T44708872_52516.addr, align 8, !tbaa !3850, !dbg !6777
	%1 = bitcast %struct._ZN3MPI8DatatypeE*  %0 to i8*, !dbg !6777
	%2 = getelementptr i8, i8*  %1, i64 8, !dbg !6777
	%3 = bitcast i8*  %2 to %struct.ompi_datatype_t**, !dbg !6777
	%4 = load %struct.ompi_datatype_t*, %struct.ompi_datatype_t**  %3, align 8, !tbaa !3850, !dbg !6777
	ret %struct.ompi_datatype_t*  %4, !dbg !6777
}
define linkonce_odr void @_ZNK3MPI8Datatype17Create_contiguousEi(%struct._ZN3MPI8DatatypeE* sret %_T44708872_52517.arg, %struct._ZN3MPI8DatatypeE* %_T44709168_52517.arg, i32 signext %count.arg) #0 inlinehint !dbg !6781 {
L.entry:
	%_T44708872_52517.addr = alloca %struct._ZN3MPI8DatatypeE*, align 8
	%_T44709168_52517.addr = alloca %struct._ZN3MPI8DatatypeE*, align 8
	%count.addr = alloca i32, align 4
	%newtype.addr = alloca %struct.ompi_datatype_t*, align 8
	%..inline.addr = alloca %struct._ZN3MPI8DatatypeE*, align 8
	%..inline.addr.1 = alloca %struct.ompi_datatype_t*, align 8

	store %struct._ZN3MPI8DatatypeE* %_T44708872_52517.arg, %struct._ZN3MPI8DatatypeE** %_T44708872_52517.addr, align 8, !tbaa !3850
	call void @llvm.dbg.declare (metadata %struct._ZN3MPI8DatatypeE** %_T44709168_52517.addr, metadata !6789, metadata !3842), !dbg !6782
	store %struct._ZN3MPI8DatatypeE* %_T44709168_52517.arg, %struct._ZN3MPI8DatatypeE** %_T44709168_52517.addr, align 8, !tbaa !3850
	call void @llvm.dbg.declare (metadata %struct._ZN3MPI8DatatypeE** %_T44709168_52517.addr, metadata !6790, metadata !3842), !dbg !6782
	call void @llvm.dbg.declare (metadata i32* %count.addr, metadata !6791, metadata !3842), !dbg !6782
	store i32 %count.arg, i32* %count.addr, align 4, !tbaa !3960
	call void @llvm.dbg.declare (metadata i32* %count.addr, metadata !6792, metadata !3842), !dbg !6782
	%0 = load i32, i32* %count.addr, align 4, !tbaa !4041, !dbg !6793
	%1 = load %struct._ZN3MPI8DatatypeE*, %struct._ZN3MPI8DatatypeE** %_T44709168_52517.addr, align 8, !tbaa !3850, !dbg !6793
	%2 = bitcast %struct._ZN3MPI8DatatypeE*  %1 to i8*, !dbg !6793
	%3 = getelementptr i8, i8*  %2, i64 8, !dbg !6793
	%4 = bitcast i8*  %3 to %struct.ompi_datatype_t**, !dbg !6793
	%5 = load %struct.ompi_datatype_t*, %struct.ompi_datatype_t**  %4, align 8, !tbaa !3850, !dbg !6793
	call void @llvm.dbg.declare (metadata %struct.ompi_datatype_t** %newtype.addr, metadata !6794, metadata !3842), !dbg !6782
	%6 = call i32  @MPI_Type_contiguous (i32  %0, %struct.ompi_datatype_t*  %5, %struct.ompi_datatype_t** %newtype.addr) nounwind, !dbg !6793
	%7 = load %struct._ZN3MPI8DatatypeE*, %struct._ZN3MPI8DatatypeE** %_T44708872_52517.addr, align 8, !tbaa !3850, !dbg !6795
	%8 = bitcast %struct._ZN3MPI8DatatypeE*  %7 to i8*, !dbg !6795
	%9 = bitcast %struct._ZN3MPI8DatatypeE** %..inline.addr to i8**, !dbg !6795
	store i8*  %8, i8**  %9, align 8, !tbaa !3850, !dbg !6795
	%10 = load %struct.ompi_datatype_t*, %struct.ompi_datatype_t** %newtype.addr, align 8, !tbaa !3850, !dbg !6795
	%11 = bitcast %struct.ompi_datatype_t*  %10 to i8*, !dbg !6795
	%12 = bitcast %struct.ompi_datatype_t** %..inline.addr.1 to i8**, !dbg !6795
	store i8*  %11, i8**  %12, align 8, !tbaa !3850, !dbg !6795
	%13 = bitcast [32 x i32 (...)* (...)*]* @_ZTVN3MPI8DatatypeE to i8*, !dbg !6795
	%14 = getelementptr i8, i8*  %13, i64 16, !dbg !6795
	%15 = load %struct._ZN3MPI8DatatypeE*, %struct._ZN3MPI8DatatypeE** %..inline.addr, align 8, !tbaa !3850, !dbg !6795
	%16 = bitcast %struct._ZN3MPI8DatatypeE*  %15 to i8**, !dbg !6795
	store i8*  %14, i8**  %16, align 8, !tbaa !3850, !dbg !6795
	%17 = load %struct.ompi_datatype_t*, %struct.ompi_datatype_t** %..inline.addr.1, align 8, !tbaa !3850, !dbg !6796
	%18 = bitcast %struct.ompi_datatype_t*  %17 to i8*, !dbg !6796
	%19 = bitcast %struct._ZN3MPI8DatatypeE*  %15 to i8*, !dbg !6796
	%20 = getelementptr i8, i8*  %19, i64 8, !dbg !6796
	%21 = bitcast i8*  %20 to i8**, !dbg !6796
	store i8*  %18, i8**  %21, align 8, !tbaa !3850, !dbg !6796
	ret void, !dbg !6797
}
define linkonce_odr void @_ZNK3MPI8Datatype13Create_vectorEiii(%struct._ZN3MPI8DatatypeE* sret %_T44708872_52518.arg, %struct._ZN3MPI8DatatypeE* %_T44709168_52518.arg, i32 signext %count.arg, i32 signext %blocklength.arg, i32 signext %stride.arg) #0 inlinehint !dbg !6799 {
L.entry:
	%_T44708872_52518.addr = alloca %struct._ZN3MPI8DatatypeE*, align 8
	%_T44709168_52518.addr = alloca %struct._ZN3MPI8DatatypeE*, align 8
	%count.addr = alloca i32, align 4
	%blocklength.addr = alloca i32, align 4
	%stride.addr = alloca i32, align 4
	%newtype.addr = alloca %struct.ompi_datatype_t*, align 8
	%..inline.addr = alloca %struct._ZN3MPI8DatatypeE*, align 8
	%..inline.addr.1 = alloca %struct.ompi_datatype_t*, align 8

	store %struct._ZN3MPI8DatatypeE* %_T44708872_52518.arg, %struct._ZN3MPI8DatatypeE** %_T44708872_52518.addr, align 8, !tbaa !3850
	call void @llvm.dbg.declare (metadata %struct._ZN3MPI8DatatypeE** %_T44709168_52518.addr, metadata !6807, metadata !3842), !dbg !6800
	store %struct._ZN3MPI8DatatypeE* %_T44709168_52518.arg, %struct._ZN3MPI8DatatypeE** %_T44709168_52518.addr, align 8, !tbaa !3850
	call void @llvm.dbg.declare (metadata %struct._ZN3MPI8DatatypeE** %_T44709168_52518.addr, metadata !6808, metadata !3842), !dbg !6800
	call void @llvm.dbg.declare (metadata i32* %count.addr, metadata !6809, metadata !3842), !dbg !6800
	store i32 %count.arg, i32* %count.addr, align 4, !tbaa !3960
	call void @llvm.dbg.declare (metadata i32* %count.addr, metadata !6810, metadata !3842), !dbg !6800
	call void @llvm.dbg.declare (metadata i32* %blocklength.addr, metadata !6811, metadata !3842), !dbg !6800
	store i32 %blocklength.arg, i32* %blocklength.addr, align 4, !tbaa !3960
	call void @llvm.dbg.declare (metadata i32* %blocklength.addr, metadata !6812, metadata !3842), !dbg !6800
	call void @llvm.dbg.declare (metadata i32* %stride.addr, metadata !6813, metadata !3842), !dbg !6800
	store i32 %stride.arg, i32* %stride.addr, align 4, !tbaa !3960
	call void @llvm.dbg.declare (metadata i32* %stride.addr, metadata !6814, metadata !3842), !dbg !6800
	%0 = load i32, i32* %count.addr, align 4, !tbaa !4041, !dbg !6815
	%1 = load i32, i32* %blocklength.addr, align 4, !tbaa !4041, !dbg !6815
	%2 = load i32, i32* %stride.addr, align 4, !tbaa !4041, !dbg !6815
	%3 = load %struct._ZN3MPI8DatatypeE*, %struct._ZN3MPI8DatatypeE** %_T44709168_52518.addr, align 8, !tbaa !3850, !dbg !6815
	%4 = bitcast %struct._ZN3MPI8DatatypeE*  %3 to i8*, !dbg !6815
	%5 = getelementptr i8, i8*  %4, i64 8, !dbg !6815
	%6 = bitcast i8*  %5 to %struct.ompi_datatype_t**, !dbg !6815
	%7 = load %struct.ompi_datatype_t*, %struct.ompi_datatype_t**  %6, align 8, !tbaa !3850, !dbg !6815
	call void @llvm.dbg.declare (metadata %struct.ompi_datatype_t** %newtype.addr, metadata !6816, metadata !3842), !dbg !6800
	%8 = call i32  @MPI_Type_vector (i32  %0, i32  %1, i32  %2, %struct.ompi_datatype_t*  %7, %struct.ompi_datatype_t** %newtype.addr) nounwind, !dbg !6815
	%9 = load %struct._ZN3MPI8DatatypeE*, %struct._ZN3MPI8DatatypeE** %_T44708872_52518.addr, align 8, !tbaa !3850, !dbg !6817
	%10 = bitcast %struct._ZN3MPI8DatatypeE*  %9 to i8*, !dbg !6817
	%11 = bitcast %struct._ZN3MPI8DatatypeE** %..inline.addr to i8**, !dbg !6817
	store i8*  %10, i8**  %11, align 8, !tbaa !3850, !dbg !6817
	%12 = load %struct.ompi_datatype_t*, %struct.ompi_datatype_t** %newtype.addr, align 8, !tbaa !3850, !dbg !6817
	%13 = bitcast %struct.ompi_datatype_t*  %12 to i8*, !dbg !6817
	%14 = bitcast %struct.ompi_datatype_t** %..inline.addr.1 to i8**, !dbg !6817
	store i8*  %13, i8**  %14, align 8, !tbaa !3850, !dbg !6817
	%15 = bitcast [32 x i32 (...)* (...)*]* @_ZTVN3MPI8DatatypeE to i8*, !dbg !6817
	%16 = getelementptr i8, i8*  %15, i64 16, !dbg !6817
	%17 = load %struct._ZN3MPI8DatatypeE*, %struct._ZN3MPI8DatatypeE** %..inline.addr, align 8, !tbaa !3850, !dbg !6817
	%18 = bitcast %struct._ZN3MPI8DatatypeE*  %17 to i8**, !dbg !6817
	store i8*  %16, i8**  %18, align 8, !tbaa !3850, !dbg !6817
	%19 = load %struct.ompi_datatype_t*, %struct.ompi_datatype_t** %..inline.addr.1, align 8, !tbaa !3850, !dbg !6818
	%20 = bitcast %struct.ompi_datatype_t*  %19 to i8*, !dbg !6818
	%21 = bitcast %struct._ZN3MPI8DatatypeE*  %17 to i8*, !dbg !6818
	%22 = getelementptr i8, i8*  %21, i64 8, !dbg !6818
	%23 = bitcast i8*  %22 to i8**, !dbg !6818
	store i8*  %20, i8**  %23, align 8, !tbaa !3850, !dbg !6818
	ret void, !dbg !6819
}
define linkonce_odr void @_ZNK3MPI8Datatype14Create_indexedEiPKiS2_(%struct._ZN3MPI8DatatypeE* sret %_T44708872_52519.arg, %struct._ZN3MPI8DatatypeE* %_T44709168_52519.arg, i32 signext %count.arg, i32* %array_of_blocklengths.arg, i32* %array_of_displacements.arg) #0 inlinehint !dbg !6821 {
L.entry:
	%_T44708872_52519.addr = alloca %struct._ZN3MPI8DatatypeE*, align 8
	%_T44709168_52519.addr = alloca %struct._ZN3MPI8DatatypeE*, align 8
	%count.addr = alloca i32, align 4
	%array_of_blocklengths.addr = alloca i32*, align 8
	%array_of_displacements.addr = alloca i32*, align 8
	%newtype.addr = alloca %struct.ompi_datatype_t*, align 8
	%..inline.addr = alloca %struct._ZN3MPI8DatatypeE*, align 8
	%..inline.addr.1 = alloca %struct.ompi_datatype_t*, align 8

	store %struct._ZN3MPI8DatatypeE* %_T44708872_52519.arg, %struct._ZN3MPI8DatatypeE** %_T44708872_52519.addr, align 8, !tbaa !3850
	call void @llvm.dbg.declare (metadata %struct._ZN3MPI8DatatypeE** %_T44709168_52519.addr, metadata !6829, metadata !3842), !dbg !6822
	store %struct._ZN3MPI8DatatypeE* %_T44709168_52519.arg, %struct._ZN3MPI8DatatypeE** %_T44709168_52519.addr, align 8, !tbaa !3850
	call void @llvm.dbg.declare (metadata %struct._ZN3MPI8DatatypeE** %_T44709168_52519.addr, metadata !6830, metadata !3842), !dbg !6822
	call void @llvm.dbg.declare (metadata i32* %count.addr, metadata !6831, metadata !3842), !dbg !6822
	store i32 %count.arg, i32* %count.addr, align 4, !tbaa !3960
	call void @llvm.dbg.declare (metadata i32* %count.addr, metadata !6832, metadata !3842), !dbg !6822
	call void @llvm.dbg.declare (metadata i32** %array_of_blocklengths.addr, metadata !6833, metadata !3842), !dbg !6822
	store i32* %array_of_blocklengths.arg, i32** %array_of_blocklengths.addr, align 8, !tbaa !3850
	call void @llvm.dbg.declare (metadata i32** %array_of_blocklengths.addr, metadata !6834, metadata !3842), !dbg !6822
	call void @llvm.dbg.declare (metadata i32** %array_of_displacements.addr, metadata !6835, metadata !3842), !dbg !6822
	store i32* %array_of_displacements.arg, i32** %array_of_displacements.addr, align 8, !tbaa !3850
	call void @llvm.dbg.declare (metadata i32** %array_of_displacements.addr, metadata !6836, metadata !3842), !dbg !6822
	%0 = load i32, i32* %count.addr, align 4, !tbaa !4041, !dbg !6837
	%1 = load i32*, i32** %array_of_blocklengths.addr, align 8, !tbaa !3850, !dbg !6837
	%2 = load i32*, i32** %array_of_displacements.addr, align 8, !tbaa !3850, !dbg !6837
	%3 = load %struct._ZN3MPI8DatatypeE*, %struct._ZN3MPI8DatatypeE** %_T44709168_52519.addr, align 8, !tbaa !3850, !dbg !6837
	%4 = bitcast %struct._ZN3MPI8DatatypeE*  %3 to i8*, !dbg !6837
	%5 = getelementptr i8, i8*  %4, i64 8, !dbg !6837
	%6 = bitcast i8*  %5 to %struct.ompi_datatype_t**, !dbg !6837
	%7 = load %struct.ompi_datatype_t*, %struct.ompi_datatype_t**  %6, align 8, !tbaa !3850, !dbg !6837
	call void @llvm.dbg.declare (metadata %struct.ompi_datatype_t** %newtype.addr, metadata !6838, metadata !3842), !dbg !6822
	%8 = call i32  @MPI_Type_indexed (i32  %0, i32*  %1, i32*  %2, %struct.ompi_datatype_t*  %7, %struct.ompi_datatype_t** %newtype.addr) nounwind, !dbg !6837
	%9 = load %struct._ZN3MPI8DatatypeE*, %struct._ZN3MPI8DatatypeE** %_T44708872_52519.addr, align 8, !tbaa !3850, !dbg !6839
	%10 = bitcast %struct._ZN3MPI8DatatypeE*  %9 to i8*, !dbg !6839
	%11 = bitcast %struct._ZN3MPI8DatatypeE** %..inline.addr to i8**, !dbg !6839
	store i8*  %10, i8**  %11, align 8, !tbaa !3850, !dbg !6839
	%12 = load %struct.ompi_datatype_t*, %struct.ompi_datatype_t** %newtype.addr, align 8, !tbaa !3850, !dbg !6839
	%13 = bitcast %struct.ompi_datatype_t*  %12 to i8*, !dbg !6839
	%14 = bitcast %struct.ompi_datatype_t** %..inline.addr.1 to i8**, !dbg !6839
	store i8*  %13, i8**  %14, align 8, !tbaa !3850, !dbg !6839
	%15 = bitcast [32 x i32 (...)* (...)*]* @_ZTVN3MPI8DatatypeE to i8*, !dbg !6839
	%16 = getelementptr i8, i8*  %15, i64 16, !dbg !6839
	%17 = load %struct._ZN3MPI8DatatypeE*, %struct._ZN3MPI8DatatypeE** %..inline.addr, align 8, !tbaa !3850, !dbg !6839
	%18 = bitcast %struct._ZN3MPI8DatatypeE*  %17 to i8**, !dbg !6839
	store i8*  %16, i8**  %18, align 8, !tbaa !3850, !dbg !6839
	%19 = load %struct.ompi_datatype_t*, %struct.ompi_datatype_t** %..inline.addr.1, align 8, !tbaa !3850, !dbg !6840
	%20 = bitcast %struct.ompi_datatype_t*  %19 to i8*, !dbg !6840
	%21 = bitcast %struct._ZN3MPI8DatatypeE*  %17 to i8*, !dbg !6840
	%22 = getelementptr i8, i8*  %21, i64 8, !dbg !6840
	%23 = bitcast i8*  %22 to i8**, !dbg !6840
	store i8*  %20, i8**  %23, align 8, !tbaa !3850, !dbg !6840
	ret void, !dbg !6841
}
define linkonce_odr void @_ZNK3MPI8Datatype15Create_hindexedEiPKiPKl(%struct._ZN3MPI8DatatypeE* sret %_T44708872_52520.arg, %struct._ZN3MPI8DatatypeE* %_T44709168_52520.arg, i32 signext %count.arg, i32* %array_of_blocklengths.arg, i64* %array_of_displacements.arg) #0 inlinehint !dbg !6843 {
L.entry:
	%_T44708872_52520.addr = alloca %struct._ZN3MPI8DatatypeE*, align 8
	%_T44709168_52520.addr = alloca %struct._ZN3MPI8DatatypeE*, align 8
	%count.addr = alloca i32, align 4
	%array_of_blocklengths.addr = alloca i32*, align 8
	%array_of_displacements.addr = alloca i64*, align 8
	%newtype.addr = alloca %struct.ompi_datatype_t*, align 8
	%..inline.addr = alloca %struct._ZN3MPI8DatatypeE*, align 8
	%..inline.addr.1 = alloca %struct.ompi_datatype_t*, align 8

	store %struct._ZN3MPI8DatatypeE* %_T44708872_52520.arg, %struct._ZN3MPI8DatatypeE** %_T44708872_52520.addr, align 8, !tbaa !3850
	call void @llvm.dbg.declare (metadata %struct._ZN3MPI8DatatypeE** %_T44709168_52520.addr, metadata !6851, metadata !3842), !dbg !6844
	store %struct._ZN3MPI8DatatypeE* %_T44709168_52520.arg, %struct._ZN3MPI8DatatypeE** %_T44709168_52520.addr, align 8, !tbaa !3850
	call void @llvm.dbg.declare (metadata %struct._ZN3MPI8DatatypeE** %_T44709168_52520.addr, metadata !6852, metadata !3842), !dbg !6844
	call void @llvm.dbg.declare (metadata i32* %count.addr, metadata !6853, metadata !3842), !dbg !6844
	store i32 %count.arg, i32* %count.addr, align 4, !tbaa !3960
	call void @llvm.dbg.declare (metadata i32* %count.addr, metadata !6854, metadata !3842), !dbg !6844
	call void @llvm.dbg.declare (metadata i32** %array_of_blocklengths.addr, metadata !6855, metadata !3842), !dbg !6844
	store i32* %array_of_blocklengths.arg, i32** %array_of_blocklengths.addr, align 8, !tbaa !3850
	call void @llvm.dbg.declare (metadata i32** %array_of_blocklengths.addr, metadata !6856, metadata !3842), !dbg !6844
	call void @llvm.dbg.declare (metadata i64** %array_of_displacements.addr, metadata !6857, metadata !3842), !dbg !6844
	store i64* %array_of_displacements.arg, i64** %array_of_displacements.addr, align 8, !tbaa !3850
	call void @llvm.dbg.declare (metadata i64** %array_of_displacements.addr, metadata !6858, metadata !3842), !dbg !6844
	%0 = load i32, i32* %count.addr, align 4, !tbaa !4041, !dbg !6859
	%1 = load i32*, i32** %array_of_blocklengths.addr, align 8, !tbaa !3850, !dbg !6859
	%2 = load i64*, i64** %array_of_displacements.addr, align 8, !tbaa !3850, !dbg !6859
	%3 = load %struct._ZN3MPI8DatatypeE*, %struct._ZN3MPI8DatatypeE** %_T44709168_52520.addr, align 8, !tbaa !3850, !dbg !6859
	%4 = bitcast %struct._ZN3MPI8DatatypeE*  %3 to i8*, !dbg !6859
	%5 = getelementptr i8, i8*  %4, i64 8, !dbg !6859
	%6 = bitcast i8*  %5 to %struct.ompi_datatype_t**, !dbg !6859
	%7 = load %struct.ompi_datatype_t*, %struct.ompi_datatype_t**  %6, align 8, !tbaa !3850, !dbg !6859
	call void @llvm.dbg.declare (metadata %struct.ompi_datatype_t** %newtype.addr, metadata !6860, metadata !3842), !dbg !6844
	%8 = call i32  @MPI_Type_create_hindexed (i32  %0, i32*  %1, i64*  %2, %struct.ompi_datatype_t*  %7, %struct.ompi_datatype_t** %newtype.addr) nounwind, !dbg !6859
	%9 = load %struct._ZN3MPI8DatatypeE*, %struct._ZN3MPI8DatatypeE** %_T44708872_52520.addr, align 8, !tbaa !3850, !dbg !6861
	%10 = bitcast %struct._ZN3MPI8DatatypeE*  %9 to i8*, !dbg !6861
	%11 = bitcast %struct._ZN3MPI8DatatypeE** %..inline.addr to i8**, !dbg !6861
	store i8*  %10, i8**  %11, align 8, !tbaa !3850, !dbg !6861
	%12 = load %struct.ompi_datatype_t*, %struct.ompi_datatype_t** %newtype.addr, align 8, !tbaa !3850, !dbg !6861
	%13 = bitcast %struct.ompi_datatype_t*  %12 to i8*, !dbg !6861
	%14 = bitcast %struct.ompi_datatype_t** %..inline.addr.1 to i8**, !dbg !6861
	store i8*  %13, i8**  %14, align 8, !tbaa !3850, !dbg !6861
	%15 = bitcast [32 x i32 (...)* (...)*]* @_ZTVN3MPI8DatatypeE to i8*, !dbg !6861
	%16 = getelementptr i8, i8*  %15, i64 16, !dbg !6861
	%17 = load %struct._ZN3MPI8DatatypeE*, %struct._ZN3MPI8DatatypeE** %..inline.addr, align 8, !tbaa !3850, !dbg !6861
	%18 = bitcast %struct._ZN3MPI8DatatypeE*  %17 to i8**, !dbg !6861
	store i8*  %16, i8**  %18, align 8, !tbaa !3850, !dbg !6861
	%19 = load %struct.ompi_datatype_t*, %struct.ompi_datatype_t** %..inline.addr.1, align 8, !tbaa !3850, !dbg !6862
	%20 = bitcast %struct.ompi_datatype_t*  %19 to i8*, !dbg !6862
	%21 = bitcast %struct._ZN3MPI8DatatypeE*  %17 to i8*, !dbg !6862
	%22 = getelementptr i8, i8*  %21, i64 8, !dbg !6862
	%23 = bitcast i8*  %22 to i8**, !dbg !6862
	store i8*  %20, i8**  %23, align 8, !tbaa !3850, !dbg !6862
	ret void, !dbg !6863
}
define linkonce_odr void @_ZNK3MPI8Datatype14Create_hvectorEiil(%struct._ZN3MPI8DatatypeE* sret %_T44708872_52522.arg, %struct._ZN3MPI8DatatypeE* %_T44709168_52522.arg, i32 signext %count.arg, i32 signext %blocklength.arg, i64 %stride.arg) #0 inlinehint !dbg !6865 {
L.entry:
	%_T44708872_52522.addr = alloca %struct._ZN3MPI8DatatypeE*, align 8
	%_T44709168_52522.addr = alloca %struct._ZN3MPI8DatatypeE*, align 8
	%count.addr = alloca i32, align 4
	%blocklength.addr = alloca i32, align 4
	%stride.addr = alloca i64, align 8
	%newtype.addr = alloca %struct.ompi_datatype_t*, align 8
	%..inline.addr = alloca %struct._ZN3MPI8DatatypeE*, align 8
	%..inline.addr.1 = alloca %struct.ompi_datatype_t*, align 8

	store %struct._ZN3MPI8DatatypeE* %_T44708872_52522.arg, %struct._ZN3MPI8DatatypeE** %_T44708872_52522.addr, align 8, !tbaa !3850
	call void @llvm.dbg.declare (metadata %struct._ZN3MPI8DatatypeE** %_T44709168_52522.addr, metadata !6873, metadata !3842), !dbg !6866
	store %struct._ZN3MPI8DatatypeE* %_T44709168_52522.arg, %struct._ZN3MPI8DatatypeE** %_T44709168_52522.addr, align 8, !tbaa !3850
	call void @llvm.dbg.declare (metadata %struct._ZN3MPI8DatatypeE** %_T44709168_52522.addr, metadata !6874, metadata !3842), !dbg !6866
	call void @llvm.dbg.declare (metadata i32* %count.addr, metadata !6875, metadata !3842), !dbg !6866
	store i32 %count.arg, i32* %count.addr, align 4, !tbaa !3960
	call void @llvm.dbg.declare (metadata i32* %count.addr, metadata !6876, metadata !3842), !dbg !6866
	call void @llvm.dbg.declare (metadata i32* %blocklength.addr, metadata !6877, metadata !3842), !dbg !6866
	store i32 %blocklength.arg, i32* %blocklength.addr, align 4, !tbaa !3960
	call void @llvm.dbg.declare (metadata i32* %blocklength.addr, metadata !6878, metadata !3842), !dbg !6866
	call void @llvm.dbg.declare (metadata i64* %stride.addr, metadata !6879, metadata !3842), !dbg !6866
	store i64 %stride.arg, i64* %stride.addr, align 8, !tbaa !3960
	call void @llvm.dbg.declare (metadata i64* %stride.addr, metadata !6880, metadata !3842), !dbg !6866
	%0 = load i32, i32* %count.addr, align 4, !tbaa !4041, !dbg !6881
	%1 = load i32, i32* %blocklength.addr, align 4, !tbaa !4041, !dbg !6881
	%2 = load i64, i64* %stride.addr, align 8, !tbaa !4251, !dbg !6881
	%3 = load %struct._ZN3MPI8DatatypeE*, %struct._ZN3MPI8DatatypeE** %_T44709168_52522.addr, align 8, !tbaa !3850, !dbg !6881
	%4 = bitcast %struct._ZN3MPI8DatatypeE*  %3 to i8*, !dbg !6881
	%5 = getelementptr i8, i8*  %4, i64 8, !dbg !6881
	%6 = bitcast i8*  %5 to %struct.ompi_datatype_t**, !dbg !6881
	%7 = load %struct.ompi_datatype_t*, %struct.ompi_datatype_t**  %6, align 8, !tbaa !3850, !dbg !6881
	call void @llvm.dbg.declare (metadata %struct.ompi_datatype_t** %newtype.addr, metadata !6882, metadata !3842), !dbg !6866
	%8 = call i32  @MPI_Type_create_hvector (i32  %0, i32  %1, i64  %2, %struct.ompi_datatype_t*  %7, %struct.ompi_datatype_t** %newtype.addr) nounwind, !dbg !6881
	%9 = load %struct._ZN3MPI8DatatypeE*, %struct._ZN3MPI8DatatypeE** %_T44708872_52522.addr, align 8, !tbaa !3850, !dbg !6883
	%10 = bitcast %struct._ZN3MPI8DatatypeE*  %9 to i8*, !dbg !6883
	%11 = bitcast %struct._ZN3MPI8DatatypeE** %..inline.addr to i8**, !dbg !6883
	store i8*  %10, i8**  %11, align 8, !tbaa !3850, !dbg !6883
	%12 = load %struct.ompi_datatype_t*, %struct.ompi_datatype_t** %newtype.addr, align 8, !tbaa !3850, !dbg !6883
	%13 = bitcast %struct.ompi_datatype_t*  %12 to i8*, !dbg !6883
	%14 = bitcast %struct.ompi_datatype_t** %..inline.addr.1 to i8**, !dbg !6883
	store i8*  %13, i8**  %14, align 8, !tbaa !3850, !dbg !6883
	%15 = bitcast [32 x i32 (...)* (...)*]* @_ZTVN3MPI8DatatypeE to i8*, !dbg !6883
	%16 = getelementptr i8, i8*  %15, i64 16, !dbg !6883
	%17 = load %struct._ZN3MPI8DatatypeE*, %struct._ZN3MPI8DatatypeE** %..inline.addr, align 8, !tbaa !3850, !dbg !6883
	%18 = bitcast %struct._ZN3MPI8DatatypeE*  %17 to i8**, !dbg !6883
	store i8*  %16, i8**  %18, align 8, !tbaa !3850, !dbg !6883
	%19 = load %struct.ompi_datatype_t*, %struct.ompi_datatype_t** %..inline.addr.1, align 8, !tbaa !3850, !dbg !6884
	%20 = bitcast %struct.ompi_datatype_t*  %19 to i8*, !dbg !6884
	%21 = bitcast %struct._ZN3MPI8DatatypeE*  %17 to i8*, !dbg !6884
	%22 = getelementptr i8, i8*  %21, i64 8, !dbg !6884
	%23 = bitcast i8*  %22 to i8**, !dbg !6884
	store i8*  %20, i8**  %23, align 8, !tbaa !3850, !dbg !6884
	ret void, !dbg !6885
}
define linkonce_odr void @_ZNK3MPI8Datatype20Create_indexed_blockEiiPKi(%struct._ZN3MPI8DatatypeE* sret %_T44708872_52523.arg, %struct._ZN3MPI8DatatypeE* %_T44709168_52523.arg, i32 signext %count.arg, i32 signext %blocklength.arg, i32* %array_of_displacements.arg) #0 inlinehint !dbg !6887 {
L.entry:
	%_T44708872_52523.addr = alloca %struct._ZN3MPI8DatatypeE*, align 8
	%_T44709168_52523.addr = alloca %struct._ZN3MPI8DatatypeE*, align 8
	%count.addr = alloca i32, align 4
	%blocklength.addr = alloca i32, align 4
	%array_of_displacements.addr = alloca i32*, align 8
	%newtype.addr = alloca %struct.ompi_datatype_t*, align 8
	%..inline.addr = alloca %struct._ZN3MPI8DatatypeE*, align 8
	%..inline.addr.1 = alloca %struct.ompi_datatype_t*, align 8

	store %struct._ZN3MPI8DatatypeE* %_T44708872_52523.arg, %struct._ZN3MPI8DatatypeE** %_T44708872_52523.addr, align 8, !tbaa !3850
	call void @llvm.dbg.declare (metadata %struct._ZN3MPI8DatatypeE** %_T44709168_52523.addr, metadata !6895, metadata !3842), !dbg !6888
	store %struct._ZN3MPI8DatatypeE* %_T44709168_52523.arg, %struct._ZN3MPI8DatatypeE** %_T44709168_52523.addr, align 8, !tbaa !3850
	call void @llvm.dbg.declare (metadata %struct._ZN3MPI8DatatypeE** %_T44709168_52523.addr, metadata !6896, metadata !3842), !dbg !6888
	call void @llvm.dbg.declare (metadata i32* %count.addr, metadata !6897, metadata !3842), !dbg !6888
	store i32 %count.arg, i32* %count.addr, align 4, !tbaa !3960
	call void @llvm.dbg.declare (metadata i32* %count.addr, metadata !6898, metadata !3842), !dbg !6888
	call void @llvm.dbg.declare (metadata i32* %blocklength.addr, metadata !6899, metadata !3842), !dbg !6888
