	.text
	.file	"vectordipole.ll"
	.file	1 "/home/talgat/vlasiator/backgroundfield/vectordipole.cpp"
	.weak	_ZN11T3DFunctionD1Ev    # -- Begin function _ZN11T3DFunctionD1Ev
	.p2align	4, 0x90
	.type	_ZN11T3DFunctionD1Ev,@function
_ZN11T3DFunctionD1Ev:                   # @_ZN11T3DFunctionD1Ev
.Lfunc_begin0:
	.file	2 "/home/talgat/vlasiator/backgroundfield/functions.hpp"
	.loc	2 31 0                  # backgroundfield/functions.hpp:31:0
	.cfi_startproc
# %bb.0:                                # %L.entry
	#DEBUG_VALUE: ~T3DFunction: <- $rdi
	#DEBUG_VALUE: ~T3DFunction: <- $rdi
	pushq	%rbp
	.cfi_def_cfa_offset 16
	.cfi_offset %rbp, -16
	movq	%rsp, %rbp
	.cfi_def_cfa_register %rbp
.Ltmp0:
	#DEBUG_VALUE:  <- $rdi
	#DEBUG_VALUE:  <- $rdi
	.loc	2 31 1 prologue_end     # backgroundfield/functions.hpp:31:1
	movq	$_ZTV11T3DFunction+16, (%rdi)
	popq	%rbp
	.cfi_def_cfa %rsp, 8
	retq
.Ltmp1:
.Lfunc_end0:
	.size	_ZN11T3DFunctionD1Ev, .Lfunc_end0-_ZN11T3DFunctionD1Ev
	.cfi_endproc
                                        # -- End function
	.weak	_ZN11T3DFunctionD0Ev    # -- Begin function _ZN11T3DFunctionD0Ev
	.p2align	4, 0x90
	.type	_ZN11T3DFunctionD0Ev,@function
_ZN11T3DFunctionD0Ev:                   # @_ZN11T3DFunctionD0Ev
.Lfunc_begin1:
	.loc	1 0 0                   # backgroundfield/vectordipole.cpp:0:0
	.cfi_startproc
# %bb.0:                                # %L.entry
	pushq	%rbp
	.cfi_def_cfa_offset 16
	.cfi_offset %rbp, -16
	movq	%rsp, %rbp
	.cfi_def_cfa_register %rbp
.Ltmp2:
	.loc	1 31 1 prologue_end     # backgroundfield/vectordipole.cpp:31:1
	movl	$8, %esi
	popq	%rbp
	.cfi_def_cfa %rsp, 8
	jmp	_ZdlPvm                 # TAILCALL
.Ltmp3:
.Lfunc_end1:
	.size	_ZN11T3DFunctionD0Ev, .Lfunc_end1-_ZN11T3DFunctionD0Ev
	.cfi_endproc
                                        # -- End function
	.weak	_ZN13FieldFunctionD1Ev  # -- Begin function _ZN13FieldFunctionD1Ev
	.p2align	4, 0x90
	.type	_ZN13FieldFunctionD1Ev,@function
_ZN13FieldFunctionD1Ev:                 # @_ZN13FieldFunctionD1Ev
.Lfunc_begin2:
	.file	3 "/home/talgat/vlasiator/backgroundfield/fieldfunction.hpp"
	.loc	3 0 0                   # backgroundfield/fieldfunction.hpp:0:0
	.cfi_startproc
# %bb.0:                                # %L.entry
	#DEBUG_VALUE: ~FieldFunction: <- $rdi
	#DEBUG_VALUE: ~FieldFunction: <- $rdi
	pushq	%rbp
	.cfi_def_cfa_offset 16
	.cfi_offset %rbp, -16
	movq	%rsp, %rbp
	.cfi_def_cfa_register %rbp
.Ltmp4:
	#DEBUG_VALUE:  <- $rdi
	#DEBUG_VALUE:  <- $rdi
	.loc	3 31 1 prologue_end     # backgroundfield/fieldfunction.hpp:31:1
	movq	$_ZTV11T3DFunction+16, (%rdi)
	popq	%rbp
	.cfi_def_cfa %rsp, 8
	retq
.Ltmp5:
.Lfunc_end2:
	.size	_ZN13FieldFunctionD1Ev, .Lfunc_end2-_ZN13FieldFunctionD1Ev
	.cfi_endproc
                                        # -- End function
	.weak	_ZN13FieldFunctionD0Ev  # -- Begin function _ZN13FieldFunctionD0Ev
	.p2align	4, 0x90
	.type	_ZN13FieldFunctionD0Ev,@function
_ZN13FieldFunctionD0Ev:                 # @_ZN13FieldFunctionD0Ev
.Lfunc_begin3:
	.loc	1 0 0                   # backgroundfield/vectordipole.cpp:0:0
	.cfi_startproc
# %bb.0:                                # %L.entry
	pushq	%rbp
	.cfi_def_cfa_offset 16
	.cfi_offset %rbp, -16
	movq	%rsp, %rbp
	.cfi_def_cfa_register %rbp
.Ltmp6:
	.loc	1 31 1 prologue_end     # backgroundfield/vectordipole.cpp:31:1
	movl	$24, %esi
	popq	%rbp
	.cfi_def_cfa %rsp, 8
	jmp	_ZdlPvm                 # TAILCALL
.Ltmp7:
.Lfunc_end3:
	.size	_ZN13FieldFunctionD0Ev, .Lfunc_end3-_ZN13FieldFunctionD0Ev
	.cfi_endproc
                                        # -- End function
	.section	.rodata.cst16,"aM",@progbits,16
	.p2align	4               # -- Begin function _ZN12VectorDipole10initializeEddddddddddd
.LCPI4_0:
	.quad	-9223372036854775808    # double -0
	.quad	-9223372036854775808    # double -0
	.text
	.globl	_ZN12VectorDipole10initializeEddddddddddd
	.p2align	4, 0x90
	.type	_ZN12VectorDipole10initializeEddddddddddd,@function
_ZN12VectorDipole10initializeEddddddddddd: # @_ZN12VectorDipole10initializeEddddddddddd
.Lfunc_begin4:
	.loc	1 34 0                  # backgroundfield/vectordipole.cpp:34:0
	.cfi_startproc
# %bb.0:                                # %L.entry
	#DEBUG_VALUE: initialize: <- $rdi
	#DEBUG_VALUE: initialize:moment <- $xmm0
	#DEBUG_VALUE: initialize:center_x <- $xmm1
	#DEBUG_VALUE: initialize:center_y <- $xmm2
	#DEBUG_VALUE: initialize:center_z <- $xmm3
	#DEBUG_VALUE: initialize:tilt_angle_phi <- $xmm4
	#DEBUG_VALUE: initialize:tilt_angle_theta <- $xmm5
	#DEBUG_VALUE: initialize:xlimit_f <- $xmm6
	#DEBUG_VALUE: initialize:xlimit_z <- $xmm7
	pushq	%rbp
	.cfi_def_cfa_offset 16
	.cfi_offset %rbp, -16
	movq	%rsp, %rbp
	.cfi_def_cfa_register %rbp
	pushq	%rbx
	subq	$104, %rsp
	.cfi_offset %rbx, -24
.Ltmp8:
	#DEBUG_VALUE:  <- $rdi
	#DEBUG_VALUE: moment <- $xmm0
	#DEBUG_VALUE: center_x <- $xmm1
	#DEBUG_VALUE: center_y <- $xmm2
	#DEBUG_VALUE: center_z <- $xmm3
	#DEBUG_VALUE: tilt_angle_phi <- $xmm4
	#DEBUG_VALUE: tilt_angle_theta <- $xmm5
	#DEBUG_VALUE: xlimit_f <- $xmm6
	#DEBUG_VALUE: xlimit_z <- $xmm7
	vmovsd	%xmm7, -56(%rbp)        # 8-byte Spill
	vmovsd	%xmm6, -48(%rbp)        # 8-byte Spill
	vmovsd	%xmm4, -16(%rbp)        # 8-byte Spill
	vmovsd	%xmm3, -40(%rbp)        # 8-byte Spill
	vmovsd	%xmm2, -32(%rbp)        # 8-byte Spill
	vmovsd	%xmm1, -24(%rbp)        # 8-byte Spill
	vmovaps	%xmm0, -112(%rbp)       # 16-byte Spill
	movq	%rdi, %rbx
.Ltmp9:
	#DEBUG_VALUE: IMF_Bz <- [DW_OP_plus_uconst 32] [$rbp+0]
	#DEBUG_VALUE: initialize:IMF_Bz <- [DW_OP_plus_uconst 32] [$rbp+0]
	#DEBUG_VALUE: IMF_By <- [DW_OP_plus_uconst 24] [$rbp+0]
	#DEBUG_VALUE: initialize:IMF_By <- [DW_OP_plus_uconst 24] [$rbp+0]
	#DEBUG_VALUE: IMF_Bx <- [DW_OP_plus_uconst 16] [$rbp+0]
	#DEBUG_VALUE: initialize:IMF_Bx <- [DW_OP_plus_uconst 16] [$rbp+0]
	#DEBUG_VALUE: xlimit_z <- [DW_OP_constu 56, DW_OP_minus] [$rbp+0]
	#DEBUG_VALUE: initialize:xlimit_z <- [DW_OP_constu 56, DW_OP_minus] [$rbp+0]
	#DEBUG_VALUE: xlimit_f <- [DW_OP_constu 48, DW_OP_minus] [$rbp+0]
	#DEBUG_VALUE: initialize:xlimit_f <- [DW_OP_constu 48, DW_OP_minus] [$rbp+0]
	#DEBUG_VALUE: tilt_angle_theta <- $xmm5
	#DEBUG_VALUE: initialize:tilt_angle_theta <- $xmm5
	#DEBUG_VALUE: tilt_angle_phi <- [DW_OP_constu 16, DW_OP_minus] [$rbp+0]
	#DEBUG_VALUE: initialize:tilt_angle_phi <- [DW_OP_constu 16, DW_OP_minus] [$rbp+0]
	#DEBUG_VALUE: center_z <- [DW_OP_constu 40, DW_OP_minus] [$rbp+0]
	#DEBUG_VALUE: initialize:center_z <- [DW_OP_constu 40, DW_OP_minus] [$rbp+0]
	#DEBUG_VALUE: center_y <- [DW_OP_constu 32, DW_OP_minus] [$rbp+0]
	#DEBUG_VALUE: initialize:center_y <- [DW_OP_constu 32, DW_OP_minus] [$rbp+0]
	#DEBUG_VALUE: center_x <- [DW_OP_constu 24, DW_OP_minus] [$rbp+0]
	#DEBUG_VALUE: initialize:center_x <- [DW_OP_constu 24, DW_OP_minus] [$rbp+0]
	#DEBUG_VALUE: moment <- [DW_OP_constu 112, DW_OP_minus] [$rbp+0]
	#DEBUG_VALUE: initialize:moment <- [DW_OP_constu 112, DW_OP_minus] [$rbp+0]
	#DEBUG_VALUE:  <- $rbx
	#DEBUG_VALUE: initialize: <- $rbx
	.loc	1 35 1 prologue_end     # backgroundfield/vectordipole.cpp:35:1
	movb	$1, 20(%rdi)
	.loc	1 37 1                  # backgroundfield/vectordipole.cpp:37:1
	vmovaps	%xmm5, %xmm0
.Ltmp10:
	#DEBUG_VALUE: tilt_angle_theta <- $xmm0
	#DEBUG_VALUE: initialize:tilt_angle_theta <- $xmm0
	callq	__fd_sincos_1
.Ltmp11:
	.loc	1 0 1 is_stmt 0         # backgroundfield/vectordipole.cpp:0:1
	vmovaps	%xmm0, -96(%rbp)        # 16-byte Spill
	vmovapd	%xmm1, -80(%rbp)        # 16-byte Spill
	vmovsd	-16(%rbp), %xmm0        # 8-byte Reload
                                        # xmm0 = mem[0],zero
.Ltmp12:
	#DEBUG_VALUE: tilt_angle_phi <- $xmm0
	#DEBUG_VALUE: initialize:tilt_angle_phi <- $xmm0
	.loc	1 37 1                  # backgroundfield/vectordipole.cpp:37:1
	callq	__fd_sincos_1
.Ltmp13:
	.loc	1 0 1                   # backgroundfield/vectordipole.cpp:0:1
	vmovapd	-80(%rbp), %xmm2        # 16-byte Reload
	.loc	1 37 1                  # backgroundfield/vectordipole.cpp:37:1
	vunpcklpd	-96(%rbp), %xmm2, %xmm2 # 16-byte Folded Reload
                                        # xmm2 = xmm2[0],mem[0]
	vmovddup	%xmm0, %xmm0    # xmm0 = xmm0[0,0]
	vmulpd	%xmm0, %xmm2, %xmm0
	vmovapd	-112(%rbp), %xmm3       # 16-byte Reload
.Ltmp14:
	#DEBUG_VALUE: moment <- $xmm3
	#DEBUG_VALUE: initialize:moment <- $xmm3
	vmovddup	%xmm3, %xmm2    # xmm2 = xmm3[0,0]
	vmulpd	%xmm2, %xmm0, %xmm0
	vmovapd	.LCPI4_0(%rip), %xmm2   # xmm2 = [-0.0E+0,-0.0E+0]
	vxorpd	%xmm2, %xmm0, %xmm0
	vmovupd	%xmm0, 24(%rbx)
	.loc	1 39 1 is_stmt 1        # backgroundfield/vectordipole.cpp:39:1
	vmulsd	%xmm3, %xmm1, %xmm0
	vxorpd	%xmm2, %xmm0, %xmm0
	vmovlpd	%xmm0, 40(%rbx)
	vmovsd	-24(%rbp), %xmm0        # 8-byte Reload
                                        # xmm0 = mem[0],zero
.Ltmp15:
	#DEBUG_VALUE: center_x <- $xmm0
	#DEBUG_VALUE: initialize:center_x <- $xmm0
	.loc	1 41 1                  # backgroundfield/vectordipole.cpp:41:1
	vmovsd	%xmm0, 48(%rbx)
	vmovsd	-32(%rbp), %xmm0        # 8-byte Reload
                                        # xmm0 = mem[0],zero
.Ltmp16:
	#DEBUG_VALUE: center_y <- $xmm0
	#DEBUG_VALUE: initialize:center_y <- $xmm0
	.loc	1 42 1                  # backgroundfield/vectordipole.cpp:42:1
	vmovsd	%xmm0, 56(%rbx)
	vmovsd	-40(%rbp), %xmm0        # 8-byte Reload
                                        # xmm0 = mem[0],zero
.Ltmp17:
	#DEBUG_VALUE: center_z <- $xmm0
	#DEBUG_VALUE: initialize:center_z <- $xmm0
	.loc	1 43 1                  # backgroundfield/vectordipole.cpp:43:1
	vmovsd	%xmm0, 64(%rbx)
	vmovsd	-48(%rbp), %xmm0        # 8-byte Reload
                                        # xmm0 = mem[0],zero
.Ltmp18:
	#DEBUG_VALUE: xlimit_f <- $xmm0
	#DEBUG_VALUE: initialize:xlimit_f <- $xmm0
	.loc	1 46 1                  # backgroundfield/vectordipole.cpp:46:1
	vmovsd	%xmm0, 72(%rbx)
	vmovsd	-56(%rbp), %xmm0        # 8-byte Reload
                                        # xmm0 = mem[0],zero
.Ltmp19:
	#DEBUG_VALUE: xlimit_z <- $xmm0
	#DEBUG_VALUE: initialize:xlimit_z <- $xmm0
	.loc	1 47 1                  # backgroundfield/vectordipole.cpp:47:1
	vmovsd	%xmm0, 80(%rbx)
	.loc	1 50 1                  # backgroundfield/vectordipole.cpp:50:1
	vmovaps	16(%rbp), %xmm0
.Ltmp20:
	vmovups	%xmm0, 88(%rbx)
	.loc	1 52 1                  # backgroundfield/vectordipole.cpp:52:1
	vmovsd	32(%rbp), %xmm0         # xmm0 = mem[0],zero
	vmovsd	%xmm0, 104(%rbx)
	.loc	1 55 1                  # backgroundfield/vectordipole.cpp:55:1
	addq	$104, %rsp
	popq	%rbx
.Ltmp21:
	popq	%rbp
	.cfi_def_cfa %rsp, 8
	retq
.Ltmp22:
.Lfunc_end4:
	.size	_ZN12VectorDipole10initializeEddddddddddd, .Lfunc_end4-_ZN12VectorDipole10initializeEddddddddddd
	.cfi_endproc
                                        # -- End function
	.section	.rodata.cst8,"aM",@progbits,8
	.p2align	3               # -- Begin function _ZNK12VectorDipole4callEddd
.LCPI5_0:
	.quad	4720717001298091704     # double 40592189.439999998
.LCPI5_1:
	.quad	4613937818241073152     # double 3
.LCPI5_2:
	.quad	4617315517961601024     # double 5
.LCPI5_3:
	.quad	4607182418800017408     # double 1
.LCPI5_5:
	.quad	4621819117588971520     # double 10
.LCPI5_6:
	.quad	4618441417868443648     # double 6
.LCPI5_7:
	.quad	4624633867356078080     # double 15
.LCPI5_8:
	.quad	4629137466983448576     # double 30
.LCPI5_9:
	.quad	4633641066610819072     # double 60
.LCPI5_11:
	.quad	-4609434218613702656    # double -3
.LCPI5_12:
	.quad	4602678819172646912     # double 0.5
.LCPI5_13:
	.quad	-4620693217682128896    # double -0.5
.LCPI5_15:
	.quad	-9223372036854775808    # double -0
	.section	.rodata.cst16,"aM",@progbits,16
	.p2align	4
.LCPI5_4:
	.quad	4602678819172646912     # double 0.5
	.quad	4602678819172646912     # double 0.5
.LCPI5_10:
	.quad	-9223372036854775808    # double -0
	.quad	-9223372036854775808    # double -0
.LCPI5_14:
	.quad	-9223372036854775808    # double -0
	.zero	8
	.text
	.globl	_ZNK12VectorDipole4callEddd
	.p2align	4, 0x90
	.type	_ZNK12VectorDipole4callEddd,@function
_ZNK12VectorDipole4callEddd:            # @_ZNK12VectorDipole4callEddd
.Lfunc_begin5:
	.loc	1 60 0                  # backgroundfield/vectordipole.cpp:60:0
	.cfi_startproc
# %bb.0:                                # %L.entry
	#DEBUG_VALUE: call: <- $rdi
	#DEBUG_VALUE: call:x <- $xmm0
	#DEBUG_VALUE: call:y <- $xmm1
	#DEBUG_VALUE: call:z <- $xmm2
	pushq	%rbp
	.cfi_def_cfa_offset 16
	.cfi_offset %rbp, -16
	movq	%rsp, %rbp
	.cfi_def_cfa_register %rbp
	subq	$448, %rsp              # imm = 0x1C0
	vmovapd	%xmm0, %xmm3
.Ltmp23:
	#DEBUG_VALUE: z <- undef
	#DEBUG_VALUE: y <- undef
	#DEBUG_VALUE: x <- undef
	vxorpd	%xmm0, %xmm0, %xmm0
.Ltmp24:
	#DEBUG_VALUE:  <- $rdi
	#DEBUG_VALUE: call:z <- $xmm2
	#DEBUG_VALUE: call:y <- $xmm1
	#DEBUG_VALUE: call:x <- $xmm3
	#DEBUG_VALUE: call: <- $rdi
	.loc	1 62 1 prologue_end     # backgroundfield/vectordipole.cpp:62:1
	cmpb	$0, 20(%rdi)
	je	.LBB5_23
.Ltmp25:
# %bb.1:                                # %L.B0000
	#DEBUG_VALUE: call:x <- $xmm3
	#DEBUG_VALUE:  <- $rdi
	#DEBUG_VALUE: call:z <- $xmm2
	#DEBUG_VALUE: call:y <- $xmm1
	#DEBUG_VALUE: call: <- $rdi
	.loc	1 66 1                  # backgroundfield/vectordipole.cpp:66:1
	vpermilpd	$1, 48(%rdi), %xmm4 # xmm4 = mem[1,0]
	.loc	1 67 1                  # backgroundfield/vectordipole.cpp:67:1
	vunpcklpd	%xmm3, %xmm1, %xmm1 # xmm1 = xmm1[0],xmm3[0]
.Ltmp26:
	vsubpd	%xmm4, %xmm1, %xmm6
	.loc	1 66 1                  # backgroundfield/vectordipole.cpp:66:1
	vpermilpd	$1, %xmm6, %xmm4 # xmm4 = xmm6[1,0]
	vmovapd	%xmm4, -112(%rbp)
	.loc	1 68 1                  # backgroundfield/vectordipole.cpp:68:1
	vsubsd	64(%rdi), %xmm2, %xmm7
	vmovsd	%xmm7, -96(%rbp)
	.loc	1 70 1                  # backgroundfield/vectordipole.cpp:70:1
	vmulsd	%xmm4, %xmm4, %xmm1
	vfmadd231sd	%xmm6, %xmm6, %xmm1 # xmm1 = (xmm6 * xmm6) + xmm1
	vfmadd231sd	%xmm7, %xmm7, %xmm1 # xmm1 = (xmm7 * xmm7) + xmm1
.Ltmp27:
	#DEBUG_VALUE: r2 <- $xmm1
	.loc	1 0 1 is_stmt 0         # backgroundfield/vectordipole.cpp:0:1
	vmovsd	.LCPI5_0(%rip), %xmm2   # xmm2 = mem[0],zero
.Ltmp28:
	.loc	1 72 1 is_stmt 1        # backgroundfield/vectordipole.cpp:72:1
	vucomisd	%xmm1, %xmm2
	ja	.LBB5_23
.Ltmp29:
# %bb.2:                                # %L.B0001
	#DEBUG_VALUE: r2 <- $xmm1
	#DEBUG_VALUE: call:x <- $xmm3
	#DEBUG_VALUE:  <- $rdi
	#DEBUG_VALUE: call: <- $rdi
	.loc	1 76 1                  # backgroundfield/vectordipole.cpp:76:1
	vmovsd	80(%rdi), %xmm13        # xmm13 = mem[0],zero
	vucomisd	%xmm13, %xmm4
	jae	.LBB5_3
.Ltmp30:
# %bb.5:                                # %L.B0002
	#DEBUG_VALUE: r2 <- $xmm1
	#DEBUG_VALUE: call:x <- $xmm3
	#DEBUG_VALUE:  <- $rdi
	#DEBUG_VALUE: call: <- $rdi
	.loc	1 87 1                  # backgroundfield/vectordipole.cpp:87:1
	vsqrtsd	%xmm1, %xmm1, %xmm2
.Ltmp31:
	#DEBUG_VALUE: r1 <- $xmm2
	.loc	1 88 1                  # backgroundfield/vectordipole.cpp:88:1
	vmulsd	%xmm1, %xmm1, %xmm3
.Ltmp32:
	.loc	1 0 1 is_stmt 0         # backgroundfield/vectordipole.cpp:0:1
	vmovsd	%xmm2, -64(%rbp)        # 8-byte Spill
.Ltmp33:
	#DEBUG_VALUE: r1 <- [DW_OP_constu 64, DW_OP_minus] [$rbp+0]
	.loc	1 88 1                  # backgroundfield/vectordipole.cpp:88:1
	vmulsd	%xmm3, %xmm2, %xmm9
.Ltmp34:
	#DEBUG_VALUE: r5 <- $xmm9
	.loc	1 89 1 is_stmt 1        # backgroundfield/vectordipole.cpp:89:1
	vmovsd	40(%rdi), %xmm10        # xmm10 = mem[0],zero
	vmovsd	32(%rdi), %xmm11        # xmm11 = mem[0],zero
	vmovsd	24(%rdi), %xmm2         # xmm2 = mem[0],zero
	vmulsd	%xmm2, %xmm4, %xmm15
	vfmadd231sd	%xmm11, %xmm6, %xmm15 # xmm15 = (xmm6 * xmm11) + xmm15
	vfmadd231sd	%xmm10, %xmm7, %xmm15 # xmm15 = (xmm7 * xmm10) + xmm15
.Ltmp35:
	#DEBUG_VALUE: rdotq <- $xmm15
	.loc	1 90 1                  # backgroundfield/vectordipole.cpp:90:1
	movl	8(%rdi), %eax
	vmovsd	-112(%rbp,%rax,8), %xmm14 # xmm14 = mem[0],zero
	vmulsd	.LCPI5_1(%rip), %xmm14, %xmm3
	.loc	1 92 1                  # backgroundfield/vectordipole.cpp:92:1
	movl	16(%rdi), %ecx
	.loc	1 90 1                  # backgroundfield/vectordipole.cpp:90:1
	vmovsd	24(%rdi,%rax,8), %xmm12 # xmm12 = mem[0],zero
	vmulsd	%xmm12, %xmm1, %xmm5
	vfmsub231sd	%xmm3, %xmm15, %xmm5 # xmm5 = (xmm15 * xmm3) - xmm5
	vdivsd	%xmm9, %xmm5, %xmm3
.Ltmp36:
	#DEBUG_VALUE: B <- $xmm3
	.loc	1 92 1                  # backgroundfield/vectordipole.cpp:92:1
	testl	%ecx, %ecx
	je	.LBB5_6
.Ltmp37:
# %bb.8:                                # %L.B0005
	#DEBUG_VALUE: B <- $xmm3
	#DEBUG_VALUE: rdotq <- $xmm15
	#DEBUG_VALUE: r5 <- $xmm9
	#DEBUG_VALUE: r1 <- [DW_OP_constu 64, DW_OP_minus] [$rbp+0]
	#DEBUG_VALUE: r2 <- $xmm1
	#DEBUG_VALUE:  <- $rdi
	#DEBUG_VALUE: call: <- $rdi
	.loc	1 0 0 is_stmt 0         # backgroundfield/vectordipole.cpp:0:0
	vmovsd	72(%rdi), %xmm8         # xmm8 = mem[0],zero
	movb	$1, %dl
.Ltmp38:
	.loc	1 96 1 is_stmt 1        # backgroundfield/vectordipole.cpp:96:1
	cmpl	$1, %ecx
	jne	.LBB5_11
.Ltmp39:
# %bb.9:                                # %L.B0060
	#DEBUG_VALUE: B <- $xmm3
	#DEBUG_VALUE: rdotq <- $xmm15
	#DEBUG_VALUE: r5 <- $xmm9
	#DEBUG_VALUE: r1 <- [DW_OP_constu 64, DW_OP_minus] [$rbp+0]
	#DEBUG_VALUE: r2 <- $xmm1
	#DEBUG_VALUE:  <- $rdi
	#DEBUG_VALUE: call: <- $rdi
	vucomisd	%xmm4, %xmm8
	jae	.LBB5_14
.Ltmp40:
# %bb.10:
	#DEBUG_VALUE: B <- $xmm3
	#DEBUG_VALUE: rdotq <- $xmm15
	#DEBUG_VALUE: r5 <- $xmm9
	#DEBUG_VALUE: r1 <- [DW_OP_constu 64, DW_OP_minus] [$rbp+0]
	#DEBUG_VALUE: r2 <- $xmm1
	#DEBUG_VALUE:  <- $rdi
	#DEBUG_VALUE: call: <- $rdi
	.loc	1 0 1 is_stmt 0         # backgroundfield/vectordipole.cpp:0:1
	xorl	%edx, %edx
	jmp	.LBB5_11
.Ltmp41:
.LBB5_3:                                # %L.B0053
	#DEBUG_VALUE: r2 <- $xmm1
	#DEBUG_VALUE: call:x <- $xmm3
	#DEBUG_VALUE:  <- $rdi
	#DEBUG_VALUE: call: <- $rdi
	.loc	1 78 1 is_stmt 1        # backgroundfield/vectordipole.cpp:78:1
	cmpl	$0, 16(%rdi)
	jne	.LBB5_23
.Ltmp42:
# %bb.4:                                # %L.B0054
	#DEBUG_VALUE: r2 <- $xmm1
	#DEBUG_VALUE: call:x <- $xmm3
	#DEBUG_VALUE:  <- $rdi
	#DEBUG_VALUE: call: <- $rdi
	.loc	1 79 1                  # backgroundfield/vectordipole.cpp:79:1
	movl	8(%rdi), %eax
	vmovsd	88(%rdi,%rax,8), %xmm0  # xmm0 = mem[0],zero
	jmp	.LBB5_23
.Ltmp43:
.LBB5_6:                                # %L.B0057
	#DEBUG_VALUE: B <- $xmm3
	#DEBUG_VALUE: rdotq <- $xmm15
	#DEBUG_VALUE: r5 <- $xmm9
	#DEBUG_VALUE: r1 <- [DW_OP_constu 64, DW_OP_minus] [$rbp+0]
	#DEBUG_VALUE: r2 <- $xmm1
	#DEBUG_VALUE:  <- $rdi
	#DEBUG_VALUE: call: <- $rdi
	.loc	1 92 1                  # backgroundfield/vectordipole.cpp:92:1
	vmovsd	72(%rdi), %xmm8         # xmm8 = mem[0],zero
	movb	$1, %dl
	vucomisd	%xmm4, %xmm8
	jae	.LBB5_7
.Ltmp44:
.LBB5_11:                               # %L.B0006
	#DEBUG_VALUE: B <- $xmm3
	#DEBUG_VALUE: rdotq <- $xmm15
	#DEBUG_VALUE: r5 <- $xmm9
	#DEBUG_VALUE: r1 <- [DW_OP_constu 64, DW_OP_minus] [$rbp+0]
	#DEBUG_VALUE: r2 <- $xmm1
	#DEBUG_VALUE:  <- $rdi
	#DEBUG_VALUE: call: <- $rdi
	.loc	1 0 1 is_stmt 0         # backgroundfield/vectordipole.cpp:0:1
	vmovsd	%xmm12, -88(%rbp)       # 8-byte Spill
	vmovsd	%xmm14, -48(%rbp)       # 8-byte Spill
	vmovsd	%xmm3, -8(%rbp)         # 8-byte Spill
.Ltmp45:
	#DEBUG_VALUE: B <- [DW_OP_constu 8, DW_OP_minus] [$rbp+0]
	vmovapd	%xmm9, -144(%rbp)       # 16-byte Spill
.Ltmp46:
	#DEBUG_VALUE: r5 <- [DW_OP_constu 144, DW_OP_minus] [$rbp+0]
	.loc	1 120 1 is_stmt 1       # backgroundfield/vectordipole.cpp:120:1
	vunpcklpd	%xmm7, %xmm4, %xmm9 # xmm9 = xmm4[0],xmm7[0]
	vmovapd	%xmm11, -336(%rbp)      # 16-byte Spill
	vunpcklpd	%xmm2, %xmm11, %xmm5 # xmm5 = xmm11[0],xmm2[0]
	vmulpd	%xmm5, %xmm9, %xmm5
	vmovapd	%xmm10, -352(%rbp)      # 16-byte Spill
	vmovapd	%xmm2, -128(%rbp)       # 16-byte Spill
	vunpcklpd	%xmm10, %xmm2, %xmm2 # xmm2 = xmm2[0],xmm10[0]
	vfmsub213pd	%xmm5, %xmm6, %xmm2 # xmm2 = (xmm6 * xmm2) - xmm5
	vmovapd	%xmm2, -192(%rbp)       # 16-byte Spill
	.loc	1 124 1                 # backgroundfield/vectordipole.cpp:124:1
	vmovsd	88(%rdi), %xmm2         # xmm2 = mem[0],zero
	.loc	1 123 1                 # backgroundfield/vectordipole.cpp:123:1
	vmovsd	96(%rdi), %xmm5         # xmm5 = mem[0],zero
	vmovsd	104(%rdi), %xmm3        # xmm3 = mem[0],zero
	vmovapd	%xmm5, -304(%rbp)       # 16-byte Spill
	.loc	1 125 1                 # backgroundfield/vectordipole.cpp:125:1
	vunpcklpd	%xmm2, %xmm5, %xmm5 # xmm5 = xmm5[0],xmm2[0]
	vmulpd	%xmm5, %xmm9, %xmm10
	vmovapd	%xmm2, -320(%rbp)       # 16-byte Spill
	vmovapd	%xmm3, -288(%rbp)       # 16-byte Spill
	vunpcklpd	%xmm3, %xmm2, %xmm14 # xmm14 = xmm2[0],xmm3[0]
	.loc	1 129 1                 # backgroundfield/vectordipole.cpp:129:1
	vsubsd	%xmm4, %xmm13, %xmm5
	vsubsd	%xmm8, %xmm13, %xmm9
	vdivsd	%xmm9, %xmm5, %xmm2
.Ltmp47:
	#DEBUG_VALUE: s <- $xmm2
	.loc	1 130 1                 # backgroundfield/vectordipole.cpp:130:1
	vmulsd	%xmm2, %xmm2, %xmm11
.Ltmp48:
	#DEBUG_VALUE: ss <- $xmm11
	.loc	1 132 1                 # backgroundfield/vectordipole.cpp:132:1
	vmulsd	.LCPI5_5(%rip), %xmm11, %xmm12
	vmulsd	.LCPI5_6(%rip), %xmm11, %xmm5
	.loc	1 125 1                 # backgroundfield/vectordipole.cpp:125:1
	vfmsub213pd	%xmm10, %xmm6, %xmm14 # xmm14 = (xmm6 * xmm14) - xmm10
	.loc	1 132 1                 # backgroundfield/vectordipole.cpp:132:1
	vmulsd	%xmm5, %xmm11, %xmm5
	vmulsd	.LCPI5_7(%rip), %xmm11, %xmm3
	vmulsd	%xmm3, %xmm11, %xmm3
	vfmsub231sd	%xmm5, %xmm2, %xmm3 # xmm3 = (xmm2 * xmm5) - xmm3
	vfmadd231sd	%xmm12, %xmm2, %xmm3 # xmm3 = (xmm2 * xmm12) + xmm3
.Ltmp49:
	#DEBUG_VALUE: S2 <- $xmm3
	.loc	1 0 1 is_stmt 0         # backgroundfield/vectordipole.cpp:0:1
	vmovsd	%xmm3, -24(%rbp)        # 8-byte Spill
.Ltmp50:
	#DEBUG_VALUE: S2 <- [DW_OP_constu 24, DW_OP_minus] [$rbp+0]
	#DEBUG_VALUE: S2 <- [DW_OP_constu 24, DW_OP_minus] [$rbp+0]
	vmovsd	.LCPI5_8(%rip), %xmm10  # xmm10 = mem[0],zero
	.loc	1 133 1 is_stmt 1       # backgroundfield/vectordipole.cpp:133:1
	vmulsd	%xmm10, %xmm11, %xmm12
	vmovsd	.LCPI5_9(%rip), %xmm3   # xmm3 = mem[0],zero
	vmulsd	%xmm3, %xmm11, %xmm5
	vmovsd	%xmm2, -72(%rbp)        # 8-byte Spill
.Ltmp51:
	#DEBUG_VALUE: s <- [DW_OP_constu 72, DW_OP_minus] [$rbp+0]
	vmulsd	%xmm5, %xmm2, %xmm5
	vfmsub231sd	%xmm12, %xmm11, %xmm5 # xmm5 = (xmm11 * xmm12) - xmm5
	vfmadd231sd	%xmm10, %xmm11, %xmm5 # xmm5 = (xmm11 * xmm10) + xmm5
	vdivsd	%xmm9, %xmm5, %xmm2
	vmovapd	%xmm2, -160(%rbp)       # 16-byte Spill
	vxorpd	.LCPI5_10(%rip), %xmm2, %xmm12
.Ltmp52:
	#DEBUG_VALUE: dS2dx <- $xmm12
	.loc	1 136 1                 # backgroundfield/vectordipole.cpp:136:1
	vsubsd	%xmm8, %xmm4, %xmm2
	vdivsd	%xmm9, %xmm2, %xmm10
.Ltmp53:
	#DEBUG_VALUE: IMFs <- $xmm10
	.loc	1 137 1                 # backgroundfield/vectordipole.cpp:137:1
	vmulsd	%xmm10, %xmm10, %xmm13
.Ltmp54:
	#DEBUG_VALUE: IMFS2 <- undef
	#DEBUG_VALUE: IMFss <- $xmm13
	.loc	1 0 1 is_stmt 0         # backgroundfield/vectordipole.cpp:0:1
	vmovsd	.LCPI5_8(%rip), %xmm2   # xmm2 = mem[0],zero
	.loc	1 140 1 is_stmt 1       # backgroundfield/vectordipole.cpp:140:1
	vmulsd	%xmm2, %xmm13, %xmm5
	vmulsd	%xmm3, %xmm13, %xmm3
	vmulsd	%xmm3, %xmm10, %xmm3
	vfmsub231sd	%xmm5, %xmm13, %xmm3 # xmm3 = (xmm13 * xmm5) - xmm3
	.loc	1 126 1                 # backgroundfield/vectordipole.cpp:126:1
	vmovsd	88(%rdi,%rax,8), %xmm5  # xmm5 = mem[0],zero
.Ltmp55:
	#DEBUG_VALUE: IMFB <- $xmm5
	.loc	1 0 1 is_stmt 0         # backgroundfield/vectordipole.cpp:0:1
	vmovsd	%xmm5, -16(%rbp)        # 8-byte Spill
.Ltmp56:
	#DEBUG_VALUE: IMFB <- [DW_OP_constu 16, DW_OP_minus] [$rbp+0]
	#DEBUG_VALUE: IMFB <- [DW_OP_constu 16, DW_OP_minus] [$rbp+0]
	.loc	1 140 1 is_stmt 1       # backgroundfield/vectordipole.cpp:140:1
	vfmadd231sd	%xmm2, %xmm13, %xmm3 # xmm3 = (xmm13 * xmm2) + xmm3
	vmovsd	%xmm9, -80(%rbp)        # 8-byte Spill
	vdivsd	%xmm9, %xmm3, %xmm9
.Ltmp57:
	#DEBUG_VALUE: IMFdS2dx <- $xmm9
	.loc	1 0 1 is_stmt 0         # backgroundfield/vectordipole.cpp:0:1
	vmovapd	%xmm12, -176(%rbp)      # 16-byte Spill
.Ltmp58:
	#DEBUG_VALUE: dS2dx <- [DW_OP_constu 176, DW_OP_minus] [$rbp+0]
	.loc	1 144 1 is_stmt 1       # backgroundfield/vectordipole.cpp:144:1
	vmovlpd	%xmm12, -424(%rbp)
	.loc	1 146 1                 # backgroundfield/vectordipole.cpp:146:1
	vxorpd	%xmm3, %xmm3, %xmm3
	vmovupd	%xmm3, -416(%rbp)
	.loc	1 150 1                 # backgroundfield/vectordipole.cpp:150:1
	vmovsd	%xmm9, -400(%rbp)
	.loc	1 152 1                 # backgroundfield/vectordipole.cpp:152:1
	vmovupd	%xmm3, -392(%rbp)
	vmovsd	-64(%rbp), %xmm5        # 8-byte Reload
                                        # xmm5 = mem[0],zero
	.loc	1 118 1                 # backgroundfield/vectordipole.cpp:118:1
	vmulsd	%xmm5, %xmm1, %xmm12
.Ltmp59:
	#DEBUG_VALUE: A <- [DW_OP_LLVM_fragment 0 64] undef
	.loc	1 120 1                 # backgroundfield/vectordipole.cpp:120:1
	vmovddup	%xmm12, %xmm3   # xmm3 = xmm12[0,0]
	vmovapd	-192(%rbp), %xmm2       # 16-byte Reload
	vdivpd	%xmm3, %xmm2, %xmm2
.Ltmp60:
	#DEBUG_VALUE: IMFA <- [DW_OP_LLVM_fragment 0 64] undef
	.loc	1 125 1                 # backgroundfield/vectordipole.cpp:125:1
	vmulpd	.LCPI5_4(%rip), %xmm14, %xmm14
	vmovapd	%xmm8, %xmm3
.Ltmp61:
	.loc	1 154 1                 # backgroundfield/vectordipole.cpp:154:1
	vucomisd	%xmm8, %xmm5
	jbe	.LBB5_18
.Ltmp62:
# %bb.12:                               # %L.B0006
	#DEBUG_VALUE: dS2dx <- [DW_OP_constu 176, DW_OP_minus] [$rbp+0]
	#DEBUG_VALUE: IMFdS2dx <- $xmm9
	#DEBUG_VALUE: IMFB <- [DW_OP_constu 16, DW_OP_minus] [$rbp+0]
	#DEBUG_VALUE: IMFss <- $xmm13
	#DEBUG_VALUE: IMFs <- $xmm10
	#DEBUG_VALUE: s <- [DW_OP_constu 72, DW_OP_minus] [$rbp+0]
	#DEBUG_VALUE: S2 <- [DW_OP_constu 24, DW_OP_minus] [$rbp+0]
	#DEBUG_VALUE: ss <- $xmm11
	#DEBUG_VALUE: r5 <- [DW_OP_constu 144, DW_OP_minus] [$rbp+0]
	#DEBUG_VALUE: B <- [DW_OP_constu 8, DW_OP_minus] [$rbp+0]
	#DEBUG_VALUE: rdotq <- $xmm15
	#DEBUG_VALUE: r1 <- [DW_OP_constu 64, DW_OP_minus] [$rbp+0]
	#DEBUG_VALUE: r2 <- $xmm1
	#DEBUG_VALUE:  <- $rdi
	#DEBUG_VALUE: call: <- $rdi
	testl	%ecx, %ecx
	jne	.LBB5_18
.Ltmp63:
# %bb.13:                               # %L.B0064
	#DEBUG_VALUE: dS2dx <- [DW_OP_constu 176, DW_OP_minus] [$rbp+0]
	#DEBUG_VALUE: IMFdS2dx <- $xmm9
	#DEBUG_VALUE: IMFB <- [DW_OP_constu 16, DW_OP_minus] [$rbp+0]
	#DEBUG_VALUE: IMFss <- $xmm13
	#DEBUG_VALUE: IMFs <- $xmm10
	#DEBUG_VALUE: s <- [DW_OP_constu 72, DW_OP_minus] [$rbp+0]
	#DEBUG_VALUE: S2 <- [DW_OP_constu 24, DW_OP_minus] [$rbp+0]
	#DEBUG_VALUE: ss <- $xmm11
	#DEBUG_VALUE: r5 <- [DW_OP_constu 144, DW_OP_minus] [$rbp+0]
	#DEBUG_VALUE: B <- [DW_OP_constu 8, DW_OP_minus] [$rbp+0]
	#DEBUG_VALUE: rdotq <- $xmm15
	#DEBUG_VALUE: r1 <- [DW_OP_constu 64, DW_OP_minus] [$rbp+0]
	#DEBUG_VALUE: r2 <- $xmm1
	#DEBUG_VALUE:  <- $rdi
	#DEBUG_VALUE: call: <- $rdi
	.loc	1 139 1                 # backgroundfield/vectordipole.cpp:139:1
	vmulsd	.LCPI5_5(%rip), %xmm13, %xmm0
	vmulsd	.LCPI5_6(%rip), %xmm13, %xmm1
.Ltmp64:
	vmulsd	.LCPI5_7(%rip), %xmm13, %xmm3
	vmulsd	%xmm1, %xmm13, %xmm1
	vmulsd	%xmm3, %xmm13, %xmm3
	vfmsub231sd	%xmm1, %xmm10, %xmm3 # xmm3 = (xmm10 * xmm1) - xmm3
.Ltmp65:
	.loc	1 192 1                 # backgroundfield/vectordipole.cpp:192:1
	movq	$0, -376(%rbp)
	vmovapd	-160(%rbp), %xmm1       # 16-byte Reload
	.loc	1 193 1                 # backgroundfield/vectordipole.cpp:193:1
	vunpcklpd	-176(%rbp), %xmm1, %xmm1 # 16-byte Folded Reload
                                        # xmm1 = xmm1[0],mem[0]
	vmulpd	%xmm1, %xmm2, %xmm1
	vmovupd	%xmm1, -368(%rbp)
	.loc	1 198 1                 # backgroundfield/vectordipole.cpp:198:1
	movq	$0, -216(%rbp)
	.loc	1 199 1                 # backgroundfield/vectordipole.cpp:199:1
	vmulsd	%xmm9, %xmm14, %xmm1
	vxorpd	.LCPI5_10(%rip), %xmm1, %xmm1
	vmovlpd	%xmm1, -208(%rbp)
	.loc	1 200 1                 # backgroundfield/vectordipole.cpp:200:1
	vpermilpd	$1, %xmm14, %xmm1 # xmm1 = xmm14[1,0]
	vmulsd	%xmm9, %xmm1, %xmm1
	vmovsd	%xmm1, -200(%rbp)
.Ltmp66:
	.loc	1 139 1                 # backgroundfield/vectordipole.cpp:139:1
	vfmadd231sd	%xmm0, %xmm10, %xmm3 # xmm3 = (xmm10 * xmm0) + xmm3
.Ltmp67:
	#DEBUG_VALUE: IMFS2 <- $xmm3
	.loc	1 0 1 is_stmt 0         # backgroundfield/vectordipole.cpp:0:1
	vmovsd	-8(%rbp), %xmm0         # 8-byte Reload
                                        # xmm0 = mem[0],zero
.Ltmp68:
	#DEBUG_VALUE: B <- $xmm0
	vmovsd	-24(%rbp), %xmm1        # 8-byte Reload
                                        # xmm1 = mem[0],zero
.Ltmp69:
	.loc	1 203 1 is_stmt 1       # backgroundfield/vectordipole.cpp:203:1
	vfmadd213sd	-376(%rbp,%rax,8), %xmm0, %xmm1 # xmm1 = (xmm0 * xmm1) + mem
	vfmadd231sd	-16(%rbp), %xmm3, %xmm1 # 8-byte Folded Reload
                                        # xmm1 = (xmm3 * mem) + xmm1
	vaddsd	-216(%rbp,%rax,8), %xmm1, %xmm0
.Ltmp70:
	.loc	1 0 1 is_stmt 0         # backgroundfield/vectordipole.cpp:0:1
	jmp	.LBB5_23
.Ltmp71:
.LBB5_18:                               # %L.B0011
	#DEBUG_VALUE: dS2dx <- [DW_OP_constu 176, DW_OP_minus] [$rbp+0]
	#DEBUG_VALUE: IMFdS2dx <- $xmm9
	#DEBUG_VALUE: IMFB <- [DW_OP_constu 16, DW_OP_minus] [$rbp+0]
	#DEBUG_VALUE: IMFss <- $xmm13
	#DEBUG_VALUE: IMFs <- $xmm10
	#DEBUG_VALUE: s <- [DW_OP_constu 72, DW_OP_minus] [$rbp+0]
	#DEBUG_VALUE: S2 <- [DW_OP_constu 24, DW_OP_minus] [$rbp+0]
	#DEBUG_VALUE: ss <- $xmm11
	#DEBUG_VALUE: r5 <- [DW_OP_constu 144, DW_OP_minus] [$rbp+0]
	#DEBUG_VALUE: B <- [DW_OP_constu 8, DW_OP_minus] [$rbp+0]
	#DEBUG_VALUE: rdotq <- $xmm15
	#DEBUG_VALUE: r1 <- [DW_OP_constu 64, DW_OP_minus] [$rbp+0]
	#DEBUG_VALUE: r2 <- $xmm1
	#DEBUG_VALUE:  <- $rdi
	#DEBUG_VALUE: call: <- $rdi
	.loc	1 154 1 is_stmt 1       # backgroundfield/vectordipole.cpp:154:1
	vucomisd	%xmm3, %xmm5
	setbe	%cl
.Ltmp72:
	.loc	1 206 1                 # backgroundfield/vectordipole.cpp:206:1
	orb	%cl, %dl
	jne	.LBB5_23
.Ltmp73:
# %bb.19:                               # %L.B0067
	#DEBUG_VALUE: dS2dx <- [DW_OP_constu 176, DW_OP_minus] [$rbp+0]
	#DEBUG_VALUE: IMFdS2dx <- $xmm9
	#DEBUG_VALUE: IMFB <- [DW_OP_constu 16, DW_OP_minus] [$rbp+0]
	#DEBUG_VALUE: IMFss <- $xmm13
	#DEBUG_VALUE: IMFs <- $xmm10
	#DEBUG_VALUE: s <- [DW_OP_constu 72, DW_OP_minus] [$rbp+0]
	#DEBUG_VALUE: S2 <- [DW_OP_constu 24, DW_OP_minus] [$rbp+0]
	#DEBUG_VALUE: ss <- $xmm11
	#DEBUG_VALUE: r5 <- [DW_OP_constu 144, DW_OP_minus] [$rbp+0]
	#DEBUG_VALUE: B <- [DW_OP_constu 8, DW_OP_minus] [$rbp+0]
	#DEBUG_VALUE: rdotq <- $xmm15
	#DEBUG_VALUE: r1 <- [DW_OP_constu 64, DW_OP_minus] [$rbp+0]
	#DEBUG_VALUE: r2 <- $xmm1
	#DEBUG_VALUE:  <- $rdi
	#DEBUG_VALUE: call: <- $rdi
	.loc	1 0 1 is_stmt 0         # backgroundfield/vectordipole.cpp:0:1
	vmovapd	%xmm2, -256(%rbp)       # 16-byte Spill
	vmovapd	%xmm9, -64(%rbp)        # 16-byte Spill
.Ltmp74:
	#DEBUG_VALUE: IMFdS2dx <- [DW_OP_constu 64, DW_OP_minus] [$rbp+0]
	vmovsd	-8(%rbp), %xmm0         # 8-byte Reload
                                        # xmm0 = mem[0],zero
.Ltmp75:
	#DEBUG_VALUE: B <- $xmm0
	.loc	1 238 1 is_stmt 1       # backgroundfield/vectordipole.cpp:238:1
	vmulsd	.LCPI5_2(%rip), %xmm0, %xmm0
.Ltmp76:
	movl	12(%rdi), %ecx
	vmovsd	-112(%rbp,%rcx,8), %xmm2 # xmm2 = mem[0],zero
	vmulsd	%xmm2, %xmm0, %xmm0
	vmovapd	%xmm0, -240(%rbp)       # 16-byte Spill
	vmovsd	.LCPI5_1(%rip), %xmm5   # xmm5 = mem[0],zero
	vmulsd	24(%rdi,%rcx,8), %xmm5, %xmm3
	vmovsd	-88(%rbp), %xmm0        # 8-byte Reload
                                        # xmm0 = mem[0],zero
	vaddsd	%xmm0, %xmm0, %xmm0
	vmulsd	%xmm2, %xmm0, %xmm0
	vfmsub231sd	-48(%rbp), %xmm3, %xmm0 # 8-byte Folded Reload
                                        # xmm0 = (xmm3 * mem) - xmm0
	vmulsd	%xmm5, %xmm15, %xmm2
	vxorpd	%xmm15, %xmm15, %xmm15
.Ltmp77:
	cmpl	%eax, %ecx
	vmovapd	%xmm14, -272(%rbp)      # 16-byte Spill
	je	.LBB5_20
.Ltmp78:
# %bb.21:                               # %L.B0067
	#DEBUG_VALUE: IMFdS2dx <- [DW_OP_constu 64, DW_OP_minus] [$rbp+0]
	#DEBUG_VALUE: dS2dx <- [DW_OP_constu 176, DW_OP_minus] [$rbp+0]
	#DEBUG_VALUE: IMFB <- [DW_OP_constu 16, DW_OP_minus] [$rbp+0]
	#DEBUG_VALUE: IMFss <- $xmm13
	#DEBUG_VALUE: IMFs <- $xmm10
	#DEBUG_VALUE: s <- [DW_OP_constu 72, DW_OP_minus] [$rbp+0]
	#DEBUG_VALUE: S2 <- [DW_OP_constu 24, DW_OP_minus] [$rbp+0]
	#DEBUG_VALUE: ss <- $xmm11
	#DEBUG_VALUE: r5 <- [DW_OP_constu 144, DW_OP_minus] [$rbp+0]
	#DEBUG_VALUE: r1 <- [DW_OP_constu 64, DW_OP_minus] [$rbp+0]
	#DEBUG_VALUE: r2 <- $xmm1
	#DEBUG_VALUE:  <- $rdi
	#DEBUG_VALUE: call: <- $rdi
	vxorpd	%xmm3, %xmm3, %xmm3
	jmp	.LBB5_22
.Ltmp79:
.LBB5_7:
	#DEBUG_VALUE: B <- $xmm3
	#DEBUG_VALUE: rdotq <- $xmm15
	#DEBUG_VALUE: r5 <- $xmm9
	#DEBUG_VALUE: r1 <- [DW_OP_constu 64, DW_OP_minus] [$rbp+0]
	#DEBUG_VALUE: r2 <- $xmm1
	#DEBUG_VALUE:  <- $rdi
	#DEBUG_VALUE: call: <- $rdi
	.loc	1 0 1 is_stmt 0         # backgroundfield/vectordipole.cpp:0:1
	vmovapd	%xmm3, %xmm0
	jmp	.LBB5_23
.Ltmp80:
.LBB5_14:                               # %L.B0061
	#DEBUG_VALUE: B <- $xmm3
	#DEBUG_VALUE: rdotq <- $xmm15
	#DEBUG_VALUE: r5 <- $xmm9
	#DEBUG_VALUE: r1 <- [DW_OP_constu 64, DW_OP_minus] [$rbp+0]
	#DEBUG_VALUE: r2 <- $xmm1
	#DEBUG_VALUE:  <- $rdi
	#DEBUG_VALUE: call: <- $rdi
	.loc	1 106 1 is_stmt 1       # backgroundfield/vectordipole.cpp:106:1
	vmulsd	.LCPI5_2(%rip), %xmm3, %xmm0
	movl	12(%rdi), %ecx
	vmovsd	-112(%rbp,%rcx,8), %xmm2 # xmm2 = mem[0],zero
	vmovsd	.LCPI5_1(%rip), %xmm3   # xmm3 = mem[0],zero
.Ltmp81:
	vmulsd	24(%rdi,%rcx,8), %xmm3, %xmm4
	vmulsd	%xmm2, %xmm0, %xmm0
	vaddsd	%xmm12, %xmm12, %xmm5
	vmulsd	%xmm2, %xmm5, %xmm2
	vfmsub231sd	%xmm4, %xmm14, %xmm2 # xmm2 = (xmm14 * xmm4) - xmm2
	vmulsd	%xmm3, %xmm15, %xmm3
	cmpl	%eax, %ecx
	je	.LBB5_15
.Ltmp82:
# %bb.16:                               # %L.B0061
	#DEBUG_VALUE: rdotq <- $xmm15
	#DEBUG_VALUE: r5 <- $xmm9
	#DEBUG_VALUE: r1 <- [DW_OP_constu 64, DW_OP_minus] [$rbp+0]
	#DEBUG_VALUE: r2 <- $xmm1
	#DEBUG_VALUE:  <- $rdi
	#DEBUG_VALUE: call: <- $rdi
	.loc	1 0 1 is_stmt 0         # backgroundfield/vectordipole.cpp:0:1
	vxorpd	%xmm4, %xmm4, %xmm4
	jmp	.LBB5_17
.Ltmp83:
.LBB5_20:
	#DEBUG_VALUE: IMFdS2dx <- [DW_OP_constu 64, DW_OP_minus] [$rbp+0]
	#DEBUG_VALUE: dS2dx <- [DW_OP_constu 176, DW_OP_minus] [$rbp+0]
	#DEBUG_VALUE: IMFB <- [DW_OP_constu 16, DW_OP_minus] [$rbp+0]
	#DEBUG_VALUE: IMFss <- $xmm13
	#DEBUG_VALUE: IMFs <- $xmm10
	#DEBUG_VALUE: s <- [DW_OP_constu 72, DW_OP_minus] [$rbp+0]
	#DEBUG_VALUE: S2 <- [DW_OP_constu 24, DW_OP_minus] [$rbp+0]
	#DEBUG_VALUE: ss <- $xmm11
	#DEBUG_VALUE: r5 <- [DW_OP_constu 144, DW_OP_minus] [$rbp+0]
	#DEBUG_VALUE: r1 <- [DW_OP_constu 64, DW_OP_minus] [$rbp+0]
	#DEBUG_VALUE: r2 <- $xmm1
	#DEBUG_VALUE:  <- $rdi
	#DEBUG_VALUE: call: <- $rdi
	vmovsd	.LCPI5_3(%rip), %xmm3   # xmm3 = mem[0],zero
.Ltmp84:
.LBB5_22:                               # %L.B0067
	#DEBUG_VALUE: IMFdS2dx <- [DW_OP_constu 64, DW_OP_minus] [$rbp+0]
	#DEBUG_VALUE: dS2dx <- [DW_OP_constu 176, DW_OP_minus] [$rbp+0]
	#DEBUG_VALUE: IMFB <- [DW_OP_constu 16, DW_OP_minus] [$rbp+0]
	#DEBUG_VALUE: IMFss <- $xmm13
	#DEBUG_VALUE: IMFs <- $xmm10
	#DEBUG_VALUE: s <- [DW_OP_constu 72, DW_OP_minus] [$rbp+0]
	#DEBUG_VALUE: S2 <- [DW_OP_constu 24, DW_OP_minus] [$rbp+0]
	#DEBUG_VALUE: ss <- $xmm11
	#DEBUG_VALUE: r5 <- [DW_OP_constu 144, DW_OP_minus] [$rbp+0]
	#DEBUG_VALUE: r1 <- [DW_OP_constu 64, DW_OP_minus] [$rbp+0]
	#DEBUG_VALUE: r2 <- $xmm1
	#DEBUG_VALUE:  <- $rdi
	#DEBUG_VALUE: call: <- $rdi
	vmovapd	-128(%rbp), %xmm13      # 16-byte Reload
.Ltmp85:
	.loc	1 238 1 is_stmt 1       # backgroundfield/vectordipole.cpp:238:1
	vfmadd213sd	%xmm0, %xmm2, %xmm3 # xmm3 = (xmm2 * xmm3) + xmm0
	vmovapd	%xmm3, -48(%rbp)        # 16-byte Spill
	vmovsd	.LCPI5_11(%rip), %xmm9  # xmm9 = mem[0],zero
	.loc	1 249 1                 # backgroundfield/vectordipole.cpp:249:1
	vdivsd	-144(%rbp), %xmm9, %xmm3 # 16-byte Folded Reload
	vmovapd	-192(%rbp), %xmm2       # 16-byte Reload
	vpermilpd	$1, %xmm2, %xmm0 # xmm0 = xmm2[1,0]
	vmulsd	%xmm0, %xmm3, %xmm8
	.loc	1 252 1                 # backgroundfield/vectordipole.cpp:252:1
	vmulsd	%xmm2, %xmm3, %xmm2
	vmovapd	-352(%rbp), %xmm3       # 16-byte Reload
	.loc	1 249 1                 # backgroundfield/vectordipole.cpp:249:1
	vdivsd	%xmm12, %xmm3, %xmm3
	.loc	1 251 1                 # backgroundfield/vectordipole.cpp:251:1
	vdivsd	%xmm12, %xmm13, %xmm14
	vmovapd	-336(%rbp), %xmm0       # 16-byte Reload
	.loc	1 252 1                 # backgroundfield/vectordipole.cpp:252:1
	vdivsd	%xmm12, %xmm0, %xmm5
	.loc	1 249 1                 # backgroundfield/vectordipole.cpp:249:1
	vfmadd231sd	%xmm8, %xmm4, %xmm3 # xmm3 = (xmm4 * xmm8) + xmm3
.Ltmp86:
	#DEBUG_VALUE: delAy <- [DW_OP_LLVM_fragment 0 64] $xmm3
	.loc	1 252 1                 # backgroundfield/vectordipole.cpp:252:1
	vfmsub213sd	%xmm5, %xmm2, %xmm4 # xmm4 = (xmm2 * xmm4) - xmm5
.Ltmp87:
	#DEBUG_VALUE: delAz <- [DW_OP_LLVM_fragment 0 64] $xmm4
	.loc	1 250 1                 # backgroundfield/vectordipole.cpp:250:1
	vmulsd	%xmm8, %xmm6, %xmm13
.Ltmp88:
	#DEBUG_VALUE: delAy <- [DW_OP_LLVM_fragment 64 64] $xmm13
	.loc	1 251 1                 # backgroundfield/vectordipole.cpp:251:1
	vfmsub213sd	%xmm14, %xmm7, %xmm8 # xmm8 = (xmm7 * xmm8) - xmm14
.Ltmp89:
	#DEBUG_VALUE: delAy <- [DW_OP_LLVM_fragment 128 64] $xmm8
	.loc	1 253 1                 # backgroundfield/vectordipole.cpp:253:1
	vfmadd231sd	%xmm2, %xmm6, %xmm14 # xmm14 = (xmm6 * xmm2) + xmm14
.Ltmp90:
	#DEBUG_VALUE: delAz <- [DW_OP_LLVM_fragment 64 64] $xmm14
	.loc	1 254 1                 # backgroundfield/vectordipole.cpp:254:1
	vmulsd	%xmm2, %xmm7, %xmm2
.Ltmp91:
	#DEBUG_VALUE: delAz <- [DW_OP_LLVM_fragment 128 64] $xmm2
	.loc	1 351 1                 # backgroundfield/vectordipole.cpp:351:1
	vmulsd	%xmm9, %xmm11, %xmm5
.Ltmp92:
	.loc	1 277 1                 # backgroundfield/vectordipole.cpp:277:1
	vaddsd	%xmm11, %xmm11, %xmm6
	#DEBUG_VALUE: delAz <- [DW_OP_LLVM_fragment 128 64] $xmm2
.Ltmp93:
	#DEBUG_VALUE: delAz <- [DW_OP_LLVM_fragment 64 64] $xmm14
	#DEBUG_VALUE: delAy <- [DW_OP_LLVM_fragment 128 64] $xmm8
	#DEBUG_VALUE: delAy <- [DW_OP_LLVM_fragment 64 64] $xmm13
	#DEBUG_VALUE: delAz <- [DW_OP_LLVM_fragment 0 64] $xmm4
	#DEBUG_VALUE: delAy <- [DW_OP_LLVM_fragment 0 64] $xmm3
	.loc	1 0 1 is_stmt 0         # backgroundfield/vectordipole.cpp:0:1
	vmovsd	-72(%rbp), %xmm0        # 8-byte Reload
                                        # xmm0 = mem[0],zero
	.loc	1 277 1                 # backgroundfield/vectordipole.cpp:277:1
	vfmadd231sd	%xmm6, %xmm0, %xmm5 # xmm5 = (xmm0 * xmm6) + xmm5
	vaddsd	%xmm5, %xmm0, %xmm5
	vmulsd	.LCPI5_9(%rip), %xmm5, %xmm5
	.loc	1 323 1 is_stmt 1       # backgroundfield/vectordipole.cpp:323:1
	vunpcklpd	%xmm3, %xmm2, %xmm9 # xmm9 = xmm2[0],xmm3[0]
	vmovsd	-80(%rbp), %xmm0        # 8-byte Reload
                                        # xmm0 = mem[0],zero
	.loc	1 277 1                 # backgroundfield/vectordipole.cpp:277:1
	vmulsd	%xmm0, %xmm0, %xmm2
.Ltmp94:
	vdivsd	%xmm2, %xmm5, %xmm5
.Ltmp95:
	#DEBUG_VALUE: deldS2dx <- [DW_OP_LLVM_fragment 128 64] 0.000000e+00
	#DEBUG_VALUE: deldS2dx <- [DW_OP_LLVM_fragment 64 64] 0.000000e+00
	#DEBUG_VALUE: deldS2dx <- [DW_OP_LLVM_fragment 0 64] $xmm5
	.loc	1 0 1 is_stmt 0         # backgroundfield/vectordipole.cpp:0:1
	vmovapd	-256(%rbp), %xmm3       # 16-byte Reload
.Ltmp96:
	.loc	1 321 1 is_stmt 1       # backgroundfield/vectordipole.cpp:321:1
	vmulsd	%xmm5, %xmm3, %xmm10
.Ltmp97:
	.loc	1 0 1 is_stmt 0         # backgroundfield/vectordipole.cpp:0:1
	vmovapd	-160(%rbp), %xmm6       # 16-byte Reload
	.loc	1 321 1                 # backgroundfield/vectordipole.cpp:321:1
	vfmsub231sd	%xmm4, %xmm6, %xmm10 # xmm10 = (xmm6 * xmm4) - xmm10
	.loc	1 322 1 is_stmt 1       # backgroundfield/vectordipole.cpp:322:1
	vmovapd	.LCPI5_14(%rip), %xmm2  # xmm2 = <-0.0E+0,u>
	vunpcklpd	%xmm5, %xmm2, %xmm7 # xmm7 = xmm2[0],xmm5[0]
	vmulpd	%xmm7, %xmm3, %xmm4
.Ltmp98:
	vfmadd213sd	%xmm4, %xmm6, %xmm14 # xmm14 = (xmm6 * xmm14) + xmm4
.Ltmp99:
	.loc	1 0 1 is_stmt 0         # backgroundfield/vectordipole.cpp:0:1
	vmovapd	-176(%rbp), %xmm0       # 16-byte Reload
	.loc	1 323 1 is_stmt 1       # backgroundfield/vectordipole.cpp:323:1
	vunpcklpd	%xmm0, %xmm6, %xmm2 # xmm2 = xmm6[0],xmm0[0]
	vfmadd213pd	%xmm4, %xmm9, %xmm2 # xmm2 = (xmm9 * xmm2) + xmm4
	.loc	1 326 1                 # backgroundfield/vectordipole.cpp:326:1
	vpermilpd	$1, %xmm3, %xmm3 # xmm3 = xmm3[1,0]
	vmulsd	%xmm15, %xmm3, %xmm3
	vfmadd213sd	%xmm3, %xmm0, %xmm13 # xmm13 = (xmm0 * xmm13) + xmm3
.Ltmp100:
	.loc	1 327 1                 # backgroundfield/vectordipole.cpp:327:1
	vfmadd213sd	%xmm3, %xmm0, %xmm8 # xmm8 = (xmm0 * xmm8) + xmm3
.Ltmp101:
	.loc	1 0 1 is_stmt 0         # backgroundfield/vectordipole.cpp:0:1
	vmovsd	.LCPI5_12(%rip), %xmm3  # xmm3 = mem[0],zero
.Ltmp102:
	#DEBUG_VALUE: IMFdelAx <- [DW_OP_LLVM_fragment 128 64] undef
	#DEBUG_VALUE: IMFdelAx <- [DW_OP_LLVM_fragment 64 64] undef
	#DEBUG_VALUE: IMFdelAx <- [DW_OP_LLVM_fragment 0 64] 0.000000e+00
	.loc	1 268 1 is_stmt 1       # backgroundfield/vectordipole.cpp:268:1
	vmulsd	-288(%rbp), %xmm3, %xmm9 # 16-byte Folded Reload
.Ltmp103:
	#DEBUG_VALUE: IMFdelAy <- [DW_OP_LLVM_fragment 0 64] $xmm9
	.loc	1 0 1 is_stmt 0         # backgroundfield/vectordipole.cpp:0:1
	vmovsd	.LCPI5_13(%rip), %xmm4  # xmm4 = mem[0],zero
.Ltmp104:
	#DEBUG_VALUE: IMFdelAy <- [DW_OP_LLVM_fragment 64 64] 0.000000e+00
	.loc	1 271 1 is_stmt 1       # backgroundfield/vectordipole.cpp:271:1
	vmulsd	-304(%rbp), %xmm4, %xmm6 # 16-byte Folded Reload
.Ltmp105:
	#DEBUG_VALUE: IMFdelAz <- [DW_OP_LLVM_fragment 0 64] $xmm6
	.loc	1 0 1 is_stmt 0         # backgroundfield/vectordipole.cpp:0:1
	vmovapd	-320(%rbp), %xmm0       # 16-byte Reload
	.loc	1 270 1 is_stmt 1       # backgroundfield/vectordipole.cpp:270:1
	vmulsd	%xmm4, %xmm0, %xmm4
.Ltmp106:
	#DEBUG_VALUE: IMFdelAy <- [DW_OP_LLVM_fragment 128 64] $xmm4
	.loc	1 272 1                 # backgroundfield/vectordipole.cpp:272:1
	vmulsd	%xmm3, %xmm0, %xmm3
.Ltmp107:
	#DEBUG_VALUE: IMFdelAz <- [DW_OP_LLVM_fragment 128 64] 0.000000e+00
	#DEBUG_VALUE: IMFdelAz <- [DW_OP_LLVM_fragment 64 64] $xmm3
	.loc	1 0 1 is_stmt 0         # backgroundfield/vectordipole.cpp:0:1
	vmovapd	-272(%rbp), %xmm12      # 16-byte Reload
	.loc	1 337 1 is_stmt 1       # backgroundfield/vectordipole.cpp:337:1
	vmulsd	%xmm5, %xmm12, %xmm5
.Ltmp108:
	.loc	1 0 1 is_stmt 0         # backgroundfield/vectordipole.cpp:0:1
	vmovapd	-64(%rbp), %xmm0        # 16-byte Reload
.Ltmp109:
	#DEBUG_VALUE: IMFdS2dx <- $xmm0
	.loc	1 337 1                 # backgroundfield/vectordipole.cpp:337:1
	vfnmsub231sd	%xmm6, %xmm0, %xmm5 # xmm5 = -(xmm0 * xmm6) - xmm5
.Ltmp110:
	.loc	1 351 1 is_stmt 1       # backgroundfield/vectordipole.cpp:351:1
	vmovddup	.LCPI5_15(%rip), %xmm6 # xmm6 = [-0.0E+0,-0.0E+0]
                                        # xmm6 = mem[0,0]
.Ltmp111:
	vxorpd	%xmm6, %xmm0, %xmm6
.Ltmp112:
	.loc	1 338 1                 # backgroundfield/vectordipole.cpp:338:1
	vmulpd	%xmm7, %xmm12, %xmm7
.Ltmp113:
	#DEBUG_VALUE: IMFdelAz <- [DW_OP_LLVM_fragment 128 64] 0.000000e+00
	#DEBUG_VALUE: IMFdelAz <- [DW_OP_LLVM_fragment 64 64] $xmm3
	#DEBUG_VALUE: IMFdelAy <- [DW_OP_LLVM_fragment 128 64] $xmm4
	#DEBUG_VALUE: IMFdelAy <- [DW_OP_LLVM_fragment 64 64] 0.000000e+00
	#DEBUG_VALUE: IMFdelAy <- [DW_OP_LLVM_fragment 0 64] $xmm9
	#DEBUG_VALUE: IMFdelAx <- [DW_OP_LLVM_fragment 0 64] 0.000000e+00
	#DEBUG_VALUE: deldS2dx <- [DW_OP_LLVM_fragment 128 64] 0.000000e+00
	#DEBUG_VALUE: deldS2dx <- [DW_OP_LLVM_fragment 64 64] 0.000000e+00
	.loc	1 339 1                 # backgroundfield/vectordipole.cpp:339:1
	vunpcklpd	%xmm0, %xmm6, %xmm6 # xmm6 = xmm6[0],xmm0[0]
	.loc	1 318 1                 # backgroundfield/vectordipole.cpp:318:1
	vxorpd	%xmm11, %xmm11, %xmm11
.Ltmp114:
	.loc	1 339 1                 # backgroundfield/vectordipole.cpp:339:1
	vunpcklpd	%xmm9, %xmm11, %xmm9 # xmm9 = xmm11[0],xmm9[0]
.Ltmp115:
	vfmadd213pd	%xmm7, %xmm6, %xmm9 # xmm9 = (xmm6 * xmm9) + xmm7
	.loc	1 338 1                 # backgroundfield/vectordipole.cpp:338:1
	vfnmadd213sd	%xmm7, %xmm0, %xmm3 # xmm3 = -(xmm0 * xmm3) + xmm7
.Ltmp116:
	.loc	1 342 1                 # backgroundfield/vectordipole.cpp:342:1
	vpermilpd	$1, %xmm12, %xmm6 # xmm6 = xmm12[1,0]
	vmulsd	%xmm15, %xmm6, %xmm6
	vfmadd213sd	%xmm6, %xmm0, %xmm15 # xmm15 = (xmm0 * xmm15) + xmm6
	.loc	1 343 1                 # backgroundfield/vectordipole.cpp:343:1
	vfmadd213sd	%xmm6, %xmm0, %xmm4 # xmm4 = (xmm0 * xmm4) + xmm6
.Ltmp117:
	.loc	1 0 1 is_stmt 0         # backgroundfield/vectordipole.cpp:0:1
	vmovapd	-48(%rbp), %xmm0        # 16-byte Reload
.Ltmp118:
	.loc	1 238 1 is_stmt 1       # backgroundfield/vectordipole.cpp:238:1
	vunpcklpd	-240(%rbp), %xmm0, %xmm6 # 16-byte Folded Reload
                                        # xmm6 = xmm0[0],mem[0]
	vmovapd	-144(%rbp), %xmm0       # 16-byte Reload
.Ltmp119:
	#DEBUG_VALUE: r5 <- $xmm0
	vunpcklpd	%xmm1, %xmm0, %xmm1 # xmm1 = xmm0[0],xmm1[0]
.Ltmp120:
	.loc	1 318 1                 # backgroundfield/vectordipole.cpp:318:1
	vmovapd	%xmm11, -576(%rbp)
	movq	$0, -560(%rbp)
	.loc	1 321 1                 # backgroundfield/vectordipole.cpp:321:1
	vmovsd	%xmm10, -552(%rbp)
	.loc	1 322 1                 # backgroundfield/vectordipole.cpp:322:1
	vmovsd	%xmm14, -544(%rbp)
	.loc	1 323 1                 # backgroundfield/vectordipole.cpp:323:1
	vmovupd	%xmm2, -536(%rbp)
	.loc	1 326 1                 # backgroundfield/vectordipole.cpp:326:1
	vmovsd	%xmm13, -520(%rbp)
	.loc	1 238 1                 # backgroundfield/vectordipole.cpp:238:1
	vdivpd	%xmm1, %xmm6, %xmm1
	.loc	1 327 1                 # backgroundfield/vectordipole.cpp:327:1
	vmovsd	%xmm8, -512(%rbp)
	.loc	1 334 1                 # backgroundfield/vectordipole.cpp:334:1
	vmovapd	%xmm11, -496(%rbp)
	.loc	1 238 1                 # backgroundfield/vectordipole.cpp:238:1
	vpermilpd	$1, %xmm1, %xmm0 # xmm0 = xmm1[1,0]
.Ltmp121:
	vsubsd	%xmm0, %xmm1, %xmm0
.Ltmp122:
	#DEBUG_VALUE: delB <- $xmm0
	.loc	1 334 1                 # backgroundfield/vectordipole.cpp:334:1
	movq	$0, -480(%rbp)
	.loc	1 337 1                 # backgroundfield/vectordipole.cpp:337:1
	vmovsd	%xmm5, -472(%rbp)
	.loc	1 338 1                 # backgroundfield/vectordipole.cpp:338:1
	vmovsd	%xmm3, -464(%rbp)
	.loc	1 339 1                 # backgroundfield/vectordipole.cpp:339:1
	vmovupd	%xmm9, -456(%rbp)
	.loc	1 342 1                 # backgroundfield/vectordipole.cpp:342:1
	vmovsd	%xmm15, -440(%rbp)
	vmovsd	-8(%rbp), %xmm1         # 8-byte Reload
                                        # xmm1 = mem[0],zero
	.loc	1 346 1                 # backgroundfield/vectordipole.cpp:346:1
	vmulsd	-424(%rbp,%rcx,8), %xmm1, %xmm1
	vfmadd231sd	-24(%rbp), %xmm0, %xmm1 # 8-byte Folded Reload
                                        # xmm1 = (xmm0 * mem) + xmm1
	.loc	1 343 1                 # backgroundfield/vectordipole.cpp:343:1
	vmovsd	%xmm4, -432(%rbp)
	.loc	1 346 1                 # backgroundfield/vectordipole.cpp:346:1
	leaq	(%rax,%rax,2), %rax
	shlq	$3, %rax
	leaq	(%rax,%rcx,8), %rax
	vaddsd	-576(%rbp,%rax), %xmm1, %xmm0
.Ltmp123:
	.loc	1 0 1 is_stmt 0         # backgroundfield/vectordipole.cpp:0:1
	vmovsd	-16(%rbp), %xmm1        # 8-byte Reload
                                        # xmm1 = mem[0],zero
	.loc	1 346 1                 # backgroundfield/vectordipole.cpp:346:1
	vfmadd231sd	-400(%rbp,%rcx,8), %xmm1, %xmm0 # xmm0 = (xmm1 * mem) + xmm0
	vaddsd	-496(%rbp,%rax), %xmm0, %xmm0
	jmp	.LBB5_23
.Ltmp124:
.LBB5_15:
	#DEBUG_VALUE: rdotq <- $xmm15
	#DEBUG_VALUE: r5 <- $xmm9
	#DEBUG_VALUE: r1 <- [DW_OP_constu 64, DW_OP_minus] [$rbp+0]
	#DEBUG_VALUE: r2 <- $xmm1
	#DEBUG_VALUE:  <- $rdi
	#DEBUG_VALUE: call: <- $rdi
	.loc	1 0 1                   # backgroundfield/vectordipole.cpp:0:1
	vmovsd	.LCPI5_3(%rip), %xmm4   # xmm4 = mem[0],zero
.Ltmp125:
.LBB5_17:                               # %L.B0061
	#DEBUG_VALUE: rdotq <- $xmm15
	#DEBUG_VALUE: r5 <- $xmm9
	#DEBUG_VALUE: r1 <- [DW_OP_constu 64, DW_OP_minus] [$rbp+0]
	#DEBUG_VALUE: r2 <- $xmm1
	#DEBUG_VALUE:  <- $rdi
	#DEBUG_VALUE: call: <- $rdi
	.loc	1 106 1 is_stmt 1       # backgroundfield/vectordipole.cpp:106:1
	vfmadd213sd	%xmm2, %xmm3, %xmm4 # xmm4 = (xmm3 * xmm4) + xmm2
	vunpcklpd	%xmm0, %xmm4, %xmm0 # xmm0 = xmm4[0],xmm0[0]
	vunpcklpd	%xmm1, %xmm9, %xmm1 # xmm1 = xmm9[0],xmm1[0]
.Ltmp126:
	vdivpd	%xmm1, %xmm0, %xmm0
	vpermilpd	$1, %xmm0, %xmm1 # xmm1 = xmm0[1,0]
	vsubsd	%xmm1, %xmm0, %xmm0
.Ltmp127:
.LBB5_23:                               # %L.B0049
	#DEBUG_VALUE:  <- $rdi
	#DEBUG_VALUE: call: <- $rdi
	.loc	1 0 0 is_stmt 0         # backgroundfield/vectordipole.cpp:0:0
	addq	$448, %rsp              # imm = 0x1C0
	popq	%rbp
	.cfi_def_cfa %rsp, 8
	retq
.Ltmp128:
.Lfunc_end5:
	.size	_ZNK12VectorDipole4callEddd, .Lfunc_end5-_ZNK12VectorDipole4callEddd
	.cfi_endproc
                                        # -- End function
	.weak	_ZN12VectorDipoleD1Ev   # -- Begin function _ZN12VectorDipoleD1Ev
	.p2align	4, 0x90
	.type	_ZN12VectorDipoleD1Ev,@function
_ZN12VectorDipoleD1Ev:                  # @_ZN12VectorDipoleD1Ev
.Lfunc_begin6:
	.file	4 "/home/talgat/vlasiator/backgroundfield/vectordipole.hpp"
	.loc	4 47 0 is_stmt 1        # backgroundfield/vectordipole.hpp:47:0
	.cfi_startproc
# %bb.0:                                # %L.entry
	#DEBUG_VALUE: ~VectorDipole: <- $rdi
	#DEBUG_VALUE: ~VectorDipole: <- $rdi
	pushq	%rbp
	.cfi_def_cfa_offset 16
	.cfi_offset %rbp, -16
	movq	%rsp, %rbp
	.cfi_def_cfa_register %rbp
.Ltmp129:
	#DEBUG_VALUE:  <- $rdi
	#DEBUG_VALUE:  <- $rdi
	.loc	4 47 1 prologue_end     # backgroundfield/vectordipole.hpp:47:1
	movq	$_ZTV11T3DFunction+16, (%rdi)
	popq	%rbp
	.cfi_def_cfa %rsp, 8
	retq
.Ltmp130:
.Lfunc_end6:
	.size	_ZN12VectorDipoleD1Ev, .Lfunc_end6-_ZN12VectorDipoleD1Ev
	.cfi_endproc
                                        # -- End function
	.weak	_ZN12VectorDipoleD0Ev   # -- Begin function _ZN12VectorDipoleD0Ev
	.p2align	4, 0x90
	.type	_ZN12VectorDipoleD0Ev,@function
_ZN12VectorDipoleD0Ev:                  # @_ZN12VectorDipoleD0Ev
.Lfunc_begin7:
	.loc	1 0 0                   # backgroundfield/vectordipole.cpp:0:0
	.cfi_startproc
# %bb.0:                                # %L.entry
	pushq	%rbp
	.cfi_def_cfa_offset 16
	.cfi_offset %rbp, -16
	movq	%rsp, %rbp
	.cfi_def_cfa_register %rbp
.Ltmp131:
	.loc	1 47 1 prologue_end     # backgroundfield/vectordipole.cpp:47:1
	movl	$112, %esi
	popq	%rbp
	.cfi_def_cfa %rsp, 8
	jmp	_ZdlPvm                 # TAILCALL
.Ltmp132:
.Lfunc_end7:
	.size	_ZN12VectorDipoleD0Ev, .Lfunc_end7-_ZN12VectorDipoleD0Ev
	.cfi_endproc
                                        # -- End function
	.globl	__sti___32_backgroundfield_vectordipole_cpp_83390dc3 # -- Begin function __sti___32_backgroundfield_vectordipole_cpp_83390dc3
	.p2align	4, 0x90
	.type	__sti___32_backgroundfield_vectordipole_cpp_83390dc3,@function
__sti___32_backgroundfield_vectordipole_cpp_83390dc3: # @__sti___32_backgroundfield_vectordipole_cpp_83390dc3
.Lfunc_begin8:
	.loc	1 0 0                   # backgroundfield/vectordipole.cpp:0:0
	.cfi_startproc
# %bb.0:                                # %L.entry
	pushq	%rbp
	.cfi_def_cfa_offset 16
	.cfi_offset %rbp, -16
	movq	%rsp, %rbp
	.cfi_def_cfa_register %rbp
.Ltmp133:
	.loc	1 74 1 prologue_end     # backgroundfield/vectordipole.cpp:74:1
	cmpl	$1, __I___32_backgroundfield_vectordipole_cpp_83390dc3(%rip)
	jne	.LBB8_2
# %bb.1:                                # %L.B0022
	popq	%rbp
	.cfi_def_cfa %rsp, 8
	retq
.LBB8_2:                                # %L.B0075
	.cfi_def_cfa %rbp, 16
	movl	$1, __I___32_backgroundfield_vectordipole_cpp_83390dc3(%rip)
	movl	$_ZN54_INTERNAL_32_backgroundfield_vectordipole_cpp_83390dc3St8__ioinitE, %edi
	callq	_ZNSt8ios_base4InitC1Ev
	movl	$_ZNSt8ios_base4InitD1Ev, %edi
	movl	$_ZN54_INTERNAL_32_backgroundfield_vectordipole_cpp_83390dc3St8__ioinitE, %esi
	movl	$__dso_handle, %edx
	popq	%rbp
	.cfi_def_cfa %rsp, 8
	jmp	__cxa_atexit            # TAILCALL
.Ltmp134:
.Lfunc_end8:
	.size	__sti___32_backgroundfield_vectordipole_cpp_83390dc3, .Lfunc_end8-__sti___32_backgroundfield_vectordipole_cpp_83390dc3
	.cfi_endproc
                                        # -- End function
	.type	_ZTV11T3DFunction,@object # @_ZTV11T3DFunction
	.data
	.weak	_ZTV11T3DFunction
	.p2align	4
_ZTV11T3DFunction:
	.quad	0
	.quad	_ZTI11T3DFunction
	.quad	__cxa_pure_virtual
	.quad	_ZN11T3DFunctionD1Ev
	.quad	_ZN11T3DFunctionD0Ev
	.size	_ZTV11T3DFunction, 40

	.type	_ZTV13FieldFunction,@object # @_ZTV13FieldFunction
	.weak	_ZTV13FieldFunction
	.p2align	4
_ZTV13FieldFunction:
	.quad	0
	.quad	_ZTI13FieldFunction
	.quad	__cxa_pure_virtual
	.quad	_ZN13FieldFunctionD1Ev
	.quad	_ZN13FieldFunctionD0Ev
	.size	_ZTV13FieldFunction, 40

	.type	_ZTV12VectorDipole,@object # @_ZTV12VectorDipole
	.weak	_ZTV12VectorDipole
	.p2align	4
_ZTV12VectorDipole:
	.quad	0
	.quad	_ZTI12VectorDipole
	.quad	_ZNK12VectorDipole4callEddd
	.quad	_ZN12VectorDipoleD1Ev
	.quad	_ZN12VectorDipoleD0Ev
	.size	_ZTV12VectorDipole, 40

	.type	_ZTI11T3DFunction,@object # @_ZTI11T3DFunction
	.weak	_ZTI11T3DFunction
	.p2align	4
_ZTI11T3DFunction:
	.quad	_ZTVN10__cxxabiv117__class_type_infoE+16
	.quad	_ZTS11T3DFunction
	.size	_ZTI11T3DFunction, 16

	.type	_ZTI13FieldFunction,@object # @_ZTI13FieldFunction
	.weak	_ZTI13FieldFunction
	.p2align	4
_ZTI13FieldFunction:
	.quad	_ZTVN10__cxxabiv120__si_class_type_infoE+16
	.quad	_ZTS13FieldFunction
	.quad	_ZTI11T3DFunction
	.size	_ZTI13FieldFunction, 24

	.type	_ZTI12VectorDipole,@object # @_ZTI12VectorDipole
	.weak	_ZTI12VectorDipole
	.p2align	4
_ZTI12VectorDipole:
	.quad	_ZTVN10__cxxabiv120__si_class_type_infoE+16
	.quad	_ZTS12VectorDipole
	.quad	_ZTI13FieldFunction
	.size	_ZTI12VectorDipole, 24

	.type	_ZTS11T3DFunction,@object # @_ZTS11T3DFunction
	.weak	_ZTS11T3DFunction
	.p2align	3
_ZTS11T3DFunction:
	.asciz	"11T3DFunction"
	.size	_ZTS11T3DFunction, 14

	.type	_ZTS13FieldFunction,@object # @_ZTS13FieldFunction
	.weak	_ZTS13FieldFunction
	.p2align	4
_ZTS13FieldFunction:
	.asciz	"13FieldFunction"
	.size	_ZTS13FieldFunction, 16

	.type	_ZTS12VectorDipole,@object # @_ZTS12VectorDipole
	.weak	_ZTS12VectorDipole
	.p2align	3
_ZTS12VectorDipole:
	.asciz	"12VectorDipole"
	.size	_ZTS12VectorDipole, 15

	.type	__I___32_backgroundfield_vectordipole_cpp_83390dc3,@object # @__I___32_backgroundfield_vectordipole_cpp_83390dc3
	.bss
	.globl	__I___32_backgroundfield_vectordipole_cpp_83390dc3
	.p2align	2
__I___32_backgroundfield_vectordipole_cpp_83390dc3:
	.long	0                       # 0x0
	.size	__I___32_backgroundfield_vectordipole_cpp_83390dc3, 4

	.type	_ZN54_INTERNAL_32_backgroundfield_vectordipole_cpp_83390dc3St8__ioinitE,@object # @_ZN54_INTERNAL_32_backgroundfield_vectordipole_cpp_83390dc3St8__ioinitE
	.local	_ZN54_INTERNAL_32_backgroundfield_vectordipole_cpp_83390dc3St8__ioinitE
	.comm	_ZN54_INTERNAL_32_backgroundfield_vectordipole_cpp_83390dc3St8__ioinitE,1,1
	.section	.init_array,"aw",@init_array
	.p2align	3
	.quad	__sti___32_backgroundfield_vectordipole_cpp_83390dc3
	.section	".note.GNU-stack","",@progbits