; ModuleID = 'backgroundfield/vectordipole.cpp'
target datalayout = "e-p:64:64-i64:64-f80:128-n8:16:32:64-S128"
target triple = "x86_64-pc-linux-gnu"
define internal void @pgCplus_compiled.() noinline {
L.entry:
	ret void
}

%struct.T3DFunction = type <{ i32 (...)* (...)*}> 



define linkonce_odr void @_ZN11T3DFunctionD1Ev(%struct.T3DFunction* %_T18222616_8104.arg) #0 inlinehint !dbg !1389 {
L.entry:
	%_T18222616_8104.addr = alloca %struct.T3DFunction*, align 8

	call void @llvm.dbg.declare (metadata %struct.T3DFunction** %_T18222616_8104.addr, metadata !1393, metadata !1394), !dbg !1390
	store %struct.T3DFunction* %_T18222616_8104.arg, %struct.T3DFunction** %_T18222616_8104.addr, align 8, !tbaa !1404
	call void @llvm.dbg.declare (metadata %struct.T3DFunction** %_T18222616_8104.addr, metadata !1395, metadata !1394), !dbg !1390
	%0 = bitcast [5 x i32 (...)* (...)*]* @_ZTV11T3DFunction to i8*, !dbg !1396
	%1 = getelementptr i8, i8*  %0, i64 16, !dbg !1396
	%2 = load %struct.T3DFunction*, %struct.T3DFunction** %_T18222616_8104.addr, align 8, !tbaa !1404, !dbg !1396
	%3 = bitcast %struct.T3DFunction*  %2 to i8**, !dbg !1396
	store i8*  %1, i8**  %3, align 8, !tbaa !1404, !dbg !1396
	ret void, !dbg !1396
}
define linkonce_odr void @_ZN11T3DFunctionD0Ev(%struct.T3DFunction* %_T18222616_8105.arg) #0 inlinehint !dbg !1406 {
L.entry:
	%_T18222616_8105.addr = alloca %struct.T3DFunction*, align 8

	store %struct.T3DFunction* %_T18222616_8105.arg, %struct.T3DFunction** %_T18222616_8105.addr, align 8, !tbaa !1404
	%0 = bitcast [5 x i32 (...)* (...)*]* @_ZTV11T3DFunction to i8*, !dbg !1414
	%1 = getelementptr i8, i8*  %0, i64 16, !dbg !1414
	%2 = load %struct.T3DFunction*, %struct.T3DFunction** %_T18222616_8105.addr, align 8, !tbaa !1404, !dbg !1414
	%3 = bitcast %struct.T3DFunction*  %2 to i8**, !dbg !1414
	store i8*  %1, i8**  %3, align 8, !tbaa !1404, !dbg !1414
	%4 = bitcast %struct.T3DFunction*  %2 to i8*, !dbg !1414
	call void  @_ZdlPvm (i8*  %4, i64 8) nounwind, !dbg !1414
	ret void, !dbg !1414
}
define linkonce_odr void @_ZN11T3DFunctionD2Ev(%struct.T3DFunction* %_T18222616_8106.arg) #0 inlinehint !dbg !1416 {
L.entry:
	%_T18222616_8106.addr = alloca %struct.T3DFunction*, align 8

	store %struct.T3DFunction* %_T18222616_8106.arg, %struct.T3DFunction** %_T18222616_8106.addr, align 8, !tbaa !1404
	%0 = bitcast [5 x i32 (...)* (...)*]* @_ZTV11T3DFunction to i8*, !dbg !1424
	%1 = getelementptr i8, i8*  %0, i64 16, !dbg !1424
	%2 = load %struct.T3DFunction*, %struct.T3DFunction** %_T18222616_8106.addr, align 8, !tbaa !1404, !dbg !1424
	%3 = bitcast %struct.T3DFunction*  %2 to i8**, !dbg !1424
	store i8*  %1, i8**  %3, align 8, !tbaa !1404, !dbg !1424
	ret void, !dbg !1424
}

%struct.FieldFunction = type <{ %struct.T3DFunction, i32, i32, i32, [4 x i8]}> 

define linkonce_odr void @_ZN13FieldFunctionD1Ev(%struct.FieldFunction* %_T18222616_8107.arg) #0 inlinehint !dbg !1431 {
L.entry:
	%_T18222616_8107.addr = alloca %struct.FieldFunction*, align 8

	call void @llvm.dbg.declare (metadata %struct.FieldFunction** %_T18222616_8107.addr, metadata !1443, metadata !1394), !dbg !1432
	store %struct.FieldFunction* %_T18222616_8107.arg, %struct.FieldFunction** %_T18222616_8107.addr, align 8, !tbaa !1404
	call void @llvm.dbg.declare (metadata %struct.FieldFunction** %_T18222616_8107.addr, metadata !1444, metadata !1394), !dbg !1432
	%0 = bitcast [5 x i32 (...)* (...)*]* @_ZTV13FieldFunction to i8*, !dbg !1445
	%1 = getelementptr i8, i8*  %0, i64 16, !dbg !1445
	%2 = load %struct.FieldFunction*, %struct.FieldFunction** %_T18222616_8107.addr, align 8, !tbaa !1404, !dbg !1445
	%3 = bitcast %struct.FieldFunction*  %2 to i8**, !dbg !1445
	store i8*  %1, i8**  %3, align 8, !tbaa !1404, !dbg !1445
	%4 = bitcast [5 x i32 (...)* (...)*]* @_ZTV11T3DFunction to i8*, !dbg !1445
	%5 = getelementptr i8, i8*  %4, i64 16, !dbg !1445
	store i8*  %5, i8**  %3, align 8, !tbaa !1404, !dbg !1445
	ret void, !dbg !1445
}
define linkonce_odr void @_ZN13FieldFunctionD0Ev(%struct.FieldFunction* %_T18222616_8108.arg) #0 inlinehint !dbg !1449 {
L.entry:
	%_T18222616_8108.addr = alloca %struct.FieldFunction*, align 8
	%..inline.addr = alloca %struct.FieldFunction*, align 8

	store %struct.FieldFunction* %_T18222616_8108.arg, %struct.FieldFunction** %_T18222616_8108.addr, align 8, !tbaa !1404
	%0 = load %struct.FieldFunction*, %struct.FieldFunction** %_T18222616_8108.addr, align 8, !tbaa !1404, !dbg !1465
	%1 = bitcast %struct.FieldFunction*  %0 to i8*, !dbg !1465
	%2 = bitcast %struct.FieldFunction** %..inline.addr to i8**, !dbg !1465
	store i8*  %1, i8**  %2, align 8, !tbaa !1404, !dbg !1465
	%3 = bitcast [5 x i32 (...)* (...)*]* @_ZTV13FieldFunction to i8*, !dbg !1465
	%4 = getelementptr i8, i8*  %3, i64 16, !dbg !1465
	%5 = load %struct.FieldFunction*, %struct.FieldFunction** %..inline.addr, align 8, !tbaa !1404, !dbg !1465
	%6 = bitcast %struct.FieldFunction*  %5 to i8**, !dbg !1465
	store i8*  %4, i8**  %6, align 8, !tbaa !1404, !dbg !1465
	%7 = bitcast [5 x i32 (...)* (...)*]* @_ZTV11T3DFunction to i8*, !dbg !1465
	%8 = getelementptr i8, i8*  %7, i64 16, !dbg !1465
	store i8*  %8, i8**  %6, align 8, !tbaa !1404, !dbg !1465
	call void  @_ZdlPvm (i8*  %1, i64 24) nounwind, !dbg !1465
	ret void, !dbg !1465
}
define linkonce_odr void @_ZN13FieldFunctionD2Ev(%struct.FieldFunction* %_T18222616_8109.arg) #0 inlinehint !dbg !1467 {
L.entry:
	%_T18222616_8109.addr = alloca %struct.FieldFunction*, align 8
	%..inline.addr = alloca %struct.FieldFunction*, align 8

	store %struct.FieldFunction* %_T18222616_8109.arg, %struct.FieldFunction** %_T18222616_8109.addr, align 8, !tbaa !1404
	%0 = load %struct.FieldFunction*, %struct.FieldFunction** %_T18222616_8109.addr, align 8, !tbaa !1404, !dbg !1483
	%1 = bitcast %struct.FieldFunction*  %0 to i8*, !dbg !1483
	%2 = bitcast %struct.FieldFunction** %..inline.addr to i8**, !dbg !1483
	store i8*  %1, i8**  %2, align 8, !tbaa !1404, !dbg !1483
	%3 = bitcast [5 x i32 (...)* (...)*]* @_ZTV13FieldFunction to i8*, !dbg !1483
	%4 = getelementptr i8, i8*  %3, i64 16, !dbg !1483
	%5 = load %struct.FieldFunction*, %struct.FieldFunction** %..inline.addr, align 8, !tbaa !1404, !dbg !1483
	%6 = bitcast %struct.FieldFunction*  %5 to i8**, !dbg !1483
	store i8*  %4, i8**  %6, align 8, !tbaa !1404, !dbg !1483
	%7 = bitcast [5 x i32 (...)* (...)*]* @_ZTV11T3DFunction to i8*, !dbg !1483
	%8 = getelementptr i8, i8*  %7, i64 16, !dbg !1483
	store i8*  %8, i8**  %6, align 8, !tbaa !1404, !dbg !1483
	ret void, !dbg !1483
}

%struct.VectorDipole = type <{ %struct.__SO__13FieldFunction, i8, [3 x i8], [3 x double], [3 x double], [2 x double], [3 x double]}> 
%struct.__SO__13FieldFunction = type <{ %struct.T3DFunction, i32, i32, i32}> 

define void @_ZN12VectorDipole10initializeEddddddddddd(%struct.VectorDipole* %_T18224824_8110.arg, double %moment.arg, double %center_x.arg, double %center_y.arg, double %center_z.arg, double %tilt_angle_phi.arg, double %tilt_angle_theta.arg, double %xlimit_f.arg, double %xlimit_z.arg, double %IMF_Bx.arg, double %IMF_By.arg, double %IMF_Bz.arg) #0 inlinehint !dbg !1488 {
L.entry:
	%_T18224824_8110.addr = alloca %struct.VectorDipole*, align 8
	%moment.addr = alloca double, align 8
	%center_x.addr = alloca double, align 8
	%center_y.addr = alloca double, align 8
	%center_z.addr = alloca double, align 8
	%tilt_angle_phi.addr = alloca double, align 8
	%tilt_angle_theta.addr = alloca double, align 8
	%xlimit_f.addr = alloca double, align 8
	%xlimit_z.addr = alloca double, align 8
	%IMF_Bx.addr = alloca double, align 8
	%IMF_By.addr = alloca double, align 8
	%IMF_Bz.addr = alloca double, align 8

	call void @llvm.dbg.declare (metadata %struct.VectorDipole** %_T18224824_8110.addr, metadata !1492, metadata !1394), !dbg !1489
	store %struct.VectorDipole* %_T18224824_8110.arg, %struct.VectorDipole** %_T18224824_8110.addr, align 8, !tbaa !1404
	call void @llvm.dbg.declare (metadata %struct.VectorDipole** %_T18224824_8110.addr, metadata !1493, metadata !1394), !dbg !1489
	call void @llvm.dbg.declare (metadata double* %moment.addr, metadata !1494, metadata !1394), !dbg !1489
	store double %moment.arg, double* %moment.addr, align 8, !tbaa !1529
	call void @llvm.dbg.declare (metadata double* %moment.addr, metadata !1495, metadata !1394), !dbg !1489
	call void @llvm.dbg.declare (metadata double* %center_x.addr, metadata !1496, metadata !1394), !dbg !1489
	store double %center_x.arg, double* %center_x.addr, align 8, !tbaa !1529
	call void @llvm.dbg.declare (metadata double* %center_x.addr, metadata !1497, metadata !1394), !dbg !1489
	call void @llvm.dbg.declare (metadata double* %center_y.addr, metadata !1498, metadata !1394), !dbg !1489
	store double %center_y.arg, double* %center_y.addr, align 8, !tbaa !1529
	call void @llvm.dbg.declare (metadata double* %center_y.addr, metadata !1499, metadata !1394), !dbg !1489
	call void @llvm.dbg.declare (metadata double* %center_z.addr, metadata !1500, metadata !1394), !dbg !1489
	store double %center_z.arg, double* %center_z.addr, align 8, !tbaa !1529
	call void @llvm.dbg.declare (metadata double* %center_z.addr, metadata !1501, metadata !1394), !dbg !1489
	call void @llvm.dbg.declare (metadata double* %tilt_angle_phi.addr, metadata !1502, metadata !1394), !dbg !1489
	store double %tilt_angle_phi.arg, double* %tilt_angle_phi.addr, align 8, !tbaa !1529
	call void @llvm.dbg.declare (metadata double* %tilt_angle_phi.addr, metadata !1503, metadata !1394), !dbg !1489
	call void @llvm.dbg.declare (metadata double* %tilt_angle_theta.addr, metadata !1504, metadata !1394), !dbg !1489
	store double %tilt_angle_theta.arg, double* %tilt_angle_theta.addr, align 8, !tbaa !1529
	call void @llvm.dbg.declare (metadata double* %tilt_angle_theta.addr, metadata !1505, metadata !1394), !dbg !1489
	call void @llvm.dbg.declare (metadata double* %xlimit_f.addr, metadata !1506, metadata !1394), !dbg !1489
	store double %xlimit_f.arg, double* %xlimit_f.addr, align 8, !tbaa !1529
	call void @llvm.dbg.declare (metadata double* %xlimit_f.addr, metadata !1507, metadata !1394), !dbg !1489
	call void @llvm.dbg.declare (metadata double* %xlimit_z.addr, metadata !1508, metadata !1394), !dbg !1489
	store double %xlimit_z.arg, double* %xlimit_z.addr, align 8, !tbaa !1529
	call void @llvm.dbg.declare (metadata double* %xlimit_z.addr, metadata !1509, metadata !1394), !dbg !1489
	call void @llvm.dbg.declare (metadata double* %IMF_Bx.addr, metadata !1510, metadata !1394), !dbg !1489
	store double %IMF_Bx.arg, double* %IMF_Bx.addr, align 8, !tbaa !1529
	call void @llvm.dbg.declare (metadata double* %IMF_Bx.addr, metadata !1511, metadata !1394), !dbg !1489
	call void @llvm.dbg.declare (metadata double* %IMF_By.addr, metadata !1512, metadata !1394), !dbg !1489
	store double %IMF_By.arg, double* %IMF_By.addr, align 8, !tbaa !1529
	call void @llvm.dbg.declare (metadata double* %IMF_By.addr, metadata !1513, metadata !1394), !dbg !1489
	call void @llvm.dbg.declare (metadata double* %IMF_Bz.addr, metadata !1514, metadata !1394), !dbg !1489
	store double %IMF_Bz.arg, double* %IMF_Bz.addr, align 8, !tbaa !1529
	call void @llvm.dbg.declare (metadata double* %IMF_Bz.addr, metadata !1515, metadata !1394), !dbg !1489
	%0 = load %struct.VectorDipole*, %struct.VectorDipole** %_T18224824_8110.addr, align 8, !tbaa !1404, !dbg !1516
	%1 = bitcast %struct.VectorDipole*  %0 to i8*, !dbg !1516
	%2 = getelementptr i8, i8*  %1, i64 20, !dbg !1516
	store i8 1, i8*  %2, align 1, !tbaa !1529, !dbg !1516
	%3 = load double, double* %moment.addr, align 8, !tbaa !1531, !dbg !1517
	%4 = load double, double* %tilt_angle_theta.addr, align 8, !tbaa !1531, !dbg !1517
	%5 = call <{double, double}> @__fd_sincos_1 (double  %4), !dbg !1517
	%6 = extractvalue <{double, double}>  %5, 1, !dbg !1517
	%7 = load double, double* %tilt_angle_phi.addr, align 8, !tbaa !1531, !dbg !1517
	%8 = call <{double, double}> @__fd_sincos_1 (double  %7), !dbg !1517
	%9 = extractvalue <{double, double}>  %8, 0, !dbg !1517
	%10 = fmul double  %6,  %9, !dbg !1517
	%11 = fmul double  %3,  %10, !dbg !1517
	%12 = fsub double -0.00000000e+00,  %11, !dbg !1517
	%13 = load %struct.VectorDipole*, %struct.VectorDipole** %_T18224824_8110.addr, align 8, !tbaa !1404, !dbg !1517
	%14 = bitcast %struct.VectorDipole*  %13 to i8*, !dbg !1517
	%15 = getelementptr i8, i8*  %14, i64 24, !dbg !1517
	%16 = bitcast i8*  %15 to double*, !dbg !1517
	store double  %12, double*  %16, align 8, !tbaa !1529, !dbg !1517
	%17 = load double, double* %moment.addr, align 8, !tbaa !1531, !dbg !1518
	%18 = extractvalue <{double, double}>  %8, 0, !dbg !1518
	%19 = extractvalue <{double, double}>  %5, 0, !dbg !1518
	%20 = fmul double  %18,  %19, !dbg !1518
	%21 = fmul double  %17,  %20, !dbg !1518
	%22 = fsub double -0.00000000e+00,  %21, !dbg !1518
	%23 = getelementptr i8, i8*  %14, i64 32, !dbg !1518
	%24 = bitcast i8*  %23 to double*, !dbg !1518
	store double  %22, double*  %24, align 8, !tbaa !1529, !dbg !1518
	%25 = extractvalue <{double, double}>  %8, 1, !dbg !1519
	%26 = fmul double  %17,  %25, !dbg !1519
	%27 = fsub double -0.00000000e+00,  %26, !dbg !1519
	%28 = getelementptr i8, i8*  %14, i64 40, !dbg !1519
	%29 = bitcast i8*  %28 to double*, !dbg !1519
	store double  %27, double*  %29, align 8, !tbaa !1529, !dbg !1519
	%30 = load double, double* %center_x.addr, align 8, !tbaa !1531, !dbg !1520
	%31 = getelementptr i8, i8*  %14, i64 48, !dbg !1520
	%32 = bitcast i8*  %31 to double*, !dbg !1520
	store double  %30, double*  %32, align 8, !tbaa !1529, !dbg !1520
	%33 = load double, double* %center_y.addr, align 8, !tbaa !1531, !dbg !1521
	%34 = getelementptr i8, i8*  %14, i64 56, !dbg !1521
	%35 = bitcast i8*  %34 to double*, !dbg !1521
	store double  %33, double*  %35, align 8, !tbaa !1529, !dbg !1521
	%36 = load double, double* %center_z.addr, align 8, !tbaa !1531, !dbg !1522
	%37 = getelementptr i8, i8*  %14, i64 64, !dbg !1522
	%38 = bitcast i8*  %37 to double*, !dbg !1522
	store double  %36, double*  %38, align 8, !tbaa !1529, !dbg !1522
	%39 = load double, double* %xlimit_f.addr, align 8, !tbaa !1531, !dbg !1523
	%40 = getelementptr i8, i8*  %14, i64 72, !dbg !1523
	%41 = bitcast i8*  %40 to double*, !dbg !1523
	store double  %39, double*  %41, align 8, !tbaa !1529, !dbg !1523
	%42 = load double, double* %xlimit_z.addr, align 8, !tbaa !1531, !dbg !1524
	%43 = getelementptr i8, i8*  %14, i64 80, !dbg !1524
	%44 = bitcast i8*  %43 to double*, !dbg !1524
	store double  %42, double*  %44, align 8, !tbaa !1529, !dbg !1524
	%45 = load double, double* %IMF_Bx.addr, align 8, !tbaa !1531, !dbg !1525
	%46 = getelementptr i8, i8*  %14, i64 88, !dbg !1525
	%47 = bitcast i8*  %46 to double*, !dbg !1525
	store double  %45, double*  %47, align 8, !tbaa !1529, !dbg !1525
	%48 = load double, double* %IMF_By.addr, align 8, !tbaa !1531, !dbg !1526
	%49 = getelementptr i8, i8*  %14, i64 96, !dbg !1526
	%50 = bitcast i8*  %49 to double*, !dbg !1526
	store double  %48, double*  %50, align 8, !tbaa !1529, !dbg !1526
	%51 = load double, double* %IMF_Bz.addr, align 8, !tbaa !1531, !dbg !1527
	%52 = getelementptr i8, i8*  %14, i64 104, !dbg !1527
	%53 = bitcast i8*  %52 to double*, !dbg !1527
	store double  %51, double*  %53, align 8, !tbaa !1529, !dbg !1527
	ret void, !dbg !1528
}
define double @_ZNK12VectorDipole4callEddd(%struct.VectorDipole* %_T18640328_8111.arg, double %x.arg, double %y.arg, double %z.arg) #0 inlinehint !dbg !1535 {
L.entry:
	%_T18640328_8111.addr = alloca %struct.VectorDipole*, align 8
	%x.addr = alloca double, align 8
	%y.addr = alloca double, align 8
	%z.addr = alloca double, align 8
	%r.addr = alloca [3 x double], align 8
	%r2.addr = alloca double, align 8
	%r1.addr = alloca double, align 8
	%r5.addr = alloca double, align 8
	%rdotq.addr = alloca double, align 8
	%B.addr = alloca double, align 8
	%A.addr = alloca [3 x double], align 8
	%IMFA.addr = alloca [3 x double], align 8
	%IMFB.addr = alloca double, align 8
	%s.addr = alloca double, align 8
	%ss.addr = alloca double, align 8
	%S2.addr = alloca double, align 8
	%dS2dx.addr = alloca double, align 8
	%IMFs.addr = alloca double, align 8
	%IMFss.addr = alloca double, align 8
	%IMFS2.addr = alloca double, align 8
	%IMFdS2dx.addr = alloca double, align 8
	%dS2cart.addr = alloca [3 x double], align 8
	%IMFdS2cart.addr = alloca [3 x double], align 8
	%delS2crossA.addr = alloca [3 x double], align 8
	%IMFdelS2crossA.addr = alloca [3 x double], align 8
	%delB.addr = alloca double, align 8
	%delAy.addr = alloca [3 x double], align 8
	%delAz.addr = alloca [3 x double], align 8
	%IMFdelAx.addr = alloca [3 x double], align 8
	%IMFdelAy.addr = alloca [3 x double], align 8
	%IMFdelAz.addr = alloca [3 x double], align 8
	%ddidS2dx.addr = alloca double, align 8
	%deldS2dx.addr = alloca [3 x double], align 8
	%ddS2crossA.addr = alloca [3 x [3 x double]], align 8
	%IMFddS2crossA.addr = alloca [3 x [3 x double]], align 8

	call void @llvm.dbg.declare (metadata %struct.VectorDipole** %_T18640328_8111.addr, metadata !1547, metadata !1394), !dbg !1536
	store %struct.VectorDipole* %_T18640328_8111.arg, %struct.VectorDipole** %_T18640328_8111.addr, align 8, !tbaa !1404
	call void @llvm.dbg.declare (metadata %struct.VectorDipole** %_T18640328_8111.addr, metadata !1548, metadata !1394), !dbg !1536
	call void @llvm.dbg.declare (metadata double* %x.addr, metadata !1549, metadata !1394), !dbg !1536
	store double %x.arg, double* %x.addr, align 8, !tbaa !1529
	call void @llvm.dbg.declare (metadata double* %x.addr, metadata !1550, metadata !1394), !dbg !1536
	call void @llvm.dbg.declare (metadata double* %y.addr, metadata !1551, metadata !1394), !dbg !1536
	store double %y.arg, double* %y.addr, align 8, !tbaa !1529
	call void @llvm.dbg.declare (metadata double* %y.addr, metadata !1552, metadata !1394), !dbg !1536
	call void @llvm.dbg.declare (metadata double* %z.addr, metadata !1553, metadata !1394), !dbg !1536
	store double %z.arg, double* %z.addr, align 8, !tbaa !1529
	call void @llvm.dbg.declare (metadata double* %z.addr, metadata !1554, metadata !1394), !dbg !1536
	%0 = load %struct.VectorDipole*, %struct.VectorDipole** %_T18640328_8111.addr, align 8, !tbaa !1404, !dbg !1555
	%1 = bitcast %struct.VectorDipole*  %0 to i8*, !dbg !1555
	%2 = getelementptr i8, i8*  %1, i64 20, !dbg !1555
	%3 = load i8, i8*  %2, align 1, !tbaa !1529, !dbg !1555
	%4 = sext i8  %3 to i32, !dbg !1555
	%5 = icmp ne i32  %4, 0, !dbg !1555
	br i1  %5, label %L.B0000, label %L.B0049, !dbg !1555
L.B0049:
	ret double  0.00000000000000000E+0, !dbg !1556
L.B0050:
	br label %L.R0007, !dbg !1556
L.B0000:
	%6 = load double, double* %x.addr, align 8, !tbaa !1531, !dbg !1557
	%7 = load %struct.VectorDipole*, %struct.VectorDipole** %_T18640328_8111.addr, align 8, !tbaa !1404, !dbg !1557
	%8 = bitcast %struct.VectorDipole*  %7 to i8*, !dbg !1557
	%9 = getelementptr i8, i8*  %8, i64 48, !dbg !1557
	%10 = bitcast i8*  %9 to double*, !dbg !1557
	%11 = load double, double*  %10, align 8, !tbaa !1529, !dbg !1557
	%12 = fsub double  %6,  %11, !dbg !1557
	call void @llvm.dbg.declare (metadata [3 x double]* %r.addr, metadata !1558, metadata !1394), !dbg !1536
	%13 = bitcast [3 x double]* %r.addr to double*, !dbg !1557
	store double  %12, double*  %13, align 8, !tbaa !1529, !dbg !1557
	%14 = load double, double* %y.addr, align 8, !tbaa !1531, !dbg !1559
	%15 = load %struct.VectorDipole*, %struct.VectorDipole** %_T18640328_8111.addr, align 8, !tbaa !1404, !dbg !1559
	%16 = bitcast %struct.VectorDipole*  %15 to i8*, !dbg !1559
	%17 = getelementptr i8, i8*  %16, i64 56, !dbg !1559
	%18 = bitcast i8*  %17 to double*, !dbg !1559
	%19 = load double, double*  %18, align 8, !tbaa !1529, !dbg !1559
	%20 = fsub double  %14,  %19, !dbg !1559
	%21 = bitcast [3 x double]* %r.addr to i8*, !dbg !1559
	%22 = getelementptr i8, i8*  %21, i64 8, !dbg !1559
	%23 = bitcast i8*  %22 to double*, !dbg !1559
	store double  %20, double*  %23, align 8, !tbaa !1529, !dbg !1559
	%24 = load double, double* %z.addr, align 8, !tbaa !1531, !dbg !1560
	%25 = getelementptr i8, i8*  %16, i64 64, !dbg !1560
	%26 = bitcast i8*  %25 to double*, !dbg !1560
	%27 = load double, double*  %26, align 8, !tbaa !1529, !dbg !1560
	%28 = fsub double  %24,  %27, !dbg !1560
	%29 = getelementptr i8, i8*  %21, i64 16, !dbg !1560
	%30 = bitcast i8*  %29 to double*, !dbg !1560
	store double  %28, double*  %30, align 8, !tbaa !1529, !dbg !1560
	%31 = fmul double  %12,  %12, !dbg !1561
	%32 = call double @llvm.fma.f64 (double  %20, double  %20, double  %31), !dbg !1561
	%33 = call double @llvm.fma.f64 (double  %28, double  %28, double  %32), !dbg !1561
	call void @llvm.dbg.declare (metadata double* %r2.addr, metadata !1562, metadata !1394), !dbg !1536
	store double  %33, double* %r2.addr, align 8, !tbaa !1531, !dbg !1561
	%34 = fcmp uge double  %33,  4.05921894399999976E+7, !dbg !1563
	br i1  %34, label %L.B0001, label %L.B0051, !dbg !1563
L.B0051:
	ret double  0.00000000000000000E+0, !dbg !1564
L.B0052:
	br label %L.R0007, !dbg !1564
L.B0001:
	%35 = bitcast [3 x double]* %r.addr to double*, !dbg !1565
	%36 = load double, double*  %35, align 8, !tbaa !1529, !dbg !1565
	%37 = load %struct.VectorDipole*, %struct.VectorDipole** %_T18640328_8111.addr, align 8, !tbaa !1404, !dbg !1565
	%38 = bitcast %struct.VectorDipole*  %37 to i8*, !dbg !1565
	%39 = getelementptr i8, i8*  %38, i64 80, !dbg !1565
	%40 = bitcast i8*  %39 to double*, !dbg !1565
	%41 = load double, double*  %40, align 8, !tbaa !1529, !dbg !1565
	%42 = fcmp ult double  %36,  %41, !dbg !1565
	br i1  %42, label %L.B0002, label %L.B0053, !dbg !1565
L.B0053:
	%43 = bitcast %struct.VectorDipole*  %37 to i8*, !dbg !1566
	%44 = getelementptr i8, i8*  %43, i64 16, !dbg !1566
	%45 = bitcast i8*  %44 to i32*, !dbg !1566
	%46 = load i32, i32*  %45, align 4, !tbaa !1529, !dbg !1566
	%47 = icmp ne i32  %46, 0, !dbg !1566
	br i1  %47, label %L.B0003, label %L.B0054, !dbg !1566
L.B0054:
	%48 = bitcast %struct.VectorDipole*  %37 to i8*, !dbg !1567
	%49 = getelementptr i8, i8*  %48, i64 8, !dbg !1567
	%50 = bitcast i8*  %49 to i32*, !dbg !1567
	%51 = load i32, i32*  %50, align 4, !tbaa !1529, !dbg !1567
	%52 = zext i32  %51 to i64, !dbg !1567
	%53 = getelementptr i8, i8*  %48, i64 88, !dbg !1567
	%54 = bitcast i8*  %53 to double*, !dbg !1567
	%55 = getelementptr double, double*  %54, i64  %52, !dbg !1567
	%56 = load double, double*  %55, align 8, !tbaa !1529, !dbg !1567
	ret double  %56, !dbg !1567
L.B0055:
	br label %L.R0007, !dbg !1567
L.B0003:
	ret double  0.00000000000000000E+0, !dbg !1568
L.B0056:
	br label %L.R0007, !dbg !1568
L.B0002:
	%57 = load double, double* %r2.addr, align 8, !tbaa !1531, !dbg !1569
	%58 = call double @llvm.sqrt.f64 (double  %57), !dbg !1569
	call void @llvm.dbg.declare (metadata double* %r1.addr, metadata !1570, metadata !1394), !dbg !1536
	store double  %58, double* %r1.addr, align 8, !tbaa !1531, !dbg !1569
	%59 = load double, double* %r2.addr, align 8, !tbaa !1531, !dbg !1571
	%60 = fmul double  %59,  %59, !dbg !1571
	%61 = fmul double  %58,  %60, !dbg !1571
	call void @llvm.dbg.declare (metadata double* %r5.addr, metadata !1572, metadata !1394), !dbg !1536
	store double  %61, double* %r5.addr, align 8, !tbaa !1531, !dbg !1571
	%62 = bitcast [3 x double]* %r.addr to i8*, !dbg !1573
	%63 = getelementptr i8, i8*  %62, i64 16, !dbg !1573
	%64 = bitcast i8*  %63 to double*, !dbg !1573
	%65 = load double, double*  %64, align 8, !tbaa !1529, !dbg !1573
	%66 = load %struct.VectorDipole*, %struct.VectorDipole** %_T18640328_8111.addr, align 8, !tbaa !1404, !dbg !1573
	%67 = bitcast %struct.VectorDipole*  %66 to i8*, !dbg !1573
	%68 = getelementptr i8, i8*  %67, i64 40, !dbg !1573
	%69 = bitcast i8*  %68 to double*, !dbg !1573
	%70 = load double, double*  %69, align 8, !tbaa !1529, !dbg !1573
	%71 = getelementptr i8, i8*  %62, i64 8, !dbg !1573
	%72 = bitcast i8*  %71 to double*, !dbg !1573
	%73 = load double, double*  %72, align 8, !tbaa !1529, !dbg !1573
	%74 = getelementptr i8, i8*  %67, i64 32, !dbg !1573
	%75 = bitcast i8*  %74 to double*, !dbg !1573
	%76 = load double, double*  %75, align 8, !tbaa !1529, !dbg !1573
	%77 = bitcast [3 x double]* %r.addr to double*, !dbg !1573
	%78 = load double, double*  %77, align 8, !tbaa !1529, !dbg !1573
	%79 = getelementptr i8, i8*  %67, i64 24, !dbg !1573
	%80 = bitcast i8*  %79 to double*, !dbg !1573
	%81 = load double, double*  %80, align 8, !tbaa !1529, !dbg !1573
	%82 = fmul double  %78,  %81, !dbg !1573
	%83 = call double @llvm.fma.f64 (double  %73, double  %76, double  %82), !dbg !1573
	%84 = call double @llvm.fma.f64 (double  %65, double  %70, double  %83), !dbg !1573
	call void @llvm.dbg.declare (metadata double* %rdotq.addr, metadata !1574, metadata !1394), !dbg !1536
	store double  %84, double* %rdotq.addr, align 8, !tbaa !1531, !dbg !1573
	%85 = load %struct.VectorDipole*, %struct.VectorDipole** %_T18640328_8111.addr, align 8, !tbaa !1404, !dbg !1575
	%86 = bitcast %struct.VectorDipole*  %85 to i8*, !dbg !1575
	%87 = getelementptr i8, i8*  %86, i64 8, !dbg !1575
	%88 = bitcast i8*  %87 to i32*, !dbg !1575
	%89 = load i32, i32*  %88, align 4, !tbaa !1529, !dbg !1575
	%90 = zext i32  %89 to i64, !dbg !1575
	%91 = getelementptr double, double*  %77, i64  %90, !dbg !1575
	%92 = load double, double*  %91, align 8, !tbaa !1529, !dbg !1575
	%93 = fmul double  %92,  3.00000000000000000E+0, !dbg !1575
	%94 = load double, double* %r2.addr, align 8, !tbaa !1531, !dbg !1575
	%95 = getelementptr i8, i8*  %86, i64 24, !dbg !1575
	%96 = bitcast i8*  %95 to double*, !dbg !1575
	%97 = getelementptr double, double*  %96, i64  %90, !dbg !1575
	%98 = load double, double*  %97, align 8, !tbaa !1529, !dbg !1575
	%99 = fmul double  %94,  %98, !dbg !1575
	%100 = fsub double -0.00000000e+00,  %99, !dbg !1678
	%101 = call double @llvm.fma.f64 (double  %84, double  %93, double  %100), !dbg !1575
	%102 = load double, double* %r5.addr, align 8, !tbaa !1531, !dbg !1575
	%103 = fdiv double  %101,  %102, !dbg !1575
	call void @llvm.dbg.declare (metadata double* %B.addr, metadata !1576, metadata !1394), !dbg !1536
	store double  %103, double* %B.addr, align 8, !tbaa !1531, !dbg !1575
	%104 = load %struct.VectorDipole*, %struct.VectorDipole** %_T18640328_8111.addr, align 8, !tbaa !1404, !dbg !1577
	%105 = bitcast %struct.VectorDipole*  %104 to i8*, !dbg !1577
	%106 = getelementptr i8, i8*  %105, i64 16, !dbg !1577
	%107 = bitcast i8*  %106 to i32*, !dbg !1577
	%108 = load i32, i32*  %107, align 4, !tbaa !1529, !dbg !1577
	%109 = icmp ne i32  %108, 0, !dbg !1577
	br i1  %109, label %L.B0005, label %L.B0057, !dbg !1577
L.B0057:
	%110 = bitcast [3 x double]* %r.addr to double*, !dbg !1577
	%111 = load double, double*  %110, align 8, !tbaa !1529, !dbg !1577
	%112 = bitcast %struct.VectorDipole*  %104 to i8*, !dbg !1577
	%113 = getelementptr i8, i8*  %112, i64 72, !dbg !1577
	%114 = bitcast i8*  %113 to double*, !dbg !1577
	%115 = load double, double*  %114, align 8, !tbaa !1529, !dbg !1577
	%116 = fcmp ugt double  %111,  %115, !dbg !1577
	br i1  %116, label %L.B0005, label %L.B0058, !dbg !1577
L.B0058:
	ret double  %103, !dbg !1578
L.B0059:
	br label %L.R0007, !dbg !1578
L.B0005:
	%117 = load %struct.VectorDipole*, %struct.VectorDipole** %_T18640328_8111.addr, align 8, !tbaa !1404, !dbg !1579
	%118 = bitcast %struct.VectorDipole*  %117 to i8*, !dbg !1579
	%119 = getelementptr i8, i8*  %118, i64 16, !dbg !1579
	%120 = bitcast i8*  %119 to i32*, !dbg !1579
	%121 = load i32, i32*  %120, align 4, !tbaa !1529, !dbg !1579
	%122 = icmp ne i32  %121, 1, !dbg !1579
	br i1  %122, label %L.B0006, label %L.B0060, !dbg !1579
L.B0060:
	%123 = bitcast [3 x double]* %r.addr to double*, !dbg !1579
	%124 = load double, double*  %123, align 8, !tbaa !1529, !dbg !1579
	%125 = bitcast %struct.VectorDipole*  %117 to i8*, !dbg !1579
	%126 = getelementptr i8, i8*  %125, i64 72, !dbg !1579
	%127 = bitcast i8*  %126 to double*, !dbg !1579
	%128 = load double, double*  %127, align 8, !tbaa !1529, !dbg !1579
	%129 = fcmp ugt double  %124,  %128, !dbg !1579
	br i1  %129, label %L.B0006, label %L.B0061, !dbg !1579
L.B0061:
	%130 = load double, double* %B.addr, align 8, !tbaa !1531, !dbg !1580
	%131 = fmul double  %130, -5.00000000000000000E+0, !dbg !1580
	%132 = bitcast %struct.VectorDipole*  %117 to i8*, !dbg !1580
	%133 = getelementptr i8, i8*  %132, i64 12, !dbg !1580
	%134 = bitcast i8*  %133 to i32*, !dbg !1580
	%135 = load i32, i32*  %134, align 4, !tbaa !1529, !dbg !1580
	%136 = zext i32  %135 to i64, !dbg !1580
	%137 = bitcast [3 x double]* %r.addr to double*, !dbg !1580
	%138 = getelementptr double, double*  %137, i64  %136, !dbg !1580
	%139 = load double, double*  %138, align 8, !tbaa !1529, !dbg !1580
	%140 = fmul double  %131,  %139, !dbg !1580
	%141 = load double, double* %r2.addr, align 8, !tbaa !1531, !dbg !1580
	%142 = fdiv double  %140,  %141, !dbg !1580
	%143 = getelementptr i8, i8*  %132, i64 8, !dbg !1580
	%144 = bitcast i8*  %143 to i32*, !dbg !1580
	%145 = load i32, i32*  %144, align 4, !tbaa !1529, !dbg !1580
	%146 = zext i32  %145 to i64, !dbg !1580
	%147 = getelementptr double, double*  %137, i64  %146, !dbg !1580
	%148 = load double, double*  %147, align 8, !tbaa !1529, !dbg !1580
	%149 = getelementptr i8, i8*  %132, i64 24, !dbg !1580
	%150 = bitcast i8*  %149 to double*, !dbg !1580
	%151 = getelementptr double, double*  %150, i64  %136, !dbg !1580
	%152 = load double, double*  %151, align 8, !tbaa !1529, !dbg !1580
	%153 = fmul double  %152,  3.00000000000000000E+0, !dbg !1580
	%154 = getelementptr double, double*  %150, i64  %146, !dbg !1580
	%155 = load double, double*  %154, align 8, !tbaa !1529, !dbg !1580
	%156 = fadd double  %155,  %155, !dbg !1580
	%157 = fmul double  %139,  %156, !dbg !1580
	%158 = fsub double -0.00000000e+00,  %157, !dbg !1678
	%159 = call double @llvm.fma.f64 (double  %148, double  %153, double  %158), !dbg !1580
	%160 = load double, double* %rdotq.addr, align 8, !tbaa !1531, !dbg !1580
	%161 = fmul double  %160,  3.00000000000000000E+0, !dbg !1580
	%162 = icmp eq i32  %135,  %145, !dbg !1580
	%163 = zext i1  %162 to i32, !dbg !1580
	%164 = uitofp i32  %163 to double, !dbg !1580
	%165 = call double @llvm.fma.f64 (double  %161, double  %164, double  %159), !dbg !1580
	%166 = load double, double* %r5.addr, align 8, !tbaa !1531, !dbg !1580
	%167 = fdiv double  %165,  %166, !dbg !1580
	%168 = fadd double  %142,  %167, !dbg !1580
	ret double  %168, !dbg !1580
L.B0062:
	br label %L.R0007, !dbg !1580
L.B0006:
	%169 = bitcast [3 x double]* %r.addr to i8*, !dbg !1581
	%170 = getelementptr i8, i8*  %169, i64 16, !dbg !1581
	%171 = bitcast i8*  %170 to double*, !dbg !1581
	%172 = load double, double*  %171, align 8, !tbaa !1529, !dbg !1581
	%173 = load %struct.VectorDipole*, %struct.VectorDipole** %_T18640328_8111.addr, align 8, !tbaa !1404, !dbg !1581
	%174 = bitcast %struct.VectorDipole*  %173 to i8*, !dbg !1581
	%175 = getelementptr i8, i8*  %174, i64 32, !dbg !1581
	%176 = bitcast i8*  %175 to double*, !dbg !1581
	%177 = load double, double*  %176, align 8, !tbaa !1529, !dbg !1581
	%178 = getelementptr i8, i8*  %169, i64 8, !dbg !1581
	%179 = bitcast i8*  %178 to double*, !dbg !1581
	%180 = load double, double*  %179, align 8, !tbaa !1529, !dbg !1581
	%181 = getelementptr i8, i8*  %174, i64 40, !dbg !1581
	%182 = bitcast i8*  %181 to double*, !dbg !1581
	%183 = load double, double*  %182, align 8, !tbaa !1529, !dbg !1581
	%184 = fmul double  %180,  %183, !dbg !1581
	%185 = fsub double -0.00000000e+00,  %184, !dbg !1678
	%186 = call double @llvm.fma.f64 (double  %172, double  %177, double  %185), !dbg !1581
	%187 = load double, double* %r2.addr, align 8, !tbaa !1531, !dbg !1581
	%188 = load double, double* %r1.addr, align 8, !tbaa !1531, !dbg !1581
	%189 = fmul double  %187,  %188, !dbg !1581
	%190 = fdiv double  %186,  %189, !dbg !1581
	call void @llvm.dbg.declare (metadata [3 x double]* %A.addr, metadata !1582, metadata !1394), !dbg !1536
	%191 = bitcast [3 x double]* %A.addr to double*, !dbg !1581
	store double  %190, double*  %191, align 8, !tbaa !1529, !dbg !1581
	%192 = bitcast [3 x double]* %r.addr to double*, !dbg !1583
	%193 = load double, double*  %192, align 8, !tbaa !1529, !dbg !1583
	%194 = load %struct.VectorDipole*, %struct.VectorDipole** %_T18640328_8111.addr, align 8, !tbaa !1404, !dbg !1583
	%195 = bitcast %struct.VectorDipole*  %194 to i8*, !dbg !1583
	%196 = getelementptr i8, i8*  %195, i64 40, !dbg !1583
	%197 = bitcast i8*  %196 to double*, !dbg !1583
	%198 = load double, double*  %197, align 8, !tbaa !1529, !dbg !1583
	%199 = getelementptr i8, i8*  %169, i64 16, !dbg !1583
	%200 = bitcast i8*  %199 to double*, !dbg !1583
	%201 = load double, double*  %200, align 8, !tbaa !1529, !dbg !1583
	%202 = getelementptr i8, i8*  %195, i64 24, !dbg !1583
	%203 = bitcast i8*  %202 to double*, !dbg !1583
	%204 = load double, double*  %203, align 8, !tbaa !1529, !dbg !1583
	%205 = fmul double  %201,  %204, !dbg !1583
	%206 = fsub double -0.00000000e+00,  %205, !dbg !1678
	%207 = call double @llvm.fma.f64 (double  %193, double  %198, double  %206), !dbg !1583
	%208 = load double, double* %r2.addr, align 8, !tbaa !1531, !dbg !1583
	%209 = load double, double* %r1.addr, align 8, !tbaa !1531, !dbg !1583
	%210 = fmul double  %208,  %209, !dbg !1583
	%211 = fdiv double  %207,  %210, !dbg !1583
	%212 = bitcast [3 x double]* %A.addr to i8*, !dbg !1583
	%213 = getelementptr i8, i8*  %212, i64 8, !dbg !1583
	%214 = bitcast i8*  %213 to double*, !dbg !1583
	store double  %211, double*  %214, align 8, !tbaa !1529, !dbg !1583
	%215 = getelementptr i8, i8*  %169, i64 8, !dbg !1584
	%216 = bitcast i8*  %215 to double*, !dbg !1584
	%217 = load double, double*  %216, align 8, !tbaa !1529, !dbg !1584
	%218 = load double, double*  %203, align 8, !tbaa !1529, !dbg !1584
	%219 = getelementptr i8, i8*  %195, i64 32, !dbg !1584
	%220 = bitcast i8*  %219 to double*, !dbg !1584
	%221 = load double, double*  %220, align 8, !tbaa !1529, !dbg !1584
	%222 = fmul double  %193,  %221, !dbg !1584
	%223 = fsub double -0.00000000e+00,  %222, !dbg !1678
	%224 = call double @llvm.fma.f64 (double  %217, double  %218, double  %223), !dbg !1584
	%225 = fdiv double  %224,  %210, !dbg !1584
	%226 = getelementptr i8, i8*  %212, i64 16, !dbg !1584
	%227 = bitcast i8*  %226 to double*, !dbg !1584
	store double  %225, double*  %227, align 8, !tbaa !1529, !dbg !1584
	%228 = getelementptr i8, i8*  %195, i64 96, !dbg !1585
	%229 = bitcast i8*  %228 to double*, !dbg !1585
	%230 = load double, double*  %229, align 8, !tbaa !1529, !dbg !1585
	%231 = getelementptr i8, i8*  %195, i64 104, !dbg !1585
	%232 = bitcast i8*  %231 to double*, !dbg !1585
	%233 = load double, double*  %232, align 8, !tbaa !1529, !dbg !1585
	%234 = fmul double  %217,  %233, !dbg !1585
	%235 = fsub double -0.00000000e+00,  %234, !dbg !1678
	%236 = call double @llvm.fma.f64 (double  %201, double  %230, double  %235), !dbg !1585
	%237 = fmul double  %236,  5.00000000000000000E-1, !dbg !1585
	call void @llvm.dbg.declare (metadata [3 x double]* %IMFA.addr, metadata !1586, metadata !1394), !dbg !1536
	%238 = bitcast [3 x double]* %IMFA.addr to double*, !dbg !1585
	store double  %237, double*  %238, align 8, !tbaa !1529, !dbg !1585
	%239 = load double, double*  %192, align 8, !tbaa !1529, !dbg !1587
	%240 = load %struct.VectorDipole*, %struct.VectorDipole** %_T18640328_8111.addr, align 8, !tbaa !1404, !dbg !1587
	%241 = bitcast %struct.VectorDipole*  %240 to i8*, !dbg !1587
	%242 = getelementptr i8, i8*  %241, i64 104, !dbg !1587
	%243 = bitcast i8*  %242 to double*, !dbg !1587
	%244 = load double, double*  %243, align 8, !tbaa !1529, !dbg !1587
	%245 = getelementptr i8, i8*  %169, i64 16, !dbg !1587
	%246 = bitcast i8*  %245 to double*, !dbg !1587
	%247 = load double, double*  %246, align 8, !tbaa !1529, !dbg !1587
	%248 = getelementptr i8, i8*  %241, i64 88, !dbg !1587
	%249 = bitcast i8*  %248 to double*, !dbg !1587
	%250 = load double, double*  %249, align 8, !tbaa !1529, !dbg !1587
	%251 = fmul double  %247,  %250, !dbg !1587
	%252 = fsub double -0.00000000e+00,  %251, !dbg !1678
	%253 = call double @llvm.fma.f64 (double  %239, double  %244, double  %252), !dbg !1587
	%254 = fmul double  %253,  5.00000000000000000E-1, !dbg !1587
	%255 = bitcast [3 x double]* %IMFA.addr to i8*, !dbg !1587
	%256 = getelementptr i8, i8*  %255, i64 8, !dbg !1587
	%257 = bitcast i8*  %256 to double*, !dbg !1587
	store double  %254, double*  %257, align 8, !tbaa !1529, !dbg !1587
	%258 = getelementptr i8, i8*  %169, i64 8, !dbg !1588
	%259 = bitcast i8*  %258 to double*, !dbg !1588
	%260 = load double, double*  %259, align 8, !tbaa !1529, !dbg !1588
	%261 = load double, double*  %249, align 8, !tbaa !1529, !dbg !1588
	%262 = getelementptr i8, i8*  %241, i64 96, !dbg !1588
	%263 = bitcast i8*  %262 to double*, !dbg !1588
	%264 = load double, double*  %263, align 8, !tbaa !1529, !dbg !1588
	%265 = fmul double  %239,  %264, !dbg !1588
	%266 = fsub double -0.00000000e+00,  %265, !dbg !1678
	%267 = call double @llvm.fma.f64 (double  %260, double  %261, double  %266), !dbg !1588
	%268 = fmul double  %267,  5.00000000000000000E-1, !dbg !1588
	%269 = getelementptr i8, i8*  %255, i64 16, !dbg !1588
	%270 = bitcast i8*  %269 to double*, !dbg !1588
	store double  %268, double*  %270, align 8, !tbaa !1529, !dbg !1588
	%271 = getelementptr i8, i8*  %241, i64 8, !dbg !1589
	%272 = bitcast i8*  %271 to i32*, !dbg !1589
	%273 = load i32, i32*  %272, align 4, !tbaa !1529, !dbg !1589
	%274 = zext i32  %273 to i64, !dbg !1589
	%275 = getelementptr double, double*  %249, i64  %274, !dbg !1589
	%276 = load double, double*  %275, align 8, !tbaa !1529, !dbg !1589
	call void @llvm.dbg.declare (metadata double* %IMFB.addr, metadata !1590, metadata !1394), !dbg !1536
	store double  %276, double* %IMFB.addr, align 8, !tbaa !1531, !dbg !1589
	%277 = load %struct.VectorDipole*, %struct.VectorDipole** %_T18640328_8111.addr, align 8, !tbaa !1404, !dbg !1591
	%278 = bitcast %struct.VectorDipole*  %277 to i8*, !dbg !1591
	%279 = getelementptr i8, i8*  %278, i64 80, !dbg !1591
	%280 = bitcast i8*  %279 to double*, !dbg !1591
	%281 = load double, double*  %280, align 8, !tbaa !1529, !dbg !1591
	%282 = load double, double*  %192, align 8, !tbaa !1529, !dbg !1591
	%283 = fsub double  %281,  %282, !dbg !1591
	%284 = getelementptr i8, i8*  %278, i64 72, !dbg !1591
	%285 = bitcast i8*  %284 to double*, !dbg !1591
	%286 = load double, double*  %285, align 8, !tbaa !1529, !dbg !1591
	%287 = fsub double  %281,  %286, !dbg !1591
	%288 = fdiv double  %283,  %287, !dbg !1591
	call void @llvm.dbg.declare (metadata double* %s.addr, metadata !1592, metadata !1394), !dbg !1536
	store double  %288, double* %s.addr, align 8, !tbaa !1531, !dbg !1591
	%289 = fmul double  %288,  %288, !dbg !1593
	call void @llvm.dbg.declare (metadata double* %ss.addr, metadata !1594, metadata !1394), !dbg !1536
	store double  %289, double* %ss.addr, align 8, !tbaa !1531, !dbg !1593
	%290 = load double, double* %s.addr, align 8, !tbaa !1531, !dbg !1595
	%291 = fmul double  %289,  1.00000000000000000E+1, !dbg !1595
	%292 = fmul double  %289,  6.00000000000000000E+0, !dbg !1595
	%293 = fmul double  %289,  %292, !dbg !1595
	%294 = fmul double  %289,  1.50000000000000000E+1, !dbg !1595
	%295 = fmul double  %289,  %294, !dbg !1595
	%296 = fsub double -0.00000000e+00,  %295, !dbg !1678
	%297 = call double @llvm.fma.f64 (double  %290, double  %293, double  %296), !dbg !1595
	%298 = call double @llvm.fma.f64 (double  %290, double  %291, double  %297), !dbg !1595
	call void @llvm.dbg.declare (metadata double* %S2.addr, metadata !1596, metadata !1394), !dbg !1536
	store double  %298, double* %S2.addr, align 8, !tbaa !1531, !dbg !1595
	%299 = load double, double* %ss.addr, align 8, !tbaa !1531, !dbg !1597
	%300 = fmul double  %299,  3.00000000000000000E+1, !dbg !1597
	%301 = load double, double* %s.addr, align 8, !tbaa !1531, !dbg !1597
	%302 = fmul double  %299,  6.00000000000000000E+1, !dbg !1597
	%303 = fmul double  %301,  %302, !dbg !1597
	%304 = fsub double -0.00000000e+00,  %303, !dbg !1678
	%305 = call double @llvm.fma.f64 (double  %299, double  %300, double  %304), !dbg !1597
	%306 = call double @llvm.fma.f64 (double  %299, double  3.00000000000000000E+1, double  %305), !dbg !1597
	%307 = fsub double -0.00000000e+00,  %306, !dbg !1597
	%308 = load %struct.VectorDipole*, %struct.VectorDipole** %_T18640328_8111.addr, align 8, !tbaa !1404, !dbg !1597
	%309 = bitcast %struct.VectorDipole*  %308 to i8*, !dbg !1597
	%310 = getelementptr i8, i8*  %309, i64 80, !dbg !1597
	%311 = bitcast i8*  %310 to double*, !dbg !1597
	%312 = load double, double*  %311, align 8, !tbaa !1529, !dbg !1597
	%313 = getelementptr i8, i8*  %309, i64 72, !dbg !1597
	%314 = bitcast i8*  %313 to double*, !dbg !1597
	%315 = load double, double*  %314, align 8, !tbaa !1529, !dbg !1597
	%316 = fsub double  %312,  %315, !dbg !1597
	%317 = fdiv double  %307,  %316, !dbg !1597
	call void @llvm.dbg.declare (metadata double* %dS2dx.addr, metadata !1598, metadata !1394), !dbg !1536
	store double  %317, double* %dS2dx.addr, align 8, !tbaa !1531, !dbg !1597
	%318 = load double, double*  %192, align 8, !tbaa !1529, !dbg !1599
	%319 = load %struct.VectorDipole*, %struct.VectorDipole** %_T18640328_8111.addr, align 8, !tbaa !1404, !dbg !1599
	%320 = bitcast %struct.VectorDipole*  %319 to i8*, !dbg !1599
	%321 = getelementptr i8, i8*  %320, i64 72, !dbg !1599
	%322 = bitcast i8*  %321 to double*, !dbg !1599
	%323 = load double, double*  %322, align 8, !tbaa !1529, !dbg !1599
	%324 = fsub double  %318,  %323, !dbg !1599
	%325 = getelementptr i8, i8*  %320, i64 80, !dbg !1599
	%326 = bitcast i8*  %325 to double*, !dbg !1599
	%327 = load double, double*  %326, align 8, !tbaa !1529, !dbg !1599
	%328 = fsub double  %327,  %323, !dbg !1599
	%329 = fdiv double  %324,  %328, !dbg !1599
	call void @llvm.dbg.declare (metadata double* %IMFs.addr, metadata !1600, metadata !1394), !dbg !1536
	store double  %329, double* %IMFs.addr, align 8, !tbaa !1531, !dbg !1599
	%330 = fmul double  %329,  %329, !dbg !1601
	call void @llvm.dbg.declare (metadata double* %IMFss.addr, metadata !1602, metadata !1394), !dbg !1536
	store double  %330, double* %IMFss.addr, align 8, !tbaa !1531, !dbg !1601
	%331 = load double, double* %IMFs.addr, align 8, !tbaa !1531, !dbg !1603
	%332 = fmul double  %330,  1.00000000000000000E+1, !dbg !1603
	%333 = fmul double  %330,  6.00000000000000000E+0, !dbg !1603
	%334 = fmul double  %330,  %333, !dbg !1603
	%335 = fmul double  %330,  1.50000000000000000E+1, !dbg !1603
	%336 = fmul double  %330,  %335, !dbg !1603
	%337 = fsub double -0.00000000e+00,  %336, !dbg !1678
	%338 = call double @llvm.fma.f64 (double  %331, double  %334, double  %337), !dbg !1603
	%339 = call double @llvm.fma.f64 (double  %331, double  %332, double  %338), !dbg !1603
	call void @llvm.dbg.declare (metadata double* %IMFS2.addr, metadata !1604, metadata !1394), !dbg !1536
	store double  %339, double* %IMFS2.addr, align 8, !tbaa !1531, !dbg !1603
	%340 = load double, double* %IMFss.addr, align 8, !tbaa !1531, !dbg !1605
	%341 = fmul double  %340,  3.00000000000000000E+1, !dbg !1605
	%342 = load double, double* %IMFs.addr, align 8, !tbaa !1531, !dbg !1605
	%343 = fmul double  %340,  6.00000000000000000E+1, !dbg !1605
	%344 = fmul double  %342,  %343, !dbg !1605
	%345 = fsub double -0.00000000e+00,  %344, !dbg !1678
	%346 = call double @llvm.fma.f64 (double  %340, double  %341, double  %345), !dbg !1605
	%347 = call double @llvm.fma.f64 (double  %340, double  3.00000000000000000E+1, double  %346), !dbg !1605
	%348 = load %struct.VectorDipole*, %struct.VectorDipole** %_T18640328_8111.addr, align 8, !tbaa !1404, !dbg !1605
	%349 = bitcast %struct.VectorDipole*  %348 to i8*, !dbg !1605
	%350 = getelementptr i8, i8*  %349, i64 80, !dbg !1605
	%351 = bitcast i8*  %350 to double*, !dbg !1605
	%352 = load double, double*  %351, align 8, !tbaa !1529, !dbg !1605
	%353 = getelementptr i8, i8*  %349, i64 72, !dbg !1605
	%354 = bitcast i8*  %353 to double*, !dbg !1605
	%355 = load double, double*  %354, align 8, !tbaa !1529, !dbg !1605
	%356 = fsub double  %352,  %355, !dbg !1605
	%357 = fdiv double  %347,  %356, !dbg !1605
	call void @llvm.dbg.declare (metadata double* %IMFdS2dx.addr, metadata !1606, metadata !1394), !dbg !1536
	store double  %357, double* %IMFdS2dx.addr, align 8, !tbaa !1531, !dbg !1605
	%358 = load double, double* %dS2dx.addr, align 8, !tbaa !1531, !dbg !1607
	call void @llvm.dbg.declare (metadata [3 x double]* %dS2cart.addr, metadata !1608, metadata !1394), !dbg !1536
	%359 = bitcast [3 x double]* %dS2cart.addr to double*, !dbg !1607
	store double  %358, double*  %359, align 8, !tbaa !1529, !dbg !1607
	%360 = bitcast [3 x double]* %dS2cart.addr to i8*, !dbg !1609
	%361 = getelementptr i8, i8*  %360, i64 8, !dbg !1609
	%362 = bitcast i8*  %361 to double*, !dbg !1609
	store double  0.00000000000000000E+0, double*  %362, align 8, !tbaa !1529, !dbg !1609
	%363 = getelementptr i8, i8*  %360, i64 16, !dbg !1610
	%364 = bitcast i8*  %363 to double*, !dbg !1610
	store double  0.00000000000000000E+0, double*  %364, align 8, !tbaa !1529, !dbg !1610
	%365 = load double, double* %IMFdS2dx.addr, align 8, !tbaa !1531, !dbg !1611
	call void @llvm.dbg.declare (metadata [3 x double]* %IMFdS2cart.addr, metadata !1612, metadata !1394), !dbg !1536
	%366 = bitcast [3 x double]* %IMFdS2cart.addr to double*, !dbg !1611
	store double  %365, double*  %366, align 8, !tbaa !1529, !dbg !1611
	%367 = bitcast [3 x double]* %IMFdS2cart.addr to i8*, !dbg !1613
	%368 = getelementptr i8, i8*  %367, i64 8, !dbg !1613
	%369 = bitcast i8*  %368 to double*, !dbg !1613
	store double  0.00000000000000000E+0, double*  %369, align 8, !tbaa !1529, !dbg !1613
	%370 = getelementptr i8, i8*  %367, i64 16, !dbg !1614
	%371 = bitcast i8*  %370 to double*, !dbg !1614
	store double  0.00000000000000000E+0, double*  %371, align 8, !tbaa !1529, !dbg !1614
	%372 = load %struct.VectorDipole*, %struct.VectorDipole** %_T18640328_8111.addr, align 8, !tbaa !1404, !dbg !1615
	%373 = bitcast %struct.VectorDipole*  %372 to i8*, !dbg !1615
	%374 = getelementptr i8, i8*  %373, i64 16, !dbg !1615
	%375 = bitcast i8*  %374 to i32*, !dbg !1615
	%376 = load i32, i32*  %375, align 4, !tbaa !1529, !dbg !1615
	%377 = icmp ne i32  %376, 0, !dbg !1615
	br i1  %377, label %L.B0011, label %L.B0063, !dbg !1615
L.B0063:
	%378 = load double, double* %r1.addr, align 8, !tbaa !1531, !dbg !1615
	%379 = bitcast %struct.VectorDipole*  %372 to i8*, !dbg !1615
	%380 = getelementptr i8, i8*  %379, i64 72, !dbg !1615
	%381 = bitcast i8*  %380 to double*, !dbg !1615
	%382 = load double, double*  %381, align 8, !tbaa !1529, !dbg !1615
	%383 = fcmp ule double  %378,  %382, !dbg !1615
	br i1  %383, label %L.B0011, label %L.B0064, !dbg !1615
L.B0064:
	call void @llvm.dbg.declare (metadata [3 x double]* %delS2crossA.addr, metadata !1617, metadata !1394), !dbg !1542
	%384 = bitcast [3 x double]* %delS2crossA.addr to double*, !dbg !1616
	store double  0.00000000000000000E+0, double*  %384, align 8, !tbaa !1529, !dbg !1616
	%385 = bitcast [3 x double]* %A.addr to i8*, !dbg !1618
	%386 = getelementptr i8, i8*  %385, i64 16, !dbg !1618
	%387 = bitcast i8*  %386 to double*, !dbg !1618
	%388 = load double, double*  %387, align 8, !tbaa !1529, !dbg !1618
	%389 = bitcast [3 x double]* %dS2cart.addr to double*, !dbg !1618
	%390 = load double, double*  %389, align 8, !tbaa !1529, !dbg !1618
	%391 = fmul double  %388,  %390, !dbg !1618
	%392 = fsub double -0.00000000e+00,  %391, !dbg !1618
	%393 = bitcast [3 x double]* %delS2crossA.addr to i8*, !dbg !1618
	%394 = getelementptr i8, i8*  %393, i64 8, !dbg !1618
	%395 = bitcast i8*  %394 to double*, !dbg !1618
	store double  %392, double*  %395, align 8, !tbaa !1529, !dbg !1618
	%396 = getelementptr i8, i8*  %385, i64 8, !dbg !1619
	%397 = bitcast i8*  %396 to double*, !dbg !1619
	%398 = load double, double*  %397, align 8, !tbaa !1529, !dbg !1619
	%399 = fmul double  %390,  %398, !dbg !1619
	%400 = getelementptr i8, i8*  %393, i64 16, !dbg !1619
	%401 = bitcast i8*  %400 to double*, !dbg !1619
	store double  %399, double*  %401, align 8, !tbaa !1529, !dbg !1619
	call void @llvm.dbg.declare (metadata [3 x double]* %IMFdelS2crossA.addr, metadata !1621, metadata !1394), !dbg !1542
	%402 = bitcast [3 x double]* %IMFdelS2crossA.addr to double*, !dbg !1620
	store double  0.00000000000000000E+0, double*  %402, align 8, !tbaa !1529, !dbg !1620
	%403 = bitcast [3 x double]* %IMFA.addr to i8*, !dbg !1622
	%404 = getelementptr i8, i8*  %403, i64 16, !dbg !1622
	%405 = bitcast i8*  %404 to double*, !dbg !1622
	%406 = load double, double*  %405, align 8, !tbaa !1529, !dbg !1622
	%407 = bitcast [3 x double]* %IMFdS2cart.addr to double*, !dbg !1622
	%408 = load double, double*  %407, align 8, !tbaa !1529, !dbg !1622
	%409 = fmul double  %406,  %408, !dbg !1622
	%410 = fsub double -0.00000000e+00,  %409, !dbg !1622
	%411 = bitcast [3 x double]* %IMFdelS2crossA.addr to i8*, !dbg !1622
	%412 = getelementptr i8, i8*  %411, i64 8, !dbg !1622
	%413 = bitcast i8*  %412 to double*, !dbg !1622
	store double  %410, double*  %413, align 8, !tbaa !1529, !dbg !1622
	%414 = getelementptr i8, i8*  %403, i64 8, !dbg !1623
	%415 = bitcast i8*  %414 to double*, !dbg !1623
	%416 = load double, double*  %415, align 8, !tbaa !1529, !dbg !1623
	%417 = fmul double  %408,  %416, !dbg !1623
	%418 = getelementptr i8, i8*  %411, i64 16, !dbg !1623
	%419 = bitcast i8*  %418 to double*, !dbg !1623
	store double  %417, double*  %419, align 8, !tbaa !1529, !dbg !1623
	%420 = load %struct.VectorDipole*, %struct.VectorDipole** %_T18640328_8111.addr, align 8, !tbaa !1404, !dbg !1624
	%421 = bitcast %struct.VectorDipole*  %420 to i8*, !dbg !1624
	%422 = getelementptr i8, i8*  %421, i64 8, !dbg !1624
	%423 = bitcast i8*  %422 to i32*, !dbg !1624
	%424 = load i32, i32*  %423, align 4, !tbaa !1529, !dbg !1624
	%425 = zext i32  %424 to i64, !dbg !1624
	%426 = getelementptr double, double*  %402, i64  %425, !dbg !1624
	%427 = load double, double*  %426, align 8, !tbaa !1529, !dbg !1624
	%428 = load double, double* %IMFB.addr, align 8, !tbaa !1531, !dbg !1624
	%429 = load double, double* %IMFS2.addr, align 8, !tbaa !1531, !dbg !1624
	%430 = load double, double* %B.addr, align 8, !tbaa !1531, !dbg !1624
	%431 = load double, double* %S2.addr, align 8, !tbaa !1531, !dbg !1624
	%432 = getelementptr double, double*  %384, i64  %425, !dbg !1624
	%433 = load double, double*  %432, align 8, !tbaa !1529, !dbg !1624
	%434 = call double @llvm.fma.f64 (double  %430, double  %431, double  %433), !dbg !1624
	%435 = call double @llvm.fma.f64 (double  %428, double  %429, double  %434), !dbg !1624
	%436 = fadd double  %427,  %435, !dbg !1624
	ret double  %436, !dbg !1624
L.B0065:
	br label %L.R0007, !dbg !1624
L.B0011:
	%437 = load %struct.VectorDipole*, %struct.VectorDipole** %_T18640328_8111.addr, align 8, !tbaa !1404, !dbg !1625
	%438 = bitcast %struct.VectorDipole*  %437 to i8*, !dbg !1625
	%439 = getelementptr i8, i8*  %438, i64 16, !dbg !1625
	%440 = bitcast i8*  %439 to i32*, !dbg !1625
	%441 = load i32, i32*  %440, align 4, !tbaa !1529, !dbg !1625
	%442 = icmp ne i32  %441, 1, !dbg !1625
	br i1  %442, label %L.B0016, label %L.B0066, !dbg !1625
L.B0066:
	%443 = load double, double* %r1.addr, align 8, !tbaa !1531, !dbg !1625
	%444 = bitcast %struct.VectorDipole*  %437 to i8*, !dbg !1625
	%445 = getelementptr i8, i8*  %444, i64 72, !dbg !1625
	%446 = bitcast i8*  %445 to double*, !dbg !1625
	%447 = load double, double*  %446, align 8, !tbaa !1529, !dbg !1625
	%448 = fcmp ule double  %443,  %447, !dbg !1625
	br i1  %448, label %L.B0016, label %L.B0067, !dbg !1625
L.B0067:
	%449 = load double, double* %B.addr, align 8, !tbaa !1531, !dbg !1626
	%450 = fmul double  %449, -5.00000000000000000E+0, !dbg !1626
	%451 = bitcast %struct.VectorDipole*  %437 to i8*, !dbg !1626
	%452 = getelementptr i8, i8*  %451, i64 12, !dbg !1626
	%453 = bitcast i8*  %452 to i32*, !dbg !1626
	%454 = load i32, i32*  %453, align 4, !tbaa !1529, !dbg !1626
	%455 = zext i32  %454 to i64, !dbg !1626
	%456 = bitcast [3 x double]* %r.addr to double*, !dbg !1626
	%457 = getelementptr double, double*  %456, i64  %455, !dbg !1626
	%458 = load double, double*  %457, align 8, !tbaa !1529, !dbg !1626
	%459 = fmul double  %450,  %458, !dbg !1626
	%460 = load double, double* %r2.addr, align 8, !tbaa !1531, !dbg !1626
	%461 = fdiv double  %459,  %460, !dbg !1626
	%462 = getelementptr i8, i8*  %451, i64 8, !dbg !1626
	%463 = bitcast i8*  %462 to i32*, !dbg !1626
	%464 = load i32, i32*  %463, align 4, !tbaa !1529, !dbg !1626
	%465 = zext i32  %464 to i64, !dbg !1626
	%466 = getelementptr double, double*  %456, i64  %465, !dbg !1626
	%467 = load double, double*  %466, align 8, !tbaa !1529, !dbg !1626
	%468 = getelementptr i8, i8*  %451, i64 24, !dbg !1626
	%469 = bitcast i8*  %468 to double*, !dbg !1626
	%470 = getelementptr double, double*  %469, i64  %455, !dbg !1626
	%471 = load double, double*  %470, align 8, !tbaa !1529, !dbg !1626
	%472 = fmul double  %471,  3.00000000000000000E+0, !dbg !1626
	%473 = getelementptr double, double*  %469, i64  %465, !dbg !1626
	%474 = load double, double*  %473, align 8, !tbaa !1529, !dbg !1626
	%475 = fadd double  %474,  %474, !dbg !1626
	%476 = fmul double  %458,  %475, !dbg !1626
	%477 = fsub double -0.00000000e+00,  %476, !dbg !1678
	%478 = call double @llvm.fma.f64 (double  %467, double  %472, double  %477), !dbg !1626
	%479 = load double, double* %rdotq.addr, align 8, !tbaa !1531, !dbg !1626
	%480 = fmul double  %479,  3.00000000000000000E+0, !dbg !1626
	%481 = icmp eq i32  %454,  %464, !dbg !1626
	%482 = zext i1  %481 to i32, !dbg !1626
	%483 = uitofp i32  %482 to double, !dbg !1626
	%484 = call double @llvm.fma.f64 (double  %480, double  %483, double  %478), !dbg !1626
	%485 = load double, double* %r5.addr, align 8, !tbaa !1531, !dbg !1626
	%486 = fdiv double  %484,  %485, !dbg !1626
	%487 = fadd double  %461,  %486, !dbg !1626
	call void @llvm.dbg.declare (metadata double* %delB.addr, metadata !1627, metadata !1394), !dbg !1546
	store double  %487, double* %delB.addr, align 8, !tbaa !1531, !dbg !1626
	%488 = load %struct.VectorDipole*, %struct.VectorDipole** %_T18640328_8111.addr, align 8, !tbaa !1404, !dbg !1628
	%489 = bitcast %struct.VectorDipole*  %488 to i8*, !dbg !1628
	%490 = getelementptr i8, i8*  %489, i64 40, !dbg !1628
	%491 = bitcast i8*  %490 to double*, !dbg !1628
	%492 = load double, double*  %491, align 8, !tbaa !1529, !dbg !1628
	%493 = load double, double* %r2.addr, align 8, !tbaa !1531, !dbg !1628
	%494 = load double, double* %r1.addr, align 8, !tbaa !1531, !dbg !1628
	%495 = fmul double  %493,  %494, !dbg !1628
	%496 = fdiv double  %492,  %495, !dbg !1628
	%497 = load double, double*  %456, align 8, !tbaa !1529, !dbg !1628
	%498 = fmul double  %493,  %493, !dbg !1628
	%499 = fmul double  %494,  %498, !dbg !1628
	%500 = fdiv double -3.00000000000000000E+0,  %499, !dbg !1628
	%501 = bitcast [3 x double]* %r.addr to i8*, !dbg !1628
	%502 = getelementptr i8, i8*  %501, i64 16, !dbg !1628
	%503 = bitcast i8*  %502 to double*, !dbg !1628
	%504 = load double, double*  %503, align 8, !tbaa !1529, !dbg !1628
	%505 = getelementptr i8, i8*  %489, i64 24, !dbg !1628
	%506 = bitcast i8*  %505 to double*, !dbg !1628
	%507 = load double, double*  %506, align 8, !tbaa !1529, !dbg !1628
	%508 = fmul double  %504,  %507, !dbg !1628
	%509 = fsub double -0.00000000e+00,  %508, !dbg !1678
	%510 = call double @llvm.fma.f64 (double  %497, double  %492, double  %509), !dbg !1628
	%511 = fmul double  %500,  %510, !dbg !1628
	%512 = call double @llvm.fma.f64 (double  %497, double  %511, double  %496), !dbg !1628
	call void @llvm.dbg.declare (metadata [3 x double]* %delAy.addr, metadata !1629, metadata !1394), !dbg !1546
	%513 = bitcast [3 x double]* %delAy.addr to double*, !dbg !1628
	store double  %512, double*  %513, align 8, !tbaa !1529, !dbg !1628
	%514 = getelementptr i8, i8*  %501, i64 8, !dbg !1630
	%515 = bitcast i8*  %514 to double*, !dbg !1630
	%516 = load double, double*  %515, align 8, !tbaa !1529, !dbg !1630
	%517 = load double, double* %r1.addr, align 8, !tbaa !1531, !dbg !1630
	%518 = load double, double* %r2.addr, align 8, !tbaa !1531, !dbg !1630
	%519 = fmul double  %518,  %518, !dbg !1630
	%520 = fmul double  %517,  %519, !dbg !1630
	%521 = fdiv double -3.00000000000000000E+0,  %520, !dbg !1630
	%522 = load double, double*  %456, align 8, !tbaa !1529, !dbg !1630
	%523 = load %struct.VectorDipole*, %struct.VectorDipole** %_T18640328_8111.addr, align 8, !tbaa !1404, !dbg !1630
	%524 = bitcast %struct.VectorDipole*  %523 to i8*, !dbg !1630
	%525 = getelementptr i8, i8*  %524, i64 40, !dbg !1630
	%526 = bitcast i8*  %525 to double*, !dbg !1630
	%527 = load double, double*  %526, align 8, !tbaa !1529, !dbg !1630
	%528 = getelementptr i8, i8*  %501, i64 16, !dbg !1630
	%529 = bitcast i8*  %528 to double*, !dbg !1630
	%530 = load double, double*  %529, align 8, !tbaa !1529, !dbg !1630
	%531 = getelementptr i8, i8*  %524, i64 24, !dbg !1630
	%532 = bitcast i8*  %531 to double*, !dbg !1630
	%533 = load double, double*  %532, align 8, !tbaa !1529, !dbg !1630
	%534 = fmul double  %530,  %533, !dbg !1630
	%535 = fsub double -0.00000000e+00,  %534, !dbg !1678
	%536 = call double @llvm.fma.f64 (double  %522, double  %527, double  %535), !dbg !1630
	%537 = fmul double  %521,  %536, !dbg !1630
	%538 = fmul double  %516,  %537, !dbg !1630
	%539 = bitcast [3 x double]* %delAy.addr to i8*, !dbg !1630
	%540 = getelementptr i8, i8*  %539, i64 8, !dbg !1630
	%541 = bitcast i8*  %540 to double*, !dbg !1630
	store double  %538, double*  %541, align 8, !tbaa !1529, !dbg !1630
	%542 = fdiv double -3.00000000000000000E+0,  %520, !dbg !1631
	%543 = load double, double*  %526, align 8, !tbaa !1529, !dbg !1631
	%544 = load double, double*  %532, align 8, !tbaa !1529, !dbg !1631
	%545 = fmul double  %530,  %544, !dbg !1631
	%546 = fsub double -0.00000000e+00,  %545, !dbg !1678
	%547 = call double @llvm.fma.f64 (double  %522, double  %543, double  %546), !dbg !1631
	%548 = fmul double  %542,  %547, !dbg !1631
	%549 = fmul double  %518,  %517, !dbg !1631
	%550 = fdiv double  %544,  %549, !dbg !1631
	%551 = fsub double -0.00000000e+00,  %550, !dbg !1678
	%552 = call double @llvm.fma.f64 (double  %530, double  %548, double  %551), !dbg !1631
	%553 = getelementptr i8, i8*  %539, i64 16, !dbg !1631
	%554 = bitcast i8*  %553 to double*, !dbg !1631
	store double  %552, double*  %554, align 8, !tbaa !1529, !dbg !1631
	%555 = fdiv double -3.00000000000000000E+0,  %520, !dbg !1632
	%556 = load double, double*  %532, align 8, !tbaa !1529, !dbg !1632
	%557 = getelementptr i8, i8*  %524, i64 32, !dbg !1632
	%558 = bitcast i8*  %557 to double*, !dbg !1632
	%559 = load double, double*  %558, align 8, !tbaa !1529, !dbg !1632
	%560 = fmul double  %522,  %559, !dbg !1632
	%561 = fsub double -0.00000000e+00,  %560, !dbg !1678
	%562 = call double @llvm.fma.f64 (double  %516, double  %556, double  %561), !dbg !1632
	%563 = fmul double  %555,  %562, !dbg !1632
	%564 = fdiv double  %559,  %549, !dbg !1632
	%565 = fsub double -0.00000000e+00,  %564, !dbg !1678
	%566 = call double @llvm.fma.f64 (double  %522, double  %563, double  %565), !dbg !1632
	call void @llvm.dbg.declare (metadata [3 x double]* %delAz.addr, metadata !1633, metadata !1394), !dbg !1546
	%567 = bitcast [3 x double]* %delAz.addr to double*, !dbg !1632
	store double  %566, double*  %567, align 8, !tbaa !1529, !dbg !1632
	%568 = load %struct.VectorDipole*, %struct.VectorDipole** %_T18640328_8111.addr, align 8, !tbaa !1404, !dbg !1634
	%569 = bitcast %struct.VectorDipole*  %568 to i8*, !dbg !1634
	%570 = getelementptr i8, i8*  %569, i64 24, !dbg !1634
	%571 = bitcast i8*  %570 to double*, !dbg !1634
	%572 = load double, double*  %571, align 8, !tbaa !1529, !dbg !1634
	%573 = load double, double* %r2.addr, align 8, !tbaa !1531, !dbg !1634
	%574 = load double, double* %r1.addr, align 8, !tbaa !1531, !dbg !1634
	%575 = fmul double  %573,  %574, !dbg !1634
	%576 = fdiv double  %572,  %575, !dbg !1634
	%577 = getelementptr i8, i8*  %501, i64 8, !dbg !1634
	%578 = bitcast i8*  %577 to double*, !dbg !1634
	%579 = load double, double*  %578, align 8, !tbaa !1529, !dbg !1634
	%580 = fmul double  %573,  %573, !dbg !1634
	%581 = fmul double  %574,  %580, !dbg !1634
	%582 = fdiv double -3.00000000000000000E+0,  %581, !dbg !1634
	%583 = load double, double*  %456, align 8, !tbaa !1529, !dbg !1634
	%584 = getelementptr i8, i8*  %569, i64 32, !dbg !1634
	%585 = bitcast i8*  %584 to double*, !dbg !1634
	%586 = load double, double*  %585, align 8, !tbaa !1529, !dbg !1634
	%587 = fmul double  %583,  %586, !dbg !1634
	%588 = fsub double -0.00000000e+00,  %587, !dbg !1678
	%589 = call double @llvm.fma.f64 (double  %579, double  %572, double  %588), !dbg !1634
	%590 = fmul double  %582,  %589, !dbg !1634
	%591 = call double @llvm.fma.f64 (double  %579, double  %590, double  %576), !dbg !1634
	%592 = bitcast [3 x double]* %delAz.addr to i8*, !dbg !1634
	%593 = getelementptr i8, i8*  %592, i64 8, !dbg !1634
	%594 = bitcast i8*  %593 to double*, !dbg !1634
	store double  %591, double*  %594, align 8, !tbaa !1529, !dbg !1634
	%595 = getelementptr i8, i8*  %501, i64 16, !dbg !1635
	%596 = bitcast i8*  %595 to double*, !dbg !1635
	%597 = load double, double*  %596, align 8, !tbaa !1529, !dbg !1635
	%598 = fdiv double -3.00000000000000000E+0,  %581, !dbg !1635
	%599 = load double, double*  %571, align 8, !tbaa !1529, !dbg !1635
	%600 = load double, double*  %585, align 8, !tbaa !1529, !dbg !1635
	%601 = fmul double  %583,  %600, !dbg !1635
	%602 = fsub double -0.00000000e+00,  %601, !dbg !1678
	%603 = call double @llvm.fma.f64 (double  %579, double  %599, double  %602), !dbg !1635
	%604 = fmul double  %598,  %603, !dbg !1635
	%605 = fmul double  %597,  %604, !dbg !1635
	%606 = getelementptr i8, i8*  %592, i64 16, !dbg !1635
	%607 = bitcast i8*  %606 to double*, !dbg !1635
	store double  %605, double*  %607, align 8, !tbaa !1529, !dbg !1635
	call void @llvm.dbg.declare (metadata [3 x double]* %IMFdelAx.addr, metadata !1637, metadata !1394), !dbg !1546
	%608 = bitcast [3 x double]* %IMFdelAx.addr to double*, !dbg !1636
	store double  0.00000000000000000E+0, double*  %608, align 8, !tbaa !1529, !dbg !1636
	%609 = load %struct.VectorDipole*, %struct.VectorDipole** %_T18640328_8111.addr, align 8, !tbaa !1404, !dbg !1638
	%610 = bitcast %struct.VectorDipole*  %609 to i8*, !dbg !1638
	%611 = getelementptr i8, i8*  %610, i64 104, !dbg !1638
	%612 = bitcast i8*  %611 to double*, !dbg !1638
	%613 = load double, double*  %612, align 8, !tbaa !1529, !dbg !1638
	%614 = fmul double  %613, -5.00000000000000000E-1, !dbg !1638
	%615 = bitcast [3 x double]* %IMFdelAx.addr to i8*, !dbg !1638
	%616 = getelementptr i8, i8*  %615, i64 8, !dbg !1638
	%617 = bitcast i8*  %616 to double*, !dbg !1638
	store double  %614, double*  %617, align 8, !tbaa !1529, !dbg !1638
	%618 = getelementptr i8, i8*  %610, i64 96, !dbg !1639
	%619 = bitcast i8*  %618 to double*, !dbg !1639
	%620 = load double, double*  %619, align 8, !tbaa !1529, !dbg !1639
	%621 = fmul double  %620,  5.00000000000000000E-1, !dbg !1639
	%622 = getelementptr i8, i8*  %615, i64 16, !dbg !1639
	%623 = bitcast i8*  %622 to double*, !dbg !1639
	store double  %621, double*  %623, align 8, !tbaa !1529, !dbg !1639
	%624 = load double, double*  %612, align 8, !tbaa !1529, !dbg !1640
	%625 = fmul double  %624,  5.00000000000000000E-1, !dbg !1640
	call void @llvm.dbg.declare (metadata [3 x double]* %IMFdelAy.addr, metadata !1641, metadata !1394), !dbg !1546
	%626 = bitcast [3 x double]* %IMFdelAy.addr to double*, !dbg !1640
	store double  %625, double*  %626, align 8, !tbaa !1529, !dbg !1640
	%627 = bitcast [3 x double]* %IMFdelAy.addr to i8*, !dbg !1642
	%628 = getelementptr i8, i8*  %627, i64 8, !dbg !1642
	%629 = bitcast i8*  %628 to double*, !dbg !1642
	store double  0.00000000000000000E+0, double*  %629, align 8, !tbaa !1529, !dbg !1642
	%630 = load %struct.VectorDipole*, %struct.VectorDipole** %_T18640328_8111.addr, align 8, !tbaa !1404, !dbg !1643
	%631 = bitcast %struct.VectorDipole*  %630 to i8*, !dbg !1643
	%632 = getelementptr i8, i8*  %631, i64 88, !dbg !1643
	%633 = bitcast i8*  %632 to double*, !dbg !1643
	%634 = load double, double*  %633, align 8, !tbaa !1529, !dbg !1643
	%635 = fmul double  %634, -5.00000000000000000E-1, !dbg !1643
	%636 = getelementptr i8, i8*  %627, i64 16, !dbg !1643
	%637 = bitcast i8*  %636 to double*, !dbg !1643
	store double  %635, double*  %637, align 8, !tbaa !1529, !dbg !1643
	%638 = getelementptr i8, i8*  %631, i64 96, !dbg !1644
	%639 = bitcast i8*  %638 to double*, !dbg !1644
	%640 = load double, double*  %639, align 8, !tbaa !1529, !dbg !1644
	%641 = fmul double  %640, -5.00000000000000000E-1, !dbg !1644
	call void @llvm.dbg.declare (metadata [3 x double]* %IMFdelAz.addr, metadata !1645, metadata !1394), !dbg !1546
	%642 = bitcast [3 x double]* %IMFdelAz.addr to double*, !dbg !1644
	store double  %641, double*  %642, align 8, !tbaa !1529, !dbg !1644
	%643 = load %struct.VectorDipole*, %struct.VectorDipole** %_T18640328_8111.addr, align 8, !tbaa !1404, !dbg !1646
	%644 = bitcast %struct.VectorDipole*  %643 to i8*, !dbg !1646
	%645 = getelementptr i8, i8*  %644, i64 88, !dbg !1646
	%646 = bitcast i8*  %645 to double*, !dbg !1646
	%647 = load double, double*  %646, align 8, !tbaa !1529, !dbg !1646
	%648 = fmul double  %647,  5.00000000000000000E-1, !dbg !1646
	%649 = bitcast [3 x double]* %IMFdelAz.addr to i8*, !dbg !1646
	%650 = getelementptr i8, i8*  %649, i64 8, !dbg !1646
	%651 = bitcast i8*  %650 to double*, !dbg !1646
	store double  %648, double*  %651, align 8, !tbaa !1529, !dbg !1646
	%652 = getelementptr i8, i8*  %649, i64 16, !dbg !1647
	%653 = bitcast i8*  %652 to double*, !dbg !1647
	store double  0.00000000000000000E+0, double*  %653, align 8, !tbaa !1529, !dbg !1647
	%654 = load double, double* %s.addr, align 8, !tbaa !1531, !dbg !1648
	%655 = load double, double* %ss.addr, align 8, !tbaa !1531, !dbg !1648
	%656 = fadd double  %655,  %655, !dbg !1648
	%657 = fmul double  %655,  3.00000000000000000E+0, !dbg !1648
	%658 = fsub double -0.00000000e+00,  %657, !dbg !1678
	%659 = call double @llvm.fma.f64 (double  %654, double  %656, double  %658), !dbg !1648
	%660 = fadd double  %654,  %659, !dbg !1648
	%661 = fmul double  %660,  6.00000000000000000E+1, !dbg !1648
	%662 = getelementptr i8, i8*  %644, i64 80, !dbg !1648
	%663 = bitcast i8*  %662 to double*, !dbg !1648
	%664 = load double, double*  %663, align 8, !tbaa !1529, !dbg !1648
	%665 = getelementptr i8, i8*  %644, i64 72, !dbg !1648
	%666 = bitcast i8*  %665 to double*, !dbg !1648
	%667 = load double, double*  %666, align 8, !tbaa !1529, !dbg !1648
	%668 = fsub double  %664,  %667, !dbg !1648
	%669 = fmul double  %668,  %668, !dbg !1648
	%670 = fdiv double  %661,  %669, !dbg !1648
	call void @llvm.dbg.declare (metadata double* %ddidS2dx.addr, metadata !1649, metadata !1394), !dbg !1546
	call void @llvm.dbg.declare (metadata [3 x double]* %deldS2dx.addr, metadata !1651, metadata !1394), !dbg !1546
	%671 = bitcast [3 x double]* %deldS2dx.addr to double*, !dbg !1650
	store double  %670, double*  %671, align 8, !tbaa !1529, !dbg !1650
	%672 = bitcast [3 x double]* %deldS2dx.addr to i8*, !dbg !1652
	%673 = getelementptr i8, i8*  %672, i64 8, !dbg !1652
	%674 = bitcast i8*  %673 to double*, !dbg !1652
	store double  0.00000000000000000E+0, double*  %674, align 8, !tbaa !1529, !dbg !1652
	%675 = getelementptr i8, i8*  %672, i64 16, !dbg !1653
	%676 = bitcast i8*  %675 to double*, !dbg !1653
	store double  0.00000000000000000E+0, double*  %676, align 8, !tbaa !1529, !dbg !1653
	call void @llvm.dbg.declare (metadata [3 x [3 x double]]* %ddS2crossA.addr, metadata !1657, metadata !1394), !dbg !1546
	%677 = bitcast [3 x [3 x double]]* %ddS2crossA.addr to double*, !dbg !1654
	store double  0.00000000000000000E+0, double*  %677, align 8, !tbaa !1529, !dbg !1654
	%678 = bitcast [3 x [3 x double]]* %ddS2crossA.addr to i8*, !dbg !1658
	%679 = getelementptr i8, i8*  %678, i64 8, !dbg !1658
	%680 = bitcast i8*  %679 to double*, !dbg !1658
	store double  0.00000000000000000E+0, double*  %680, align 8, !tbaa !1529, !dbg !1658
	%681 = getelementptr i8, i8*  %678, i64 16, !dbg !1659
	%682 = bitcast i8*  %681 to double*, !dbg !1659
	store double  0.00000000000000000E+0, double*  %682, align 8, !tbaa !1529, !dbg !1659
	%683 = bitcast [3 x double]* %A.addr to i8*, !dbg !1660
	%684 = getelementptr i8, i8*  %683, i64 16, !dbg !1660
	%685 = bitcast i8*  %684 to double*, !dbg !1660
	%686 = load double, double*  %685, align 8, !tbaa !1529, !dbg !1660
	%687 = load double, double*  %671, align 8, !tbaa !1529, !dbg !1660
	%688 = fmul double  %686,  %687, !dbg !1660
	%689 = fsub double -0.00000000e+00,  %688, !dbg !1660
	%690 = bitcast [3 x double]* %dS2cart.addr to double*, !dbg !1660
	%691 = load double, double*  %690, align 8, !tbaa !1529, !dbg !1660
	%692 = load double, double*  %567, align 8, !tbaa !1529, !dbg !1660
	%693 = fmul double  %691,  %692, !dbg !1660
	%694 = fsub double -0.00000000e+00,  %691, !dbg !1678
	%695 = call double @llvm.fma.f64 (double  %694, double  %692, double  %689), !dbg !1660
	%696 = getelementptr i8, i8*  %678, i64 24, !dbg !1660
	%697 = bitcast i8*  %696 to double*, !dbg !1660
	store double  %695, double*  %697, align 8, !tbaa !1529, !dbg !1660
	%698 = getelementptr i8, i8*  %672, i64 8, !dbg !1661
	%699 = bitcast i8*  %698 to double*, !dbg !1661
	%700 = load double, double*  %699, align 8, !tbaa !1529, !dbg !1661
	%701 = fmul double  %686,  %700, !dbg !1661
	%702 = fsub double -0.00000000e+00,  %701, !dbg !1661
	%703 = getelementptr i8, i8*  %592, i64 8, !dbg !1661
	%704 = bitcast i8*  %703 to double*, !dbg !1661
	%705 = load double, double*  %704, align 8, !tbaa !1529, !dbg !1661
	%706 = fmul double  %691,  %705, !dbg !1661
	%707 = fsub double -0.00000000e+00,  %691, !dbg !1678
	%708 = call double @llvm.fma.f64 (double  %707, double  %705, double  %702), !dbg !1661
	%709 = getelementptr i8, i8*  %678, i64 32, !dbg !1661
	%710 = bitcast i8*  %709 to double*, !dbg !1661
	store double  %708, double*  %710, align 8, !tbaa !1529, !dbg !1661
	%711 = getelementptr i8, i8*  %672, i64 16, !dbg !1662
	%712 = bitcast i8*  %711 to double*, !dbg !1662
	%713 = load double, double*  %712, align 8, !tbaa !1529, !dbg !1662
	%714 = fmul double  %686,  %713, !dbg !1662
	%715 = fsub double -0.00000000e+00,  %714, !dbg !1662
	%716 = getelementptr i8, i8*  %592, i64 16, !dbg !1662
	%717 = bitcast i8*  %716 to double*, !dbg !1662
	%718 = load double, double*  %717, align 8, !tbaa !1529, !dbg !1662
	%719 = fmul double  %691,  %718, !dbg !1662
	%720 = fsub double -0.00000000e+00,  %691, !dbg !1678
	%721 = call double @llvm.fma.f64 (double  %720, double  %718, double  %715), !dbg !1662
	%722 = getelementptr i8, i8*  %678, i64 40, !dbg !1662
	%723 = bitcast i8*  %722 to double*, !dbg !1662
	store double  %721, double*  %723, align 8, !tbaa !1529, !dbg !1662
	%724 = load double, double*  %513, align 8, !tbaa !1529, !dbg !1663
	%725 = getelementptr i8, i8*  %683, i64 8, !dbg !1663
	%726 = bitcast i8*  %725 to double*, !dbg !1663
	%727 = load double, double*  %726, align 8, !tbaa !1529, !dbg !1663
	%728 = fmul double  %727,  %687, !dbg !1663
	%729 = call double @llvm.fma.f64 (double  %691, double  %724, double  %728), !dbg !1663
	%730 = getelementptr i8, i8*  %678, i64 48, !dbg !1663
	%731 = bitcast i8*  %730 to double*, !dbg !1663
	store double  %729, double*  %731, align 8, !tbaa !1529, !dbg !1663
	%732 = getelementptr i8, i8*  %539, i64 8, !dbg !1664
	%733 = bitcast i8*  %732 to double*, !dbg !1664
	%734 = load double, double*  %733, align 8, !tbaa !1529, !dbg !1664
	%735 = fmul double  %727,  %700, !dbg !1664
	%736 = call double @llvm.fma.f64 (double  %691, double  %734, double  %735), !dbg !1664
	%737 = getelementptr i8, i8*  %678, i64 56, !dbg !1664
	%738 = bitcast i8*  %737 to double*, !dbg !1664
	store double  %736, double*  %738, align 8, !tbaa !1529, !dbg !1664
	%739 = getelementptr i8, i8*  %539, i64 16, !dbg !1665
	%740 = bitcast i8*  %739 to double*, !dbg !1665
	%741 = load double, double*  %740, align 8, !tbaa !1529, !dbg !1665
	%742 = fmul double  %727,  %713, !dbg !1665
	%743 = call double @llvm.fma.f64 (double  %691, double  %741, double  %742), !dbg !1665
	%744 = getelementptr i8, i8*  %678, i64 64, !dbg !1665
	%745 = bitcast i8*  %744 to double*, !dbg !1665
	store double  %743, double*  %745, align 8, !tbaa !1529, !dbg !1665
	call void @llvm.dbg.declare (metadata [3 x [3 x double]]* %IMFddS2crossA.addr, metadata !1667, metadata !1394), !dbg !1546
	%746 = bitcast [3 x [3 x double]]* %IMFddS2crossA.addr to double*, !dbg !1666
	store double  0.00000000000000000E+0, double*  %746, align 8, !tbaa !1529, !dbg !1666
	%747 = bitcast [3 x [3 x double]]* %IMFddS2crossA.addr to i8*, !dbg !1668
	%748 = getelementptr i8, i8*  %747, i64 8, !dbg !1668
	%749 = bitcast i8*  %748 to double*, !dbg !1668
	store double  0.00000000000000000E+0, double*  %749, align 8, !tbaa !1529, !dbg !1668
	%750 = getelementptr i8, i8*  %747, i64 16, !dbg !1669
	%751 = bitcast i8*  %750 to double*, !dbg !1669
	store double  0.00000000000000000E+0, double*  %751, align 8, !tbaa !1529, !dbg !1669
	%752 = bitcast [3 x double]* %IMFA.addr to i8*, !dbg !1670
	%753 = getelementptr i8, i8*  %752, i64 16, !dbg !1670
	%754 = bitcast i8*  %753 to double*, !dbg !1670
	%755 = load double, double*  %754, align 8, !tbaa !1529, !dbg !1670
	%756 = load double, double*  %671, align 8, !tbaa !1529, !dbg !1670
	%757 = fmul double  %755,  %756, !dbg !1670
	%758 = fsub double -0.00000000e+00,  %757, !dbg !1670
	%759 = bitcast [3 x double]* %IMFdS2cart.addr to double*, !dbg !1670
	%760 = load double, double*  %759, align 8, !tbaa !1529, !dbg !1670
	%761 = load double, double*  %642, align 8, !tbaa !1529, !dbg !1670
	%762 = fmul double  %760,  %761, !dbg !1670
	%763 = fsub double -0.00000000e+00,  %760, !dbg !1678
	%764 = call double @llvm.fma.f64 (double  %763, double  %761, double  %758), !dbg !1670
	%765 = getelementptr i8, i8*  %747, i64 24, !dbg !1670
	%766 = bitcast i8*  %765 to double*, !dbg !1670
	store double  %764, double*  %766, align 8, !tbaa !1529, !dbg !1670
	%767 = getelementptr i8, i8*  %672, i64 8, !dbg !1671
	%768 = bitcast i8*  %767 to double*, !dbg !1671
	%769 = load double, double*  %768, align 8, !tbaa !1529, !dbg !1671
	%770 = fmul double  %755,  %769, !dbg !1671
	%771 = fsub double -0.00000000e+00,  %770, !dbg !1671
	%772 = getelementptr i8, i8*  %649, i64 8, !dbg !1671
	%773 = bitcast i8*  %772 to double*, !dbg !1671
	%774 = load double, double*  %773, align 8, !tbaa !1529, !dbg !1671
	%775 = fmul double  %760,  %774, !dbg !1671
	%776 = fsub double -0.00000000e+00,  %760, !dbg !1678
	%777 = call double @llvm.fma.f64 (double  %776, double  %774, double  %771), !dbg !1671
	%778 = getelementptr i8, i8*  %747, i64 32, !dbg !1671
	%779 = bitcast i8*  %778 to double*, !dbg !1671
	store double  %777, double*  %779, align 8, !tbaa !1529, !dbg !1671
	%780 = getelementptr i8, i8*  %672, i64 16, !dbg !1672
	%781 = bitcast i8*  %780 to double*, !dbg !1672
	%782 = load double, double*  %781, align 8, !tbaa !1529, !dbg !1672
	%783 = fmul double  %755,  %782, !dbg !1672
	%784 = fsub double -0.00000000e+00,  %783, !dbg !1672
	%785 = getelementptr i8, i8*  %649, i64 16, !dbg !1672
	%786 = bitcast i8*  %785 to double*, !dbg !1672
	%787 = load double, double*  %786, align 8, !tbaa !1529, !dbg !1672
	%788 = fmul double  %760,  %787, !dbg !1672
	%789 = fsub double -0.00000000e+00,  %760, !dbg !1678
	%790 = call double @llvm.fma.f64 (double  %789, double  %787, double  %784), !dbg !1672
	%791 = getelementptr i8, i8*  %747, i64 40, !dbg !1672
	%792 = bitcast i8*  %791 to double*, !dbg !1672
	store double  %790, double*  %792, align 8, !tbaa !1529, !dbg !1672
	%793 = load double, double*  %626, align 8, !tbaa !1529, !dbg !1673
	%794 = getelementptr i8, i8*  %752, i64 8, !dbg !1673
	%795 = bitcast i8*  %794 to double*, !dbg !1673
	%796 = load double, double*  %795, align 8, !tbaa !1529, !dbg !1673
	%797 = fmul double  %796,  %756, !dbg !1673
	%798 = call double @llvm.fma.f64 (double  %760, double  %793, double  %797), !dbg !1673
	%799 = getelementptr i8, i8*  %747, i64 48, !dbg !1673
	%800 = bitcast i8*  %799 to double*, !dbg !1673
	store double  %798, double*  %800, align 8, !tbaa !1529, !dbg !1673
	%801 = getelementptr i8, i8*  %627, i64 8, !dbg !1674
	%802 = bitcast i8*  %801 to double*, !dbg !1674
	%803 = load double, double*  %802, align 8, !tbaa !1529, !dbg !1674
	%804 = fmul double  %796,  %769, !dbg !1674
	%805 = call double @llvm.fma.f64 (double  %760, double  %803, double  %804), !dbg !1674
	%806 = getelementptr i8, i8*  %747, i64 56, !dbg !1674
	%807 = bitcast i8*  %806 to double*, !dbg !1674
	store double  %805, double*  %807, align 8, !tbaa !1529, !dbg !1674
	%808 = getelementptr i8, i8*  %627, i64 16, !dbg !1675
	%809 = bitcast i8*  %808 to double*, !dbg !1675
	%810 = load double, double*  %809, align 8, !tbaa !1529, !dbg !1675
	%811 = fmul double  %796,  %782, !dbg !1675
	%812 = call double @llvm.fma.f64 (double  %760, double  %810, double  %811), !dbg !1675
	%813 = getelementptr i8, i8*  %747, i64 64, !dbg !1675
	%814 = bitcast i8*  %813 to double*, !dbg !1675
	store double  %812, double*  %814, align 8, !tbaa !1529, !dbg !1675
	%815 = load %struct.VectorDipole*, %struct.VectorDipole** %_T18640328_8111.addr, align 8, !tbaa !1404, !dbg !1676
	%816 = bitcast %struct.VectorDipole*  %815 to i8*, !dbg !1676
	%817 = getelementptr i8, i8*  %816, i64 12, !dbg !1676
	%818 = bitcast i8*  %817 to i32*, !dbg !1676
	%819 = load i32, i32*  %818, align 4, !tbaa !1529, !dbg !1676
	%820 = zext i32  %819 to i64, !dbg !1676
	%821 = mul i64  %820, 8, !dbg !1676
	%822 = getelementptr i8, i8*  %816, i64 8, !dbg !1676
	%823 = bitcast i8*  %822 to i32*, !dbg !1676
	%824 = load i32, i32*  %823, align 4, !tbaa !1529, !dbg !1676
	%825 = zext i32  %824 to i64, !dbg !1676
	%826 = mul i64  %825, 24, !dbg !1676
	%827 = add i64  %821,  %826, !dbg !1676
	%828 = getelementptr i8, i8*  %747, i64  %827, !dbg !1676
	%829 = bitcast i8*  %828 to double*, !dbg !1676
	%830 = load double, double*  %829, align 8, !tbaa !1529, !dbg !1676
	%831 = load double, double* %IMFB.addr, align 8, !tbaa !1531, !dbg !1676
	%832 = getelementptr double, double*  %759, i64  %820, !dbg !1676
	%833 = load double, double*  %832, align 8, !tbaa !1529, !dbg !1676
	%834 = mul i64  %820, 8, !dbg !1676
	%835 = mul i64  %825, 24, !dbg !1676
	%836 = add i64  %834,  %835, !dbg !1676
	%837 = getelementptr i8, i8*  %678, i64  %836, !dbg !1676
	%838 = bitcast i8*  %837 to double*, !dbg !1676
	%839 = load double, double*  %838, align 8, !tbaa !1529, !dbg !1676
	%840 = load double, double* %S2.addr, align 8, !tbaa !1531, !dbg !1676
	%841 = load double, double* %delB.addr, align 8, !tbaa !1531, !dbg !1676
	%842 = load double, double* %B.addr, align 8, !tbaa !1531, !dbg !1676
	%843 = getelementptr double, double*  %690, i64  %820, !dbg !1676
	%844 = load double, double*  %843, align 8, !tbaa !1529, !dbg !1676
	%845 = fmul double  %842,  %844, !dbg !1676
	%846 = call double @llvm.fma.f64 (double  %840, double  %841, double  %845), !dbg !1676
	%847 = fadd double  %839,  %846, !dbg !1676
	%848 = call double @llvm.fma.f64 (double  %831, double  %833, double  %847), !dbg !1676
	%849 = fadd double  %830,  %848, !dbg !1676
	ret double  %849, !dbg !1676
L.B0068:
	br label %L.R0007, !dbg !1676
L.B0016:
	ret double  0.00000000000000000E+0, !dbg !1677
L.R0007:
	ret double 0.0
}
define linkonce_odr void @_ZN12VectorDipoleD1Ev(%struct.VectorDipole* %_T18591752_8112.arg) #0 inlinehint !dbg !1684 {
L.entry:
	%_T18591752_8112.addr = alloca %struct.VectorDipole*, align 8
	%..inline.addr = alloca %struct.FieldFunction*, align 8

	call void @llvm.dbg.declare (metadata %struct.VectorDipole** %_T18591752_8112.addr, metadata !1704, metadata !1394), !dbg !1685
	store %struct.VectorDipole* %_T18591752_8112.arg, %struct.VectorDipole** %_T18591752_8112.addr, align 8, !tbaa !1404
	call void @llvm.dbg.declare (metadata %struct.VectorDipole** %_T18591752_8112.addr, metadata !1705, metadata !1394), !dbg !1685
	%0 = bitcast [5 x i32 (...)* (...)*]* @_ZTV12VectorDipole to i8*, !dbg !1706
	%1 = getelementptr i8, i8*  %0, i64 16, !dbg !1706
	%2 = load %struct.VectorDipole*, %struct.VectorDipole** %_T18591752_8112.addr, align 8, !tbaa !1404, !dbg !1706
	%3 = bitcast %struct.VectorDipole*  %2 to i8**, !dbg !1706
	store i8*  %1, i8**  %3, align 8, !tbaa !1404, !dbg !1706
	%4 = bitcast %struct.VectorDipole*  %2 to i8*, !dbg !1706
	%5 = bitcast %struct.FieldFunction** %..inline.addr to i8**, !dbg !1706
	store i8*  %4, i8**  %5, align 8, !tbaa !1404, !dbg !1706
	%6 = bitcast [5 x i32 (...)* (...)*]* @_ZTV13FieldFunction to i8*, !dbg !1706
	%7 = getelementptr i8, i8*  %6, i64 16, !dbg !1706
	%8 = load %struct.FieldFunction*, %struct.FieldFunction** %..inline.addr, align 8, !tbaa !1404, !dbg !1706
	%9 = bitcast %struct.FieldFunction*  %8 to i8**, !dbg !1706
	store i8*  %7, i8**  %9, align 8, !tbaa !1404, !dbg !1706
	%10 = bitcast [5 x i32 (...)* (...)*]* @_ZTV11T3DFunction to i8*, !dbg !1706
	%11 = getelementptr i8, i8*  %10, i64 16, !dbg !1706
	store i8*  %11, i8**  %9, align 8, !tbaa !1404, !dbg !1706
	ret void, !dbg !1706
}
define linkonce_odr void @_ZN12VectorDipoleD0Ev(%struct.VectorDipole* %_T18591752_8113.arg) #0 inlinehint !dbg !1710 {
L.entry:
	%_T18591752_8113.addr = alloca %struct.VectorDipole*, align 8
	%..inline.addr = alloca %struct.VectorDipole*, align 8
	%..inline.addr.1 = alloca %struct.FieldFunction*, align 8

	store %struct.VectorDipole* %_T18591752_8113.arg, %struct.VectorDipole** %_T18591752_8113.addr, align 8, !tbaa !1404
	%0 = load %struct.VectorDipole*, %struct.VectorDipole** %_T18591752_8113.addr, align 8, !tbaa !1404, !dbg !1734
	%1 = bitcast %struct.VectorDipole*  %0 to i8*, !dbg !1734
	%2 = bitcast %struct.VectorDipole** %..inline.addr to i8**, !dbg !1734
	store i8*  %1, i8**  %2, align 8, !tbaa !1404, !dbg !1734
	%3 = bitcast [5 x i32 (...)* (...)*]* @_ZTV12VectorDipole to i8*, !dbg !1734
	%4 = getelementptr i8, i8*  %3, i64 16, !dbg !1734
	%5 = load %struct.VectorDipole*, %struct.VectorDipole** %..inline.addr, align 8, !tbaa !1404, !dbg !1734
	%6 = bitcast %struct.VectorDipole*  %5 to i8**, !dbg !1734
	store i8*  %4, i8**  %6, align 8, !tbaa !1404, !dbg !1734
	%7 = bitcast %struct.VectorDipole*  %5 to i8*, !dbg !1734
	%8 = bitcast %struct.FieldFunction** %..inline.addr.1 to i8**, !dbg !1734
	store i8*  %7, i8**  %8, align 8, !tbaa !1404, !dbg !1734
	%9 = bitcast [5 x i32 (...)* (...)*]* @_ZTV13FieldFunction to i8*, !dbg !1734
	%10 = getelementptr i8, i8*  %9, i64 16, !dbg !1734
	store i8*  %10, i8**  %6, align 8, !tbaa !1404, !dbg !1734
	%11 = bitcast [5 x i32 (...)* (...)*]* @_ZTV11T3DFunction to i8*, !dbg !1734
	%12 = getelementptr i8, i8*  %11, i64 16, !dbg !1734
	%13 = load %struct.FieldFunction*, %struct.FieldFunction** %..inline.addr.1, align 8, !tbaa !1404, !dbg !1734
	%14 = bitcast %struct.FieldFunction*  %13 to i8**, !dbg !1734
	store i8*  %12, i8**  %14, align 8, !tbaa !1404, !dbg !1734
	call void  @_ZdlPvm (i8*  %1, i64 112) nounwind, !dbg !1734
	ret void, !dbg !1734
}
define linkonce_odr void @_ZN12VectorDipoleD2Ev(%struct.VectorDipole* %_T18591752_8114.arg) #0 inlinehint !dbg !1736 {
L.entry:
	%_T18591752_8114.addr = alloca %struct.VectorDipole*, align 8
	%..inline.addr = alloca %struct.VectorDipole*, align 8
	%..inline.addr.1 = alloca %struct.FieldFunction*, align 8

	store %struct.VectorDipole* %_T18591752_8114.arg, %struct.VectorDipole** %_T18591752_8114.addr, align 8, !tbaa !1404
	%0 = load %struct.VectorDipole*, %struct.VectorDipole** %_T18591752_8114.addr, align 8, !tbaa !1404, !dbg !1760
	%1 = bitcast %struct.VectorDipole*  %0 to i8*, !dbg !1760
	%2 = bitcast %struct.VectorDipole** %..inline.addr to i8**, !dbg !1760
	store i8*  %1, i8**  %2, align 8, !tbaa !1404, !dbg !1760
	%3 = bitcast [5 x i32 (...)* (...)*]* @_ZTV12VectorDipole to i8*, !dbg !1760
	%4 = getelementptr i8, i8*  %3, i64 16, !dbg !1760
	%5 = load %struct.VectorDipole*, %struct.VectorDipole** %..inline.addr, align 8, !tbaa !1404, !dbg !1760
	%6 = bitcast %struct.VectorDipole*  %5 to i8**, !dbg !1760
	store i8*  %4, i8**  %6, align 8, !tbaa !1404, !dbg !1760
	%7 = bitcast %struct.VectorDipole*  %5 to i8*, !dbg !1760
	%8 = bitcast %struct.FieldFunction** %..inline.addr.1 to i8**, !dbg !1760
	store i8*  %7, i8**  %8, align 8, !tbaa !1404, !dbg !1760
	%9 = bitcast [5 x i32 (...)* (...)*]* @_ZTV13FieldFunction to i8*, !dbg !1760
	%10 = getelementptr i8, i8*  %9, i64 16, !dbg !1760
	store i8*  %10, i8**  %6, align 8, !tbaa !1404, !dbg !1760
	%11 = bitcast [5 x i32 (...)* (...)*]* @_ZTV11T3DFunction to i8*, !dbg !1760
	%12 = getelementptr i8, i8*  %11, i64 16, !dbg !1760
	%13 = load %struct.FieldFunction*, %struct.FieldFunction** %..inline.addr.1, align 8, !tbaa !1404, !dbg !1760
	%14 = bitcast %struct.FieldFunction*  %13 to i8**, !dbg !1760
	store i8*  %12, i8**  %14, align 8, !tbaa !1404, !dbg !1760
	ret void, !dbg !1760
}

%struct._ZNSt8ios_base4InitE = type <{ [1 x i8]}> 

define void @__sti___32_backgroundfield_vectordipole_cpp_83390dc3() #0 inlinehint !dbg !1762 {
L.entry:

	%0 = load i32, i32* @__I___32_backgroundfield_vectordipole_cpp_83390dc3, align 4, !tbaa !1777, !dbg !1766
	%1 = icmp eq i32  %0, 1, !dbg !1766
	br i1  %1, label %L.B0022, label %L.B0075, !dbg !1766
L.B0075:
	store i32 1, i32* @__I___32_backgroundfield_vectordipole_cpp_83390dc3, align 4, !tbaa !1777, !dbg !1766
	call void  @_ZNSt8ios_base4InitC1Ev (%struct._ZNSt8ios_base4InitE* @_ZN54_INTERNAL_32_backgroundfield_vectordipole_cpp_83390dc3St8__ioinitE) nounwind, !dbg !1766
	%2 = bitcast void (%struct._ZNSt8ios_base4InitE*)* @_ZNSt8ios_base4InitD1Ev to void (i8*)*, !dbg !1766
	%3 = bitcast %struct._ZNSt8ios_base4InitE* @_ZN54_INTERNAL_32_backgroundfield_vectordipole_cpp_83390dc3St8__ioinitE to i8*, !dbg !1766
	%4 = bitcast i8** @__dso_handle to i8*, !dbg !1766
	%5 = call i32  @__cxa_atexit (void (i8*)*  %2, i8*  %3, i8*  %4) nounwind, !dbg !1766
	br label %L.B0022
L.B0022:
	ret void, !dbg !1766
}
@_ZTV11T3DFunction = weak unnamed_addr global [5 x i32 (...)* (...)*]  [ i32 (...)* (...)*  null, i32 (...)* (...)*  bitcast (%struct.__class_type_info* @_ZTI11T3DFunction to i32 (...)* (...)*), i32 (...)* (...)*  bitcast (void ()* @__cxa_pure_virtual to i32 (...)* (...)*), i32 (...)* (...)*  bitcast (void (%struct.T3DFunction*)* @_ZN11T3DFunctionD1Ev to i32 (...)* (...)*), i32 (...)* (...)*  bitcast (void (%struct.T3DFunction*)* @_ZN11T3DFunctionD0Ev to i32 (...)* (...)*) ], align 16, !dbg !1401

%struct.__EDG_type_info = type <{ i32 (...)* (...)*, i8*}> 
%struct.__class_type_info = type <{ %struct.__EDG_type_info}> 

@_ZTV13FieldFunction = weak unnamed_addr global [5 x i32 (...)* (...)*]  [ i32 (...)* (...)*  null, i32 (...)* (...)*  bitcast (%struct.__si_class_type_info* @_ZTI13FieldFunction to i32 (...)* (...)*), i32 (...)* (...)*  bitcast (void ()* @__cxa_pure_virtual to i32 (...)* (...)*), i32 (...)* (...)*  bitcast (void (%struct.FieldFunction*)* @_ZN13FieldFunctionD1Ev to i32 (...)* (...)*), i32 (...)* (...)*  bitcast (void (%struct.FieldFunction*)* @_ZN13FieldFunctionD0Ev to i32 (...)* (...)*) ], align 16, !dbg !1447

%struct.__si_class_type_info = type <{ %struct.__class_type_info, %struct.__class_type_info*}> 

@_ZTV12VectorDipole = weak unnamed_addr global [5 x i32 (...)* (...)*]  [ i32 (...)* (...)*  null, i32 (...)* (...)*  bitcast (%struct.__si_class_type_info* @_ZTI12VectorDipole to i32 (...)* (...)*), i32 (...)* (...)*  bitcast (double (%struct.VectorDipole*, double, double, double)* @_ZNK12VectorDipole4callEddd to i32 (...)* (...)*), i32 (...)* (...)*  bitcast (void (%struct.VectorDipole*)* @_ZN12VectorDipoleD1Ev to i32 (...)* (...)*), i32 (...)* (...)*  bitcast (void (%struct.VectorDipole*)* @_ZN12VectorDipoleD0Ev to i32 (...)* (...)*) ], align 16, !dbg !1708
@WID = internal global i32 4, align 4, !dbg !1783
@WID2 = internal global i32 16, align 4, !dbg !1787
@WID3 = internal global i32 64, align 4, !dbg !1789
@_ZTI11T3DFunction = weak unnamed_addr global %struct.__class_type_info  <{ %struct.__EDG_type_info  <{ i32 (...)* (...)*  bitcast (i8* getelementptr(i8, i8* bitcast([0 x i32 (...)* (...)*]* @_ZTVN10__cxxabiv117__class_type_infoE to i8*), i32 16) to i32 (...)* (...)*), i8*  getelementptr(i8, i8* bitcast([14 x i8]* @_ZTS11T3DFunction to i8*), i32 0) }> }>, align 16, !dbg !1779
@_ZTI13FieldFunction = weak unnamed_addr global %struct.__si_class_type_info  <{ %struct.__class_type_info  <{ %struct.__EDG_type_info  <{ i32 (...)* (...)*  bitcast (i8* getelementptr(i8, i8* bitcast([0 x i32 (...)* (...)*]* @_ZTVN10__cxxabiv120__si_class_type_infoE to i8*), i32 16) to i32 (...)* (...)*), i8*  getelementptr(i8, i8* bitcast([16 x i8]* @_ZTS13FieldFunction to i8*), i32 0) }> }>, %struct.__class_type_info*  @_ZTI11T3DFunction }>, align 16, !dbg !1781
@_ZTI12VectorDipole = weak unnamed_addr global %struct.__si_class_type_info  <{ %struct.__class_type_info  <{ %struct.__EDG_type_info  <{ i32 (...)* (...)*  bitcast (i8* getelementptr(i8, i8* bitcast([0 x i32 (...)* (...)*]* @_ZTVN10__cxxabiv120__si_class_type_infoE to i8*), i32 16) to i32 (...)* (...)*), i8*  getelementptr(i8, i8* bitcast([15 x i8]* @_ZTS12VectorDipole to i8*), i32 0) }> }>, %struct.__class_type_info*  bitcast(i8* getelementptr(i8, i8* bitcast(%struct.__si_class_type_info* @_ZTI13FieldFunction to i8*), i32 0) to %struct.__class_type_info*) }>, align 16, !dbg !1785
@_ZTS11T3DFunction = weak unnamed_addr global [14 x i8]  c"11T3DFunction\00", align 8, !dbg !1797
@_ZTS13FieldFunction = weak unnamed_addr global [16 x i8]  c"13FieldFunction\00", align 16, !dbg !1801
@_ZTS12VectorDipole = weak unnamed_addr global [15 x i8]  c"12VectorDipole\00", align 8, !dbg !1806
@_ZN54_INTERNAL_32_backgroundfield_vectordipole_cpp_83390dc35vmesh15INVALID_LOCALIDE = internal global i32 -1, align 4, !dbg !1808
@_ZN54_INTERNAL_32_backgroundfield_vectordipole_cpp_83390dc317physicalconstants3R_EE = internal global double  6.37120000000000000E+6, align 8, !dbg !1810
@__I___32_backgroundfield_vectordipole_cpp_83390dc3 = global i32 0, align 4, !dbg !1768
@_ZN54_INTERNAL_32_backgroundfield_vectordipole_cpp_83390dc3St8__ioinitE = internal global %struct._ZNSt8ios_base4InitE zeroinitializer , align 1, !dbg !1773
@__dso_handle = external global i8*, align 8
@_ZTVN10__cxxabiv120__si_class_type_infoE = external global [0 x i32 (...)* (...)*], align 8
@_ZTVN10__cxxabiv117__class_type_infoE = external global [0 x i32 (...)* (...)*], align 8
@llvm.global_ctors = appending global [1 x { i32, void ()*, i8* }][{ i32, void ()*, i8* } { i32 65535, void ()* @__sti___32_backgroundfield_vectordipole_cpp_83390dc3, i8* null }]
attributes #0 = { "frame-pointer"="all" }

declare void @__cxa_pure_virtual() #0
declare signext i32 @__cxa_atexit(void (i8*)*, i8*, i8*) #0
declare void @_ZNSt8ios_base4InitD1Ev(%struct._ZNSt8ios_base4InitE*) #0
declare void @_ZNSt8ios_base4InitC1Ev(%struct._ZNSt8ios_base4InitE*) #0
declare double @llvm.fma.f64(double, double, double)
declare double @llvm.sqrt.f64(double)
declare <{double, double}> @__fd_sincos_1(double)
declare void @_ZdlPvm(i8*, i64) #0
declare void @llvm.dbg.declare(metadata, metadata, metadata)
declare i32 @__gxx_personality_v0(...)

; Named metadata
!llvm.module.flags = !{ !1, !2 }
!llvm.dbg.cu = !{ !10 }

; Metadata
!1 = !{ i32 2, !"Dwarf Version", i32 2 }
!2 = !{ i32 2, !"Debug Info Version", i32 3 }
!3 = !DIFile(filename: "backgroundfield/vectordipole.cpp", directory: "/home/talgat/vlasiator")
; !4 = !DIFile(tag: DW_TAG_file_type, pair: !3)
!4 = !{ i32 41, !3 }
!5 = !{  }
!6 = !{  }
!7 = !{ !1389, !1406, !1416, !1431, !1449, !1467, !1488, !1535, !1684, !1710, !1736, !1762 }
!8 = !{ !1401, !1447, !1708, !1768, !1773, !1775, !1779, !1781, !1783, !1785, !1787, !1789, !1792, !1797, !1799, !1801, !1806, !1808, !1810 }
!9 = !{  }
!10 = distinct !DICompileUnit(file: !3, language: DW_LANG_C_plus_plus, producer: " NVC++ 21.2-0", enums: !5, retainedTypes: !6, globals: !8, emissionKind: FullDebug, imports: !9)
!11 = !DINamespace(scope: !10, name: "std")
!12 = !DINamespace(scope: !11, name: "__cxx11")
!13 = !DINamespace(scope: !11, name: "__exception_ptr")
!14 = !{ !18 }
!15 = !DICompositeType(tag: DW_TAG_class_type, file: !3, scope: !13, name: "exception_ptr", line: 1, size: 64, align: 64, elements: !14, runtimeLang: DW_LANG_C_plus_plus)
!16 = !DIBasicType(tag: DW_TAG_unspecified_type, name: "void")
!17 = !DIDerivedType(tag: DW_TAG_pointer_type, size: 64, align: 64, baseType: !16)
!18 = !DIDerivedType(tag: DW_TAG_member, file: !3, scope: !15, name: "_M_exception_object", line: 1, size: 64, align: 64, baseType: !17)
!19 = !DINamespace(scope: !11, name: "__swappable_details")
!20 = !{  }
!21 = !DICompositeType(tag: DW_TAG_structure_type, file: !3, scope: !19, name: "__do_is_swappable_impl", line: 1, size: 8, align: 8, elements: !20, runtimeLang: DW_LANG_C_plus_plus)
!22 = !{  }
!23 = !DICompositeType(tag: DW_TAG_structure_type, file: !3, scope: !19, name: "__do_is_nothrow_swappable_impl", line: 1, size: 8, align: 8, elements: !22, runtimeLang: DW_LANG_C_plus_plus)
!24 = !DINamespace(scope: !11, name: "__swappable_with_details")
!25 = !{  }
!26 = !DICompositeType(tag: DW_TAG_structure_type, file: !3, scope: !24, name: "__do_is_swappable_with_impl", line: 1, size: 8, align: 8, elements: !25, runtimeLang: DW_LANG_C_plus_plus)
!27 = !{  }
!28 = !DICompositeType(tag: DW_TAG_structure_type, file: !3, scope: !24, name: "__do_is_nothrow_swappable_with_impl", line: 1, size: 8, align: 8, elements: !27, runtimeLang: DW_LANG_C_plus_plus)
!29 = !DINamespace(scope: !11, name: "__debug")
!30 = !DIBasicType(tag: DW_TAG_base_type, name: "unsigned long", size: 64, align: 64, encoding: DW_ATE_unsigned)
!31 = !DIDerivedType(tag: DW_TAG_typedef, file: !3, scope: !11, name: "size_t", line: 1, size: 64, align: 64, baseType: !30)
!32 = !DIBasicType(tag: DW_TAG_base_type, name: "long", size: 64, align: 64, encoding: DW_ATE_signed)
!33 = !DIDerivedType(tag: DW_TAG_typedef, file: !3, scope: !11, name: "ptrdiff_t", line: 1, size: 64, align: 64, baseType: !32)
!34 = !DIDerivedType(tag: DW_TAG_typedef, file: !3, scope: !11, name: "nullptr_t", line: 1, size: 64, align: 64, baseType: !17)
!35 = !{  }
!36 = !DICompositeType(tag: DW_TAG_structure_type, file: !3, scope: !11, name: "__true_type", line: 1, size: 8, align: 8, elements: !35, runtimeLang: DW_LANG_C_plus_plus)
!37 = !{  }
!38 = !DICompositeType(tag: DW_TAG_structure_type, file: !3, scope: !11, name: "__false_type", line: 1, size: 8, align: 8, elements: !37, runtimeLang: DW_LANG_C_plus_plus)
!39 = !{ !46, !47, !55 }
!40 = !DICompositeType(tag: DW_TAG_structure_type, file: !3, name: "_ZNSt7__cxx1112basic_stringIcSt11char_traitsIcESaIcEEE", size: 256, align: 64, elements: !39)
!41 = !{ !45 }
!42 = !DICompositeType(tag: DW_TAG_structure_type, file: !3, name: "_ZNSt7__cxx1112basic_stringIcSt11char_traitsIcESaIcEE12_Alloc_hiderE", size: 64, align: 64, elements: !41)
!43 = !DIBasicType(tag: DW_TAG_base_type, name: "signed char", size: 8, align: 8, encoding: DW_ATE_signed_char)
!44 = !DIDerivedType(tag: DW_TAG_pointer_type, size: 64, align: 64, baseType: !43)
!45 = !DIDerivedType(tag: DW_TAG_member, file: !3, scope: !42, name: "_M_p", size: 64, align: 64, baseType: !44)
!46 = !DIDerivedType(tag: DW_TAG_member, file: !3, scope: !40, name: "_M_dataplus", size: 64, align: 64, baseType: !42)
!47 = !DIDerivedType(tag: DW_TAG_member, file: !3, scope: !40, name: "_M_string_length", size: 64, align: 64, offset: 64, baseType: !30)
!48 = !{ !53, !54 }
!49 = !DICompositeType(tag: DW_TAG_union_type, file: !3, name: "__C5", size: 128, align: 64, elements: !48)
!50 = !DISubrange(count: 16)
!51 = !{ !50 }
!52 = !DICompositeType(tag: DW_TAG_array_type, size: 128, align: 8, baseType: !43, elements: !51)
!53 = !DIDerivedType(tag: DW_TAG_member, file: !3, scope: !49, name: "_M_local_buf", size: 128, align: 8, baseType: !52)
!54 = !DIDerivedType(tag: DW_TAG_member, file: !3, scope: !49, name: "_M_allocated_capacity", size: 64, align: 64, baseType: !30)
!55 = !DIDerivedType(tag: DW_TAG_member, file: !3, scope: !40, size: 128, align: 64, offset: 128, baseType: !49)
!56 = !DIDerivedType(tag: DW_TAG_typedef, file: !3, scope: !11, name: "string", line: 1, size: 256, align: 64, baseType: !40)
!57 = !{ !64, !65, !73 }
!58 = !DICompositeType(tag: DW_TAG_structure_type, file: !3, name: "_ZNSt7__cxx1112basic_stringIwSt11char_traitsIwESaIwEEE", size: 256, align: 64, elements: !57)
!59 = !{ !63 }
!60 = !DICompositeType(tag: DW_TAG_structure_type, file: !3, name: "_ZNSt7__cxx1112basic_stringIwSt11char_traitsIwESaIwEE12_Alloc_hiderE", size: 64, align: 64, elements: !59)
!61 = !DIBasicType(tag: DW_TAG_base_type, name: "int", size: 32, align: 32, encoding: DW_ATE_signed)
!62 = !DIDerivedType(tag: DW_TAG_pointer_type, size: 64, align: 64, baseType: !61)
!63 = !DIDerivedType(tag: DW_TAG_member, file: !3, scope: !60, name: "_M_p", size: 64, align: 64, baseType: !62)
!64 = !DIDerivedType(tag: DW_TAG_member, file: !3, scope: !58, name: "_M_dataplus", size: 64, align: 64, baseType: !60)
!65 = !DIDerivedType(tag: DW_TAG_member, file: !3, scope: !58, name: "_M_string_length", size: 64, align: 64, offset: 64, baseType: !30)
!66 = !{ !71, !72 }
!67 = !DICompositeType(tag: DW_TAG_union_type, file: !3, name: "__C6", size: 128, align: 64, elements: !66)
!68 = !DISubrange(count: 4)
!69 = !{ !68 }
!70 = !DICompositeType(tag: DW_TAG_array_type, size: 128, align: 32, baseType: !61, elements: !69)
!71 = !DIDerivedType(tag: DW_TAG_member, file: !3, scope: !67, name: "_M_local_buf", size: 128, align: 32, baseType: !70)
!72 = !DIDerivedType(tag: DW_TAG_member, file: !3, scope: !67, name: "_M_allocated_capacity", size: 64, align: 64, baseType: !30)
!73 = !DIDerivedType(tag: DW_TAG_member, file: !3, scope: !58, size: 128, align: 64, offset: 128, baseType: !67)
!74 = !DIDerivedType(tag: DW_TAG_typedef, file: !3, scope: !11, name: "wstring", line: 1, size: 256, align: 64, baseType: !58)
!75 = !{ !82, !83, !91 }
!76 = !DICompositeType(tag: DW_TAG_structure_type, file: !3, name: "_ZNSt7__cxx1112basic_stringIDsSt11char_traitsIDsESaIDsEEE", size: 256, align: 64, elements: !75)
!77 = !{ !81 }
!78 = !DICompositeType(tag: DW_TAG_structure_type, file: !3, name: "_ZNSt7__cxx1112basic_stringIDsSt11char_traitsIDsESaIDsEE12_Alloc_hiderE", size: 64, align: 64, elements: !77)
!79 = !DIBasicType(tag: DW_TAG_base_type, name: "unsigned short", size: 16, align: 16, encoding: DW_ATE_unsigned)
!80 = !DIDerivedType(tag: DW_TAG_pointer_type, size: 64, align: 64, baseType: !79)
!81 = !DIDerivedType(tag: DW_TAG_member, file: !3, scope: !78, name: "_M_p", size: 64, align: 64, baseType: !80)
!82 = !DIDerivedType(tag: DW_TAG_member, file: !3, scope: !76, name: "_M_dataplus", size: 64, align: 64, baseType: !78)
!83 = !DIDerivedType(tag: DW_TAG_member, file: !3, scope: !76, name: "_M_string_length", size: 64, align: 64, offset: 64, baseType: !30)
!84 = !{ !89, !90 }
!85 = !DICompositeType(tag: DW_TAG_union_type, file: !3, name: "__C7", size: 128, align: 64, elements: !84)
!86 = !DISubrange(count: 8)
!87 = !{ !86 }
!88 = !DICompositeType(tag: DW_TAG_array_type, size: 128, align: 16, baseType: !79, elements: !87)
!89 = !DIDerivedType(tag: DW_TAG_member, file: !3, scope: !85, name: "_M_local_buf", size: 128, align: 16, baseType: !88)
!90 = !DIDerivedType(tag: DW_TAG_member, file: !3, scope: !85, name: "_M_allocated_capacity", size: 64, align: 64, baseType: !30)
!91 = !DIDerivedType(tag: DW_TAG_member, file: !3, scope: !76, size: 128, align: 64, offset: 128, baseType: !85)
!92 = !DIDerivedType(tag: DW_TAG_typedef, file: !3, scope: !11, name: "u16string", line: 1, size: 256, align: 64, baseType: !76)
!93 = !{ !100, !101, !107 }
!94 = !DICompositeType(tag: DW_TAG_structure_type, file: !3, name: "_ZNSt7__cxx1112basic_stringIDiSt11char_traitsIDiESaIDiEEE", size: 256, align: 64, elements: !93)
!95 = !{ !99 }
!96 = !DICompositeType(tag: DW_TAG_structure_type, file: !3, name: "_ZNSt7__cxx1112basic_stringIDiSt11char_traitsIDiESaIDiEE12_Alloc_hiderE", size: 64, align: 64, elements: !95)
!97 = !DIBasicType(tag: DW_TAG_base_type, name: "unsigned", size: 32, align: 32, encoding: DW_ATE_unsigned)
!98 = !DIDerivedType(tag: DW_TAG_pointer_type, size: 64, align: 64, baseType: !97)
!99 = !DIDerivedType(tag: DW_TAG_member, file: !3, scope: !96, name: "_M_p", size: 64, align: 64, baseType: !98)
!100 = !DIDerivedType(tag: DW_TAG_member, file: !3, scope: !94, name: "_M_dataplus", size: 64, align: 64, baseType: !96)
!101 = !DIDerivedType(tag: DW_TAG_member, file: !3, scope: !94, name: "_M_string_length", size: 64, align: 64, offset: 64, baseType: !30)
!102 = !{ !105, !106 }
!103 = !DICompositeType(tag: DW_TAG_union_type, file: !3, name: "__C8", size: 128, align: 64, elements: !102)
!104 = !DICompositeType(tag: DW_TAG_array_type, size: 128, align: 32, baseType: !97, elements: !69)
!105 = !DIDerivedType(tag: DW_TAG_member, file: !3, scope: !103, name: "_M_local_buf", size: 128, align: 32, baseType: !104)
!106 = !DIDerivedType(tag: DW_TAG_member, file: !3, scope: !103, name: "_M_allocated_capacity", size: 64, align: 64, baseType: !30)
!107 = !DIDerivedType(tag: DW_TAG_member, file: !3, scope: !94, size: 128, align: 64, offset: 128, baseType: !103)
!108 = !DIDerivedType(tag: DW_TAG_typedef, file: !3, scope: !11, name: "u32string", line: 1, size: 256, align: 64, baseType: !94)
!109 = !DIDerivedType(tag: DW_TAG_typedef, file: !3, scope: !11, name: "streamoff", line: 1, size: 64, align: 64, baseType: !32)
!110 = !DIDerivedType(tag: DW_TAG_typedef, file: !3, scope: !11, name: "streamsize", line: 1, size: 64, align: 64, baseType: !32)
!111 = !{  }
!112 = !DICompositeType(tag: DW_TAG_structure_type, file: !3, name: "_ZSt4fposI11__mbstate_tE", align: 8, elements: !111)
!113 = !DIDerivedType(tag: DW_TAG_typedef, file: !3, scope: !11, name: "streampos", line: 1, align: 8, baseType: !112)
!114 = !DIDerivedType(tag: DW_TAG_typedef, file: !3, scope: !11, name: "wstreampos", line: 1, align: 8, baseType: !112)
!115 = !DIDerivedType(tag: DW_TAG_typedef, file: !3, scope: !11, name: "u16streampos", line: 1, align: 8, baseType: !112)
!116 = !DIDerivedType(tag: DW_TAG_typedef, file: !3, scope: !11, name: "u32streampos", line: 1, align: 8, baseType: !112)
!117 = !{ !125, !126, !282 }
!118 = !DICompositeType(tag: DW_TAG_structure_type, file: !3, name: "_ZSi", size: 2240, align: 64, elements: !117)
!119 = !{ !61 }
!120 = !DISubroutineType(types: !119)
!121 = !DIDerivedType(tag: DW_TAG_pointer_type, size: 64, align: 64, baseType: !120)
!122 = !{ !121 }
!123 = !DISubroutineType(types: !122)
!124 = !DIDerivedType(tag: DW_TAG_pointer_type, size: 64, align: 64, baseType: !123)
!125 = !DIDerivedType(tag: DW_TAG_member, file: !3, scope: !118, name: "__vptr", size: 64, align: 64, baseType: !124)
!126 = !DIDerivedType(tag: DW_TAG_member, file: !3, scope: !118, name: "_M_gcount", size: 64, align: 64, offset: 64, baseType: !32)
!127 = !{ !215, !221, !222, !223, !235, !271, !276, !281 }
!128 = !DICompositeType(tag: DW_TAG_structure_type, file: !3, name: "_ZSt9basic_iosIcSt11char_traitsIcEE", size: 2112, align: 64, elements: !127)
!129 = !{ !131, !132, !133, !157, !167, !168, !185, !190, !192, !193, !195, !214 }
!130 = !DICompositeType(tag: DW_TAG_structure_type, file: !3, name: "_ZSt8ios_base", size: 1728, align: 64, elements: !129)
!131 = !DIDerivedType(tag: DW_TAG_member, file: !3, scope: !130, name: "__vptr", size: 64, align: 64, baseType: !124)
!132 = !DIDerivedType(tag: DW_TAG_member, file: !3, scope: !130, name: "_M_precision", size: 64, align: 64, offset: 64, baseType: !32)
!133 = !DIDerivedType(tag: DW_TAG_member, file: !3, scope: !130, name: "_M_width", size: 64, align: 64, offset: 128, baseType: !32)
!134 = !DIEnumerator(name: "_ZSt19_S_ios_fmtflags_min", value: -2147483648)
!135 = !DIEnumerator(name: "_ZSt19_S_ios_fmtflags_max", value: 2147483647)
!136 = !DIEnumerator(name: "_ZSt19_S_ios_fmtflags_end", value: 65536)
!137 = !DIEnumerator(name: "_ZSt13_S_floatfield", value: 260)
!138 = !DIEnumerator(name: "_ZSt12_S_basefield", value: 74)
!139 = !DIEnumerator(name: "_ZSt14_S_adjustfield", value: 176)
!140 = !DIEnumerator(name: "_ZSt12_S_uppercase", value: 16384)
!141 = !DIEnumerator(name: "_ZSt10_S_unitbuf", value: 8192)
!142 = !DIEnumerator(name: "_ZSt9_S_skipws", value: 4096)
!143 = !DIEnumerator(name: "_ZSt10_S_showpos", value: 2048)
!144 = !DIEnumerator(name: "_ZSt12_S_showpoint", value: 1024)
!145 = !DIEnumerator(name: "_ZSt11_S_showbase", value: 512)
!146 = !DIEnumerator(name: "_ZSt13_S_scientific", value: 256)
!147 = !DIEnumerator(name: "_ZSt8_S_right", value: 128)
!148 = !DIEnumerator(name: "_ZSt6_S_oct", value: 64)
!149 = !DIEnumerator(name: "_ZSt7_S_left", value: 32)
!150 = !DIEnumerator(name: "_ZSt11_S_internal", value: 16)
!151 = !DIEnumerator(name: "_ZSt6_S_hex", value: 8)
!152 = !DIEnumerator(name: "_ZSt8_S_fixed", value: 4)
!153 = !DIEnumerator(name: "_ZSt6_S_dec", value: 2)
!154 = !DIEnumerator(name: "_ZSt12_S_boolalpha", value: 1)
!155 = !{ !154, !153, !152, !151, !150, !149, !148, !147, !146, !145, !144, !143, !142, !141, !140, !139, !138, !137, !136, !135, !134 }
!156 = !DICompositeType(tag: DW_TAG_enumeration_type, file: !3, name: "_ZSt13_Ios_Fmtflags", size: 32, align: 32, elements: !155)
!157 = !DIDerivedType(tag: DW_TAG_member, file: !3, scope: !130, name: "_M_flags", size: 32, align: 32, offset: 192, baseType: !156)
!158 = !DIEnumerator(name: "_ZSt18_S_ios_iostate_min", value: -2147483648)
!159 = !DIEnumerator(name: "_ZSt18_S_ios_iostate_max", value: 2147483647)
!160 = !DIEnumerator(name: "_ZSt18_S_ios_iostate_end", value: 65536)
!161 = !DIEnumerator(name: "_ZSt10_S_failbit", value: 4)
!162 = !DIEnumerator(name: "_ZSt9_S_eofbit", value: 2)
!163 = !DIEnumerator(name: "_ZSt9_S_badbit", value: 1)
!164 = !DIEnumerator(name: "_ZSt10_S_goodbit", value: 0)
!165 = !{ !164, !163, !162, !161, !160, !159, !158 }
!166 = !DICompositeType(tag: DW_TAG_enumeration_type, file: !3, name: "_ZSt12_Ios_Iostate", size: 32, align: 32, elements: !165)
!167 = !DIDerivedType(tag: DW_TAG_member, file: !3, scope: !130, name: "_M_exception", size: 32, align: 32, offset: 224, baseType: !166)
!168 = !DIDerivedType(tag: DW_TAG_member, file: !3, scope: !130, name: "_M_streambuf_state", size: 32, align: 32, offset: 256, baseType: !166)
!169 = !{ !172, !182, !183, !184 }
!170 = !DICompositeType(tag: DW_TAG_structure_type, file: !3, name: "_ZNSt8ios_base14_Callback_listE", size: 192, align: 64, elements: !169)
!171 = !DIDerivedType(tag: DW_TAG_pointer_type, size: 64, align: 64, baseType: !170)
!172 = !DIDerivedType(tag: DW_TAG_member, file: !3, scope: !170, name: "_M_next", size: 64, align: 64, baseType: !171)
!173 = !DIEnumerator(name: "_ZNSt8ios_base13copyfmt_eventE", value: 2)
!174 = !DIEnumerator(name: "_ZNSt8ios_base11imbue_eventE", value: 1)
!175 = !DIEnumerator(name: "_ZNSt8ios_base11erase_eventE", value: 0)
!176 = !{ !175, !174, !173 }
!177 = !DICompositeType(tag: DW_TAG_enumeration_type, file: !3, name: "_ZNSt8ios_base5eventE", size: 32, align: 32, elements: !176)
!178 = !DIDerivedType(tag: DW_TAG_pointer_type, size: 64, align: 64, baseType: !130)
!179 = !{ null, !177, !178, !61 }
!180 = !DISubroutineType(types: !179)
!181 = !DIDerivedType(tag: DW_TAG_pointer_type, size: 64, align: 64, baseType: !180)
!182 = !DIDerivedType(tag: DW_TAG_member, file: !3, scope: !170, name: "_M_fn", size: 64, align: 64, offset: 64, baseType: !181)
!183 = !DIDerivedType(tag: DW_TAG_member, file: !3, scope: !170, name: "_M_index", size: 32, align: 32, offset: 128, baseType: !61)
!184 = !DIDerivedType(tag: DW_TAG_member, file: !3, scope: !170, name: "_M_refcount", size: 32, align: 32, offset: 160, baseType: !61)
!185 = !DIDerivedType(tag: DW_TAG_member, file: !3, scope: !130, name: "_M_callbacks", size: 64, align: 64, offset: 320, baseType: !171)
!186 = !{ !188, !189 }
!187 = !DICompositeType(tag: DW_TAG_structure_type, file: !3, name: "_ZNSt8ios_base6_WordsE", size: 128, align: 64, elements: !186)
!188 = !DIDerivedType(tag: DW_TAG_member, file: !3, scope: !187, name: "_M_pword", size: 64, align: 64, baseType: !17)
!189 = !DIDerivedType(tag: DW_TAG_member, file: !3, scope: !187, name: "_M_iword", size: 64, align: 64, offset: 64, baseType: !32)
!190 = !DIDerivedType(tag: DW_TAG_member, file: !3, scope: !130, name: "_M_word_zero", size: 128, align: 64, offset: 384, baseType: !187)
!191 = !DICompositeType(tag: DW_TAG_array_type, size: 1024, align: 64, baseType: !187, elements: !87)
!192 = !DIDerivedType(tag: DW_TAG_member, file: !3, scope: !130, name: "_M_local_word", size: 1024, align: 64, offset: 512, baseType: !191)
!193 = !DIDerivedType(tag: DW_TAG_member, file: !3, scope: !130, name: "_M_word_size", size: 32, align: 32, offset: 1536, baseType: !61)
!194 = !DIDerivedType(tag: DW_TAG_pointer_type, size: 64, align: 64, baseType: !187)
!195 = !DIDerivedType(tag: DW_TAG_member, file: !3, scope: !130, name: "_M_word", size: 64, align: 64, offset: 1600, baseType: !194)
!196 = !{ !213 }
!197 = !DICompositeType(tag: DW_TAG_structure_type, file: !3, name: "_ZSt6locale", size: 64, align: 64, elements: !196)
!198 = !{ !200, !207, !208, !209, !211 }
!199 = !DICompositeType(tag: DW_TAG_structure_type, file: !3, name: "_ZNSt6locale5_ImplE", size: 320, align: 64, elements: !198)
!200 = !DIDerivedType(tag: DW_TAG_member, file: !3, scope: !199, name: "_M_refcount", size: 32, align: 32, baseType: !61)
!201 = !{ !203, !204 }
!202 = !DICompositeType(tag: DW_TAG_structure_type, file: !3, name: "_ZNSt6locale5facetE", size: 128, align: 64, elements: !201)
!203 = !DIDerivedType(tag: DW_TAG_member, file: !3, scope: !202, name: "__vptr", size: 64, align: 64, baseType: !124)
!204 = !DIDerivedType(tag: DW_TAG_member, file: !3, scope: !202, name: "_M_refcount", size: 32, align: 32, offset: 64, baseType: !61)
!205 = !DIDerivedType(tag: DW_TAG_pointer_type, size: 64, align: 64, baseType: !202)
!206 = !DIDerivedType(tag: DW_TAG_pointer_type, size: 64, align: 64, baseType: !205)
!207 = !DIDerivedType(tag: DW_TAG_member, file: !3, scope: !199, name: "_M_facets", size: 64, align: 64, offset: 64, baseType: !206)
!208 = !DIDerivedType(tag: DW_TAG_member, file: !3, scope: !199, name: "_M_facets_size", size: 64, align: 64, offset: 128, baseType: !30)
!209 = !DIDerivedType(tag: DW_TAG_member, file: !3, scope: !199, name: "_M_caches", size: 64, align: 64, offset: 192, baseType: !206)
!210 = !DIDerivedType(tag: DW_TAG_pointer_type, size: 64, align: 64, baseType: !44)
!211 = !DIDerivedType(tag: DW_TAG_member, file: !3, scope: !199, name: "_M_names", size: 64, align: 64, offset: 256, baseType: !210)
!212 = !DIDerivedType(tag: DW_TAG_pointer_type, size: 64, align: 64, baseType: !199)
!213 = !DIDerivedType(tag: DW_TAG_member, file: !3, scope: !197, name: "_M_impl", size: 64, align: 64, baseType: !212)
!214 = !DIDerivedType(tag: DW_TAG_member, file: !3, scope: !130, name: "_M_ios_locale", size: 64, align: 64, offset: 1664, baseType: !197)
!215 = !DIDerivedType(tag: DW_TAG_member, file: !3, scope: !128, name: "__b_St8ios_base", size: 1728, align: 64, baseType: !130)
!216 = !{ !218, !219 }
!217 = !DICompositeType(tag: DW_TAG_structure_type, file: !3, name: "_ZSo", size: 2176, align: 64, elements: !216)
!218 = !DIDerivedType(tag: DW_TAG_member, file: !3, scope: !217, name: "__vptr", size: 64, align: 64, baseType: !124)
!219 = !DIDerivedType(tag: DW_TAG_member, file: !3, scope: !217, name: "__v_St9basic_iosIcSt11char_traitsIcEE", size: 2112, align: 64, offset: 64, baseType: !128)
!220 = !DIDerivedType(tag: DW_TAG_pointer_type, size: 64, align: 64, baseType: !217)
!221 = !DIDerivedType(tag: DW_TAG_member, file: !3, scope: !128, name: "_M_tie", size: 64, align: 64, offset: 1728, baseType: !220)
!222 = !DIDerivedType(tag: DW_TAG_member, file: !3, scope: !128, name: "_M_fill", size: 8, align: 8, offset: 1792, baseType: !43)
!223 = !DIDerivedType(tag: DW_TAG_member, file: !3, scope: !128, name: "_M_fill_init", size: 8, align: 8, offset: 1800, baseType: !43)
!224 = !{ !226, !227, !228, !229, !230, !231, !232, !233 }
!225 = !DICompositeType(tag: DW_TAG_structure_type, file: !3, name: "_ZSt15basic_streambufIcSt11char_traitsIcEE", size: 512, align: 64, elements: !224)
!226 = !DIDerivedType(tag: DW_TAG_member, file: !3, scope: !225, name: "__vptr", size: 64, align: 64, baseType: !124)
!227 = !DIDerivedType(tag: DW_TAG_member, file: !3, scope: !225, name: "_M_in_beg", size: 64, align: 64, offset: 64, baseType: !44)
!228 = !DIDerivedType(tag: DW_TAG_member, file: !3, scope: !225, name: "_M_in_cur", size: 64, align: 64, offset: 128, baseType: !44)
!229 = !DIDerivedType(tag: DW_TAG_member, file: !3, scope: !225, name: "_M_in_end", size: 64, align: 64, offset: 192, baseType: !44)
!230 = !DIDerivedType(tag: DW_TAG_member, file: !3, scope: !225, name: "_M_out_beg", size: 64, align: 64, offset: 256, baseType: !44)
!231 = !DIDerivedType(tag: DW_TAG_member, file: !3, scope: !225, name: "_M_out_cur", size: 64, align: 64, offset: 320, baseType: !44)
!232 = !DIDerivedType(tag: DW_TAG_member, file: !3, scope: !225, name: "_M_out_end", size: 64, align: 64, offset: 384, baseType: !44)
!233 = !DIDerivedType(tag: DW_TAG_member, file: !3, scope: !225, name: "_M_buf_locale", size: 64, align: 64, offset: 448, baseType: !197)
!234 = !DIDerivedType(tag: DW_TAG_pointer_type, size: 64, align: 64, baseType: !225)
!235 = !DIDerivedType(tag: DW_TAG_member, file: !3, scope: !128, name: "_M_streambuf", size: 64, align: 64, offset: 1856, baseType: !234)
!236 = !{ !242, !258, !259, !260, !261, !262, !263, !267, !268, !269 }
!237 = !DICompositeType(tag: DW_TAG_structure_type, file: !3, name: "_ZSt5ctypeIcE", size: 4608, align: 64, elements: !236)
!238 = !{ !240, !241 }
!239 = !DICompositeType(tag: DW_TAG_structure_type, file: !3, name: "__SO__NSt6locale5facetE", size: 96, align: 64, elements: !238)
!240 = !DIDerivedType(tag: DW_TAG_member, file: !3, scope: !239, name: "__vptr", size: 64, align: 64, baseType: !124)
!241 = !DIDerivedType(tag: DW_TAG_member, file: !3, scope: !239, name: "_M_refcount", size: 32, align: 32, offset: 64, baseType: !61)
!242 = !DIDerivedType(tag: DW_TAG_member, file: !3, scope: !237, name: "__b_NSt6locale5facetE", size: 96, align: 64, baseType: !239)
!243 = !{ !251, !252, !253, !254, !256 }
!244 = !DICompositeType(tag: DW_TAG_structure_type, file: !3, name: "__locale_struct", size: 1856, align: 64, elements: !243)
!245 = !DISubrange(count: 13)
!246 = !{  }
!247 = !DICompositeType(tag: DW_TAG_structure_type, file: !3, name: "__locale_data", align: 8, elements: !246)
!248 = !DIDerivedType(tag: DW_TAG_pointer_type, size: 64, align: 64, baseType: !247)
!249 = !{ !245 }
!250 = !DICompositeType(tag: DW_TAG_array_type, size: 832, align: 64, baseType: !248, elements: !249)
!251 = !DIDerivedType(tag: DW_TAG_member, file: !3, scope: !244, name: "__locales", size: 832, align: 64, baseType: !250)
!252 = !DIDerivedType(tag: DW_TAG_member, file: !3, scope: !244, name: "__ctype_b", size: 64, align: 64, offset: 832, baseType: !80)
!253 = !DIDerivedType(tag: DW_TAG_member, file: !3, scope: !244, name: "__ctype_tolower", size: 64, align: 64, offset: 896, baseType: !62)
!254 = !DIDerivedType(tag: DW_TAG_member, file: !3, scope: !244, name: "__ctype_toupper", size: 64, align: 64, offset: 960, baseType: !62)
!255 = !DICompositeType(tag: DW_TAG_array_type, size: 832, align: 64, baseType: !44, elements: !249)
!256 = !DIDerivedType(tag: DW_TAG_member, file: !3, scope: !244, name: "__names", size: 832, align: 64, offset: 1024, baseType: !255)
!257 = !DIDerivedType(tag: DW_TAG_pointer_type, size: 64, align: 64, baseType: !244)
!258 = !DIDerivedType(tag: DW_TAG_member, file: !3, scope: !237, name: "_M_c_locale_ctype", size: 64, align: 64, offset: 128, baseType: !257)
!259 = !DIDerivedType(tag: DW_TAG_member, file: !3, scope: !237, name: "_M_del", size: 8, align: 8, offset: 192, baseType: !43)
!260 = !DIDerivedType(tag: DW_TAG_member, file: !3, scope: !237, name: "_M_toupper", size: 64, align: 64, offset: 256, baseType: !62)
!261 = !DIDerivedType(tag: DW_TAG_member, file: !3, scope: !237, name: "_M_tolower", size: 64, align: 64, offset: 320, baseType: !62)
!262 = !DIDerivedType(tag: DW_TAG_member, file: !3, scope: !237, name: "_M_table", size: 64, align: 64, offset: 384, baseType: !80)
!263 = !DIDerivedType(tag: DW_TAG_member, file: !3, scope: !237, name: "_M_widen_ok", size: 8, align: 8, offset: 448, baseType: !43)
!264 = !DISubrange(count: 256)
!265 = !{ !264 }
!266 = !DICompositeType(tag: DW_TAG_array_type, size: 2048, align: 8, baseType: !43, elements: !265)
!267 = !DIDerivedType(tag: DW_TAG_member, file: !3, scope: !237, name: "_M_widen", size: 2048, align: 8, offset: 456, baseType: !266)
!268 = !DIDerivedType(tag: DW_TAG_member, file: !3, scope: !237, name: "_M_narrow", size: 2048, align: 8, offset: 2504, baseType: !266)
!269 = !DIDerivedType(tag: DW_TAG_member, file: !3, scope: !237, name: "_M_narrow_ok", size: 8, align: 8, offset: 4552, baseType: !43)
!270 = !DIDerivedType(tag: DW_TAG_pointer_type, size: 64, align: 64, baseType: !237)
!271 = !DIDerivedType(tag: DW_TAG_member, file: !3, scope: !128, name: "_M_ctype", size: 64, align: 64, offset: 1920, baseType: !270)
!272 = !{ !274 }
!273 = !DICompositeType(tag: DW_TAG_structure_type, file: !3, name: "_ZSt7num_putIcSt19ostreambuf_iteratorIcSt11char_traitsIcEEE", size: 128, align: 64, elements: !272)
!274 = !DIDerivedType(tag: DW_TAG_member, file: !3, scope: !273, name: "__b_NSt6locale5facetE", size: 96, align: 64, baseType: !239)
!275 = !DIDerivedType(tag: DW_TAG_pointer_type, size: 64, align: 64, baseType: !273)
!276 = !DIDerivedType(tag: DW_TAG_member, file: !3, scope: !128, name: "_M_num_put", size: 64, align: 64, offset: 1984, baseType: !275)
!277 = !{ !279 }
!278 = !DICompositeType(tag: DW_TAG_structure_type, file: !3, name: "_ZSt7num_getIcSt19istreambuf_iteratorIcSt11char_traitsIcEEE", size: 128, align: 64, elements: !277)
!279 = !DIDerivedType(tag: DW_TAG_member, file: !3, scope: !278, name: "__b_NSt6locale5facetE", size: 96, align: 64, baseType: !239)
!280 = !DIDerivedType(tag: DW_TAG_pointer_type, size: 64, align: 64, baseType: !278)
!281 = !DIDerivedType(tag: DW_TAG_member, file: !3, scope: !128, name: "_M_num_get", size: 64, align: 64, offset: 2048, baseType: !280)
!282 = !DIDerivedType(tag: DW_TAG_member, file: !3, scope: !118, name: "__v_St9basic_iosIcSt11char_traitsIcEE", size: 2112, align: 64, offset: 128, baseType: !128)
!283 = !DIDerivedType(tag: DW_TAG_typedef, file: !3, scope: !11, name: "istream", line: 1, size: 2240, align: 64, baseType: !118)
!284 = !DIDerivedType(tag: DW_TAG_typedef, file: !3, scope: !11, name: "ostream", line: 1, size: 2176, align: 64, baseType: !217)
!285 = !{ !287, !288, !342 }
!286 = !DICompositeType(tag: DW_TAG_structure_type, file: !3, name: "_ZSt13basic_istreamIwSt11char_traitsIwEE", size: 2240, align: 64, elements: !285)
!287 = !DIDerivedType(tag: DW_TAG_member, file: !3, scope: !286, name: "__vptr", size: 64, align: 64, baseType: !124)
!288 = !DIDerivedType(tag: DW_TAG_member, file: !3, scope: !286, name: "_M_gcount", size: 64, align: 64, offset: 64, baseType: !32)
!289 = !{ !291, !297, !298, !299, !311, !331, !336, !341 }
!290 = !DICompositeType(tag: DW_TAG_structure_type, file: !3, name: "_ZSt9basic_iosIwSt11char_traitsIwEE", size: 2112, align: 64, elements: !289)
!291 = !DIDerivedType(tag: DW_TAG_member, file: !3, scope: !290, name: "__b_St8ios_base", size: 1728, align: 64, baseType: !130)
!292 = !{ !294, !295 }
!293 = !DICompositeType(tag: DW_TAG_structure_type, file: !3, name: "_ZSt13basic_ostreamIwSt11char_traitsIwEE", size: 2176, align: 64, elements: !292)
!294 = !DIDerivedType(tag: DW_TAG_member, file: !3, scope: !293, name: "__vptr", size: 64, align: 64, baseType: !124)
!295 = !DIDerivedType(tag: DW_TAG_member, file: !3, scope: !293, name: "__v_St9basic_iosIwSt11char_traitsIwEE", size: 2112, align: 64, offset: 64, baseType: !290)
!296 = !DIDerivedType(tag: DW_TAG_pointer_type, size: 64, align: 64, baseType: !293)
!297 = !DIDerivedType(tag: DW_TAG_member, file: !3, scope: !290, name: "_M_tie", size: 64, align: 64, offset: 1728, baseType: !296)
!298 = !DIDerivedType(tag: DW_TAG_member, file: !3, scope: !290, name: "_M_fill", size: 32, align: 32, offset: 1792, baseType: !61)
!299 = !DIDerivedType(tag: DW_TAG_member, file: !3, scope: !290, name: "_M_fill_init", size: 8, align: 8, offset: 1824, baseType: !43)
!300 = !{ !302, !303, !304, !305, !306, !307, !308, !309 }
!301 = !DICompositeType(tag: DW_TAG_structure_type, file: !3, name: "_ZSt15basic_streambufIwSt11char_traitsIwEE", size: 512, align: 64, elements: !300)
!302 = !DIDerivedType(tag: DW_TAG_member, file: !3, scope: !301, name: "__vptr", size: 64, align: 64, baseType: !124)
!303 = !DIDerivedType(tag: DW_TAG_member, file: !3, scope: !301, name: "_M_in_beg", size: 64, align: 64, offset: 64, baseType: !62)
!304 = !DIDerivedType(tag: DW_TAG_member, file: !3, scope: !301, name: "_M_in_cur", size: 64, align: 64, offset: 128, baseType: !62)
!305 = !DIDerivedType(tag: DW_TAG_member, file: !3, scope: !301, name: "_M_in_end", size: 64, align: 64, offset: 192, baseType: !62)
!306 = !DIDerivedType(tag: DW_TAG_member, file: !3, scope: !301, name: "_M_out_beg", size: 64, align: 64, offset: 256, baseType: !62)
!307 = !DIDerivedType(tag: DW_TAG_member, file: !3, scope: !301, name: "_M_out_cur", size: 64, align: 64, offset: 320, baseType: !62)
!308 = !DIDerivedType(tag: DW_TAG_member, file: !3, scope: !301, name: "_M_out_end", size: 64, align: 64, offset: 384, baseType: !62)
!309 = !DIDerivedType(tag: DW_TAG_member, file: !3, scope: !301, name: "_M_buf_locale", size: 64, align: 64, offset: 448, baseType: !197)
!310 = !DIDerivedType(tag: DW_TAG_pointer_type, size: 64, align: 64, baseType: !301)
!311 = !DIDerivedType(tag: DW_TAG_member, file: !3, scope: !290, name: "_M_streambuf", size: 64, align: 64, offset: 1856, baseType: !310)
!312 = !{ !317, !318, !319, !323, !325, !327, !329 }
!313 = !DICompositeType(tag: DW_TAG_structure_type, file: !3, name: "_ZSt5ctypeIwE", size: 10752, align: 64, elements: !312)
!314 = !{ !316 }
!315 = !DICompositeType(tag: DW_TAG_structure_type, file: !3, name: "__SO__St21__ctype_abstract_baseIwE", size: 96, align: 64, elements: !314)
!316 = !DIDerivedType(tag: DW_TAG_member, file: !3, scope: !315, name: "__b_NSt6locale5facetE", size: 96, align: 64, baseType: !239)
!317 = !DIDerivedType(tag: DW_TAG_member, file: !3, scope: !313, name: "__b_St21__ctype_abstract_baseIwE", size: 96, align: 64, baseType: !315)
!318 = !DIDerivedType(tag: DW_TAG_member, file: !3, scope: !313, name: "_M_c_locale_ctype", size: 64, align: 64, offset: 128, baseType: !257)
!319 = !DIDerivedType(tag: DW_TAG_member, file: !3, scope: !313, name: "_M_narrow_ok", size: 8, align: 8, offset: 192, baseType: !43)
!320 = !DISubrange(count: 128)
!321 = !{ !320 }
!322 = !DICompositeType(tag: DW_TAG_array_type, size: 1024, align: 8, baseType: !43, elements: !321)
!323 = !DIDerivedType(tag: DW_TAG_member, file: !3, scope: !313, name: "_M_narrow", size: 1024, align: 8, offset: 200, baseType: !322)
!324 = !DICompositeType(tag: DW_TAG_array_type, size: 8192, align: 32, baseType: !97, elements: !265)
!325 = !DIDerivedType(tag: DW_TAG_member, file: !3, scope: !313, name: "_M_widen", size: 8192, align: 32, offset: 1248, baseType: !324)
!326 = !DICompositeType(tag: DW_TAG_array_type, size: 256, align: 16, baseType: !79, elements: !51)
!327 = !DIDerivedType(tag: DW_TAG_member, file: !3, scope: !313, name: "_M_bit", size: 256, align: 16, offset: 9440, baseType: !326)
!328 = !DICompositeType(tag: DW_TAG_array_type, size: 1024, align: 64, baseType: !30, elements: !51)
!329 = !DIDerivedType(tag: DW_TAG_member, file: !3, scope: !313, name: "_M_wmask", size: 1024, align: 64, offset: 9728, baseType: !328)
!330 = !DIDerivedType(tag: DW_TAG_pointer_type, size: 64, align: 64, baseType: !313)
!331 = !DIDerivedType(tag: DW_TAG_member, file: !3, scope: !290, name: "_M_ctype", size: 64, align: 64, offset: 1920, baseType: !330)
!332 = !{ !334 }
!333 = !DICompositeType(tag: DW_TAG_structure_type, file: !3, name: "_ZSt7num_putIwSt19ostreambuf_iteratorIwSt11char_traitsIwEEE", size: 128, align: 64, elements: !332)
!334 = !DIDerivedType(tag: DW_TAG_member, file: !3, scope: !333, name: "__b_NSt6locale5facetE", size: 96, align: 64, baseType: !239)
!335 = !DIDerivedType(tag: DW_TAG_pointer_type, size: 64, align: 64, baseType: !333)
!336 = !DIDerivedType(tag: DW_TAG_member, file: !3, scope: !290, name: "_M_num_put", size: 64, align: 64, offset: 1984, baseType: !335)
!337 = !{ !339 }
!338 = !DICompositeType(tag: DW_TAG_structure_type, file: !3, name: "_ZSt7num_getIwSt19istreambuf_iteratorIwSt11char_traitsIwEEE", size: 128, align: 64, elements: !337)
!339 = !DIDerivedType(tag: DW_TAG_member, file: !3, scope: !338, name: "__b_NSt6locale5facetE", size: 96, align: 64, baseType: !239)
!340 = !DIDerivedType(tag: DW_TAG_pointer_type, size: 64, align: 64, baseType: !338)
!341 = !DIDerivedType(tag: DW_TAG_member, file: !3, scope: !290, name: "_M_num_get", size: 64, align: 64, offset: 2048, baseType: !340)
!342 = !DIDerivedType(tag: DW_TAG_member, file: !3, scope: !286, name: "__v_St9basic_iosIwSt11char_traitsIwEE", size: 2112, align: 64, offset: 128, baseType: !290)
!343 = !DIDerivedType(tag: DW_TAG_typedef, file: !3, scope: !11, name: "wistream", line: 1, size: 2240, align: 64, baseType: !286)
!344 = !DIDerivedType(tag: DW_TAG_typedef, file: !3, scope: !11, name: "wostream", line: 1, size: 2176, align: 64, baseType: !293)
!345 = !{  }
!346 = !DICompositeType(tag: DW_TAG_class_type, file: !3, scope: !11, name: "exception", line: 1, size: 64, align: 64, elements: !345, runtimeLang: DW_LANG_C_plus_plus)
!347 = !{ !349 }
!348 = !DICompositeType(tag: DW_TAG_class_type, file: !3, scope: !11, name: "bad_exception", line: 1, size: 64, align: 64, elements: !347, runtimeLang: DW_LANG_C_plus_plus)
!349 = !DIDerivedType(tag: DW_TAG_inheritance, file: !3, scope: !348, name: "exception", line: 1, size: 64, align: 64, baseType: !346)
!350 = !{ null }
!351 = !DISubroutineType(types: !350)
!352 = !DIDerivedType(tag: DW_TAG_pointer_type, size: 64, align: 64, baseType: !351)
!353 = !DIDerivedType(tag: DW_TAG_typedef, file: !3, scope: !11, name: "terminate_handler", line: 1, size: 64, align: 64, baseType: !352)
!354 = !DIDerivedType(tag: DW_TAG_typedef, file: !3, scope: !11, name: "unexpected_handler", line: 1, size: 64, align: 64, baseType: !352)
!355 = !{ !357 }
!356 = !DICompositeType(tag: DW_TAG_class_type, file: !3, scope: !11, name: "type_info", line: 1, size: 128, align: 64, elements: !355, runtimeLang: DW_LANG_C_plus_plus)
!357 = !DIDerivedType(tag: DW_TAG_member, file: !3, scope: !356, name: "__name", line: 1, size: 64, align: 64, offset: 64, baseType: !44)
!358 = !{ !360 }
!359 = !DICompositeType(tag: DW_TAG_class_type, file: !3, scope: !11, name: "bad_cast", line: 1, size: 64, align: 64, elements: !358, runtimeLang: DW_LANG_C_plus_plus)
!360 = !DIDerivedType(tag: DW_TAG_inheritance, file: !3, scope: !359, name: "exception", line: 1, size: 64, align: 64, baseType: !346)
!361 = !{ !363 }
!362 = !DICompositeType(tag: DW_TAG_class_type, file: !3, scope: !11, name: "bad_typeid", line: 1, size: 64, align: 64, elements: !361, runtimeLang: DW_LANG_C_plus_plus)
!363 = !DIDerivedType(tag: DW_TAG_inheritance, file: !3, scope: !362, name: "exception", line: 1, size: 64, align: 64, baseType: !346)
!364 = !{ !366 }
!365 = !DICompositeType(tag: DW_TAG_class_type, file: !3, scope: !11, name: "bad_alloc", line: 1, size: 64, align: 64, elements: !364, runtimeLang: DW_LANG_C_plus_plus)
!366 = !DIDerivedType(tag: DW_TAG_inheritance, file: !3, scope: !365, name: "exception", line: 1, size: 64, align: 64, baseType: !346)
!367 = !{ !369 }
!368 = !DICompositeType(tag: DW_TAG_class_type, file: !3, scope: !11, name: "bad_array_new_length", line: 1, size: 64, align: 64, elements: !367, runtimeLang: DW_LANG_C_plus_plus)
!369 = !DIDerivedType(tag: DW_TAG_inheritance, file: !3, scope: !368, name: "bad_alloc", line: 1, size: 64, align: 64, baseType: !365)
!370 = !{  }
!371 = !DICompositeType(tag: DW_TAG_structure_type, file: !3, scope: !11, name: "nothrow_t", line: 1, size: 8, align: 8, elements: !370, runtimeLang: DW_LANG_C_plus_plus)
!372 = !DIDerivedType(tag: DW_TAG_typedef, file: !3, scope: !11, name: "new_handler", line: 1, size: 64, align: 64, baseType: !352)
!373 = !{ !378 }
!374 = !DICompositeType(tag: DW_TAG_structure_type, file: !3, name: "_ZSt17integral_constantIbLb1EE", size: 8, align: 8, elements: !373)
!375 = !DISubrange(count: 0)
!376 = !{ !375 }
!377 = !DICompositeType(tag: DW_TAG_array_type, size: 8, align: 8, baseType: !43, elements: !376)
!378 = !DIDerivedType(tag: DW_TAG_member, file: !3, scope: !374, size: 8, align: 8, baseType: !377)
!379 = !DIDerivedType(tag: DW_TAG_typedef, file: !3, scope: !11, name: "true_type", line: 1, size: 8, align: 8, baseType: !374)
!380 = !{ !382 }
!381 = !DICompositeType(tag: DW_TAG_structure_type, file: !3, name: "_ZSt17integral_constantIbLb0EE", size: 8, align: 8, elements: !380)
!382 = !DIDerivedType(tag: DW_TAG_member, file: !3, scope: !381, size: 8, align: 8, baseType: !377)
!383 = !DIDerivedType(tag: DW_TAG_typedef, file: !3, scope: !11, name: "false_type", line: 1, size: 8, align: 8, baseType: !381)
!384 = !{  }
!385 = !DICompositeType(tag: DW_TAG_structure_type, file: !3, scope: !11, name: "__failure_type", line: 1, size: 8, align: 8, elements: !384, runtimeLang: DW_LANG_C_plus_plus)
!386 = !{  }
!387 = !DICompositeType(tag: DW_TAG_structure_type, file: !3, scope: !11, name: "__do_is_destructible_impl", line: 1, size: 8, align: 8, elements: !386, runtimeLang: DW_LANG_C_plus_plus)
!388 = !{  }
!389 = !DICompositeType(tag: DW_TAG_structure_type, file: !3, scope: !11, name: "__do_is_nt_destructible_impl", line: 1, size: 8, align: 8, elements: !388, runtimeLang: DW_LANG_C_plus_plus)
!390 = !{  }
!391 = !DICompositeType(tag: DW_TAG_structure_type, file: !3, scope: !11, name: "__do_is_implicitly_default_constructible_impl", line: 1, size: 8, align: 8, elements: !390, runtimeLang: DW_LANG_C_plus_plus)
!392 = !{  }
!393 = !DICompositeType(tag: DW_TAG_class_type, file: !3, scope: !11, name: "__make_unsigned_selector_base", line: 1, size: 8, align: 8, elements: !392, runtimeLang: DW_LANG_C_plus_plus)
!394 = !{  }
!395 = !DICompositeType(tag: DW_TAG_structure_type, file: !3, scope: !11, name: "__do_common_type_impl", line: 1, size: 8, align: 8, elements: !394, runtimeLang: DW_LANG_C_plus_plus)
!396 = !{  }
!397 = !DICompositeType(tag: DW_TAG_structure_type, file: !3, scope: !11, name: "__do_member_type_wrapper", line: 1, size: 8, align: 8, elements: !396, runtimeLang: DW_LANG_C_plus_plus)
!398 = !{  }
!399 = !DICompositeType(tag: DW_TAG_structure_type, file: !3, scope: !11, name: "__invoke_memfun_ref", line: 1, size: 8, align: 8, elements: !398, runtimeLang: DW_LANG_C_plus_plus)
!400 = !{  }
!401 = !DICompositeType(tag: DW_TAG_structure_type, file: !3, scope: !11, name: "__invoke_memfun_deref", line: 1, size: 8, align: 8, elements: !400, runtimeLang: DW_LANG_C_plus_plus)
!402 = !{  }
!403 = !DICompositeType(tag: DW_TAG_structure_type, file: !3, scope: !11, name: "__invoke_memobj_ref", line: 1, size: 8, align: 8, elements: !402, runtimeLang: DW_LANG_C_plus_plus)
!404 = !{  }
!405 = !DICompositeType(tag: DW_TAG_structure_type, file: !3, scope: !11, name: "__invoke_memobj_deref", line: 1, size: 8, align: 8, elements: !404, runtimeLang: DW_LANG_C_plus_plus)
!406 = !{  }
!407 = !DICompositeType(tag: DW_TAG_structure_type, file: !3, scope: !11, name: "__invoke_other", line: 1, size: 8, align: 8, elements: !406, runtimeLang: DW_LANG_C_plus_plus)
!408 = !{  }
!409 = !DICompositeType(tag: DW_TAG_structure_type, file: !3, scope: !11, name: "__result_of_memfun_ref_impl", line: 1, size: 8, align: 8, elements: !408, runtimeLang: DW_LANG_C_plus_plus)
!410 = !{  }
!411 = !DICompositeType(tag: DW_TAG_structure_type, file: !3, scope: !11, name: "__result_of_memfun_deref_impl", line: 1, size: 8, align: 8, elements: !410, runtimeLang: DW_LANG_C_plus_plus)
!412 = !{  }
!413 = !DICompositeType(tag: DW_TAG_structure_type, file: !3, scope: !11, name: "__result_of_memobj_ref_impl", line: 1, size: 8, align: 8, elements: !412, runtimeLang: DW_LANG_C_plus_plus)
!414 = !{  }
!415 = !DICompositeType(tag: DW_TAG_structure_type, file: !3, scope: !11, name: "__result_of_memobj_deref_impl", line: 1, size: 8, align: 8, elements: !414, runtimeLang: DW_LANG_C_plus_plus)
!416 = !{  }
!417 = !DICompositeType(tag: DW_TAG_structure_type, file: !3, scope: !11, name: "__result_of_other_impl", line: 1, size: 8, align: 8, elements: !416, runtimeLang: DW_LANG_C_plus_plus)
!418 = !{  }
!419 = !DICompositeType(tag: DW_TAG_structure_type, file: !3, scope: !11, name: "__nonesuch", line: 1, size: 8, align: 8, elements: !418, runtimeLang: DW_LANG_C_plus_plus)
!420 = !{ !422 }
!421 = !DICompositeType(tag: DW_TAG_class_type, file: !3, scope: !11, name: "nested_exception", line: 1, size: 128, align: 64, elements: !420, runtimeLang: DW_LANG_C_plus_plus)
!422 = !DIDerivedType(tag: DW_TAG_member, file: !3, scope: !421, name: "_M_ptr", line: 1, size: 64, align: 64, offset: 64, baseType: !15)
!423 = !{  }
!424 = !DICompositeType(tag: DW_TAG_structure_type, file: !3, scope: !11, name: "piecewise_construct_t", line: 1, size: 8, align: 8, elements: !423, runtimeLang: DW_LANG_C_plus_plus)
!425 = !{ !427 }
!426 = !DICompositeType(tag: DW_TAG_structure_type, file: !3, scope: !11, name: "__nonesuch_no_braces", line: 1, size: 8, align: 8, elements: !425, runtimeLang: DW_LANG_C_plus_plus)
!427 = !DIDerivedType(tag: DW_TAG_inheritance, file: !3, scope: !426, name: "__nonesuch", line: 1, size: 8, align: 8, baseType: !419)
!428 = !{  }
!429 = !DICompositeType(tag: DW_TAG_structure_type, file: !3, scope: !11, name: "input_iterator_tag", line: 1, size: 8, align: 8, elements: !428, runtimeLang: DW_LANG_C_plus_plus)
!430 = !{  }
!431 = !DICompositeType(tag: DW_TAG_structure_type, file: !3, scope: !11, name: "output_iterator_tag", line: 1, size: 8, align: 8, elements: !430, runtimeLang: DW_LANG_C_plus_plus)
!432 = !{ !434 }
!433 = !DICompositeType(tag: DW_TAG_structure_type, file: !3, scope: !11, name: "forward_iterator_tag", line: 1, size: 8, align: 8, elements: !432, runtimeLang: DW_LANG_C_plus_plus)
!434 = !DIDerivedType(tag: DW_TAG_inheritance, file: !3, scope: !433, name: "input_iterator_tag", line: 1, size: 8, align: 8, baseType: !429)
!435 = !{ !437 }
!436 = !DICompositeType(tag: DW_TAG_structure_type, file: !3, scope: !11, name: "bidirectional_iterator_tag", line: 1, size: 8, align: 8, elements: !435, runtimeLang: DW_LANG_C_plus_plus)
!437 = !DIDerivedType(tag: DW_TAG_inheritance, file: !3, scope: !436, name: "forward_iterator_tag", line: 1, size: 8, align: 8, baseType: !433)
!438 = !{ !440 }
!439 = !DICompositeType(tag: DW_TAG_structure_type, file: !3, scope: !11, name: "random_access_iterator_tag", line: 1, size: 8, align: 8, elements: !438, runtimeLang: DW_LANG_C_plus_plus)
!440 = !DIDerivedType(tag: DW_TAG_inheritance, file: !3, scope: !439, name: "bidirectional_iterator_tag", line: 1, size: 8, align: 8, baseType: !436)
!441 = !{  }
!442 = !DICompositeType(tag: DW_TAG_class_type, file: !3, scope: !11, name: "__undefined", line: 1, align: 8, elements: !441, runtimeLang: DW_LANG_C_plus_plus)
!443 = !DIDerivedType(tag: DW_TAG_typedef, file: !3, scope: !11, name: "__c_locale", line: 1, size: 64, align: 64, baseType: !257)
!444 = !{  }
!445 = !DICompositeType(tag: DW_TAG_structure_type, file: !3, scope: !11, name: "__is_transparent", line: 1, align: 8, elements: !444, runtimeLang: DW_LANG_C_plus_plus)
!446 = !{  }
!447 = !DICompositeType(tag: DW_TAG_structure_type, file: !3, scope: !11, name: "__allocator_traits_base", line: 1, size: 8, align: 8, elements: !446, runtimeLang: DW_LANG_C_plus_plus)
!448 = !{  }
!449 = !DICompositeType(tag: DW_TAG_structure_type, file: !3, scope: !11, name: "_Hash_impl", line: 1, size: 8, align: 8, elements: !448, runtimeLang: DW_LANG_C_plus_plus)
!450 = !{  }
!451 = !DICompositeType(tag: DW_TAG_structure_type, file: !3, scope: !11, name: "_Fnv_hash_impl", line: 1, size: 8, align: 8, elements: !450, runtimeLang: DW_LANG_C_plus_plus)
!452 = !{ !454, !455, !456, !457, !458, !459, !460, !461, !462, !463, !464, !465, !466, !467, !468, !469, !470, !471, !472, !473, !474, !475, !476, !477, !478, !479, !480, !481, !482, !483, !484, !485, !486, !487, !488, !489, !490, !491, !492, !493, !494, !495, !496, !497, !498, !499, !500, !501, !502, !503, !504, !505, !506, !507, !508, !509, !510, !511, !512, !513, !514, !515, !516, !517, !518, !519, !520, !521, !522, !523, !524, !525, !526, !527, !528, !529, !530, !531 }
!453 = !DICompositeType(tag: DW_TAG_enumeration_type, file: !3, scope: !11, name: "errc", line: 1, size: 32, align: 32, elements: !452, runtimeLang: DW_LANG_C_plus_plus)
!454 = !DIEnumerator(name: "_ZNSt4errc19wrong_protocol_typeE", value: 91)
!455 = !DIEnumerator(name: "_ZNSt4errc15value_too_largeE", value: 75)
!456 = !DIEnumerator(name: "_ZNSt4errc29too_many_symbolic_link_levelsE", value: 40)
!457 = !DIEnumerator(name: "_ZNSt4errc14too_many_linksE", value: 31)
!458 = !DIEnumerator(name: "_ZNSt4errc19too_many_files_openE", value: 24)
!459 = !DIEnumerator(name: "_ZNSt4errc29too_many_files_open_in_systemE", value: 23)
!460 = !DIEnumerator(name: "_ZNSt4errc9timed_outE", value: 110)
!461 = !DIEnumerator(name: "_ZNSt4errc14text_file_busyE", value: 26)
!462 = !DIEnumerator(name: "_ZNSt4errc14stream_timeoutE", value: 62)
!463 = !DIEnumerator(name: "_ZNSt4errc21state_not_recoverableE", value: 131)
!464 = !DIEnumerator(name: "_ZNSt4errc19result_out_of_rangeE", value: 34)
!465 = !DIEnumerator(name: "_ZNSt4errc30resource_unavailable_try_againE", value: 11)
!466 = !DIEnumerator(name: "_ZNSt4errc29resource_deadlock_would_occurE", value: 35)
!467 = !DIEnumerator(name: "_ZNSt4errc21read_only_file_systemE", value: 30)
!468 = !DIEnumerator(name: "_ZNSt4errc22protocol_not_supportedE", value: 93)
!469 = !DIEnumerator(name: "_ZNSt4errc14protocol_errorE", value: 71)
!470 = !DIEnumerator(name: "_ZNSt4errc17permission_deniedE", value: 13)
!471 = !DIEnumerator(name: "_ZNSt4errc10owner_deadE", value: 130)
!472 = !DIEnumerator(name: "_ZNSt4errc21operation_would_blockE", value: 11)
!473 = !DIEnumerator(name: "_ZNSt4errc23operation_not_supportedE", value: 95)
!474 = !DIEnumerator(name: "_ZNSt4errc23operation_not_permittedE", value: 1)
!475 = !DIEnumerator(name: "_ZNSt4errc21operation_in_progressE", value: 115)
!476 = !DIEnumerator(name: "_ZNSt4errc18operation_canceledE", value: 125)
!477 = !DIEnumerator(name: "_ZNSt4errc13not_supportedE", value: 95)
!478 = !DIEnumerator(name: "_ZNSt4errc17not_enough_memoryE", value: 12)
!479 = !DIEnumerator(name: "_ZNSt4errc13not_connectedE", value: 107)
!480 = !DIEnumerator(name: "_ZNSt4errc12not_a_streamE", value: 60)
!481 = !DIEnumerator(name: "_ZNSt4errc12not_a_socketE", value: 88)
!482 = !DIEnumerator(name: "_ZNSt4errc15not_a_directoryE", value: 20)
!483 = !DIEnumerator(name: "_ZNSt4errc15no_such_processE", value: 3)
!484 = !DIEnumerator(name: "_ZNSt4errc25no_such_file_or_directoryE", value: 2)
!485 = !DIEnumerator(name: "_ZNSt4errc14no_such_deviceE", value: 19)
!486 = !DIEnumerator(name: "_ZNSt4errc25no_such_device_or_addressE", value: 6)
!487 = !DIEnumerator(name: "_ZNSt4errc19no_stream_resourcesE", value: 63)
!488 = !DIEnumerator(name: "_ZNSt4errc18no_space_on_deviceE", value: 28)
!489 = !DIEnumerator(name: "_ZNSt4errc18no_protocol_optionE", value: 92)
!490 = !DIEnumerator(name: "_ZNSt4errc10no_messageE", value: 42)
!491 = !DIEnumerator(name: "_ZNSt4errc20no_message_availableE", value: 61)
!492 = !DIEnumerator(name: "_ZNSt4errc17no_lock_availableE", value: 37)
!493 = !DIEnumerator(name: "_ZNSt4errc7no_linkE", value: 67)
!494 = !DIEnumerator(name: "_ZNSt4errc16no_child_processE", value: 10)
!495 = !DIEnumerator(name: "_ZNSt4errc15no_buffer_spaceE", value: 105)
!496 = !DIEnumerator(name: "_ZNSt4errc19network_unreachableE", value: 101)
!497 = !DIEnumerator(name: "_ZNSt4errc13network_resetE", value: 102)
!498 = !DIEnumerator(name: "_ZNSt4errc12network_downE", value: 100)
!499 = !DIEnumerator(name: "_ZNSt4errc12message_sizeE", value: 90)
!500 = !DIEnumerator(name: "_ZNSt4errc14is_a_directoryE", value: 21)
!501 = !DIEnumerator(name: "_ZNSt4errc8io_errorE", value: 5)
!502 = !DIEnumerator(name: "_ZNSt4errc12invalid_seekE", value: 29)
!503 = !DIEnumerator(name: "_ZNSt4errc16invalid_argumentE", value: 22)
!504 = !DIEnumerator(name: "_ZNSt4errc11interruptedE", value: 4)
!505 = !DIEnumerator(name: "_ZNSt4errc34inappropriate_io_control_operationE", value: 25)
!506 = !DIEnumerator(name: "_ZNSt4errc21illegal_byte_sequenceE", value: 84)
!507 = !DIEnumerator(name: "_ZNSt4errc18identifier_removedE", value: 43)
!508 = !DIEnumerator(name: "_ZNSt4errc16host_unreachableE", value: 113)
!509 = !DIEnumerator(name: "_ZNSt4errc22function_not_supportedE", value: 38)
!510 = !DIEnumerator(name: "_ZNSt4errc17filename_too_longE", value: 36)
!511 = !DIEnumerator(name: "_ZNSt4errc14file_too_largeE", value: 27)
!512 = !DIEnumerator(name: "_ZNSt4errc11file_existsE", value: 17)
!513 = !DIEnumerator(name: "_ZNSt4errc23executable_format_errorE", value: 8)
!514 = !DIEnumerator(name: "_ZNSt4errc19directory_not_emptyE", value: 39)
!515 = !DIEnumerator(name: "_ZNSt4errc23device_or_resource_busyE", value: 16)
!516 = !DIEnumerator(name: "_ZNSt4errc28destination_address_requiredE", value: 89)
!517 = !DIEnumerator(name: "_ZNSt4errc17cross_device_linkE", value: 18)
!518 = !DIEnumerator(name: "_ZNSt4errc16connection_resetE", value: 104)
!519 = !DIEnumerator(name: "_ZNSt4errc18connection_refusedE", value: 111)
!520 = !DIEnumerator(name: "_ZNSt4errc30connection_already_in_progressE", value: 114)
!521 = !DIEnumerator(name: "_ZNSt4errc18connection_abortedE", value: 103)
!522 = !DIEnumerator(name: "_ZNSt4errc11broken_pipeE", value: 32)
!523 = !DIEnumerator(name: "_ZNSt4errc11bad_messageE", value: 74)
!524 = !DIEnumerator(name: "_ZNSt4errc19bad_file_descriptorE", value: 9)
!525 = !DIEnumerator(name: "_ZNSt4errc11bad_addressE", value: 14)
!526 = !DIEnumerator(name: "_ZNSt4errc22argument_out_of_domainE", value: 33)
!527 = !DIEnumerator(name: "_ZNSt4errc22argument_list_too_longE", value: 7)
!528 = !DIEnumerator(name: "_ZNSt4errc17already_connectedE", value: 106)
!529 = !DIEnumerator(name: "_ZNSt4errc21address_not_availableE", value: 99)
!530 = !DIEnumerator(name: "_ZNSt4errc14address_in_useE", value: 98)
!531 = !DIEnumerator(name: "_ZNSt4errc28address_family_not_supportedE", value: 97)
!532 = !{ !539 }
!533 = !DICompositeType(tag: DW_TAG_structure_type, file: !3, scope: !11, name: "__cow_string", line: 1, size: 64, align: 64, elements: !532, runtimeLang: DW_LANG_C_plus_plus)
!534 = !{ !536, !538 }
!535 = !DICompositeType(tag: DW_TAG_union_type, file: !3, scope: !533, line: 1, size: 64, align: 64, elements: !534, runtimeLang: DW_LANG_C_plus_plus)
!536 = !DIDerivedType(tag: DW_TAG_member, file: !3, scope: !535, name: "_M_p", line: 1, size: 64, align: 64, baseType: !44)
!537 = !DICompositeType(tag: DW_TAG_array_type, size: 64, align: 8, baseType: !43, elements: !87)
!538 = !DIDerivedType(tag: DW_TAG_member, file: !3, scope: !535, name: "_M_bytes", line: 1, size: 64, align: 8, baseType: !537)
!539 = !DIDerivedType(tag: DW_TAG_member, file: !3, scope: !533, line: 1, size: 64, align: 64, baseType: !535)
!540 = !{ !542, !543 }
!541 = !DICompositeType(tag: DW_TAG_class_type, file: !3, scope: !11, name: "logic_error", line: 1, size: 128, align: 64, elements: !540, runtimeLang: DW_LANG_C_plus_plus)
!542 = !DIDerivedType(tag: DW_TAG_inheritance, file: !3, scope: !541, name: "exception", line: 1, size: 64, align: 64, baseType: !346)
!543 = !DIDerivedType(tag: DW_TAG_member, file: !3, scope: !541, name: "_M_msg", line: 1, size: 64, align: 64, offset: 64, baseType: !533)
!544 = !{ !546 }
!545 = !DICompositeType(tag: DW_TAG_class_type, file: !3, scope: !11, name: "domain_error", line: 1, size: 128, align: 64, elements: !544, runtimeLang: DW_LANG_C_plus_plus)
!546 = !DIDerivedType(tag: DW_TAG_inheritance, file: !3, scope: !545, name: "logic_error", line: 1, size: 128, align: 64, baseType: !541)
!547 = !{ !549 }
!548 = !DICompositeType(tag: DW_TAG_class_type, file: !3, scope: !11, name: "invalid_argument", line: 1, size: 128, align: 64, elements: !547, runtimeLang: DW_LANG_C_plus_plus)
!549 = !DIDerivedType(tag: DW_TAG_inheritance, file: !3, scope: !548, name: "logic_error", line: 1, size: 128, align: 64, baseType: !541)
!550 = !{ !552 }
!551 = !DICompositeType(tag: DW_TAG_class_type, file: !3, scope: !11, name: "length_error", line: 1, size: 128, align: 64, elements: !550, runtimeLang: DW_LANG_C_plus_plus)
!552 = !DIDerivedType(tag: DW_TAG_inheritance, file: !3, scope: !551, name: "logic_error", line: 1, size: 128, align: 64, baseType: !541)
!553 = !{ !555 }
!554 = !DICompositeType(tag: DW_TAG_class_type, file: !3, scope: !11, name: "out_of_range", line: 1, size: 128, align: 64, elements: !553, runtimeLang: DW_LANG_C_plus_plus)
!555 = !DIDerivedType(tag: DW_TAG_inheritance, file: !3, scope: !554, name: "logic_error", line: 1, size: 128, align: 64, baseType: !541)
!556 = !{ !558, !559 }
!557 = !DICompositeType(tag: DW_TAG_class_type, file: !3, scope: !11, name: "runtime_error", line: 1, size: 128, align: 64, elements: !556, runtimeLang: DW_LANG_C_plus_plus)
!558 = !DIDerivedType(tag: DW_TAG_inheritance, file: !3, scope: !557, name: "exception", line: 1, size: 64, align: 64, baseType: !346)
!559 = !DIDerivedType(tag: DW_TAG_member, file: !3, scope: !557, name: "_M_msg", line: 1, size: 64, align: 64, offset: 64, baseType: !533)
!560 = !{ !562 }
!561 = !DICompositeType(tag: DW_TAG_class_type, file: !3, scope: !11, name: "range_error", line: 1, size: 128, align: 64, elements: !560, runtimeLang: DW_LANG_C_plus_plus)
!562 = !DIDerivedType(tag: DW_TAG_inheritance, file: !3, scope: !561, name: "runtime_error", line: 1, size: 128, align: 64, baseType: !557)
!563 = !{ !565 }
!564 = !DICompositeType(tag: DW_TAG_class_type, file: !3, scope: !11, name: "overflow_error", line: 1, size: 128, align: 64, elements: !563, runtimeLang: DW_LANG_C_plus_plus)
!565 = !DIDerivedType(tag: DW_TAG_inheritance, file: !3, scope: !564, name: "runtime_error", line: 1, size: 128, align: 64, baseType: !557)
!566 = !{ !568 }
!567 = !DICompositeType(tag: DW_TAG_class_type, file: !3, scope: !11, name: "underflow_error", line: 1, size: 128, align: 64, elements: !566, runtimeLang: DW_LANG_C_plus_plus)
!568 = !DIDerivedType(tag: DW_TAG_inheritance, file: !3, scope: !567, name: "runtime_error", line: 1, size: 128, align: 64, baseType: !557)
!569 = !{ !571, !576 }
!570 = !DICompositeType(tag: DW_TAG_structure_type, file: !3, scope: !11, name: "error_code", line: 1, size: 128, align: 64, elements: !569, runtimeLang: DW_LANG_C_plus_plus)
!571 = !DIDerivedType(tag: DW_TAG_member, file: !3, scope: !570, name: "_M_value", line: 1, size: 32, align: 32, baseType: !61)
!572 = !{ !574 }
!573 = !DICompositeType(tag: DW_TAG_structure_type, file: !3, name: "_ZNSt3_V214error_categoryE", size: 64, align: 64, elements: !572)
!574 = !DIDerivedType(tag: DW_TAG_member, file: !3, scope: !573, name: "__vptr", size: 64, align: 64, baseType: !124)
!575 = !DIDerivedType(tag: DW_TAG_pointer_type, size: 64, align: 64, baseType: !573)
!576 = !DIDerivedType(tag: DW_TAG_member, file: !3, scope: !570, name: "_M_cat", line: 1, size: 64, align: 64, offset: 64, baseType: !575)
!577 = !{ !579, !580 }
!578 = !DICompositeType(tag: DW_TAG_structure_type, file: !3, scope: !11, name: "error_condition", line: 1, size: 128, align: 64, elements: !577, runtimeLang: DW_LANG_C_plus_plus)
!579 = !DIDerivedType(tag: DW_TAG_member, file: !3, scope: !578, name: "_M_value", line: 1, size: 32, align: 32, baseType: !61)
!580 = !DIDerivedType(tag: DW_TAG_member, file: !3, scope: !578, name: "_M_cat", line: 1, size: 64, align: 64, offset: 64, baseType: !575)
!581 = !{ !583, !584 }
!582 = !DICompositeType(tag: DW_TAG_class_type, file: !3, scope: !11, name: "system_error", line: 1, size: 256, align: 64, elements: !581, runtimeLang: DW_LANG_C_plus_plus)
!583 = !DIDerivedType(tag: DW_TAG_inheritance, file: !3, scope: !582, name: "runtime_error", line: 1, size: 128, align: 64, baseType: !557)
!584 = !DIDerivedType(tag: DW_TAG_member, file: !3, scope: !582, name: "_M_code", line: 1, size: 128, align: 64, offset: 128, baseType: !570)
!585 = !{ !587, !588, !589, !590, !591, !592, !593, !594, !595 }
!586 = !DICompositeType(tag: DW_TAG_enumeration_type, file: !3, scope: !11, name: "_Ios_Openmode", line: 1, size: 32, align: 32, elements: !585, runtimeLang: DW_LANG_C_plus_plus)
!587 = !DIEnumerator(name: "_S_app", value: 1)
!588 = !DIEnumerator(name: "_S_ate", value: 2)
!589 = !DIEnumerator(name: "_S_bin", value: 4)
!590 = !DIEnumerator(name: "_S_in", value: 8)
!591 = !DIEnumerator(name: "_S_out", value: 16)
!592 = !DIEnumerator(name: "_S_trunc", value: 32)
!593 = !DIEnumerator(name: "_S_ios_openmode_end", value: 65536)
!594 = !DIEnumerator(name: "_S_ios_openmode_max", value: 2147483647)
!595 = !DIEnumerator(name: "_S_ios_openmode_min", value: -2147483648)
!596 = !{ !598, !599, !600, !601 }
!597 = !DICompositeType(tag: DW_TAG_enumeration_type, file: !3, scope: !11, name: "_Ios_Seekdir", line: 1, size: 32, align: 32, elements: !596, runtimeLang: DW_LANG_C_plus_plus)
!598 = !DIEnumerator(name: "_S_beg", value: 0)
!599 = !DIEnumerator(name: "_S_cur", value: 1)
!600 = !DIEnumerator(name: "_S_end", value: 2)
!601 = !DIEnumerator(name: "_S_ios_seekdir_end", value: 65536)
!602 = !{ !604 }
!603 = !DICompositeType(tag: DW_TAG_enumeration_type, file: !3, scope: !11, name: "io_errc", line: 1, size: 32, align: 32, elements: !602, runtimeLang: DW_LANG_C_plus_plus)
!604 = !DIEnumerator(name: "_ZNSt7io_errc6streamE", value: 1)
!605 = !{  }
!606 = !DICompositeType(tag: DW_TAG_structure_type, file: !3, scope: !11, name: "ctype_base", line: 1, size: 8, align: 8, elements: !605, runtimeLang: DW_LANG_C_plus_plus)
!607 = !DIDerivedType(tag: DW_TAG_typedef, file: !3, scope: !606, name: "__to_type", line: 1, size: 64, align: 64, baseType: !62)
!608 = !DIDerivedType(tag: DW_TAG_typedef, file: !3, scope: !606, name: "mask", line: 1, size: 16, align: 16, baseType: !79)
!609 = !{  }
!610 = !DICompositeType(tag: DW_TAG_class_type, file: !3, scope: !11, name: "__num_base", line: 1, size: 8, align: 8, elements: !609, runtimeLang: DW_LANG_C_plus_plus)
!611 = !{ !613, !614, !615, !616, !617 }
!612 = !DICompositeType(tag: DW_TAG_enumeration_type, file: !3, scope: !11, name: "float_round_style", line: 1, size: 32, align: 32, elements: !611, runtimeLang: DW_LANG_C_plus_plus)
!613 = !DIEnumerator(name: "round_indeterminate", value: -1)
!614 = !DIEnumerator(name: "round_toward_zero", value: 0)
!615 = !DIEnumerator(name: "round_to_nearest", value: 1)
!616 = !DIEnumerator(name: "round_toward_infinity", value: 2)
!617 = !DIEnumerator(name: "round_toward_neg_infinity", value: 3)
!618 = !{ !620, !621, !622 }
!619 = !DICompositeType(tag: DW_TAG_enumeration_type, file: !3, scope: !11, name: "float_denorm_style", line: 1, size: 32, align: 32, elements: !618, runtimeLang: DW_LANG_C_plus_plus)
!620 = !DIEnumerator(name: "denorm_indeterminate", value: -1)
!621 = !DIEnumerator(name: "denorm_absent", value: 0)
!622 = !DIEnumerator(name: "denorm_present", value: 1)
!623 = !{  }
!624 = !DICompositeType(tag: DW_TAG_structure_type, file: !3, scope: !11, name: "__numeric_limits_base", line: 1, size: 8, align: 8, elements: !623, runtimeLang: DW_LANG_C_plus_plus)
!625 = !DIDerivedType(tag: DW_TAG_typedef, file: !3, scope: !11, name: "_Bit_type", line: 1, size: 64, align: 64, baseType: !30)
!626 = !{ !629, !630 }
!627 = !DICompositeType(tag: DW_TAG_structure_type, file: !3, scope: !11, name: "_Bit_reference", line: 1, size: 128, align: 64, elements: !626, runtimeLang: DW_LANG_C_plus_plus)
!628 = !DIDerivedType(tag: DW_TAG_pointer_type, size: 64, align: 64, baseType: !30)
!629 = !DIDerivedType(tag: DW_TAG_member, file: !3, scope: !627, name: "_M_p", line: 1, size: 64, align: 64, baseType: !628)
!630 = !DIDerivedType(tag: DW_TAG_member, file: !3, scope: !627, name: "_M_mask", line: 1, size: 64, align: 64, offset: 64, baseType: !30)
!631 = !{ !633, !634 }
!632 = !DICompositeType(tag: DW_TAG_structure_type, file: !3, scope: !11, name: "_Bit_iterator_base", line: 1, size: 128, align: 64, elements: !631, runtimeLang: DW_LANG_C_plus_plus)
!633 = !DIDerivedType(tag: DW_TAG_member, file: !3, scope: !632, name: "_M_p", line: 1, size: 64, align: 64, baseType: !628)
!634 = !DIDerivedType(tag: DW_TAG_member, file: !3, scope: !632, name: "_M_offset", line: 1, size: 32, align: 32, offset: 64, baseType: !97)
!635 = !{ !639 }
!636 = !DICompositeType(tag: DW_TAG_structure_type, file: !3, scope: !11, name: "_Bit_iterator", line: 1, size: 128, align: 64, elements: !635, runtimeLang: DW_LANG_C_plus_plus)
!637 = !DIDerivedType(tag: DW_TAG_typedef, file: !3, scope: !636, name: "reference", line: 1, size: 128, align: 64, baseType: !627)
!638 = !DIDerivedType(tag: DW_TAG_typedef, file: !3, scope: !636, name: "iterator", line: 1, size: 128, align: 64, baseType: !636)
!639 = !DIDerivedType(tag: DW_TAG_inheritance, file: !3, scope: !636, name: "_Bit_iterator_base", line: 1, size: 128, align: 64, baseType: !632)
!640 = !{ !645 }
!641 = !DICompositeType(tag: DW_TAG_structure_type, file: !3, scope: !11, name: "_Bit_const_iterator", line: 1, size: 128, align: 64, elements: !640, runtimeLang: DW_LANG_C_plus_plus)
!642 = !DIDerivedType(tag: DW_TAG_typedef, file: !3, scope: !641, name: "reference", line: 1, size: 8, align: 8, baseType: !43)
!643 = !DIDerivedType(tag: DW_TAG_typedef, file: !3, scope: !641, name: "const_reference", line: 1, size: 8, align: 8, baseType: !43)
!644 = !DIDerivedType(tag: DW_TAG_typedef, file: !3, scope: !641, name: "const_iterator", line: 1, size: 128, align: 64, baseType: !641)
!645 = !DIDerivedType(tag: DW_TAG_inheritance, file: !3, scope: !641, name: "_Bit_iterator_base", line: 1, size: 128, align: 64, baseType: !632)
!646 = !DINamespace(scope: !10, name: "__cxxabiv1")
!647 = !{  }
!648 = !DICompositeType(tag: DW_TAG_structure_type, file: !3, scope: !646, name: "__cxa_refcounted_exception", line: 1, align: 8, elements: !647, runtimeLang: DW_LANG_C_plus_plus)
!649 = !{  }
!650 = !DICompositeType(tag: DW_TAG_class_type, file: !3, scope: !646, name: "__class_type_info", line: 1, align: 8, elements: !649, runtimeLang: DW_LANG_C_plus_plus)
!651 = !{  }
!652 = !DICompositeType(tag: DW_TAG_class_type, file: !3, scope: !646, name: "__forced_unwind", line: 1, size: 64, align: 64, elements: !651, runtimeLang: DW_LANG_C_plus_plus)
!653 = !DINamespace(scope: !10, name: "__gnu_cxx")
!654 = !DINamespace(scope: !10, name: "physicalconstants")
!655 = !{  }
!656 = !DICompositeType(tag: DW_TAG_structure_type, file: !3, scope: !10, line: 1, size: 128, align: 64, elements: !655, runtimeLang: DW_LANG_C_plus_plus)
!657 = !{  }
!658 = !DICompositeType(tag: DW_TAG_structure_type, file: !3, scope: !10, name: "__class_type_info", line: 1, size: 128, align: 64, elements: !657, runtimeLang: DW_LANG_C_plus_plus)
!659 = !{  }
!660 = !DICompositeType(tag: DW_TAG_structure_type, file: !3, scope: !10, name: "__EDG_type_info", line: 1, size: 128, align: 64, elements: !659, runtimeLang: DW_LANG_C_plus_plus)
!661 = !{  }
!662 = !DICompositeType(tag: DW_TAG_structure_type, file: !3, scope: !10, name: "__pbase_type_info", line: 1, size: 256, align: 64, elements: !661, runtimeLang: DW_LANG_C_plus_plus)
!663 = !{  }
!664 = !DICompositeType(tag: DW_TAG_structure_type, file: !3, scope: !10, name: "__pointer_to_member_type_info", line: 1, size: 320, align: 64, elements: !663, runtimeLang: DW_LANG_C_plus_plus)
!665 = !{  }
!666 = !DICompositeType(tag: DW_TAG_structure_type, file: !3, scope: !10, name: "__pointer_type_info", line: 1, size: 256, align: 64, elements: !665, runtimeLang: DW_LANG_C_plus_plus)
!667 = !{  }
!668 = !DICompositeType(tag: DW_TAG_structure_type, file: !3, scope: !10, name: "__vmi_class_type_info", line: 1, size: 448, align: 64, elements: !667, runtimeLang: DW_LANG_C_plus_plus)
!669 = !{  }
!670 = !DICompositeType(tag: DW_TAG_structure_type, file: !3, scope: !10, name: "__si_class_type_info", line: 1, size: 192, align: 64, elements: !669, runtimeLang: DW_LANG_C_plus_plus)
!671 = !{  }
!672 = !DICompositeType(tag: DW_TAG_structure_type, file: !3, scope: !10, name: "__function_type_info", line: 1, size: 128, align: 64, elements: !671, runtimeLang: DW_LANG_C_plus_plus)
!673 = !{  }
!674 = !DICompositeType(tag: DW_TAG_structure_type, file: !3, scope: !10, name: "__array_type_info", line: 1, size: 128, align: 64, elements: !673, runtimeLang: DW_LANG_C_plus_plus)
!675 = !{  }
!676 = !DICompositeType(tag: DW_TAG_structure_type, file: !3, scope: !10, name: "__enum_type_info", line: 1, size: 128, align: 64, elements: !675, runtimeLang: DW_LANG_C_plus_plus)
!677 = !{  }
!678 = !DICompositeType(tag: DW_TAG_structure_type, file: !3, scope: !10, name: "__fundamental_type_info", line: 1, size: 128, align: 64, elements: !677, runtimeLang: DW_LANG_C_plus_plus)
!679 = !DIBasicType(tag: DW_TAG_base_type, name: "__float128", size: 128, align: 128, encoding: DW_ATE_float)
!680 = !DIDerivedType(tag: DW_TAG_typedef, file: !3, scope: !10, name: "__float128", line: 1, size: 128, align: 128, baseType: !679)
!681 = !{ !683, !684, !685, !686 }
!682 = !DICompositeType(tag: DW_TAG_structure_type, file: !3, scope: !10, name: "__va_list_tag", line: 1, size: 192, align: 64, elements: !681, runtimeLang: DW_LANG_C_plus_plus)
!683 = !DIDerivedType(tag: DW_TAG_member, file: !3, scope: !682, name: "gp_offset", line: 1, size: 32, align: 32, baseType: !97)
!684 = !DIDerivedType(tag: DW_TAG_member, file: !3, scope: !682, name: "fp_offset", line: 1, size: 32, align: 32, offset: 32, baseType: !97)
!685 = !DIDerivedType(tag: DW_TAG_member, file: !3, scope: !682, name: "overflow_arg_area", line: 1, size: 64, align: 64, offset: 64, baseType: !44)
!686 = !DIDerivedType(tag: DW_TAG_member, file: !3, scope: !682, name: "reg_save_area", line: 1, size: 64, align: 64, offset: 128, baseType: !44)
!687 = !DICompositeType(tag: DW_TAG_array_type, size: 192, align: 64, baseType: !682, elements: !376)
!688 = !DIDerivedType(tag: DW_TAG_typedef, file: !3, scope: !10, name: "__pgi_va_list", line: 1, size: 192, align: 64, baseType: !687)
!689 = !{ !691, !692, !693 }
!690 = !DICompositeType(tag: DW_TAG_enumeration_type, file: !3, scope: !10, name: "idtype_t", line: 1, size: 32, align: 32, elements: !689, runtimeLang: DW_LANG_C_plus_plus)
!691 = !DIEnumerator(name: "P_ALL", value: 0)
!692 = !DIEnumerator(name: "P_PID", value: 1)
!693 = !DIEnumerator(name: "P_PGID", value: 2)
!694 = !DIDerivedType(tag: DW_TAG_typedef, file: !3, scope: !10, name: "_Float128", line: 1, size: 128, align: 128, baseType: !679)
!695 = !DIBasicType(tag: DW_TAG_base_type, name: "float", size: 32, align: 32, encoding: DW_ATE_float)
!696 = !DIDerivedType(tag: DW_TAG_typedef, file: !3, scope: !10, name: "_Float32", line: 1, size: 32, align: 32, baseType: !695)
!697 = !DIBasicType(tag: DW_TAG_base_type, name: "double", size: 64, align: 64, encoding: DW_ATE_float)
!698 = !DIDerivedType(tag: DW_TAG_typedef, file: !3, scope: !10, name: "_Float64", line: 1, size: 64, align: 64, baseType: !697)
!699 = !DIDerivedType(tag: DW_TAG_typedef, file: !3, scope: !10, name: "_Float32x", line: 1, size: 64, align: 64, baseType: !697)
!700 = !DIBasicType(tag: DW_TAG_base_type, name: "80-bit extended precision", size: 128, align: 128, encoding: DW_ATE_signed)
!701 = !DIDerivedType(tag: DW_TAG_typedef, file: !3, scope: !10, name: "_Float64x", line: 1, size: 128, align: 128, baseType: !700)
!702 = !{ !704, !705 }
!703 = !DICompositeType(tag: DW_TAG_structure_type, file: !3, scope: !10, name: "div_t", line: 1, size: 64, align: 32, elements: !702, runtimeLang: DW_LANG_C_plus_plus)
!704 = !DIDerivedType(tag: DW_TAG_member, file: !3, scope: !703, name: "quot", line: 1, size: 32, align: 32, baseType: !61)
!705 = !DIDerivedType(tag: DW_TAG_member, file: !3, scope: !703, name: "rem", line: 1, size: 32, align: 32, offset: 32, baseType: !61)
!706 = !DIDerivedType(tag: DW_TAG_typedef, file: !3, scope: !10, name: "div_t", line: 1, size: 64, align: 32, baseType: !703)
!707 = !{ !709, !710 }
!708 = !DICompositeType(tag: DW_TAG_structure_type, file: !3, scope: !10, name: "ldiv_t", line: 1, size: 128, align: 64, elements: !707, runtimeLang: DW_LANG_C_plus_plus)
!709 = !DIDerivedType(tag: DW_TAG_member, file: !3, scope: !708, name: "quot", line: 1, size: 64, align: 64, baseType: !32)
!710 = !DIDerivedType(tag: DW_TAG_member, file: !3, scope: !708, name: "rem", line: 1, size: 64, align: 64, offset: 64, baseType: !32)
!711 = !DIDerivedType(tag: DW_TAG_typedef, file: !3, scope: !10, name: "ldiv_t", line: 1, size: 128, align: 64, baseType: !708)
!712 = !{ !715, !716 }
!713 = !DICompositeType(tag: DW_TAG_structure_type, file: !3, scope: !10, name: "lldiv_t", line: 1, size: 128, align: 64, elements: !712, runtimeLang: DW_LANG_C_plus_plus)
!714 = !DIBasicType(tag: DW_TAG_base_type, name: "long long", size: 64, align: 64, encoding: DW_ATE_signed)
!715 = !DIDerivedType(tag: DW_TAG_member, file: !3, scope: !713, name: "quot", line: 1, size: 64, align: 64, baseType: !714)
!716 = !DIDerivedType(tag: DW_TAG_member, file: !3, scope: !713, name: "rem", line: 1, size: 64, align: 64, offset: 64, baseType: !714)
!717 = !DIDerivedType(tag: DW_TAG_typedef, file: !3, scope: !10, name: "lldiv_t", line: 1, size: 128, align: 64, baseType: !713)
!718 = !DIDerivedType(tag: DW_TAG_typedef, file: !3, scope: !10, name: "__locale_t", line: 1, size: 64, align: 64, baseType: !257)
!719 = !DIDerivedType(tag: DW_TAG_typedef, file: !3, scope: !10, name: "locale_t", line: 1, size: 64, align: 64, baseType: !257)
!720 = !DIBasicType(tag: DW_TAG_base_type, name: "unsigned char", size: 8, align: 8, encoding: DW_ATE_unsigned_char)
!721 = !DIDerivedType(tag: DW_TAG_typedef, file: !3, scope: !10, name: "__u_char", line: 1, size: 8, align: 8, baseType: !720)
!722 = !DIDerivedType(tag: DW_TAG_typedef, file: !3, scope: !10, name: "__u_short", line: 1, size: 16, align: 16, baseType: !79)
!723 = !DIDerivedType(tag: DW_TAG_typedef, file: !3, scope: !10, name: "__u_int", line: 1, size: 32, align: 32, baseType: !97)
!724 = !DIDerivedType(tag: DW_TAG_typedef, file: !3, scope: !10, name: "__u_long", line: 1, size: 64, align: 64, baseType: !30)
!725 = !DIDerivedType(tag: DW_TAG_typedef, file: !3, scope: !10, name: "__int8_t", line: 1, size: 8, align: 8, baseType: !43)
!726 = !DIDerivedType(tag: DW_TAG_typedef, file: !3, scope: !10, name: "__uint8_t", line: 1, size: 8, align: 8, baseType: !720)
!727 = !DIBasicType(tag: DW_TAG_base_type, name: "short", size: 16, align: 16, encoding: DW_ATE_signed)
!728 = !DIDerivedType(tag: DW_TAG_typedef, file: !3, scope: !10, name: "__int16_t", line: 1, size: 16, align: 16, baseType: !727)
!729 = !DIDerivedType(tag: DW_TAG_typedef, file: !3, scope: !10, name: "__uint16_t", line: 1, size: 16, align: 16, baseType: !79)
!730 = !DIDerivedType(tag: DW_TAG_typedef, file: !3, scope: !10, name: "__int32_t", line: 1, size: 32, align: 32, baseType: !61)
!731 = !DIDerivedType(tag: DW_TAG_typedef, file: !3, scope: !10, name: "__uint32_t", line: 1, size: 32, align: 32, baseType: !97)
!732 = !DIDerivedType(tag: DW_TAG_typedef, file: !3, scope: !10, name: "__int64_t", line: 1, size: 64, align: 64, baseType: !32)
!733 = !DIDerivedType(tag: DW_TAG_typedef, file: !3, scope: !10, name: "__uint64_t", line: 1, size: 64, align: 64, baseType: !30)
!734 = !DIDerivedType(tag: DW_TAG_typedef, file: !3, scope: !10, name: "__int_least8_t", line: 1, size: 8, align: 8, baseType: !43)
!735 = !DIDerivedType(tag: DW_TAG_typedef, file: !3, scope: !10, name: "__uint_least8_t", line: 1, size: 8, align: 8, baseType: !720)
!736 = !DIDerivedType(tag: DW_TAG_typedef, file: !3, scope: !10, name: "__int_least16_t", line: 1, size: 16, align: 16, baseType: !727)
!737 = !DIDerivedType(tag: DW_TAG_typedef, file: !3, scope: !10, name: "__uint_least16_t", line: 1, size: 16, align: 16, baseType: !79)
!738 = !DIDerivedType(tag: DW_TAG_typedef, file: !3, scope: !10, name: "__int_least32_t", line: 1, size: 32, align: 32, baseType: !61)
!739 = !DIDerivedType(tag: DW_TAG_typedef, file: !3, scope: !10, name: "__uint_least32_t", line: 1, size: 32, align: 32, baseType: !97)
!740 = !DIDerivedType(tag: DW_TAG_typedef, file: !3, scope: !10, name: "__int_least64_t", line: 1, size: 64, align: 64, baseType: !32)
!741 = !DIDerivedType(tag: DW_TAG_typedef, file: !3, scope: !10, name: "__uint_least64_t", line: 1, size: 64, align: 64, baseType: !30)
!742 = !DIDerivedType(tag: DW_TAG_typedef, file: !3, scope: !10, name: "__quad_t", line: 1, size: 64, align: 64, baseType: !32)
!743 = !DIDerivedType(tag: DW_TAG_typedef, file: !3, scope: !10, name: "__u_quad_t", line: 1, size: 64, align: 64, baseType: !30)
!744 = !DIDerivedType(tag: DW_TAG_typedef, file: !3, scope: !10, name: "__intmax_t", line: 1, size: 64, align: 64, baseType: !32)
!745 = !DIDerivedType(tag: DW_TAG_typedef, file: !3, scope: !10, name: "__uintmax_t", line: 1, size: 64, align: 64, baseType: !30)
!746 = !DIDerivedType(tag: DW_TAG_typedef, file: !3, scope: !10, name: "__dev_t", line: 1, size: 64, align: 64, baseType: !30)
!747 = !DIDerivedType(tag: DW_TAG_typedef, file: !3, scope: !10, name: "__uid_t", line: 1, size: 32, align: 32, baseType: !97)
!748 = !DIDerivedType(tag: DW_TAG_typedef, file: !3, scope: !10, name: "__gid_t", line: 1, size: 32, align: 32, baseType: !97)
!749 = !DIDerivedType(tag: DW_TAG_typedef, file: !3, scope: !10, name: "__ino_t", line: 1, size: 64, align: 64, baseType: !30)
!750 = !DIDerivedType(tag: DW_TAG_typedef, file: !3, scope: !10, name: "__ino64_t", line: 1, size: 64, align: 64, baseType: !30)
!751 = !DIDerivedType(tag: DW_TAG_typedef, file: !3, scope: !10, name: "__mode_t", line: 1, size: 32, align: 32, baseType: !97)
!752 = !DIDerivedType(tag: DW_TAG_typedef, file: !3, scope: !10, name: "__nlink_t", line: 1, size: 64, align: 64, baseType: !30)
!753 = !DIDerivedType(tag: DW_TAG_typedef, file: !3, scope: !10, name: "__off_t", line: 1, size: 64, align: 64, baseType: !32)
!754 = !DIDerivedType(tag: DW_TAG_typedef, file: !3, scope: !10, name: "__pid_t", line: 1, size: 32, align: 32, baseType: !61)
!755 = !{ !760 }
!756 = !DICompositeType(tag: DW_TAG_structure_type, file: !3, scope: !10, name: "__fsid_t", line: 1, size: 64, align: 32, elements: !755, runtimeLang: DW_LANG_C_plus_plus)
!757 = !DISubrange(count: 2)
!758 = !{ !757 }
!759 = !DICompositeType(tag: DW_TAG_array_type, size: 64, align: 32, baseType: !61, elements: !758)
!760 = !DIDerivedType(tag: DW_TAG_member, file: !3, scope: !756, name: "__val", line: 1, size: 64, align: 32, baseType: !759)
!761 = !DIDerivedType(tag: DW_TAG_typedef, file: !3, scope: !10, name: "__fsid_t", line: 1, size: 64, align: 32, baseType: !756)
!762 = !DIDerivedType(tag: DW_TAG_typedef, file: !3, scope: !10, name: "__clock_t", line: 1, size: 64, align: 64, baseType: !32)
!763 = !DIDerivedType(tag: DW_TAG_typedef, file: !3, scope: !10, name: "__rlim_t", line: 1, size: 64, align: 64, baseType: !30)
!764 = !DIDerivedType(tag: DW_TAG_typedef, file: !3, scope: !10, name: "__rlim64_t", line: 1, size: 64, align: 64, baseType: !30)
!765 = !DIDerivedType(tag: DW_TAG_typedef, file: !3, scope: !10, name: "__id_t", line: 1, size: 32, align: 32, baseType: !97)
!766 = !DIDerivedType(tag: DW_TAG_typedef, file: !3, scope: !10, name: "__time_t", line: 1, size: 64, align: 64, baseType: !32)
!767 = !DIDerivedType(tag: DW_TAG_typedef, file: !3, scope: !10, name: "__useconds_t", line: 1, size: 32, align: 32, baseType: !97)
!768 = !DIDerivedType(tag: DW_TAG_typedef, file: !3, scope: !10, name: "__suseconds_t", line: 1, size: 64, align: 64, baseType: !32)
!769 = !DIDerivedType(tag: DW_TAG_typedef, file: !3, scope: !10, name: "__daddr_t", line: 1, size: 32, align: 32, baseType: !61)
!770 = !DIDerivedType(tag: DW_TAG_typedef, file: !3, scope: !10, name: "__key_t", line: 1, size: 32, align: 32, baseType: !61)
!771 = !DIDerivedType(tag: DW_TAG_typedef, file: !3, scope: !10, name: "__clockid_t", line: 1, size: 32, align: 32, baseType: !61)
!772 = !DIDerivedType(tag: DW_TAG_typedef, file: !3, scope: !10, name: "__timer_t", line: 1, size: 64, align: 64, baseType: !17)
!773 = !DIDerivedType(tag: DW_TAG_typedef, file: !3, scope: !10, name: "__blksize_t", line: 1, size: 64, align: 64, baseType: !32)
!774 = !DIDerivedType(tag: DW_TAG_typedef, file: !3, scope: !10, name: "__blkcnt_t", line: 1, size: 64, align: 64, baseType: !32)
!775 = !DIDerivedType(tag: DW_TAG_typedef, file: !3, scope: !10, name: "__blkcnt64_t", line: 1, size: 64, align: 64, baseType: !32)
!776 = !DIDerivedType(tag: DW_TAG_typedef, file: !3, scope: !10, name: "__fsblkcnt_t", line: 1, size: 64, align: 64, baseType: !30)
!777 = !DIDerivedType(tag: DW_TAG_typedef, file: !3, scope: !10, name: "__fsblkcnt64_t", line: 1, size: 64, align: 64, baseType: !30)
!778 = !DIDerivedType(tag: DW_TAG_typedef, file: !3, scope: !10, name: "__fsfilcnt_t", line: 1, size: 64, align: 64, baseType: !30)
!779 = !DIDerivedType(tag: DW_TAG_typedef, file: !3, scope: !10, name: "__fsfilcnt64_t", line: 1, size: 64, align: 64, baseType: !30)
!780 = !DIDerivedType(tag: DW_TAG_typedef, file: !3, scope: !10, name: "__syscall_slong_t", line: 1, size: 64, align: 64, baseType: !32)
!781 = !DIDerivedType(tag: DW_TAG_typedef, file: !3, scope: !10, name: "__syscall_ulong_t", line: 1, size: 64, align: 64, baseType: !30)
!782 = !DIDerivedType(tag: DW_TAG_typedef, file: !3, scope: !10, name: "__loff_t", line: 1, size: 64, align: 64, baseType: !32)
!783 = !DIDerivedType(tag: DW_TAG_typedef, file: !3, scope: !10, name: "__caddr_t", line: 1, size: 64, align: 64, baseType: !44)
!784 = !DIDerivedType(tag: DW_TAG_typedef, file: !3, scope: !10, name: "__socklen_t", line: 1, size: 32, align: 32, baseType: !97)
!785 = !DIDerivedType(tag: DW_TAG_typedef, file: !3, scope: !10, name: "__sig_atomic_t", line: 1, size: 32, align: 32, baseType: !61)
!786 = !DIDerivedType(tag: DW_TAG_typedef, file: !3, scope: !10, name: "pid_t", line: 1, size: 32, align: 32, baseType: !61)
!787 = !DIDerivedType(tag: DW_TAG_typedef, file: !3, scope: !10, name: "clock_t", line: 1, size: 64, align: 64, baseType: !32)
!788 = !DIDerivedType(tag: DW_TAG_typedef, file: !3, scope: !10, name: "clockid_t", line: 1, size: 32, align: 32, baseType: !61)
!789 = !DIDerivedType(tag: DW_TAG_typedef, file: !3, scope: !10, name: "time_t", line: 1, size: 64, align: 64, baseType: !32)
!790 = !DIDerivedType(tag: DW_TAG_typedef, file: !3, scope: !10, name: "timer_t", line: 1, size: 64, align: 64, baseType: !17)
!791 = !DIDerivedType(tag: DW_TAG_typedef, file: !3, scope: !10, name: "ulong", line: 1, size: 64, align: 64, baseType: !30)
!792 = !DIDerivedType(tag: DW_TAG_typedef, file: !3, scope: !10, name: "uint", line: 1, size: 32, align: 32, baseType: !97)
!793 = !DIDerivedType(tag: DW_TAG_typedef, file: !3, scope: !10, name: "int32_t", line: 1, size: 32, align: 32, baseType: !61)
!794 = !{ !796 }
!795 = !DICompositeType(tag: DW_TAG_structure_type, file: !3, scope: !10, name: "__sigset_t", line: 1, size: 1024, align: 64, elements: !794, runtimeLang: DW_LANG_C_plus_plus)
!796 = !DIDerivedType(tag: DW_TAG_member, file: !3, scope: !795, name: "__val", line: 1, size: 1024, align: 64, baseType: !328)
!797 = !DIDerivedType(tag: DW_TAG_typedef, file: !3, scope: !10, name: "__sigset_t", line: 1, size: 1024, align: 64, baseType: !795)
!798 = !{ !800, !801 }
!799 = !DICompositeType(tag: DW_TAG_structure_type, file: !3, scope: !10, name: "timeval", line: 1, size: 128, align: 64, elements: !798, runtimeLang: DW_LANG_C_plus_plus)
!800 = !DIDerivedType(tag: DW_TAG_member, file: !3, scope: !799, name: "tv_sec", line: 1, size: 64, align: 64, baseType: !32)
!801 = !DIDerivedType(tag: DW_TAG_member, file: !3, scope: !799, name: "tv_usec", line: 1, size: 64, align: 64, offset: 64, baseType: !32)
!802 = !{ !804, !805 }
!803 = !DICompositeType(tag: DW_TAG_structure_type, file: !3, scope: !10, name: "timespec", line: 1, size: 128, align: 64, elements: !802, runtimeLang: DW_LANG_C_plus_plus)
!804 = !DIDerivedType(tag: DW_TAG_member, file: !3, scope: !803, name: "tv_sec", line: 1, size: 64, align: 64, baseType: !32)
!805 = !DIDerivedType(tag: DW_TAG_member, file: !3, scope: !803, name: "tv_nsec", line: 1, size: 64, align: 64, offset: 64, baseType: !32)
!806 = !DIDerivedType(tag: DW_TAG_typedef, file: !3, scope: !10, name: "__fd_mask", line: 1, size: 64, align: 64, baseType: !32)
!807 = !{ !810 }
!808 = !DICompositeType(tag: DW_TAG_structure_type, file: !3, scope: !10, name: "fd_set", line: 1, size: 1024, align: 64, elements: !807, runtimeLang: DW_LANG_C_plus_plus)
!809 = !DICompositeType(tag: DW_TAG_array_type, size: 1024, align: 64, baseType: !32, elements: !51)
!810 = !DIDerivedType(tag: DW_TAG_member, file: !3, scope: !808, name: "fds_bits", line: 1, size: 1024, align: 64, baseType: !809)
!811 = !DIDerivedType(tag: DW_TAG_typedef, file: !3, scope: !10, name: "fd_set", line: 1, size: 1024, align: 64, baseType: !808)
!812 = !{ !815, !816 }
!813 = !DICompositeType(tag: DW_TAG_structure_type, file: !3, scope: !10, name: "__pthread_internal_list", line: 1, size: 128, align: 64, elements: !812, runtimeLang: DW_LANG_C_plus_plus)
!814 = !DIDerivedType(tag: DW_TAG_pointer_type, size: 64, align: 64, baseType: !813)
!815 = !DIDerivedType(tag: DW_TAG_member, file: !3, scope: !813, name: "__prev", line: 1, size: 64, align: 64, baseType: !814)
!816 = !DIDerivedType(tag: DW_TAG_member, file: !3, scope: !813, name: "__next", line: 1, size: 64, align: 64, offset: 64, baseType: !814)
!817 = !DIDerivedType(tag: DW_TAG_typedef, file: !3, scope: !10, name: "__pthread_list_t", line: 1, size: 128, align: 64, baseType: !813)
!818 = !{ !821 }
!819 = !DICompositeType(tag: DW_TAG_structure_type, file: !3, scope: !10, name: "__pthread_internal_slist", line: 1, size: 64, align: 64, elements: !818, runtimeLang: DW_LANG_C_plus_plus)
!820 = !DIDerivedType(tag: DW_TAG_pointer_type, size: 64, align: 64, baseType: !819)
!821 = !DIDerivedType(tag: DW_TAG_member, file: !3, scope: !819, name: "__next", line: 1, size: 64, align: 64, baseType: !820)
!822 = !{ !824, !825, !826, !827, !828, !829, !830, !831 }
!823 = !DICompositeType(tag: DW_TAG_structure_type, file: !3, scope: !10, name: "__pthread_mutex_s", line: 1, size: 320, align: 64, elements: !822, runtimeLang: DW_LANG_C_plus_plus)
!824 = !DIDerivedType(tag: DW_TAG_member, file: !3, scope: !823, name: "__lock", line: 1, size: 32, align: 32, baseType: !61)
!825 = !DIDerivedType(tag: DW_TAG_member, file: !3, scope: !823, name: "__count", line: 1, size: 32, align: 32, offset: 32, baseType: !97)
!826 = !DIDerivedType(tag: DW_TAG_member, file: !3, scope: !823, name: "__owner", line: 1, size: 32, align: 32, offset: 64, baseType: !61)
!827 = !DIDerivedType(tag: DW_TAG_member, file: !3, scope: !823, name: "__nusers", line: 1, size: 32, align: 32, offset: 96, baseType: !97)
!828 = !DIDerivedType(tag: DW_TAG_member, file: !3, scope: !823, name: "__kind", line: 1, size: 32, align: 32, offset: 128, baseType: !61)
!829 = !DIDerivedType(tag: DW_TAG_member, file: !3, scope: !823, name: "__spins", line: 1, size: 16, align: 16, offset: 160, baseType: !727)
!830 = !DIDerivedType(tag: DW_TAG_member, file: !3, scope: !823, name: "__elision", line: 1, size: 16, align: 16, offset: 176, baseType: !727)
!831 = !DIDerivedType(tag: DW_TAG_member, file: !3, scope: !823, name: "__list", line: 1, size: 128, align: 64, offset: 192, baseType: !813)
!832 = !{ !834, !835, !836, !837, !838, !839, !840, !841, !842, !846, !847, !848 }
!833 = !DICompositeType(tag: DW_TAG_structure_type, file: !3, scope: !10, name: "__pthread_rwlock_arch_t", line: 1, size: 448, align: 64, elements: !832, runtimeLang: DW_LANG_C_plus_plus)
!834 = !DIDerivedType(tag: DW_TAG_member, file: !3, scope: !833, name: "__readers", line: 1, size: 32, align: 32, baseType: !97)
!835 = !DIDerivedType(tag: DW_TAG_member, file: !3, scope: !833, name: "__writers", line: 1, size: 32, align: 32, offset: 32, baseType: !97)
!836 = !DIDerivedType(tag: DW_TAG_member, file: !3, scope: !833, name: "__wrphase_futex", line: 1, size: 32, align: 32, offset: 64, baseType: !97)
!837 = !DIDerivedType(tag: DW_TAG_member, file: !3, scope: !833, name: "__writers_futex", line: 1, size: 32, align: 32, offset: 96, baseType: !97)
!838 = !DIDerivedType(tag: DW_TAG_member, file: !3, scope: !833, name: "__pad3", line: 1, size: 32, align: 32, offset: 128, baseType: !97)
!839 = !DIDerivedType(tag: DW_TAG_member, file: !3, scope: !833, name: "__pad4", line: 1, size: 32, align: 32, offset: 160, baseType: !97)
!840 = !DIDerivedType(tag: DW_TAG_member, file: !3, scope: !833, name: "__cur_writer", line: 1, size: 32, align: 32, offset: 192, baseType: !61)
!841 = !DIDerivedType(tag: DW_TAG_member, file: !3, scope: !833, name: "__shared", line: 1, size: 32, align: 32, offset: 224, baseType: !61)
!842 = !DIDerivedType(tag: DW_TAG_member, file: !3, scope: !833, name: "__rwelision", line: 1, size: 8, align: 8, offset: 256, baseType: !43)
!843 = !DISubrange(count: 7)
!844 = !{ !843 }
!845 = !DICompositeType(tag: DW_TAG_array_type, size: 56, align: 8, baseType: !720, elements: !844)
!846 = !DIDerivedType(tag: DW_TAG_member, file: !3, scope: !833, name: "__pad1", line: 1, size: 56, align: 8, offset: 264, baseType: !845)
!847 = !DIDerivedType(tag: DW_TAG_member, file: !3, scope: !833, name: "__pad2", line: 1, size: 64, align: 64, offset: 320, baseType: !30)
!848 = !DIDerivedType(tag: DW_TAG_member, file: !3, scope: !833, name: "__flags", line: 1, size: 32, align: 32, offset: 384, baseType: !97)
!849 = !{ !868, !868, !870, !871, !872, !873, !874 }
!850 = !DICompositeType(tag: DW_TAG_structure_type, file: !3, scope: !10, name: "__pthread_cond_s", line: 1, size: 384, align: 64, elements: !849, runtimeLang: DW_LANG_C_plus_plus)
!851 = !{ !858, !859 }
!852 = !DICompositeType(tag: DW_TAG_union_type, file: !3, scope: !850, line: 1, size: 64, align: 64, elements: !851, runtimeLang: DW_LANG_C_plus_plus)
!853 = !{ !855, !856 }
!854 = !DICompositeType(tag: DW_TAG_structure_type, file: !3, scope: !852, name: "_ZN16__pthread_cond_s4__C2Ut_E", line: 1, size: 64, align: 32, elements: !853, runtimeLang: DW_LANG_C_plus_plus)
!855 = !DIDerivedType(tag: DW_TAG_member, file: !3, scope: !854, name: "__low", line: 1, size: 32, align: 32, baseType: !97)
!856 = !DIDerivedType(tag: DW_TAG_member, file: !3, scope: !854, name: "__high", line: 1, size: 32, align: 32, offset: 32, baseType: !97)
!857 = !DIBasicType(tag: DW_TAG_base_type, name: "unsigned long long", size: 64, align: 64, encoding: DW_ATE_unsigned)
!858 = !DIDerivedType(tag: DW_TAG_member, file: !3, scope: !852, name: "__wseq", line: 1, size: 64, align: 64, baseType: !857)
!859 = !DIDerivedType(tag: DW_TAG_member, file: !3, scope: !852, name: "__wseq32", line: 1, size: 64, align: 32, baseType: !854)
!860 = !{ !866, !867 }
!861 = !DICompositeType(tag: DW_TAG_union_type, file: !3, scope: !850, line: 1, size: 64, align: 64, elements: !860, runtimeLang: DW_LANG_C_plus_plus)
!862 = !{ !864, !865 }
!863 = !DICompositeType(tag: DW_TAG_structure_type, file: !3, scope: !861, name: "_ZN16__pthread_cond_s4__C3Ut_E", line: 1, size: 64, align: 32, elements: !862, runtimeLang: DW_LANG_C_plus_plus)
!864 = !DIDerivedType(tag: DW_TAG_member, file: !3, scope: !863, name: "__low", line: 1, size: 32, align: 32, baseType: !97)
!865 = !DIDerivedType(tag: DW_TAG_member, file: !3, scope: !863, name: "__high", line: 1, size: 32, align: 32, offset: 32, baseType: !97)
!866 = !DIDerivedType(tag: DW_TAG_member, file: !3, scope: !861, name: "__g1_start", line: 1, size: 64, align: 64, baseType: !857)
!867 = !DIDerivedType(tag: DW_TAG_member, file: !3, scope: !861, name: "__g1_start32", line: 1, size: 64, align: 32, baseType: !863)
!868 = !DIDerivedType(tag: DW_TAG_member, file: !3, scope: !850, line: 1, size: 64, align: 64, baseType: !852)
!869 = !DICompositeType(tag: DW_TAG_array_type, size: 64, align: 32, baseType: !97, elements: !758)
!870 = !DIDerivedType(tag: DW_TAG_member, file: !3, scope: !850, name: "__g_refs", line: 1, size: 64, align: 32, offset: 128, baseType: !869)
!871 = !DIDerivedType(tag: DW_TAG_member, file: !3, scope: !850, name: "__g_size", line: 1, size: 64, align: 32, offset: 192, baseType: !869)
!872 = !DIDerivedType(tag: DW_TAG_member, file: !3, scope: !850, name: "__g1_orig_size", line: 1, size: 32, align: 32, offset: 256, baseType: !97)
!873 = !DIDerivedType(tag: DW_TAG_member, file: !3, scope: !850, name: "__wrefs", line: 1, size: 32, align: 32, offset: 288, baseType: !97)
!874 = !DIDerivedType(tag: DW_TAG_member, file: !3, scope: !850, name: "__g_signals", line: 1, size: 64, align: 32, offset: 320, baseType: !869)
!875 = !DIDerivedType(tag: DW_TAG_typedef, file: !3, scope: !10, name: "pthread_t", line: 1, size: 64, align: 64, baseType: !30)
!876 = !{ !879, !880 }
!877 = !DICompositeType(tag: DW_TAG_union_type, file: !3, scope: !10, name: "pthread_mutexattr_t", line: 1, size: 32, align: 32, elements: !876, runtimeLang: DW_LANG_C_plus_plus)
!878 = !DICompositeType(tag: DW_TAG_array_type, size: 32, align: 8, baseType: !43, elements: !69)
!879 = !DIDerivedType(tag: DW_TAG_member, file: !3, scope: !877, name: "__size", line: 1, size: 32, align: 8, baseType: !878)
!880 = !DIDerivedType(tag: DW_TAG_member, file: !3, scope: !877, name: "__align", line: 1, size: 32, align: 32, baseType: !61)
!881 = !DIDerivedType(tag: DW_TAG_typedef, file: !3, scope: !10, name: "pthread_mutexattr_t", line: 1, size: 32, align: 32, baseType: !877)
!882 = !{ !884, !885 }
!883 = !DICompositeType(tag: DW_TAG_union_type, file: !3, scope: !10, name: "pthread_condattr_t", line: 1, size: 32, align: 32, elements: !882, runtimeLang: DW_LANG_C_plus_plus)
!884 = !DIDerivedType(tag: DW_TAG_member, file: !3, scope: !883, name: "__size", line: 1, size: 32, align: 8, baseType: !878)
!885 = !DIDerivedType(tag: DW_TAG_member, file: !3, scope: !883, name: "__align", line: 1, size: 32, align: 32, baseType: !61)
!886 = !DIDerivedType(tag: DW_TAG_typedef, file: !3, scope: !10, name: "pthread_condattr_t", line: 1, size: 32, align: 32, baseType: !883)
!887 = !DIDerivedType(tag: DW_TAG_typedef, file: !3, scope: !10, name: "pthread_key_t", line: 1, size: 32, align: 32, baseType: !97)
!888 = !DIDerivedType(tag: DW_TAG_typedef, file: !3, scope: !10, name: "pthread_once_t", line: 1, size: 32, align: 32, baseType: !61)
!889 = !{ !894, !895 }
!890 = !DICompositeType(tag: DW_TAG_union_type, file: !3, scope: !10, name: "pthread_attr_t", line: 1, size: 448, align: 64, elements: !889, runtimeLang: DW_LANG_C_plus_plus)
!891 = !DISubrange(count: 56)
!892 = !{ !891 }
!893 = !DICompositeType(tag: DW_TAG_array_type, size: 448, align: 8, baseType: !43, elements: !892)
!894 = !DIDerivedType(tag: DW_TAG_member, file: !3, scope: !890, name: "__size", line: 1, size: 448, align: 8, baseType: !893)
!895 = !DIDerivedType(tag: DW_TAG_member, file: !3, scope: !890, name: "__align", line: 1, size: 64, align: 64, baseType: !32)
!896 = !DIDerivedType(tag: DW_TAG_typedef, file: !3, scope: !10, name: "pthread_attr_t", line: 1, size: 448, align: 64, baseType: !890)
!897 = !{ !899, !903, !904 }
!898 = !DICompositeType(tag: DW_TAG_union_type, file: !3, scope: !10, name: "pthread_mutex_t", line: 1, size: 320, align: 64, elements: !897, runtimeLang: DW_LANG_C_plus_plus)
!899 = !DIDerivedType(tag: DW_TAG_member, file: !3, scope: !898, name: "__data", line: 1, size: 320, align: 64, baseType: !823)
!900 = !DISubrange(count: 40)
!901 = !{ !900 }
!902 = !DICompositeType(tag: DW_TAG_array_type, size: 320, align: 8, baseType: !43, elements: !901)
!903 = !DIDerivedType(tag: DW_TAG_member, file: !3, scope: !898, name: "__size", line: 1, size: 320, align: 8, baseType: !902)
!904 = !DIDerivedType(tag: DW_TAG_member, file: !3, scope: !898, name: "__align", line: 1, size: 64, align: 64, baseType: !32)
!905 = !DIDerivedType(tag: DW_TAG_typedef, file: !3, scope: !10, name: "pthread_mutex_t", line: 1, size: 320, align: 64, baseType: !898)
!906 = !{ !908, !912, !913 }
!907 = !DICompositeType(tag: DW_TAG_union_type, file: !3, scope: !10, name: "pthread_cond_t", line: 1, size: 384, align: 64, elements: !906, runtimeLang: DW_LANG_C_plus_plus)
!908 = !DIDerivedType(tag: DW_TAG_member, file: !3, scope: !907, name: "__data", line: 1, size: 384, align: 64, baseType: !850)
!909 = !DISubrange(count: 48)
!910 = !{ !909 }
!911 = !DICompositeType(tag: DW_TAG_array_type, size: 384, align: 8, baseType: !43, elements: !910)
!912 = !DIDerivedType(tag: DW_TAG_member, file: !3, scope: !907, name: "__size", line: 1, size: 384, align: 8, baseType: !911)
!913 = !DIDerivedType(tag: DW_TAG_member, file: !3, scope: !907, name: "__align", line: 1, size: 64, align: 64, baseType: !714)
!914 = !DIDerivedType(tag: DW_TAG_typedef, file: !3, scope: !10, name: "pthread_cond_t", line: 1, size: 384, align: 64, baseType: !907)
!915 = !{ !917, !918, !919 }
!916 = !DICompositeType(tag: DW_TAG_union_type, file: !3, scope: !10, name: "pthread_rwlock_t", line: 1, size: 448, align: 64, elements: !915, runtimeLang: DW_LANG_C_plus_plus)
!917 = !DIDerivedType(tag: DW_TAG_member, file: !3, scope: !916, name: "__data", line: 1, size: 448, align: 64, baseType: !833)
!918 = !DIDerivedType(tag: DW_TAG_member, file: !3, scope: !916, name: "__size", line: 1, size: 448, align: 8, baseType: !893)
!919 = !DIDerivedType(tag: DW_TAG_member, file: !3, scope: !916, name: "__align", line: 1, size: 64, align: 64, baseType: !32)
!920 = !DIDerivedType(tag: DW_TAG_typedef, file: !3, scope: !10, name: "pthread_rwlock_t", line: 1, size: 448, align: 64, baseType: !916)
!921 = !{ !923, !924 }
!922 = !DICompositeType(tag: DW_TAG_union_type, file: !3, scope: !10, name: "pthread_rwlockattr_t", line: 1, size: 64, align: 64, elements: !921, runtimeLang: DW_LANG_C_plus_plus)
!923 = !DIDerivedType(tag: DW_TAG_member, file: !3, scope: !922, name: "__size", line: 1, size: 64, align: 8, baseType: !537)
!924 = !DIDerivedType(tag: DW_TAG_member, file: !3, scope: !922, name: "__align", line: 1, size: 64, align: 64, baseType: !32)
!925 = !DIDerivedType(tag: DW_TAG_typedef, file: !3, scope: !10, name: "pthread_rwlockattr_t", line: 1, size: 64, align: 64, baseType: !922)
!926 = !DIDerivedType(tag: DW_TAG_typedef, file: !3, scope: !10, name: "pthread_spinlock_t", line: 1, size: 32, align: 32, baseType: !61)
!927 = !{ !932, !933 }
!928 = !DICompositeType(tag: DW_TAG_union_type, file: !3, scope: !10, name: "pthread_barrier_t", line: 1, size: 256, align: 64, elements: !927, runtimeLang: DW_LANG_C_plus_plus)
!929 = !DISubrange(count: 32)
!930 = !{ !929 }
!931 = !DICompositeType(tag: DW_TAG_array_type, size: 256, align: 8, baseType: !43, elements: !930)
!932 = !DIDerivedType(tag: DW_TAG_member, file: !3, scope: !928, name: "__size", line: 1, size: 256, align: 8, baseType: !931)
!933 = !DIDerivedType(tag: DW_TAG_member, file: !3, scope: !928, name: "__align", line: 1, size: 64, align: 64, baseType: !32)
!934 = !DIDerivedType(tag: DW_TAG_typedef, file: !3, scope: !10, name: "pthread_barrier_t", line: 1, size: 256, align: 64, baseType: !928)
!935 = !{ !937, !938 }
!936 = !DICompositeType(tag: DW_TAG_union_type, file: !3, scope: !10, name: "pthread_barrierattr_t", line: 1, size: 32, align: 32, elements: !935, runtimeLang: DW_LANG_C_plus_plus)
!937 = !DIDerivedType(tag: DW_TAG_member, file: !3, scope: !936, name: "__size", line: 1, size: 32, align: 8, baseType: !878)
!938 = !DIDerivedType(tag: DW_TAG_member, file: !3, scope: !936, name: "__align", line: 1, size: 32, align: 32, baseType: !61)
!939 = !DIDerivedType(tag: DW_TAG_typedef, file: !3, scope: !10, name: "pthread_barrierattr_t", line: 1, size: 32, align: 32, baseType: !936)
!940 = !{ !942, !943, !944, !945, !946, !947, !948 }
!941 = !DICompositeType(tag: DW_TAG_structure_type, file: !3, scope: !10, name: "random_data", line: 1, size: 384, align: 64, elements: !940, runtimeLang: DW_LANG_C_plus_plus)
!942 = !DIDerivedType(tag: DW_TAG_member, file: !3, scope: !941, name: "fptr", line: 1, size: 64, align: 64, baseType: !62)
!943 = !DIDerivedType(tag: DW_TAG_member, file: !3, scope: !941, name: "rptr", line: 1, size: 64, align: 64, offset: 64, baseType: !62)
!944 = !DIDerivedType(tag: DW_TAG_member, file: !3, scope: !941, name: "state", line: 1, size: 64, align: 64, offset: 128, baseType: !62)
!945 = !DIDerivedType(tag: DW_TAG_member, file: !3, scope: !941, name: "rand_type", line: 1, size: 32, align: 32, offset: 192, baseType: !61)
!946 = !DIDerivedType(tag: DW_TAG_member, file: !3, scope: !941, name: "rand_deg", line: 1, size: 32, align: 32, offset: 224, baseType: !61)
!947 = !DIDerivedType(tag: DW_TAG_member, file: !3, scope: !941, name: "rand_sep", line: 1, size: 32, align: 32, offset: 256, baseType: !61)
!948 = !DIDerivedType(tag: DW_TAG_member, file: !3, scope: !941, name: "end_ptr", line: 1, size: 64, align: 64, offset: 320, baseType: !62)
!949 = !{ !954, !955, !956, !957, !958 }
!950 = !DICompositeType(tag: DW_TAG_structure_type, file: !3, scope: !10, name: "drand48_data", line: 1, size: 192, align: 64, elements: !949, runtimeLang: DW_LANG_C_plus_plus)
!951 = !DISubrange(count: 3)
!952 = !{ !951 }
!953 = !DICompositeType(tag: DW_TAG_array_type, size: 48, align: 16, baseType: !79, elements: !952)
!954 = !DIDerivedType(tag: DW_TAG_member, file: !3, scope: !950, name: "__x", line: 1, size: 48, align: 16, baseType: !953)
!955 = !DIDerivedType(tag: DW_TAG_member, file: !3, scope: !950, name: "__old_x", line: 1, size: 48, align: 16, offset: 48, baseType: !953)
!956 = !DIDerivedType(tag: DW_TAG_member, file: !3, scope: !950, name: "__c", line: 1, size: 16, align: 16, offset: 96, baseType: !79)
!957 = !DIDerivedType(tag: DW_TAG_member, file: !3, scope: !950, name: "__init", line: 1, size: 16, align: 16, offset: 112, baseType: !79)
!958 = !DIDerivedType(tag: DW_TAG_member, file: !3, scope: !950, name: "__a", line: 1, size: 64, align: 64, offset: 128, baseType: !857)
!959 = !{ !61, !17, !17 }
!960 = !DISubroutineType(types: !959)
!961 = !DIDerivedType(tag: DW_TAG_pointer_type, size: 64, align: 64, baseType: !960)
!962 = !DIDerivedType(tag: DW_TAG_typedef, file: !3, scope: !10, name: "__compar_fn_t", line: 1, size: 64, align: 64, baseType: !961)
!963 = !{ !61, !17, !17, !17 }
!964 = !DISubroutineType(types: !963)
!965 = !DIDerivedType(tag: DW_TAG_pointer_type, size: 64, align: 64, baseType: !964)
!966 = !DIDerivedType(tag: DW_TAG_typedef, file: !3, scope: !10, name: "__compar_d_fn_t", line: 1, size: 64, align: 64, baseType: !965)
!967 = !DIDerivedType(tag: DW_TAG_typedef, file: !3, scope: !10, name: "double_t", line: 1, size: 64, align: 64, baseType: !697)
!968 = !{ !970, !971, !972 }
!969 = !DICompositeType(tag: DW_TAG_enumeration_type, file: !3, scope: !10, name: "coordinate", line: 1, size: 32, align: 32, elements: !968, runtimeLang: DW_LANG_C_plus_plus)
!970 = !DIEnumerator(name: "X", value: 0)
!971 = !DIEnumerator(name: "Y", value: 1)
!972 = !DIEnumerator(name: "Z", value: 2)
!973 = !{  }
!974 = !DICompositeType(tag: DW_TAG_class_type, file: !3, scope: !10, name: "T1DFunction", line: 1, size: 64, align: 64, elements: !973, runtimeLang: DW_LANG_C_plus_plus)
!975 = !{  }
!976 = !DICompositeType(tag: DW_TAG_class_type, file: !3, scope: !10, name: "T2DFunction", line: 1, size: 64, align: 64, elements: !975, runtimeLang: DW_LANG_C_plus_plus)
!977 = !{  }
!978 = !DICompositeType(tag: DW_TAG_class_type, file: !3, scope: !10, name: "T3DFunction", line: 1, size: 64, align: 64, elements: !977, runtimeLang: DW_LANG_C_plus_plus)
!979 = !{ !981, !983, !984 }
!980 = !DICompositeType(tag: DW_TAG_class_type, file: !3, scope: !10, name: "T2D_fix1", line: 1, size: 192, align: 64, elements: !979, runtimeLang: DW_LANG_C_plus_plus)
!981 = !DIDerivedType(tag: DW_TAG_inheritance, file: !3, scope: !980, name: "T1DFunction", line: 1, size: 64, align: 64, baseType: !974)
!982 = !DIDerivedType(tag: DW_TAG_pointer_type, size: 64, align: 64, baseType: !976)
!983 = !DIDerivedType(tag: DW_TAG_member, file: !3, scope: !980, name: "f", line: 1, size: 64, align: 64, offset: 64, baseType: !982)
!984 = !DIDerivedType(tag: DW_TAG_member, file: !3, scope: !980, name: "x", line: 1, size: 64, align: 64, offset: 128, baseType: !697)
!985 = !{ !987, !988, !989 }
!986 = !DICompositeType(tag: DW_TAG_class_type, file: !3, scope: !10, name: "T2D_fix2", line: 1, size: 192, align: 64, elements: !985, runtimeLang: DW_LANG_C_plus_plus)
!987 = !DIDerivedType(tag: DW_TAG_inheritance, file: !3, scope: !986, name: "T1DFunction", line: 1, size: 64, align: 64, baseType: !974)
!988 = !DIDerivedType(tag: DW_TAG_member, file: !3, scope: !986, name: "f", line: 1, size: 64, align: 64, offset: 64, baseType: !982)
!989 = !DIDerivedType(tag: DW_TAG_member, file: !3, scope: !986, name: "y", line: 1, size: 64, align: 64, offset: 128, baseType: !697)
!990 = !{ !992, !994, !995 }
!991 = !DICompositeType(tag: DW_TAG_class_type, file: !3, scope: !10, name: "T3D_fix1", line: 1, size: 192, align: 64, elements: !990, runtimeLang: DW_LANG_C_plus_plus)
!992 = !DIDerivedType(tag: DW_TAG_inheritance, file: !3, scope: !991, name: "T2DFunction", line: 1, size: 64, align: 64, baseType: !976)
!993 = !DIDerivedType(tag: DW_TAG_pointer_type, size: 64, align: 64, baseType: !978)
!994 = !DIDerivedType(tag: DW_TAG_member, file: !3, scope: !991, name: "f", line: 1, size: 64, align: 64, offset: 64, baseType: !993)
!995 = !DIDerivedType(tag: DW_TAG_member, file: !3, scope: !991, name: "x", line: 1, size: 64, align: 64, offset: 128, baseType: !697)
!996 = !{ !998, !999, !1000 }
!997 = !DICompositeType(tag: DW_TAG_class_type, file: !3, scope: !10, name: "T3D_fix2", line: 1, size: 192, align: 64, elements: !996, runtimeLang: DW_LANG_C_plus_plus)
!998 = !DIDerivedType(tag: DW_TAG_inheritance, file: !3, scope: !997, name: "T2DFunction", line: 1, size: 64, align: 64, baseType: !976)
!999 = !DIDerivedType(tag: DW_TAG_member, file: !3, scope: !997, name: "f", line: 1, size: 64, align: 64, offset: 64, baseType: !993)
!1000 = !DIDerivedType(tag: DW_TAG_member, file: !3, scope: !997, name: "y", line: 1, size: 64, align: 64, offset: 128, baseType: !697)
!1001 = !{ !1003, !1004, !1005 }
!1002 = !DICompositeType(tag: DW_TAG_class_type, file: !3, scope: !10, name: "T3D_fix3", line: 1, size: 192, align: 64, elements: !1001, runtimeLang: DW_LANG_C_plus_plus)
!1003 = !DIDerivedType(tag: DW_TAG_inheritance, file: !3, scope: !1002, name: "T2DFunction", line: 1, size: 64, align: 64, baseType: !976)
!1004 = !DIDerivedType(tag: DW_TAG_member, file: !3, scope: !1002, name: "f", line: 1, size: 64, align: 64, offset: 64, baseType: !993)
!1005 = !DIDerivedType(tag: DW_TAG_member, file: !3, scope: !1002, name: "z", line: 1, size: 64, align: 64, offset: 128, baseType: !697)
!1006 = !{ !1008, !1009, !1010, !1011 }
!1007 = !DICompositeType(tag: DW_TAG_class_type, file: !3, scope: !10, name: "T3D_fix12", line: 1, size: 256, align: 64, elements: !1006, runtimeLang: DW_LANG_C_plus_plus)
!1008 = !DIDerivedType(tag: DW_TAG_inheritance, file: !3, scope: !1007, name: "T1DFunction", line: 1, size: 64, align: 64, baseType: !974)
!1009 = !DIDerivedType(tag: DW_TAG_member, file: !3, scope: !1007, name: "f", line: 1, size: 64, align: 64, offset: 64, baseType: !993)
!1010 = !DIDerivedType(tag: DW_TAG_member, file: !3, scope: !1007, name: "x", line: 1, size: 64, align: 64, offset: 128, baseType: !697)
!1011 = !DIDerivedType(tag: DW_TAG_member, file: !3, scope: !1007, name: "y", line: 1, size: 64, align: 64, offset: 192, baseType: !697)
!1012 = !{ !1014, !1015, !1016, !1017 }
!1013 = !DICompositeType(tag: DW_TAG_class_type, file: !3, scope: !10, name: "T3D_fix13", line: 1, size: 256, align: 64, elements: !1012, runtimeLang: DW_LANG_C_plus_plus)
!1014 = !DIDerivedType(tag: DW_TAG_inheritance, file: !3, scope: !1013, name: "T1DFunction", line: 1, size: 64, align: 64, baseType: !974)
!1015 = !DIDerivedType(tag: DW_TAG_member, file: !3, scope: !1013, name: "f", line: 1, size: 64, align: 64, offset: 64, baseType: !993)
!1016 = !DIDerivedType(tag: DW_TAG_member, file: !3, scope: !1013, name: "x", line: 1, size: 64, align: 64, offset: 128, baseType: !697)
!1017 = !DIDerivedType(tag: DW_TAG_member, file: !3, scope: !1013, name: "z", line: 1, size: 64, align: 64, offset: 192, baseType: !697)
!1018 = !{ !1020, !1021, !1022, !1023 }
!1019 = !DICompositeType(tag: DW_TAG_class_type, file: !3, scope: !10, name: "T3D_fix23", line: 1, size: 256, align: 64, elements: !1018, runtimeLang: DW_LANG_C_plus_plus)
!1020 = !DIDerivedType(tag: DW_TAG_inheritance, file: !3, scope: !1019, name: "T1DFunction", line: 1, size: 64, align: 64, baseType: !974)
!1021 = !DIDerivedType(tag: DW_TAG_member, file: !3, scope: !1019, name: "f", line: 1, size: 64, align: 64, offset: 64, baseType: !993)
!1022 = !DIDerivedType(tag: DW_TAG_member, file: !3, scope: !1019, name: "y", line: 1, size: 64, align: 64, offset: 128, baseType: !697)
!1023 = !DIDerivedType(tag: DW_TAG_member, file: !3, scope: !1019, name: "z", line: 1, size: 64, align: 64, offset: 192, baseType: !697)
!1024 = !DIDerivedType(tag: DW_TAG_typedef, file: !3, scope: !10, name: "__gnuc_va_list", line: 1, size: 192, align: 64, baseType: !687)
!1025 = !DIDerivedType(tag: DW_TAG_typedef, file: !3, scope: !10, name: "wint_t", line: 1, size: 32, align: 32, baseType: !97)
!1026 = !{ !1032, !1033 }
!1027 = !DICompositeType(tag: DW_TAG_structure_type, file: !3, scope: !10, name: "__mbstate_t", line: 1, size: 64, align: 32, elements: !1026, runtimeLang: DW_LANG_C_plus_plus)
!1028 = !{ !1030, !1031 }
!1029 = !DICompositeType(tag: DW_TAG_union_type, file: !3, scope: !1027, name: "_ZN11__mbstate_tUt_E", line: 1, size: 32, align: 32, elements: !1028, runtimeLang: DW_LANG_C_plus_plus)
!1030 = !DIDerivedType(tag: DW_TAG_member, file: !3, scope: !1029, name: "__wch", line: 1, size: 32, align: 32, baseType: !97)
!1031 = !DIDerivedType(tag: DW_TAG_member, file: !3, scope: !1029, name: "__wchb", line: 1, size: 32, align: 8, baseType: !878)
!1032 = !DIDerivedType(tag: DW_TAG_member, file: !3, scope: !1027, name: "__count", line: 1, size: 32, align: 32, baseType: !61)
!1033 = !DIDerivedType(tag: DW_TAG_member, file: !3, scope: !1027, name: "__value", line: 1, size: 32, align: 32, offset: 32, baseType: !1029)
!1034 = !DIDerivedType(tag: DW_TAG_typedef, file: !3, scope: !10, name: "__mbstate_t", line: 1, size: 64, align: 32, baseType: !1027)
!1035 = !DIDerivedType(tag: DW_TAG_typedef, file: !3, scope: !10, name: "mbstate_t", line: 1, size: 64, align: 32, baseType: !1027)
!1036 = !{ !1038, !1039, !1040, !1041, !1042, !1043, !1044, !1045, !1046, !1047, !1048, !1049, !1053, !1055, !1056, !1057, !1058, !1059, !1060, !1061, !1062, !1063, !1067, !1071, !1072, !1073, !1074, !1075, !1079 }
!1037 = !DICompositeType(tag: DW_TAG_structure_type, file: !3, scope: !10, name: "_IO_FILE", line: 1, size: 1728, align: 64, elements: !1036, runtimeLang: DW_LANG_C_plus_plus)
!1038 = !DIDerivedType(tag: DW_TAG_member, file: !3, scope: !1037, name: "_flags", line: 1, size: 32, align: 32, baseType: !61)
!1039 = !DIDerivedType(tag: DW_TAG_member, file: !3, scope: !1037, name: "_IO_read_ptr", line: 1, size: 64, align: 64, offset: 64, baseType: !44)
!1040 = !DIDerivedType(tag: DW_TAG_member, file: !3, scope: !1037, name: "_IO_read_end", line: 1, size: 64, align: 64, offset: 128, baseType: !44)
!1041 = !DIDerivedType(tag: DW_TAG_member, file: !3, scope: !1037, name: "_IO_read_base", line: 1, size: 64, align: 64, offset: 192, baseType: !44)
!1042 = !DIDerivedType(tag: DW_TAG_member, file: !3, scope: !1037, name: "_IO_write_base", line: 1, size: 64, align: 64, offset: 256, baseType: !44)
!1043 = !DIDerivedType(tag: DW_TAG_member, file: !3, scope: !1037, name: "_IO_write_ptr", line: 1, size: 64, align: 64, offset: 320, baseType: !44)
!1044 = !DIDerivedType(tag: DW_TAG_member, file: !3, scope: !1037, name: "_IO_write_end", line: 1, size: 64, align: 64, offset: 384, baseType: !44)
!1045 = !DIDerivedType(tag: DW_TAG_member, file: !3, scope: !1037, name: "_IO_buf_base", line: 1, size: 64, align: 64, offset: 448, baseType: !44)
!1046 = !DIDerivedType(tag: DW_TAG_member, file: !3, scope: !1037, name: "_IO_buf_end", line: 1, size: 64, align: 64, offset: 512, baseType: !44)
!1047 = !DIDerivedType(tag: DW_TAG_member, file: !3, scope: !1037, name: "_IO_save_base", line: 1, size: 64, align: 64, offset: 576, baseType: !44)
!1048 = !DIDerivedType(tag: DW_TAG_member, file: !3, scope: !1037, name: "_IO_backup_base", line: 1, size: 64, align: 64, offset: 640, baseType: !44)
!1049 = !DIDerivedType(tag: DW_TAG_member, file: !3, scope: !1037, name: "_IO_save_end", line: 1, size: 64, align: 64, offset: 704, baseType: !44)
!1050 = !{  }
!1051 = !DICompositeType(tag: DW_TAG_structure_type, file: !3, name: "_IO_marker", align: 8, elements: !1050)
!1052 = !DIDerivedType(tag: DW_TAG_pointer_type, size: 64, align: 64, baseType: !1051)
!1053 = !DIDerivedType(tag: DW_TAG_member, file: !3, scope: !1037, name: "_markers", line: 1, size: 64, align: 64, offset: 768, baseType: !1052)
!1054 = !DIDerivedType(tag: DW_TAG_pointer_type, size: 64, align: 64, baseType: !1037)
!1055 = !DIDerivedType(tag: DW_TAG_member, file: !3, scope: !1037, name: "_chain", line: 1, size: 64, align: 64, offset: 832, baseType: !1054)
!1056 = !DIDerivedType(tag: DW_TAG_member, file: !3, scope: !1037, name: "_fileno", line: 1, size: 32, align: 32, offset: 896, baseType: !61)
!1057 = !DIDerivedType(tag: DW_TAG_member, file: !3, scope: !1037, name: "_flags2", line: 1, size: 32, align: 32, offset: 928, baseType: !61)
!1058 = !DIDerivedType(tag: DW_TAG_member, file: !3, scope: !1037, name: "_old_offset", line: 1, size: 64, align: 64, offset: 960, baseType: !32)
!1059 = !DIDerivedType(tag: DW_TAG_member, file: !3, scope: !1037, name: "_cur_column", line: 1, size: 16, align: 16, offset: 1024, baseType: !79)
!1060 = !DIDerivedType(tag: DW_TAG_member, file: !3, scope: !1037, name: "_vtable_offset", line: 1, size: 8, align: 8, offset: 1040, baseType: !43)
!1061 = !DIDerivedType(tag: DW_TAG_member, file: !3, scope: !1037, name: "_shortbuf", line: 1, size: 8, align: 8, offset: 1048, baseType: !377)
!1062 = !DIDerivedType(tag: DW_TAG_member, file: !3, scope: !1037, name: "_lock", line: 1, size: 64, align: 64, offset: 1088, baseType: !17)
!1063 = !DIDerivedType(tag: DW_TAG_member, file: !3, scope: !1037, name: "_offset", line: 1, size: 64, align: 64, offset: 1152, baseType: !32)
!1064 = !{  }
!1065 = !DICompositeType(tag: DW_TAG_structure_type, file: !3, name: "_IO_codecvt", align: 8, elements: !1064)
!1066 = !DIDerivedType(tag: DW_TAG_pointer_type, size: 64, align: 64, baseType: !1065)
!1067 = !DIDerivedType(tag: DW_TAG_member, file: !3, scope: !1037, name: "_codecvt", line: 1, size: 64, align: 64, offset: 1216, baseType: !1066)
!1068 = !{  }
!1069 = !DICompositeType(tag: DW_TAG_structure_type, file: !3, name: "_IO_wide_data", align: 8, elements: !1068)
!1070 = !DIDerivedType(tag: DW_TAG_pointer_type, size: 64, align: 64, baseType: !1069)
!1071 = !DIDerivedType(tag: DW_TAG_member, file: !3, scope: !1037, name: "_wide_data", line: 1, size: 64, align: 64, offset: 1280, baseType: !1070)
!1072 = !DIDerivedType(tag: DW_TAG_member, file: !3, scope: !1037, name: "_freeres_list", line: 1, size: 64, align: 64, offset: 1344, baseType: !1054)
!1073 = !DIDerivedType(tag: DW_TAG_member, file: !3, scope: !1037, name: "_freeres_buf", line: 1, size: 64, align: 64, offset: 1408, baseType: !17)
!1074 = !DIDerivedType(tag: DW_TAG_member, file: !3, scope: !1037, name: "__pad5", line: 1, size: 64, align: 64, offset: 1472, baseType: !30)
!1075 = !DIDerivedType(tag: DW_TAG_member, file: !3, scope: !1037, name: "_mode", line: 1, size: 32, align: 32, offset: 1536, baseType: !61)
!1076 = !DISubrange(count: 20)
!1077 = !{ !1076 }
!1078 = !DICompositeType(tag: DW_TAG_array_type, size: 160, align: 8, baseType: !43, elements: !1077)
!1079 = !DIDerivedType(tag: DW_TAG_member, file: !3, scope: !1037, name: "_unused2", line: 1, size: 160, align: 8, offset: 1568, baseType: !1078)
!1080 = !DIDerivedType(tag: DW_TAG_typedef, file: !3, scope: !10, name: "__FILE", line: 1, size: 1728, align: 64, baseType: !1037)
!1081 = !DIDerivedType(tag: DW_TAG_typedef, file: !3, scope: !10, name: "FILE", line: 1, size: 1728, align: 64, baseType: !1037)
!1082 = !{ !1084, !1085 }
!1083 = !DICompositeType(tag: DW_TAG_structure_type, file: !3, scope: !10, name: "max_align_t", line: 1, size: 256, align: 128, elements: !1082, runtimeLang: DW_LANG_C_plus_plus)
!1084 = !DIDerivedType(tag: DW_TAG_member, file: !3, scope: !1083, name: "__max_align_ll", line: 1, size: 64, align: 64, baseType: !714)
!1085 = !DIDerivedType(tag: DW_TAG_member, file: !3, scope: !1083, name: "__max_align_ld", line: 1, size: 128, align: 128, offset: 128, baseType: !700)
!1086 = !DIDerivedType(tag: DW_TAG_typedef, file: !3, scope: !10, name: "uint32_t", line: 1, size: 32, align: 32, baseType: !97)
!1087 = !DIDerivedType(tag: DW_TAG_typedef, file: !3, scope: !10, name: "uint64_t", line: 1, size: 64, align: 64, baseType: !30)
!1088 = !DIDerivedType(tag: DW_TAG_typedef, file: !3, scope: !10, name: "uint_least16_t", line: 1, size: 16, align: 16, baseType: !79)
!1089 = !DIDerivedType(tag: DW_TAG_typedef, file: !3, scope: !10, name: "uint_least32_t", line: 1, size: 32, align: 32, baseType: !97)
!1090 = !DIDerivedType(tag: DW_TAG_typedef, file: !3, scope: !10, name: "uint_fast16_t", line: 1, size: 64, align: 64, baseType: !30)
!1091 = !DIDerivedType(tag: DW_TAG_typedef, file: !3, scope: !10, name: "uint_fast32_t", line: 1, size: 64, align: 64, baseType: !30)
!1092 = !DIDerivedType(tag: DW_TAG_typedef, file: !3, scope: !10, name: "uint_fast64_t", line: 1, size: 64, align: 64, baseType: !30)
!1093 = !DIDerivedType(tag: DW_TAG_typedef, file: !3, scope: !10, name: "uintptr_t", line: 1, size: 64, align: 64, baseType: !30)
!1094 = !{ !1096, !1097, !1098, !1099, !1100, !1101, !1102, !1103, !1104, !1105, !1106, !1107, !1108, !1109, !1110, !1111, !1112, !1113, !1114, !1115, !1116, !1117, !1118, !1119 }
!1095 = !DICompositeType(tag: DW_TAG_structure_type, file: !3, scope: !10, name: "lconv", line: 1, size: 768, align: 64, elements: !1094, runtimeLang: DW_LANG_C_plus_plus)
!1096 = !DIDerivedType(tag: DW_TAG_member, file: !3, scope: !1095, name: "decimal_point", line: 1, size: 64, align: 64, baseType: !44)
!1097 = !DIDerivedType(tag: DW_TAG_member, file: !3, scope: !1095, name: "thousands_sep", line: 1, size: 64, align: 64, offset: 64, baseType: !44)
!1098 = !DIDerivedType(tag: DW_TAG_member, file: !3, scope: !1095, name: "grouping", line: 1, size: 64, align: 64, offset: 128, baseType: !44)
!1099 = !DIDerivedType(tag: DW_TAG_member, file: !3, scope: !1095, name: "int_curr_symbol", line: 1, size: 64, align: 64, offset: 192, baseType: !44)
!1100 = !DIDerivedType(tag: DW_TAG_member, file: !3, scope: !1095, name: "currency_symbol", line: 1, size: 64, align: 64, offset: 256, baseType: !44)
!1101 = !DIDerivedType(tag: DW_TAG_member, file: !3, scope: !1095, name: "mon_decimal_point", line: 1, size: 64, align: 64, offset: 320, baseType: !44)
!1102 = !DIDerivedType(tag: DW_TAG_member, file: !3, scope: !1095, name: "mon_thousands_sep", line: 1, size: 64, align: 64, offset: 384, baseType: !44)
!1103 = !DIDerivedType(tag: DW_TAG_member, file: !3, scope: !1095, name: "mon_grouping", line: 1, size: 64, align: 64, offset: 448, baseType: !44)
!1104 = !DIDerivedType(tag: DW_TAG_member, file: !3, scope: !1095, name: "positive_sign", line: 1, size: 64, align: 64, offset: 512, baseType: !44)
!1105 = !DIDerivedType(tag: DW_TAG_member, file: !3, scope: !1095, name: "negative_sign", line: 1, size: 64, align: 64, offset: 576, baseType: !44)
!1106 = !DIDerivedType(tag: DW_TAG_member, file: !3, scope: !1095, name: "int_frac_digits", line: 1, size: 8, align: 8, offset: 640, baseType: !43)
!1107 = !DIDerivedType(tag: DW_TAG_member, file: !3, scope: !1095, name: "frac_digits", line: 1, size: 8, align: 8, offset: 648, baseType: !43)
!1108 = !DIDerivedType(tag: DW_TAG_member, file: !3, scope: !1095, name: "p_cs_precedes", line: 1, size: 8, align: 8, offset: 656, baseType: !43)
!1109 = !DIDerivedType(tag: DW_TAG_member, file: !3, scope: !1095, name: "p_sep_by_space", line: 1, size: 8, align: 8, offset: 664, baseType: !43)
!1110 = !DIDerivedType(tag: DW_TAG_member, file: !3, scope: !1095, name: "n_cs_precedes", line: 1, size: 8, align: 8, offset: 672, baseType: !43)
!1111 = !DIDerivedType(tag: DW_TAG_member, file: !3, scope: !1095, name: "n_sep_by_space", line: 1, size: 8, align: 8, offset: 680, baseType: !43)
!1112 = !DIDerivedType(tag: DW_TAG_member, file: !3, scope: !1095, name: "p_sign_posn", line: 1, size: 8, align: 8, offset: 688, baseType: !43)
!1113 = !DIDerivedType(tag: DW_TAG_member, file: !3, scope: !1095, name: "n_sign_posn", line: 1, size: 8, align: 8, offset: 696, baseType: !43)
!1114 = !DIDerivedType(tag: DW_TAG_member, file: !3, scope: !1095, name: "int_p_cs_precedes", line: 1, size: 8, align: 8, offset: 704, baseType: !43)
!1115 = !DIDerivedType(tag: DW_TAG_member, file: !3, scope: !1095, name: "int_p_sep_by_space", line: 1, size: 8, align: 8, offset: 712, baseType: !43)
!1116 = !DIDerivedType(tag: DW_TAG_member, file: !3, scope: !1095, name: "int_n_cs_precedes", line: 1, size: 8, align: 8, offset: 720, baseType: !43)
!1117 = !DIDerivedType(tag: DW_TAG_member, file: !3, scope: !1095, name: "int_n_sep_by_space", line: 1, size: 8, align: 8, offset: 728, baseType: !43)
!1118 = !DIDerivedType(tag: DW_TAG_member, file: !3, scope: !1095, name: "int_p_sign_posn", line: 1, size: 8, align: 8, offset: 736, baseType: !43)
!1119 = !DIDerivedType(tag: DW_TAG_member, file: !3, scope: !1095, name: "int_n_sign_posn", line: 1, size: 8, align: 8, offset: 744, baseType: !43)
!1120 = !{ !1122 }
!1121 = !DICompositeType(tag: DW_TAG_structure_type, file: !3, scope: !10, name: "sched_param", line: 1, size: 32, align: 32, elements: !1120, runtimeLang: DW_LANG_C_plus_plus)
!1122 = !DIDerivedType(tag: DW_TAG_member, file: !3, scope: !1121, name: "sched_priority", line: 1, size: 32, align: 32, baseType: !61)
!1123 = !DIDerivedType(tag: DW_TAG_typedef, file: !3, scope: !10, name: "__cpu_mask", line: 1, size: 64, align: 64, baseType: !30)
!1124 = !{ !1126 }
!1125 = !DICompositeType(tag: DW_TAG_structure_type, file: !3, scope: !10, name: "cpu_set_t", line: 1, size: 1024, align: 64, elements: !1124, runtimeLang: DW_LANG_C_plus_plus)
!1126 = !DIDerivedType(tag: DW_TAG_member, file: !3, scope: !1125, name: "__bits", line: 1, size: 1024, align: 64, baseType: !328)
!1127 = !DIDerivedType(tag: DW_TAG_typedef, file: !3, scope: !10, name: "cpu_set_t", line: 1, size: 1024, align: 64, baseType: !1125)
!1128 = !{ !1130, !1131, !1132, !1133, !1134, !1135, !1136, !1137, !1138, !1139, !1140, !1141, !1142, !1143, !1144, !1145, !1146, !1147, !1148, !1149 }
!1129 = !DICompositeType(tag: DW_TAG_structure_type, file: !3, scope: !10, name: "timex", line: 1, size: 1664, align: 64, elements: !1128, runtimeLang: DW_LANG_C_plus_plus)
!1130 = !DIDerivedType(tag: DW_TAG_member, file: !3, scope: !1129, name: "modes", line: 1, size: 32, align: 32, baseType: !97)
!1131 = !DIDerivedType(tag: DW_TAG_member, file: !3, scope: !1129, name: "offset", line: 1, size: 64, align: 64, offset: 64, baseType: !32)
!1132 = !DIDerivedType(tag: DW_TAG_member, file: !3, scope: !1129, name: "freq", line: 1, size: 64, align: 64, offset: 128, baseType: !32)
!1133 = !DIDerivedType(tag: DW_TAG_member, file: !3, scope: !1129, name: "maxerror", line: 1, size: 64, align: 64, offset: 192, baseType: !32)
!1134 = !DIDerivedType(tag: DW_TAG_member, file: !3, scope: !1129, name: "esterror", line: 1, size: 64, align: 64, offset: 256, baseType: !32)
!1135 = !DIDerivedType(tag: DW_TAG_member, file: !3, scope: !1129, name: "status", line: 1, size: 32, align: 32, offset: 320, baseType: !61)
!1136 = !DIDerivedType(tag: DW_TAG_member, file: !3, scope: !1129, name: "constant", line: 1, size: 64, align: 64, offset: 384, baseType: !32)
!1137 = !DIDerivedType(tag: DW_TAG_member, file: !3, scope: !1129, name: "precision", line: 1, size: 64, align: 64, offset: 448, baseType: !32)
!1138 = !DIDerivedType(tag: DW_TAG_member, file: !3, scope: !1129, name: "tolerance", line: 1, size: 64, align: 64, offset: 512, baseType: !32)
!1139 = !DIDerivedType(tag: DW_TAG_member, file: !3, scope: !1129, name: "time", line: 1, size: 128, align: 64, offset: 576, baseType: !799)
!1140 = !DIDerivedType(tag: DW_TAG_member, file: !3, scope: !1129, name: "tick", line: 1, size: 64, align: 64, offset: 704, baseType: !32)
!1141 = !DIDerivedType(tag: DW_TAG_member, file: !3, scope: !1129, name: "ppsfreq", line: 1, size: 64, align: 64, offset: 768, baseType: !32)
!1142 = !DIDerivedType(tag: DW_TAG_member, file: !3, scope: !1129, name: "jitter", line: 1, size: 64, align: 64, offset: 832, baseType: !32)
!1143 = !DIDerivedType(tag: DW_TAG_member, file: !3, scope: !1129, name: "shift", line: 1, size: 32, align: 32, offset: 896, baseType: !61)
!1144 = !DIDerivedType(tag: DW_TAG_member, file: !3, scope: !1129, name: "stabil", line: 1, size: 64, align: 64, offset: 960, baseType: !32)
!1145 = !DIDerivedType(tag: DW_TAG_member, file: !3, scope: !1129, name: "jitcnt", line: 1, size: 64, align: 64, offset: 1024, baseType: !32)
!1146 = !DIDerivedType(tag: DW_TAG_member, file: !3, scope: !1129, name: "calcnt", line: 1, size: 64, align: 64, offset: 1088, baseType: !32)
!1147 = !DIDerivedType(tag: DW_TAG_member, file: !3, scope: !1129, name: "errcnt", line: 1, size: 64, align: 64, offset: 1152, baseType: !32)
!1148 = !DIDerivedType(tag: DW_TAG_member, file: !3, scope: !1129, name: "stbcnt", line: 1, size: 64, align: 64, offset: 1216, baseType: !32)
!1149 = !DIDerivedType(tag: DW_TAG_member, file: !3, scope: !1129, name: "tai", line: 1, size: 32, align: 32, offset: 1280, baseType: !61)
!1150 = !{ !1152, !1153, !1154, !1155, !1156, !1157, !1158, !1159, !1160, !1161, !1162 }
!1151 = !DICompositeType(tag: DW_TAG_structure_type, file: !3, scope: !10, name: "tm", line: 1, size: 448, align: 64, elements: !1150, runtimeLang: DW_LANG_C_plus_plus)
!1152 = !DIDerivedType(tag: DW_TAG_member, file: !3, scope: !1151, name: "tm_sec", line: 1, size: 32, align: 32, baseType: !61)
!1153 = !DIDerivedType(tag: DW_TAG_member, file: !3, scope: !1151, name: "tm_min", line: 1, size: 32, align: 32, offset: 32, baseType: !61)
!1154 = !DIDerivedType(tag: DW_TAG_member, file: !3, scope: !1151, name: "tm_hour", line: 1, size: 32, align: 32, offset: 64, baseType: !61)
!1155 = !DIDerivedType(tag: DW_TAG_member, file: !3, scope: !1151, name: "tm_mday", line: 1, size: 32, align: 32, offset: 96, baseType: !61)
!1156 = !DIDerivedType(tag: DW_TAG_member, file: !3, scope: !1151, name: "tm_mon", line: 1, size: 32, align: 32, offset: 128, baseType: !61)
!1157 = !DIDerivedType(tag: DW_TAG_member, file: !3, scope: !1151, name: "tm_year", line: 1, size: 32, align: 32, offset: 160, baseType: !61)
!1158 = !DIDerivedType(tag: DW_TAG_member, file: !3, scope: !1151, name: "tm_wday", line: 1, size: 32, align: 32, offset: 192, baseType: !61)
!1159 = !DIDerivedType(tag: DW_TAG_member, file: !3, scope: !1151, name: "tm_yday", line: 1, size: 32, align: 32, offset: 224, baseType: !61)
!1160 = !DIDerivedType(tag: DW_TAG_member, file: !3, scope: !1151, name: "tm_isdst", line: 1, size: 32, align: 32, offset: 256, baseType: !61)
!1161 = !DIDerivedType(tag: DW_TAG_member, file: !3, scope: !1151, name: "tm_gmtoff", line: 1, size: 64, align: 64, offset: 320, baseType: !32)
!1162 = !DIDerivedType(tag: DW_TAG_member, file: !3, scope: !1151, name: "tm_zone", line: 1, size: 64, align: 64, offset: 384, baseType: !44)
!1163 = !{ !1165, !1166 }
!1164 = !DICompositeType(tag: DW_TAG_structure_type, file: !3, scope: !10, name: "itimerspec", line: 1, size: 256, align: 64, elements: !1163, runtimeLang: DW_LANG_C_plus_plus)
!1165 = !DIDerivedType(tag: DW_TAG_member, file: !3, scope: !1164, name: "it_interval", line: 1, size: 128, align: 64, baseType: !803)
!1166 = !DIDerivedType(tag: DW_TAG_member, file: !3, scope: !1164, name: "it_value", line: 1, size: 128, align: 64, offset: 128, baseType: !803)
!1167 = !{  }
!1168 = !DICompositeType(tag: DW_TAG_structure_type, file: !3, scope: !10, name: "sigevent", line: 1, align: 8, elements: !1167, runtimeLang: DW_LANG_C_plus_plus)
!1169 = !DICompositeType(tag: DW_TAG_array_type, size: 512, align: 64, baseType: !32, elements: !87)
!1170 = !DIDerivedType(tag: DW_TAG_typedef, file: !3, scope: !10, name: "__jmp_buf", line: 1, size: 512, align: 64, baseType: !1169)
!1171 = !{ !1176, !1177, !1178, !1180 }
!1172 = !DICompositeType(tag: DW_TAG_structure_type, file: !3, scope: !10, name: "_pthread_cleanup_buffer", line: 1, size: 256, align: 64, elements: !1171, runtimeLang: DW_LANG_C_plus_plus)
!1173 = !{ null, !17 }
!1174 = !DISubroutineType(types: !1173)
!1175 = !DIDerivedType(tag: DW_TAG_pointer_type, size: 64, align: 64, baseType: !1174)
!1176 = !DIDerivedType(tag: DW_TAG_member, file: !3, scope: !1172, name: "__routine", line: 1, size: 64, align: 64, baseType: !1175)
!1177 = !DIDerivedType(tag: DW_TAG_member, file: !3, scope: !1172, name: "__arg", line: 1, size: 64, align: 64, offset: 64, baseType: !17)
!1178 = !DIDerivedType(tag: DW_TAG_member, file: !3, scope: !1172, name: "__canceltype", line: 1, size: 32, align: 32, offset: 128, baseType: !61)
!1179 = !DIDerivedType(tag: DW_TAG_pointer_type, size: 64, align: 64, baseType: !1172)
!1180 = !DIDerivedType(tag: DW_TAG_member, file: !3, scope: !1172, name: "__prev", line: 1, size: 64, align: 64, offset: 192, baseType: !1179)
!1181 = !{ !1183, !1184 }
!1182 = !DICompositeType(tag: DW_TAG_enumeration_type, file: !3, scope: !10, name: "_ZN54_INTERNAL_32_backgroundfield_vectordipole_cpp_83390dc3Ut11_E", line: 1, size: 32, align: 32, elements: !1181, runtimeLang: DW_LANG_C_plus_plus)
!1183 = !DIEnumerator(name: "PTHREAD_CANCEL_DEFERRED", value: 0)
!1184 = !DIEnumerator(name: "PTHREAD_CANCEL_ASYNCHRONOUS", value: 1)
!1185 = !{ !1192, !1194 }
!1186 = !DICompositeType(tag: DW_TAG_structure_type, file: !3, scope: !10, name: "__pthread_unwind_buf_t", line: 1, size: 832, align: 64, elements: !1185, runtimeLang: DW_LANG_C_plus_plus)
!1187 = !{ !1189, !1190 }
!1188 = !DICompositeType(tag: DW_TAG_structure_type, file: !3, scope: !1186, name: "_ZN22__pthread_unwind_buf_tUt_E", line: 1, size: 576, align: 64, elements: !1187, runtimeLang: DW_LANG_C_plus_plus)
!1189 = !DIDerivedType(tag: DW_TAG_member, file: !3, scope: !1188, name: "__cancel_jmp_buf", line: 1, size: 512, align: 64, baseType: !1169)
!1190 = !DIDerivedType(tag: DW_TAG_member, file: !3, scope: !1188, name: "__mask_was_saved", line: 1, size: 32, align: 32, offset: 512, baseType: !61)
!1191 = !DICompositeType(tag: DW_TAG_array_type, size: 576, align: 64, baseType: !1188, elements: !376)
!1192 = !DIDerivedType(tag: DW_TAG_member, file: !3, scope: !1186, name: "__cancel_jmp_buf", line: 1, size: 576, align: 64, baseType: !1191)
!1193 = !DICompositeType(tag: DW_TAG_array_type, size: 256, align: 64, baseType: !17, elements: !69)
!1194 = !DIDerivedType(tag: DW_TAG_member, file: !3, scope: !1186, name: "__pad", line: 1, size: 256, align: 64, offset: 576, baseType: !1193)
!1195 = !{ !1197, !1198, !1199, !1200 }
!1196 = !DICompositeType(tag: DW_TAG_structure_type, file: !3, scope: !10, name: "__pthread_cleanup_frame", line: 1, size: 192, align: 64, elements: !1195, runtimeLang: DW_LANG_C_plus_plus)
!1197 = !DIDerivedType(tag: DW_TAG_member, file: !3, scope: !1196, name: "__cancel_routine", line: 1, size: 64, align: 64, baseType: !1175)
!1198 = !DIDerivedType(tag: DW_TAG_member, file: !3, scope: !1196, name: "__cancel_arg", line: 1, size: 64, align: 64, offset: 64, baseType: !17)
!1199 = !DIDerivedType(tag: DW_TAG_member, file: !3, scope: !1196, name: "__do_it", line: 1, size: 32, align: 32, offset: 128, baseType: !61)
!1200 = !DIDerivedType(tag: DW_TAG_member, file: !3, scope: !1196, name: "__cancel_type", line: 1, size: 32, align: 32, offset: 160, baseType: !61)
!1201 = !{ !1203, !1204, !1205, !1206 }
!1202 = !DICompositeType(tag: DW_TAG_class_type, file: !3, scope: !10, name: "__pthread_cleanup_class", line: 1, size: 192, align: 64, elements: !1201, runtimeLang: DW_LANG_C_plus_plus)
!1203 = !DIDerivedType(tag: DW_TAG_member, file: !3, scope: !1202, name: "__cancel_routine", line: 1, size: 64, align: 64, baseType: !1175)
!1204 = !DIDerivedType(tag: DW_TAG_member, file: !3, scope: !1202, name: "__cancel_arg", line: 1, size: 64, align: 64, offset: 64, baseType: !17)
!1205 = !DIDerivedType(tag: DW_TAG_member, file: !3, scope: !1202, name: "__do_it", line: 1, size: 32, align: 32, offset: 128, baseType: !61)
!1206 = !DIDerivedType(tag: DW_TAG_member, file: !3, scope: !1202, name: "__cancel_type", line: 1, size: 32, align: 32, offset: 160, baseType: !61)
!1207 = !{  }
!1208 = !DICompositeType(tag: DW_TAG_structure_type, file: !3, scope: !10, name: "__jmp_buf_tag", line: 1, align: 8, elements: !1207, runtimeLang: DW_LANG_C_plus_plus)
!1209 = !DIDerivedType(tag: DW_TAG_typedef, file: !3, scope: !10, name: "__gthread_t", line: 1, size: 64, align: 64, baseType: !30)
!1210 = !DIDerivedType(tag: DW_TAG_typedef, file: !3, scope: !10, name: "__gthread_key_t", line: 1, size: 32, align: 32, baseType: !97)
!1211 = !DIDerivedType(tag: DW_TAG_typedef, file: !3, scope: !10, name: "__gthread_once_t", line: 1, size: 32, align: 32, baseType: !61)
!1212 = !DIDerivedType(tag: DW_TAG_typedef, file: !3, scope: !10, name: "__gthread_mutex_t", line: 1, size: 320, align: 64, baseType: !898)
!1213 = !DIDerivedType(tag: DW_TAG_typedef, file: !3, scope: !10, name: "__gthread_recursive_mutex_t", line: 1, size: 320, align: 64, baseType: !898)
!1214 = !DIDerivedType(tag: DW_TAG_typedef, file: !3, scope: !10, name: "__gthread_cond_t", line: 1, size: 384, align: 64, baseType: !907)
!1215 = !DIDerivedType(tag: DW_TAG_typedef, file: !3, scope: !10, name: "__gthread_time_t", line: 1, size: 128, align: 64, baseType: !803)
!1216 = !DIDerivedType(tag: DW_TAG_typedef, file: !3, scope: !10, name: "_Atomic_word", line: 1, size: 32, align: 32, baseType: !61)
!1217 = !{ !1219, !1220 }
!1218 = !DICompositeType(tag: DW_TAG_structure_type, file: !3, scope: !10, name: "_G_fpos_t", line: 1, size: 128, align: 64, elements: !1217, runtimeLang: DW_LANG_C_plus_plus)
!1219 = !DIDerivedType(tag: DW_TAG_member, file: !3, scope: !1218, name: "__pos", line: 1, size: 64, align: 64, baseType: !32)
!1220 = !DIDerivedType(tag: DW_TAG_member, file: !3, scope: !1218, name: "__state", line: 1, size: 64, align: 32, offset: 64, baseType: !1027)
!1221 = !DIDerivedType(tag: DW_TAG_typedef, file: !3, scope: !10, name: "__fpos_t", line: 1, size: 128, align: 64, baseType: !1218)
!1222 = !{ !1224, !1225 }
!1223 = !DICompositeType(tag: DW_TAG_structure_type, file: !3, scope: !10, name: "_G_fpos64_t", line: 1, size: 128, align: 64, elements: !1222, runtimeLang: DW_LANG_C_plus_plus)
!1224 = !DIDerivedType(tag: DW_TAG_member, file: !3, scope: !1223, name: "__pos", line: 1, size: 64, align: 64, baseType: !32)
!1225 = !DIDerivedType(tag: DW_TAG_member, file: !3, scope: !1223, name: "__state", line: 1, size: 64, align: 32, offset: 64, baseType: !1027)
!1226 = !DIDerivedType(tag: DW_TAG_typedef, file: !3, scope: !10, name: "__fpos64_t", line: 1, size: 128, align: 64, baseType: !1223)
!1227 = !DIDerivedType(tag: DW_TAG_typedef, file: !3, scope: !10, name: "_IO_lock_t", line: 1, align: 1, baseType: !16)
!1228 = !{ !32, !17, !44, !30 }
!1229 = !DISubroutineType(types: !1228)
!1230 = !DIDerivedType(tag: DW_TAG_typedef, file: !3, scope: !10, name: "cookie_read_function_t", line: 1, size: 8, align: 1, baseType: !1229)
!1231 = !DIDerivedType(tag: DW_TAG_typedef, file: !3, scope: !10, name: "__ssize_t", line: 1, size: 64, align: 64, baseType: !32)
!1232 = !DIDerivedType(tag: DW_TAG_typedef, file: !3, scope: !10, name: "size_t", line: 1, size: 64, align: 64, baseType: !30)
!1233 = !DIDerivedType(tag: DW_TAG_typedef, file: !3, scope: !10, name: "cookie_write_function_t", line: 1, size: 8, align: 1, baseType: !1229)
!1234 = !DIDerivedType(tag: DW_TAG_typedef, file: !3, scope: !10, name: "__off64_t", line: 1, size: 64, align: 64, baseType: !32)
!1235 = !DIDerivedType(tag: DW_TAG_pointer_type, size: 64, align: 64, baseType: !32)
!1236 = !{ !61, !17, !1235, !61 }
!1237 = !DISubroutineType(types: !1236)
!1238 = !DIDerivedType(tag: DW_TAG_typedef, file: !3, scope: !10, name: "cookie_seek_function_t", line: 1, size: 8, align: 1, baseType: !1237)
!1239 = !{ !61, !17 }
!1240 = !DISubroutineType(types: !1239)
!1241 = !DIDerivedType(tag: DW_TAG_typedef, file: !3, scope: !10, name: "cookie_close_function_t", line: 1, size: 8, align: 1, baseType: !1240)
!1242 = !{ !1245, !1246, !1248, !1250 }
!1243 = !DICompositeType(tag: DW_TAG_structure_type, file: !3, scope: !10, name: "_IO_cookie_io_functions_t", line: 1, size: 256, align: 64, elements: !1242, runtimeLang: DW_LANG_C_plus_plus)
!1244 = !DIDerivedType(tag: DW_TAG_pointer_type, size: 64, align: 64, baseType: !1229)
!1245 = !DIDerivedType(tag: DW_TAG_member, file: !3, scope: !1243, name: "read", line: 1, size: 64, align: 64, baseType: !1244)
!1246 = !DIDerivedType(tag: DW_TAG_member, file: !3, scope: !1243, name: "write", line: 1, size: 64, align: 64, offset: 64, baseType: !1244)
!1247 = !DIDerivedType(tag: DW_TAG_pointer_type, size: 64, align: 64, baseType: !1237)
!1248 = !DIDerivedType(tag: DW_TAG_member, file: !3, scope: !1243, name: "seek", line: 1, size: 64, align: 64, offset: 128, baseType: !1247)
!1249 = !DIDerivedType(tag: DW_TAG_pointer_type, size: 64, align: 64, baseType: !1240)
!1250 = !DIDerivedType(tag: DW_TAG_member, file: !3, scope: !1243, name: "close", line: 1, size: 64, align: 64, offset: 192, baseType: !1249)
!1251 = !DIDerivedType(tag: DW_TAG_typedef, file: !3, scope: !10, name: "cookie_io_functions_t", line: 1, size: 256, align: 64, baseType: !1243)
!1252 = !DIDerivedType(tag: DW_TAG_typedef, file: !3, scope: !10, name: "fpos_t", line: 1, size: 128, align: 64, baseType: !1218)
!1253 = !DIDerivedType(tag: DW_TAG_typedef, file: !3, scope: !10, name: "fpos64_t", line: 1, size: 128, align: 64, baseType: !1223)
!1254 = !{  }
!1255 = !DICompositeType(tag: DW_TAG_structure_type, file: !3, scope: !10, name: "obstack", line: 1, align: 8, elements: !1254, runtimeLang: DW_LANG_C_plus_plus)
!1256 = !DIDerivedType(tag: DW_TAG_typedef, file: !3, scope: !10, name: "error_t", line: 1, size: 32, align: 32, baseType: !61)
!1257 = !DIDerivedType(tag: DW_TAG_typedef, file: !3, scope: !10, name: "wctype_t", line: 1, size: 64, align: 64, baseType: !30)
!1258 = !DIDerivedType(tag: DW_TAG_typedef, file: !3, scope: !10, name: "wctrans_t", line: 1, size: 64, align: 64, baseType: !62)
!1259 = !{ !1261, !1262, !1263, !1264 }
!1260 = !DICompositeType(tag: DW_TAG_class_type, file: !3, scope: !10, name: "FieldFunction", line: 1, size: 192, align: 64, elements: !1259, runtimeLang: DW_LANG_C_plus_plus)
!1261 = !DIDerivedType(tag: DW_TAG_inheritance, file: !3, scope: !1260, name: "T3DFunction", line: 1, size: 64, align: 64, baseType: !978)
!1262 = !DIDerivedType(tag: DW_TAG_member, file: !3, scope: !1260, name: "_fComponent", line: 1, size: 32, align: 32, offset: 64, baseType: !969)
!1263 = !DIDerivedType(tag: DW_TAG_member, file: !3, scope: !1260, name: "_dComponent", line: 1, size: 32, align: 32, offset: 96, baseType: !969)
!1264 = !DIDerivedType(tag: DW_TAG_member, file: !3, scope: !1260, name: "_derivative", line: 1, size: 32, align: 32, offset: 128, baseType: !97)
!1265 = !{ !1267, !1268, !1270, !1271, !1273, !1274 }
!1266 = !DICompositeType(tag: DW_TAG_class_type, file: !3, scope: !10, name: "VectorDipole", line: 1, size: 896, align: 64, elements: !1265, runtimeLang: DW_LANG_C_plus_plus)
!1267 = !DIDerivedType(tag: DW_TAG_inheritance, file: !3, scope: !1266, name: "FieldFunction", line: 1, size: 192, align: 64, baseType: !1260)
!1268 = !DIDerivedType(tag: DW_TAG_member, file: !3, scope: !1266, name: "initialized", line: 1, size: 8, align: 8, offset: 160, baseType: !43)
!1269 = !DICompositeType(tag: DW_TAG_array_type, size: 192, align: 64, baseType: !697, elements: !952)
!1270 = !DIDerivedType(tag: DW_TAG_member, file: !3, scope: !1266, name: "q", line: 1, size: 192, align: 64, offset: 192, baseType: !1269)
!1271 = !DIDerivedType(tag: DW_TAG_member, file: !3, scope: !1266, name: "center", line: 1, size: 192, align: 64, offset: 384, baseType: !1269)
!1272 = !DICompositeType(tag: DW_TAG_array_type, size: 128, align: 64, baseType: !697, elements: !758)
!1273 = !DIDerivedType(tag: DW_TAG_member, file: !3, scope: !1266, name: "xlimit", line: 1, size: 128, align: 64, offset: 576, baseType: !1272)
!1274 = !DIDerivedType(tag: DW_TAG_member, file: !3, scope: !1266, name: "IMF", line: 1, size: 192, align: 64, offset: 704, baseType: !1269)
!1275 = !DIDerivedType(tag: DW_TAG_typedef, file: !3, scope: !10, name: "creal", line: 1, size: 64, align: 64, baseType: !697)
!1276 = !DIDerivedType(tag: DW_TAG_typedef, file: !3, scope: !10, name: "cuint", line: 1, size: 32, align: 32, baseType: !97)
!1277 = !DIDerivedType(tag: DW_TAG_typedef, file: !3, scope: !10, name: "CellID", line: 1, size: 64, align: 64, baseType: !30)
!1278 = !DIDerivedType(tag: DW_TAG_typedef, file: !3, scope: !10, name: "Realf", line: 1, size: 32, align: 32, baseType: !695)
!1279 = !{  }
!1280 = !DICompositeType(tag: DW_TAG_structure_type, file: !3, scope: !10, name: "globalflags", line: 1, size: 8, align: 8, elements: !1279, runtimeLang: DW_LANG_C_plus_plus)
!1281 = !{ !1283 }
!1282 = !DICompositeType(tag: DW_TAG_structure_type, file: !3, scope: !10, name: "_Save_errno", line: 1, size: 32, align: 32, elements: !1281, runtimeLang: DW_LANG_C_plus_plus)
!1283 = !DIDerivedType(tag: DW_TAG_member, file: !3, scope: !1282, name: "_M_errno", line: 1, size: 32, align: 32, baseType: !61)
!1284 = !{  }
!1285 = !DICompositeType(tag: DW_TAG_structure_type, file: !3, scope: !10, name: "_Range_chk", line: 1, size: 8, align: 8, elements: !1284, runtimeLang: DW_LANG_C_plus_plus)
!1286 = !{ !1288 }
!1287 = !DICompositeType(tag: DW_TAG_structure_type, file: !3, scope: !10, name: "_Save_errno", line: 1, size: 32, align: 32, elements: !1286, runtimeLang: DW_LANG_C_plus_plus)
!1288 = !DIDerivedType(tag: DW_TAG_member, file: !3, scope: !1287, name: "_M_errno", line: 1, size: 32, align: 32, baseType: !61)
!1289 = !{  }
!1290 = !DICompositeType(tag: DW_TAG_structure_type, file: !3, scope: !10, name: "_Range_chk", line: 1, size: 8, align: 8, elements: !1289, runtimeLang: DW_LANG_C_plus_plus)
!1291 = !{ !1293 }
!1292 = !DICompositeType(tag: DW_TAG_structure_type, file: !3, scope: !10, name: "_Save_errno", line: 1, size: 32, align: 32, elements: !1291, runtimeLang: DW_LANG_C_plus_plus)
!1293 = !DIDerivedType(tag: DW_TAG_member, file: !3, scope: !1292, name: "_M_errno", line: 1, size: 32, align: 32, baseType: !61)
!1294 = !{  }
!1295 = !DICompositeType(tag: DW_TAG_structure_type, file: !3, scope: !10, name: "_Range_chk", line: 1, size: 8, align: 8, elements: !1294, runtimeLang: DW_LANG_C_plus_plus)
!1296 = !{ !1298 }
!1297 = !DICompositeType(tag: DW_TAG_structure_type, file: !3, scope: !10, name: "_Save_errno", line: 1, size: 32, align: 32, elements: !1296, runtimeLang: DW_LANG_C_plus_plus)
!1298 = !DIDerivedType(tag: DW_TAG_member, file: !3, scope: !1297, name: "_M_errno", line: 1, size: 32, align: 32, baseType: !61)
!1299 = !{  }
!1300 = !DICompositeType(tag: DW_TAG_structure_type, file: !3, scope: !10, name: "_Range_chk", line: 1, size: 8, align: 8, elements: !1299, runtimeLang: DW_LANG_C_plus_plus)
!1301 = !{ !1303 }
!1302 = !DICompositeType(tag: DW_TAG_structure_type, file: !3, scope: !10, name: "_Save_errno", line: 1, size: 32, align: 32, elements: !1301, runtimeLang: DW_LANG_C_plus_plus)
!1303 = !DIDerivedType(tag: DW_TAG_member, file: !3, scope: !1302, name: "_M_errno", line: 1, size: 32, align: 32, baseType: !61)
!1304 = !{  }
!1305 = !DICompositeType(tag: DW_TAG_structure_type, file: !3, scope: !10, name: "_Range_chk", line: 1, size: 8, align: 8, elements: !1304, runtimeLang: DW_LANG_C_plus_plus)
!1306 = !{ !1308 }
!1307 = !DICompositeType(tag: DW_TAG_structure_type, file: !3, scope: !10, name: "_Save_errno", line: 1, size: 32, align: 32, elements: !1306, runtimeLang: DW_LANG_C_plus_plus)
!1308 = !DIDerivedType(tag: DW_TAG_member, file: !3, scope: !1307, name: "_M_errno", line: 1, size: 32, align: 32, baseType: !61)
!1309 = !{  }
!1310 = !DICompositeType(tag: DW_TAG_structure_type, file: !3, scope: !10, name: "_Range_chk", line: 1, size: 8, align: 8, elements: !1309, runtimeLang: DW_LANG_C_plus_plus)
!1311 = !{ !1313 }
!1312 = !DICompositeType(tag: DW_TAG_structure_type, file: !3, scope: !10, name: "_Save_errno", line: 1, size: 32, align: 32, elements: !1311, runtimeLang: DW_LANG_C_plus_plus)
!1313 = !DIDerivedType(tag: DW_TAG_member, file: !3, scope: !1312, name: "_M_errno", line: 1, size: 32, align: 32, baseType: !61)
!1314 = !{  }
!1315 = !DICompositeType(tag: DW_TAG_structure_type, file: !3, scope: !10, name: "_Range_chk", line: 1, size: 8, align: 8, elements: !1314, runtimeLang: DW_LANG_C_plus_plus)
!1316 = !{ !1318 }
!1317 = !DICompositeType(tag: DW_TAG_structure_type, file: !3, scope: !10, name: "_Save_errno", line: 1, size: 32, align: 32, elements: !1316, runtimeLang: DW_LANG_C_plus_plus)
!1318 = !DIDerivedType(tag: DW_TAG_member, file: !3, scope: !1317, name: "_M_errno", line: 1, size: 32, align: 32, baseType: !61)
!1319 = !{  }
!1320 = !DICompositeType(tag: DW_TAG_structure_type, file: !3, scope: !10, name: "_Range_chk", line: 1, size: 8, align: 8, elements: !1319, runtimeLang: DW_LANG_C_plus_plus)
!1321 = !{ !1323 }
!1322 = !DICompositeType(tag: DW_TAG_structure_type, file: !3, scope: !10, name: "_Save_errno", line: 1, size: 32, align: 32, elements: !1321, runtimeLang: DW_LANG_C_plus_plus)
!1323 = !DIDerivedType(tag: DW_TAG_member, file: !3, scope: !1322, name: "_M_errno", line: 1, size: 32, align: 32, baseType: !61)
!1324 = !{  }
!1325 = !DICompositeType(tag: DW_TAG_structure_type, file: !3, scope: !10, name: "_Range_chk", line: 1, size: 8, align: 8, elements: !1324, runtimeLang: DW_LANG_C_plus_plus)
!1326 = !{ !1328 }
!1327 = !DICompositeType(tag: DW_TAG_structure_type, file: !3, scope: !10, name: "_Save_errno", line: 1, size: 32, align: 32, elements: !1326, runtimeLang: DW_LANG_C_plus_plus)
!1328 = !DIDerivedType(tag: DW_TAG_member, file: !3, scope: !1327, name: "_M_errno", line: 1, size: 32, align: 32, baseType: !61)
!1329 = !{  }
!1330 = !DICompositeType(tag: DW_TAG_structure_type, file: !3, scope: !10, name: "_Range_chk", line: 1, size: 8, align: 8, elements: !1329, runtimeLang: DW_LANG_C_plus_plus)
!1331 = !{ !1333 }
!1332 = !DICompositeType(tag: DW_TAG_structure_type, file: !3, scope: !10, name: "_Save_errno", line: 1, size: 32, align: 32, elements: !1331, runtimeLang: DW_LANG_C_plus_plus)
!1333 = !DIDerivedType(tag: DW_TAG_member, file: !3, scope: !1332, name: "_M_errno", line: 1, size: 32, align: 32, baseType: !61)
!1334 = !{  }
!1335 = !DICompositeType(tag: DW_TAG_structure_type, file: !3, scope: !10, name: "_Range_chk", line: 1, size: 8, align: 8, elements: !1334, runtimeLang: DW_LANG_C_plus_plus)
!1336 = !{ !1338 }
!1337 = !DICompositeType(tag: DW_TAG_structure_type, file: !3, scope: !10, name: "_Save_errno", line: 1, size: 32, align: 32, elements: !1336, runtimeLang: DW_LANG_C_plus_plus)
!1338 = !DIDerivedType(tag: DW_TAG_member, file: !3, scope: !1337, name: "_M_errno", line: 1, size: 32, align: 32, baseType: !61)
!1339 = !{  }
!1340 = !DICompositeType(tag: DW_TAG_structure_type, file: !3, scope: !10, name: "_Range_chk", line: 1, size: 8, align: 8, elements: !1339, runtimeLang: DW_LANG_C_plus_plus)
!1341 = !{ !1343 }
!1342 = !DICompositeType(tag: DW_TAG_structure_type, file: !3, scope: !10, name: "_Save_errno", line: 1, size: 32, align: 32, elements: !1341, runtimeLang: DW_LANG_C_plus_plus)
!1343 = !DIDerivedType(tag: DW_TAG_member, file: !3, scope: !1342, name: "_M_errno", line: 1, size: 32, align: 32, baseType: !61)
!1344 = !{  }
!1345 = !DICompositeType(tag: DW_TAG_structure_type, file: !3, scope: !10, name: "_Range_chk", line: 1, size: 8, align: 8, elements: !1344, runtimeLang: DW_LANG_C_plus_plus)
!1346 = !{ !1348 }
!1347 = !DICompositeType(tag: DW_TAG_structure_type, file: !3, scope: !10, name: "_Save_errno", line: 1, size: 32, align: 32, elements: !1346, runtimeLang: DW_LANG_C_plus_plus)
!1348 = !DIDerivedType(tag: DW_TAG_member, file: !3, scope: !1347, name: "_M_errno", line: 1, size: 32, align: 32, baseType: !61)
!1349 = !{  }
!1350 = !DICompositeType(tag: DW_TAG_structure_type, file: !3, scope: !10, name: "_Range_chk", line: 1, size: 8, align: 8, elements: !1349, runtimeLang: DW_LANG_C_plus_plus)
!1351 = !{ !1353 }
!1352 = !DICompositeType(tag: DW_TAG_structure_type, file: !3, scope: !10, name: "_Save_errno", line: 1, size: 32, align: 32, elements: !1351, runtimeLang: DW_LANG_C_plus_plus)
!1353 = !DIDerivedType(tag: DW_TAG_member, file: !3, scope: !1352, name: "_M_errno", line: 1, size: 32, align: 32, baseType: !61)
!1354 = !{  }
!1355 = !DICompositeType(tag: DW_TAG_structure_type, file: !3, scope: !10, name: "_Range_chk", line: 1, size: 8, align: 8, elements: !1354, runtimeLang: DW_LANG_C_plus_plus)
!1356 = !{ !1358 }
!1357 = !DICompositeType(tag: DW_TAG_structure_type, file: !3, scope: !10, name: "_Save_errno", line: 1, size: 32, align: 32, elements: !1356, runtimeLang: DW_LANG_C_plus_plus)
!1358 = !DIDerivedType(tag: DW_TAG_member, file: !3, scope: !1357, name: "_M_errno", line: 1, size: 32, align: 32, baseType: !61)
!1359 = !{  }
!1360 = !DICompositeType(tag: DW_TAG_structure_type, file: !3, scope: !10, name: "_Range_chk", line: 1, size: 8, align: 8, elements: !1359, runtimeLang: DW_LANG_C_plus_plus)
!1361 = !DIDerivedType(tag: DW_TAG_typedef, file: !3, scope: !10, name: "_Tag", line: 1, size: 8, align: 8, baseType: !439)
!1362 = !DIDerivedType(tag: DW_TAG_typedef, file: !3, scope: !10, name: "_Integral", line: 1, size: 8, align: 8, baseType: !38)
!1363 = !{  }
!1364 = !DICompositeType(tag: DW_TAG_structure_type, file: !3, scope: !10, name: "_Iter_less_iter", line: 1, size: 8, align: 8, elements: !1363, runtimeLang: DW_LANG_C_plus_plus)
!1365 = !{  }
!1366 = !DICompositeType(tag: DW_TAG_structure_type, file: !3, scope: !10, name: "_Iter_less_val", line: 1, size: 8, align: 8, elements: !1365, runtimeLang: DW_LANG_C_plus_plus)
!1367 = !{  }
!1368 = !DICompositeType(tag: DW_TAG_structure_type, file: !3, scope: !10, name: "_Val_less_iter", line: 1, size: 8, align: 8, elements: !1367, runtimeLang: DW_LANG_C_plus_plus)
!1369 = !{  }
!1370 = !DICompositeType(tag: DW_TAG_structure_type, file: !3, scope: !10, name: "_Iter_equal_to_iter", line: 1, size: 8, align: 8, elements: !1369, runtimeLang: DW_LANG_C_plus_plus)
!1371 = !{  }
!1372 = !DICompositeType(tag: DW_TAG_structure_type, file: !3, scope: !10, name: "_Iter_equal_to_val", line: 1, size: 8, align: 8, elements: !1371, runtimeLang: DW_LANG_C_plus_plus)
!1373 = !DIDerivedType(tag: DW_TAG_typedef, file: !3, scope: !10, name: "GlobalID", line: 1, size: 32, align: 32, baseType: !97)
!1374 = !{ !1376, !1377, !1378, !1379, !1380, !1381 }
!1375 = !DICompositeType(tag: DW_TAG_structure_type, file: !3, scope: !10, name: "technical", line: 1, size: 256, align: 64, elements: !1374, runtimeLang: DW_LANG_C_plus_plus)
!1376 = !DIDerivedType(tag: DW_TAG_member, file: !3, scope: !1375, name: "sysBoundaryFlag", line: 1, size: 32, align: 32, baseType: !61)
!1377 = !DIDerivedType(tag: DW_TAG_member, file: !3, scope: !1375, name: "sysBoundaryLayer", line: 1, size: 32, align: 32, offset: 32, baseType: !61)
!1378 = !DIDerivedType(tag: DW_TAG_member, file: !3, scope: !1375, name: "maxFsDt", line: 1, size: 64, align: 64, offset: 64, baseType: !697)
!1379 = !DIDerivedType(tag: DW_TAG_member, file: !3, scope: !1375, name: "fsGridRank", line: 1, size: 32, align: 32, offset: 128, baseType: !61)
!1380 = !DIDerivedType(tag: DW_TAG_member, file: !3, scope: !1375, name: "SOLVE", line: 1, size: 32, align: 32, offset: 160, baseType: !97)
!1381 = !DIDerivedType(tag: DW_TAG_member, file: !3, scope: !1375, name: "refLevel", line: 1, size: 32, align: 32, offset: 192, baseType: !61)
!1382 = !DIDerivedType(tag: DW_TAG_typedef, file: !3, scope: !10, name: "LocalID", line: 1, size: 32, align: 32, baseType: !97)
!1383 = !DIDerivedType(tag: DW_TAG_typedef, file: !3, scope: !10, name: "Real", line: 1, size: 64, align: 64, baseType: !697)
!1384 = !DIFile(filename: "backgroundfield/functions.hpp", directory: "/home/talgat/vlasiator")
; !1385 = !DIFile(tag: DW_TAG_file_type, pair: !1384)
!1385 = !{ i32 41, !1384 }
!1386 = !{ null, !993 }
!1387 = !DISubroutineType(types: !1386)
!1388 = !{ !1395 }
!1389 = distinct !DISubprogram(file: !1384, scope: !978, name: "~T3DFunction", line: 31, type: !1387, spFlags: 8, unit: !10, scopeLine: 31)
!1390 = !DILocation(scope: !1389)
!1391 = !DILexicalBlock(file: !1384, scope: !1389, line: 31, column: 1)
!1392 = !DILocation(scope: !1391)
!1393 = !DILocalVariable(scope: !1391, file: !1384, type: !993, flags: 64)
!1394 = !DIExpression()
!1395 = !DILocalVariable(scope: !1389, arg: 1, file: !1384, type: !993, flags: 64)
!1396 = !DILocation(line: 31, column: 1, scope: !1391)
!1397 = !DISubrange(count: 5)
!1398 = !{ !1397 }
!1399 = !DICompositeType(tag: DW_TAG_array_type, size: 320, align: 64, baseType: !124, elements: !1398)
!1400 = distinct !DIGlobalVariable(scope: !10, name: "_ZTV11T3DFunction", file: !3, type: !1399, isDefinition: true)
!1401 = !DIGlobalVariableExpression(var: !1400, expr: !1394)
!1402 = !{ !"PGI C[++] TBAA" }
!1403 = !{ !"omnipotent char", !1402, i64 0 }
!1404 = !{ !"<T>*", !1403, i64 0 }
!1405 = !{  }
!1406 = distinct !DISubprogram(file: !3, scope: !10, name: "_ZN11T3DFunctionD0Ev", type: !1387, spFlags: 8, unit: !10)
!1407 = !DILocation(scope: !1406)
!1408 = !DILexicalBlock(file: !3, scope: !1406, line: 1, column: 1)
!1409 = !DILocation(scope: !1408)
!1410 = !DILexicalBlock(file: !3, scope: !1408, line: 1, column: 1)
!1411 = !DILocation(scope: !1410)
!1412 = !DILexicalBlock(file: !3, scope: !1408, line: 1, column: 1)
!1413 = !DILocation(scope: !1412)
!1414 = !DILocation(line: 31, column: 1, scope: !1408)
!1415 = !{  }
!1416 = distinct !DISubprogram(file: !3, scope: !10, name: "_ZN11T3DFunctionD2Ev", type: !1387, spFlags: 8, unit: !10)
!1417 = !DILocation(scope: !1416)
!1418 = !DILexicalBlock(file: !3, scope: !1416, line: 1, column: 1)
!1419 = !DILocation(scope: !1418)
!1420 = !DILexicalBlock(file: !3, scope: !1418, line: 1, column: 1)
!1421 = !DILocation(scope: !1420)
!1422 = !DILexicalBlock(file: !3, scope: !1418, line: 1, column: 1)
!1423 = !DILocation(scope: !1422)
!1424 = !DILocation(line: 31, column: 1, scope: !1418)
!1425 = !DIFile(filename: "backgroundfield/fieldfunction.hpp", directory: "/home/talgat/vlasiator")
; !1426 = !DIFile(tag: DW_TAG_file_type, pair: !1425)
!1426 = !{ i32 41, !1425 }
!1427 = !DIDerivedType(tag: DW_TAG_pointer_type, size: 64, align: 64, baseType: !1260)
!1428 = !{ null, !1427 }
!1429 = !DISubroutineType(types: !1428)
!1430 = !{ !1444 }
!1431 = distinct !DISubprogram(file: !1425, scope: !10, name: "~FieldFunction", type: !1429, spFlags: 8, unit: !10)
!1432 = !DILocation(scope: !1431)
!1433 = !DILexicalBlock(file: !1425, scope: !1431, line: 1, column: 1)
!1434 = !DILocation(scope: !1433)
!1435 = !DILexicalBlock(file: !1425, scope: !1433, line: 1, column: 1)
!1436 = !DILocation(scope: !1435)
!1437 = !DILexicalBlock(file: !1425, scope: !1435, line: 1, column: 1)
!1438 = !DILocation(scope: !1437)
!1439 = !DILexicalBlock(file: !1425, scope: !1433, line: 1, column: 1)
!1440 = !DILocation(scope: !1439)
!1441 = !DILexicalBlock(file: !1425, scope: !1439, line: 1, column: 1)
!1442 = !DILocation(scope: !1441)
!1443 = !DILocalVariable(scope: !1433, file: !1425, type: !1427, flags: 64)
!1444 = !DILocalVariable(scope: !1431, arg: 1, file: !1425, type: !1427, flags: 64)
!1445 = !DILocation(line: 31, column: 1, scope: !1433)
!1446 = distinct !DIGlobalVariable(scope: !10, name: "_ZTV13FieldFunction", file: !3, type: !1399, isDefinition: true)
!1447 = !DIGlobalVariableExpression(var: !1446, expr: !1394)
!1448 = !{  }
!1449 = distinct !DISubprogram(file: !3, scope: !10, name: "_ZN13FieldFunctionD0Ev", type: !1429, spFlags: 8, unit: !10)
!1450 = !DILocation(scope: !1449)
!1451 = !DILexicalBlock(file: !3, scope: !1449, line: 1, column: 1)
!1452 = !DILocation(scope: !1451)
!1453 = !DILexicalBlock(file: !3, scope: !1451, line: 1, column: 1)
!1454 = !DILocation(scope: !1453)
!1455 = !DILexicalBlock(file: !3, scope: !1453, line: 1, column: 1)
!1456 = !DILocation(scope: !1455)
!1457 = !DILexicalBlock(file: !3, scope: !1455, line: 1, column: 1)
!1458 = !DILocation(scope: !1457)
!1459 = !DILexicalBlock(file: !3, scope: !1451, line: 1, column: 1)
!1460 = !DILocation(scope: !1459)
!1461 = !DILexicalBlock(file: !3, scope: !1459, line: 1, column: 1)
!1462 = !DILocation(scope: !1461)
!1463 = !DILexicalBlock(file: !3, scope: !1461, line: 1, column: 1)
!1464 = !DILocation(scope: !1463)
!1465 = !DILocation(line: 31, column: 1, scope: !1451)
!1466 = !{  }
!1467 = distinct !DISubprogram(file: !3, scope: !10, name: "_ZN13FieldFunctionD2Ev", type: !1429, spFlags: 8, unit: !10)
!1468 = !DILocation(scope: !1467)
!1469 = !DILexicalBlock(file: !3, scope: !1467, line: 1, column: 1)
!1470 = !DILocation(scope: !1469)
!1471 = !DILexicalBlock(file: !3, scope: !1469, line: 1, column: 1)
!1472 = !DILocation(scope: !1471)
!1473 = !DILexicalBlock(file: !3, scope: !1471, line: 1, column: 1)
!1474 = !DILocation(scope: !1473)
!1475 = !DILexicalBlock(file: !3, scope: !1473, line: 1, column: 1)
!1476 = !DILocation(scope: !1475)
!1477 = !DILexicalBlock(file: !3, scope: !1469, line: 1, column: 1)
!1478 = !DILocation(scope: !1477)
!1479 = !DILexicalBlock(file: !3, scope: !1477, line: 1, column: 1)
!1480 = !DILocation(scope: !1479)
!1481 = !DILexicalBlock(file: !3, scope: !1479, line: 1, column: 1)
!1482 = !DILocation(scope: !1481)
!1483 = !DILocation(line: 31, column: 1, scope: !1469)
!1484 = !DIDerivedType(tag: DW_TAG_pointer_type, size: 64, align: 64, baseType: !1266)
!1485 = !{ null, !1484, !697, !697, !697, !697, !697, !697, !697, !697, !697, !697, !697 }
!1486 = !DISubroutineType(types: !1485)
!1487 = !{ !1493, !1495, !1497, !1499, !1501, !1503, !1505, !1507, !1509, !1511, !1513, !1515 }
!1488 = distinct !DISubprogram(file: !3, scope: !1266, name: "initialize", line: 34, type: !1486, spFlags: 8, unit: !10, scopeLine: 34)
!1489 = !DILocation(scope: !1488)
!1490 = !DILexicalBlock(file: !3, scope: !1488, line: 34, column: 1)
!1491 = !DILocation(scope: !1490)
!1492 = !DILocalVariable(scope: !1490, file: !3, type: !1484, flags: 64)
!1493 = !DILocalVariable(scope: !1488, arg: 1, file: !3, type: !1484, flags: 64)
!1494 = !DILocalVariable(scope: !1490, name: "moment", file: !3, type: !697)
!1495 = !DILocalVariable(scope: !1488, name: "moment", arg: 2, file: !3, type: !697)
!1496 = !DILocalVariable(scope: !1490, name: "center_x", file: !3, type: !697)
!1497 = !DILocalVariable(scope: !1488, name: "center_x", arg: 3, file: !3, type: !697)
!1498 = !DILocalVariable(scope: !1490, name: "center_y", file: !3, type: !697)
!1499 = !DILocalVariable(scope: !1488, name: "center_y", arg: 4, file: !3, type: !697)
!1500 = !DILocalVariable(scope: !1490, name: "center_z", file: !3, type: !697)
!1501 = !DILocalVariable(scope: !1488, name: "center_z", arg: 5, file: !3, type: !697)
!1502 = !DILocalVariable(scope: !1490, name: "tilt_angle_phi", file: !3, type: !697)
!1503 = !DILocalVariable(scope: !1488, name: "tilt_angle_phi", arg: 6, file: !3, type: !697)
!1504 = !DILocalVariable(scope: !1490, name: "tilt_angle_theta", file: !3, type: !697)
!1505 = !DILocalVariable(scope: !1488, name: "tilt_angle_theta", arg: 7, file: !3, type: !697)
!1506 = !DILocalVariable(scope: !1490, name: "xlimit_f", file: !3, type: !697)
!1507 = !DILocalVariable(scope: !1488, name: "xlimit_f", arg: 8, file: !3, type: !697)
!1508 = !DILocalVariable(scope: !1490, name: "xlimit_z", file: !3, type: !697)
!1509 = !DILocalVariable(scope: !1488, name: "xlimit_z", arg: 9, file: !3, type: !697)
!1510 = !DILocalVariable(scope: !1490, name: "IMF_Bx", file: !3, type: !697)
!1511 = !DILocalVariable(scope: !1488, name: "IMF_Bx", arg: 10, file: !3, type: !697)
!1512 = !DILocalVariable(scope: !1490, name: "IMF_By", file: !3, type: !697)
!1513 = !DILocalVariable(scope: !1488, name: "IMF_By", arg: 11, file: !3, type: !697)
!1514 = !DILocalVariable(scope: !1490, name: "IMF_Bz", file: !3, type: !697)
!1515 = !DILocalVariable(scope: !1488, name: "IMF_Bz", arg: 12, file: !3, type: !697)
!1516 = !DILocation(line: 35, column: 1, scope: !1490)
!1517 = !DILocation(line: 37, column: 1, scope: !1490)
!1518 = !DILocation(line: 38, column: 1, scope: !1490)
!1519 = !DILocation(line: 39, column: 1, scope: !1490)
!1520 = !DILocation(line: 41, column: 1, scope: !1490)
!1521 = !DILocation(line: 42, column: 1, scope: !1490)
!1522 = !DILocation(line: 43, column: 1, scope: !1490)
!1523 = !DILocation(line: 46, column: 1, scope: !1490)
!1524 = !DILocation(line: 47, column: 1, scope: !1490)
!1525 = !DILocation(line: 50, column: 1, scope: !1490)
!1526 = !DILocation(line: 51, column: 1, scope: !1490)
!1527 = !DILocation(line: 52, column: 1, scope: !1490)
!1528 = !DILocation(line: 55, column: 1, scope: !1490)
!1529 = !{ !1403, !1403, i64 0 }
!1530 = !{ !"double", !1403, i64 0 }
!1531 = !{ !1530, !1530, i64 0 }
!1532 = !{ !697, !1484, !697, !697, !697 }
!1533 = !DISubroutineType(types: !1532)
!1534 = !{ !1548, !1550, !1552, !1554 }
!1535 = distinct !DISubprogram(file: !3, scope: !1266, name: "call", line: 60, type: !1533, spFlags: 8, unit: !10, scopeLine: 60)
!1536 = !DILocation(scope: !1535)
!1537 = !DILexicalBlock(file: !3, scope: !1535, line: 60, column: 1)
!1538 = !DILocation(scope: !1537)
!1539 = !DILexicalBlock(file: !3, scope: !1537, line: 96, column: 1)
!1540 = !DILocation(scope: !1539)
!1541 = !DILexicalBlock(file: !3, scope: !1537, line: 154, column: 1)
!1542 = !DILocation(scope: !1541)
!1543 = !DILexicalBlock(file: !3, scope: !1537, line: 204, column: 1)
