; ModuleID = 'projects/verificationLarmor/verificationLarmor.cpp'
target datalayout = "e-p:64:64-i64:64-f80:128-n8:16:32:64-S128"
target triple = "x86_64-pc-linux-gnu"
define internal void @pgCplus_compiled.() noinline {
L.entry:
	ret void
}

%struct.T3DFunction = type <{ i32 (...)* (...)*}> 



define linkonce_odr void @_ZN11T3DFunctionD1Ev(%struct.T3DFunction* %_T43066440_52343.arg) #0 inlinehint !dbg !3886 {
L.entry:
	%_T43066440_52343.addr = alloca %struct.T3DFunction*, align 8

	call void @llvm.dbg.declare (metadata %struct.T3DFunction** %_T43066440_52343.addr, metadata !3890, metadata !3891), !dbg !3887
	store %struct.T3DFunction* %_T43066440_52343.arg, %struct.T3DFunction** %_T43066440_52343.addr, align 8, !tbaa !3899
	call void @llvm.dbg.declare (metadata %struct.T3DFunction** %_T43066440_52343.addr, metadata !3892, metadata !3891), !dbg !3887
	%0 = bitcast [5 x i32 (...)* (...)*]* @_ZTV11T3DFunction to i8*, !dbg !3893
	%1 = getelementptr i8, i8*  %0, i64 16, !dbg !3893
	%2 = load %struct.T3DFunction*, %struct.T3DFunction** %_T43066440_52343.addr, align 8, !tbaa !3899, !dbg !3893
	%3 = bitcast %struct.T3DFunction*  %2 to i8**, !dbg !3893
	store i8*  %1, i8**  %3, align 8, !tbaa !3899, !dbg !3893
	ret void, !dbg !3893
}
define linkonce_odr void @_ZN11T3DFunctionD0Ev(%struct.T3DFunction* %_T43066440_52344.arg) #0 inlinehint !dbg !3901 {
L.entry:
	%_T43066440_52344.addr = alloca %struct.T3DFunction*, align 8

	store %struct.T3DFunction* %_T43066440_52344.arg, %struct.T3DFunction** %_T43066440_52344.addr, align 8, !tbaa !3899
	%0 = bitcast [5 x i32 (...)* (...)*]* @_ZTV11T3DFunction to i8*, !dbg !3909
	%1 = getelementptr i8, i8*  %0, i64 16, !dbg !3909
	%2 = load %struct.T3DFunction*, %struct.T3DFunction** %_T43066440_52344.addr, align 8, !tbaa !3899, !dbg !3909
	%3 = bitcast %struct.T3DFunction*  %2 to i8**, !dbg !3909
	store i8*  %1, i8**  %3, align 8, !tbaa !3899, !dbg !3909
	%4 = bitcast %struct.T3DFunction*  %2 to i8*, !dbg !3909
	call void  @_ZdlPvm (i8*  %4, i64 8) nounwind, !dbg !3909
	ret void, !dbg !3909
}
define linkonce_odr void @_ZN11T3DFunctionD2Ev(%struct.T3DFunction* %_T43066440_52345.arg) #0 inlinehint !dbg !3911 {
L.entry:
	%_T43066440_52345.addr = alloca %struct.T3DFunction*, align 8

	store %struct.T3DFunction* %_T43066440_52345.arg, %struct.T3DFunction** %_T43066440_52345.addr, align 8, !tbaa !3899
	%0 = bitcast [5 x i32 (...)* (...)*]* @_ZTV11T3DFunction to i8*, !dbg !3919
	%1 = getelementptr i8, i8*  %0, i64 16, !dbg !3919
	%2 = load %struct.T3DFunction*, %struct.T3DFunction** %_T43066440_52345.addr, align 8, !tbaa !3899, !dbg !3919
	%3 = bitcast %struct.T3DFunction*  %2 to i8**, !dbg !3919
	store i8*  %1, i8**  %3, align 8, !tbaa !3899, !dbg !3919
	ret void, !dbg !3919
}
define linkonce_odr void @_ZN11T3DFunctionC1Ev(%struct.T3DFunction* %_T43066440_52346.arg) #0 inlinehint !dbg !3921 {
L.entry:
	%_T43066440_52346.addr = alloca %struct.T3DFunction*, align 8

	call void @llvm.dbg.declare (metadata %struct.T3DFunction** %_T43066440_52346.addr, metadata !3925, metadata !3891), !dbg !3922
	store %struct.T3DFunction* %_T43066440_52346.arg, %struct.T3DFunction** %_T43066440_52346.addr, align 8, !tbaa !3899
	call void @llvm.dbg.declare (metadata %struct.T3DFunction** %_T43066440_52346.addr, metadata !3926, metadata !3891), !dbg !3922
	%0 = bitcast [5 x i32 (...)* (...)*]* @_ZTV11T3DFunction to i8*, !dbg !3927
	%1 = getelementptr i8, i8*  %0, i64 16, !dbg !3927
	%2 = load %struct.T3DFunction*, %struct.T3DFunction** %_T43066440_52346.addr, align 8, !tbaa !3899, !dbg !3927
	%3 = bitcast %struct.T3DFunction*  %2 to i8**, !dbg !3927
	store i8*  %1, i8**  %3, align 8, !tbaa !3899, !dbg !3927
	ret void, !dbg !3927
}
define linkonce_odr void @_ZN11T3DFunctionC2Ev(%struct.T3DFunction* %_T43066440_52347.arg) #0 inlinehint !dbg !3929 {
L.entry:
	%_T43066440_52347.addr = alloca %struct.T3DFunction*, align 8

	store %struct.T3DFunction* %_T43066440_52347.arg, %struct.T3DFunction** %_T43066440_52347.addr, align 8, !tbaa !3899
	%0 = bitcast [5 x i32 (...)* (...)*]* @_ZTV11T3DFunction to i8*, !dbg !3937
	%1 = getelementptr i8, i8*  %0, i64 16, !dbg !3937
	%2 = load %struct.T3DFunction*, %struct.T3DFunction** %_T43066440_52347.addr, align 8, !tbaa !3899, !dbg !3937
	%3 = bitcast %struct.T3DFunction*  %2 to i8**, !dbg !3937
	store i8*  %1, i8**  %3, align 8, !tbaa !3899, !dbg !3937
	ret void, !dbg !3937
}

%astruct.dt64 = type <{ i8*, i32}> 
%struct.FieldFunction = type <{ %struct.T3DFunction, i32, i32, i32, [4 x i8]}> 

define linkonce_odr void @_ZN13FieldFunctionC1Ev(%struct.FieldFunction* %_T43066440_52348.arg) #0 inlinehint personality i8* bitcast (i32 (...)* @__gxx_personality_v0 to i8*) !dbg !3944 {
L.entry:
	%_T43066440_52348.addr = alloca %struct.FieldFunction*, align 8

	call void @llvm.dbg.declare (metadata %struct.FieldFunction** %_T43066440_52348.addr, metadata !4000, metadata !3891), !dbg !3945
	store %struct.FieldFunction* %_T43066440_52348.arg, %struct.FieldFunction** %_T43066440_52348.addr, align 8, !tbaa !3899
	call void @llvm.dbg.declare (metadata %struct.FieldFunction** %_T43066440_52348.addr, metadata !4001, metadata !3891), !dbg !3945
	%0 = bitcast [5 x i32 (...)* (...)*]* @_ZTV11T3DFunction to i8*, !dbg !4002
	%1 = getelementptr i8, i8*  %0, i64 16, !dbg !4002
	%2 = load %struct.FieldFunction*, %struct.FieldFunction** %_T43066440_52348.addr, align 8, !tbaa !3899, !dbg !4002
	%3 = bitcast %struct.FieldFunction*  %2 to i8**, !dbg !4002
	store i8*  %1, i8**  %3, align 8, !tbaa !3899, !dbg !4002
	%4 = bitcast [5 x i32 (...)* (...)*]* @_ZTV13FieldFunction to i8*, !dbg !4002
	%5 = getelementptr i8, i8*  %4, i64 16, !dbg !4002
	store i8*  %5, i8**  %3, align 8, !tbaa !3899, !dbg !4002
	%6 = bitcast %struct.FieldFunction*  %2 to i8*, !dbg !4005
	%7 = getelementptr i8, i8*  %6, i64 8, !dbg !4005
	%8 = bitcast i8*  %7 to i32*, !dbg !4005
	store i32 0, i32*  %8, align 4, !tbaa !4009, !dbg !4005
	%9 = getelementptr i8, i8*  %6, i64 12, !dbg !4006
	%10 = bitcast i8*  %9 to i32*, !dbg !4006
	store i32 0, i32*  %10, align 4, !tbaa !4009, !dbg !4006
	%11 = getelementptr i8, i8*  %6, i64 16, !dbg !4007
	%12 = bitcast i8*  %11 to i32*, !dbg !4007
	store i32 0, i32*  %12, align 4, !tbaa !4009, !dbg !4007
	br label %L.R0005, !dbg !4007
L_T43067328_52348:
	%13 = landingpad %astruct.dt64
	cleanup
	br label %L.R0005
L.R0005:
	ret void, !dbg !4008
}
define linkonce_odr void @_ZN13FieldFunctionC2Ev(%struct.FieldFunction* %_T43066440_52349.arg) #0 inlinehint !dbg !4011 {
L.entry:
	%_T43066440_52349.addr = alloca %struct.FieldFunction*, align 8

	store %struct.FieldFunction* %_T43066440_52349.arg, %struct.FieldFunction** %_T43066440_52349.addr, align 8, !tbaa !3899
	%0 = load %struct.FieldFunction*, %struct.FieldFunction** %_T43066440_52349.addr, align 8, !tbaa !3899, !dbg !4015
	call void  @_ZN13FieldFunctionC1Ev (%struct.FieldFunction*  %0), !dbg !4015
	ret void, !dbg !4015
}
define linkonce_odr void @_ZN13FieldFunction12setComponentE10coordinate(%struct.FieldFunction* %_T43066440_52350.arg, i32 zeroext %fComponent.arg) #0 inlinehint !dbg !4019 {
L.entry:
	%_T43066440_52350.addr = alloca %struct.FieldFunction*, align 8
	%fComponent.addr = alloca i32, align 4

	call void @llvm.dbg.declare (metadata %struct.FieldFunction** %_T43066440_52350.addr, metadata !4023, metadata !3891), !dbg !4020
	store %struct.FieldFunction* %_T43066440_52350.arg, %struct.FieldFunction** %_T43066440_52350.addr, align 8, !tbaa !3899
	call void @llvm.dbg.declare (metadata %struct.FieldFunction** %_T43066440_52350.addr, metadata !4024, metadata !3891), !dbg !4020
	call void @llvm.dbg.declare (metadata i32* %fComponent.addr, metadata !4025, metadata !3891), !dbg !4020
	store i32 %fComponent.arg, i32* %fComponent.addr, align 4, !tbaa !4009
	call void @llvm.dbg.declare (metadata i32* %fComponent.addr, metadata !4026, metadata !3891), !dbg !4020
	%0 = load i32, i32* %fComponent.addr, align 4, !tbaa !4009, !dbg !4027
	%1 = load %struct.FieldFunction*, %struct.FieldFunction** %_T43066440_52350.addr, align 8, !tbaa !3899, !dbg !4027
	%2 = bitcast %struct.FieldFunction*  %1 to i8*, !dbg !4027
	%3 = getelementptr i8, i8*  %2, i64 8, !dbg !4027
	%4 = bitcast i8*  %3 to i32*, !dbg !4027
	store i32  %0, i32*  %4, align 4, !tbaa !4009, !dbg !4027
	ret void, !dbg !4027
}
define linkonce_odr void @_ZN13FieldFunction17setDerivComponentE10coordinate(%struct.FieldFunction* %_T43066440_52351.arg, i32 zeroext %dComponent.arg) #0 inlinehint !dbg !4029 {
L.entry:
	%_T43066440_52351.addr = alloca %struct.FieldFunction*, align 8
	%dComponent.addr = alloca i32, align 4

	call void @llvm.dbg.declare (metadata %struct.FieldFunction** %_T43066440_52351.addr, metadata !4033, metadata !3891), !dbg !4030
	store %struct.FieldFunction* %_T43066440_52351.arg, %struct.FieldFunction** %_T43066440_52351.addr, align 8, !tbaa !3899
	call void @llvm.dbg.declare (metadata %struct.FieldFunction** %_T43066440_52351.addr, metadata !4034, metadata !3891), !dbg !4030
	call void @llvm.dbg.declare (metadata i32* %dComponent.addr, metadata !4035, metadata !3891), !dbg !4030
	store i32 %dComponent.arg, i32* %dComponent.addr, align 4, !tbaa !4009
	call void @llvm.dbg.declare (metadata i32* %dComponent.addr, metadata !4036, metadata !3891), !dbg !4030
	%0 = load i32, i32* %dComponent.addr, align 4, !tbaa !4009, !dbg !4037
	%1 = load %struct.FieldFunction*, %struct.FieldFunction** %_T43066440_52351.addr, align 8, !tbaa !3899, !dbg !4037
	%2 = bitcast %struct.FieldFunction*  %1 to i8*, !dbg !4037
	%3 = getelementptr i8, i8*  %2, i64 12, !dbg !4037
	%4 = bitcast i8*  %3 to i32*, !dbg !4037
	store i32  %0, i32*  %4, align 4, !tbaa !4009, !dbg !4037
	ret void, !dbg !4037
}

%struct._ZNSt6locale5_ImplE = type <{ i32, [4 x i8], %struct._ZNSt6locale5facetE**, i64, %struct._ZNSt6locale5facetE**, i8**}> 
%struct._ZSt9basic_iosIcSt11char_traitsIcEE = type <{ %struct._ZSt8ios_base, %struct._ZSo*, i8, i8, [6 x i8], %struct._ZSt15basic_streambufIcSt11char_traitsIcEE*, %struct._ZSt5ctypeIcE*, %struct._ZSt7num_putIcSt19ostreambuf_iteratorIcSt11char_traitsIcEEE*, %struct._ZSt7num_getIcSt19istreambuf_iteratorIcSt11char_traitsIcEEE*}> 
%struct._ZSt5ctypeIcE = type <{ %struct.__SO__NSt6locale5facetE, [4 x i8], %struct.__locale_struct*, i8, [7 x i8], i32*, i32*, i16*, i8, [256 x i8], [256 x i8], i8, [6 x i8]}> 
%struct._ZSt8ios_base = type <{ i32 (...)* (...)*, i64, i64, i32, i32, i32, [4 x i8], %struct._ZNSt8ios_base14_Callback_listE*, %struct._ZNSt8ios_base6_WordsE, [8 x %struct._ZNSt8ios_base6_WordsE], i32, [4 x i8], %struct._ZNSt8ios_base6_WordsE*, %struct._ZSt6locale}> 
%struct.__locale_data = type opaque
%struct._ZNSt6locale5facetE = type <{ i32 (...)* (...)*, i32, [4 x i8]}> 
%struct._ZNSt8ios_base6_WordsE = type <{ i8*, i64}> 
%struct._ZSo = type <{ i32 (...)* (...)*, %struct._ZSt9basic_iosIcSt11char_traitsIcEE}> 
%struct._ZSt7num_getIcSt19istreambuf_iteratorIcSt11char_traitsIcEEE = type <{ %struct.__SO__NSt6locale5facetE, [4 x i8]}> 
%struct.__locale_struct = type <{ [13 x %struct.__locale_data*], i16*, i32*, i32*, [13 x i8*]}> 
%struct._ZNSt8ios_base14_Callback_listE = type <{ %struct._ZNSt8ios_base14_Callback_listE*, void (i32, %struct._ZSt8ios_base*, i32)*, i32, i32}> 
%struct.__SO__NSt6locale5facetE = type <{ i32 (...)* (...)*, i32}> 
%struct._ZSt15basic_streambufIcSt11char_traitsIcEE = type <{ i32 (...)* (...)*, i8*, i8*, i8*, i8*, i8*, i8*, %struct._ZSt6locale}> 
%struct._ZSt6locale = type <{ %struct._ZNSt6locale5_ImplE*}> 
%struct._ZSt7num_putIcSt19ostreambuf_iteratorIcSt11char_traitsIcEEE = type <{ %struct.__SO__NSt6locale5facetE, [4 x i8]}> 

define linkonce_odr void @_ZN13FieldFunction13setDerivativeEj(%struct.FieldFunction* %_T43066624_52352.arg, i32 zeroext %derivative.arg) #0 inlinehint !dbg !4041 {
L.entry:
	%_T43066624_52352.addr = alloca %struct.FieldFunction*, align 8
	%derivative.addr = alloca i32, align 4
	%..inline.addr = alloca %struct._ZSt9basic_iosIcSt11char_traitsIcEE*, align 8
	%..inline.addr.1 = alloca %struct._ZSt9basic_iosIcSt11char_traitsIcEE*, align 8
	%..inline.addr.2 = alloca i32, align 4
	%..inline.addr.3 = alloca i64, align 8
	%.Q0003.addr = alloca %struct._ZSo*, align 8
	%..inline.addr.4 = alloca i32, align 4
	%.Q0004.addr = alloca %struct._ZSo*, align 8
	%..inline.addr.5 = alloca %struct._ZSo*, align 8
	%.Q0005.addr = alloca %struct._ZSo*, align 8

	call void @llvm.dbg.declare (metadata %struct.FieldFunction** %_T43066624_52352.addr, metadata !4073, metadata !3891), !dbg !4042
	store %struct.FieldFunction* %_T43066624_52352.arg, %struct.FieldFunction** %_T43066624_52352.addr, align 8, !tbaa !3899
	call void @llvm.dbg.declare (metadata %struct.FieldFunction** %_T43066624_52352.addr, metadata !4074, metadata !3891), !dbg !4042
	call void @llvm.dbg.declare (metadata i32* %derivative.addr, metadata !4075, metadata !3891), !dbg !4042
	store i32 %derivative.arg, i32* %derivative.addr, align 4, !tbaa !4009
	call void @llvm.dbg.declare (metadata i32* %derivative.addr, metadata !4076, metadata !3891), !dbg !4042
	%0 = load i32, i32* %derivative.addr, align 4, !tbaa !4090, !dbg !4077
	%1 = load %struct.FieldFunction*, %struct.FieldFunction** %_T43066624_52352.addr, align 8, !tbaa !3899, !dbg !4077
	%2 = bitcast %struct.FieldFunction*  %1 to i8*, !dbg !4077
	%3 = getelementptr i8, i8*  %2, i64 16, !dbg !4077
	%4 = bitcast i8*  %3 to i32*, !dbg !4077
	store i32  %0, i32*  %4, align 4, !tbaa !4009, !dbg !4077
	%5 = icmp ule i32  %0, 1, !dbg !4078
	br i1  %5, label %L.B0000, label %L.B0001, !dbg !4078
L.B0001:
	%6 = bitcast [36 x i8]* @.S53657 to i8*, !dbg !4079
	%7 = icmp ne i8*  %6,  null, !dbg !4079
	br i1  %7, label %L..inline.65975, label %L.B0941, !dbg !4079
L.B0941:
	%8 = bitcast %struct._ZSo* @_ZSt4cerr to i8*, !dbg !4080
	%9 = bitcast %struct._ZSo* @_ZSt4cerr to i8**, !dbg !4080
	%10 = load i8*, i8**  %9, align 8, !tbaa !3899, !dbg !4080
	%11 = getelementptr i8, i8*  %10, i64 18446744073709551592, !dbg !4080
	%12 = bitcast i8*  %11 to i64*, !dbg !4080
	%13 = load i64, i64*  %12, align 8, !tbaa !4009, !dbg !4080
	%14 = getelementptr i8, i8*  %8, i64  %13, !dbg !4080
	%15 = bitcast %struct._ZSt9basic_iosIcSt11char_traitsIcEE** %..inline.addr to i8**, !dbg !4080
	store i8*  %14, i8**  %15, align 8, !tbaa !3899, !dbg !4080
	%16 = load %struct._ZSt9basic_iosIcSt11char_traitsIcEE*, %struct._ZSt9basic_iosIcSt11char_traitsIcEE** %..inline.addr, align 8, !tbaa !3899, !dbg !4080
	%17 = bitcast %struct._ZSt9basic_iosIcSt11char_traitsIcEE*  %16 to i8*, !dbg !4080
	%18 = bitcast %struct._ZSt9basic_iosIcSt11char_traitsIcEE** %..inline.addr.1 to i8**, !dbg !4080
	store i8*  %17, i8**  %18, align 8, !tbaa !3899, !dbg !4080
	%19 = load %struct._ZSt9basic_iosIcSt11char_traitsIcEE*, %struct._ZSt9basic_iosIcSt11char_traitsIcEE** %..inline.addr.1, align 8, !tbaa !3899, !dbg !4080
	%20 = bitcast %struct._ZSt9basic_iosIcSt11char_traitsIcEE*  %19 to i8*, !dbg !4080
	%21 = getelementptr i8, i8*  %20, i64 32, !dbg !4080
	%22 = bitcast i8*  %21 to i32*, !dbg !4080
	%23 = load i32, i32*  %22, align 4, !tbaa !4009, !dbg !4080
	%24 = or i32  %23, 1, !dbg !4080
	call void  @_ZNSt9basic_iosIcSt11char_traitsIcEE5clearESt12_Ios_Iostate (%struct._ZSt9basic_iosIcSt11char_traitsIcEE*  %16, i32  %24), !dbg !4080
	br label %L..inline.65996, !dbg !4080
L..inline.65975:
	%25 = bitcast [36 x i8]* @.S53657 to i8*, !dbg !4083
	%26 = call i64  @strlen (i8*  %25) nounwind, !dbg !4083
	%27 = call %struct._ZSo*  @_ZSt16__ostream_insertIcSt11char_traitsIcEERSt13basic_ostreamIT_T0_ES6_PKS3_l (%struct._ZSo* @_ZSt4cerr, i8*  %25, i64  %26), !dbg !4083
	%28 = bitcast %struct._ZSo*  %27 to i8*, !dbg !4083
	%29 = bitcast %struct._ZSo** %.Q0003.addr to i8**, !dbg !4083
	store i8*  %28, i8**  %29, align 8, !tbaa !3899, !dbg !4083
	br label %L..inline.65996
L..inline.65996:
	%30 = load i32, i32* %derivative.addr, align 4, !tbaa !4090, !dbg !4084
	%31 = zext i32  %30 to i64, !dbg !4085
	%32 = call %struct._ZSo*  @_ZNSo9_M_insertImEERSoT_ (%struct._ZSo* @_ZSt4cerr, i64  %31), !dbg !4085
	%33 = bitcast %struct._ZSo*  %32 to i8*, !dbg !4085
	%34 = bitcast %struct._ZSo** %.Q0004.addr to i8**, !dbg !4085
	store i8*  %33, i8**  %34, align 8, !tbaa !3899, !dbg !4085
	%35 = load %struct._ZSo*, %struct._ZSo** %.Q0004.addr, align 8, !tbaa !3899, !dbg !4085
	%36 = bitcast %struct._ZSo*  %35 to i8*, !dbg !4085
	%37 = bitcast %struct._ZSo** %..inline.addr.5 to i8**, !dbg !4085
	store i8*  %36, i8**  %37, align 8, !tbaa !3899, !dbg !4085
	%38 = load %struct._ZSo*, %struct._ZSo** %..inline.addr.5, align 8, !tbaa !3899, !dbg !4086
	%39 = call %struct._ZSo*  @_ZSt4endlIcSt11char_traitsIcEERSt13basic_ostreamIT_T0_ES6_ (%struct._ZSo*  %38), !dbg !4086
	%40 = bitcast %struct._ZSo*  %39 to i8*, !dbg !4086
	%41 = bitcast %struct._ZSo** %.Q0005.addr to i8**, !dbg !4086
	store i8*  %40, i8**  %41, align 8, !tbaa !3899, !dbg !4086
	call void  @exit (i32 1) nounwind noreturn, !dbg !4087
	br label %L.B0002
L.B0002:
	br label %L.B0000
L.B0000:
	ret void, !dbg !4088
}
define linkonce_odr void @_ZN13FieldFunctionD1Ev(%struct.FieldFunction* %_T43066440_52353.arg) #0 inlinehint !dbg !4092 {
L.entry:
	%_T43066440_52353.addr = alloca %struct.FieldFunction*, align 8

	call void @llvm.dbg.declare (metadata %struct.FieldFunction** %_T43066440_52353.addr, metadata !4104, metadata !3891), !dbg !4093
	store %struct.FieldFunction* %_T43066440_52353.arg, %struct.FieldFunction** %_T43066440_52353.addr, align 8, !tbaa !3899
	call void @llvm.dbg.declare (metadata %struct.FieldFunction** %_T43066440_52353.addr, metadata !4105, metadata !3891), !dbg !4093
	%0 = bitcast [5 x i32 (...)* (...)*]* @_ZTV13FieldFunction to i8*, !dbg !4106
	%1 = getelementptr i8, i8*  %0, i64 16, !dbg !4106
	%2 = load %struct.FieldFunction*, %struct.FieldFunction** %_T43066440_52353.addr, align 8, !tbaa !3899, !dbg !4106
	%3 = bitcast %struct.FieldFunction*  %2 to i8**, !dbg !4106
	store i8*  %1, i8**  %3, align 8, !tbaa !3899, !dbg !4106
	%4 = bitcast [5 x i32 (...)* (...)*]* @_ZTV11T3DFunction to i8*, !dbg !4106
	%5 = getelementptr i8, i8*  %4, i64 16, !dbg !4106
	store i8*  %5, i8**  %3, align 8, !tbaa !3899, !dbg !4106
	ret void, !dbg !4107
}
define linkonce_odr void @_ZN13FieldFunctionD0Ev(%struct.FieldFunction* %_T43066440_52354.arg) #0 inlinehint !dbg !4109 {
L.entry:
	%_T43066440_52354.addr = alloca %struct.FieldFunction*, align 8
	%..inline.addr = alloca %struct.FieldFunction*, align 8

	store %struct.FieldFunction* %_T43066440_52354.arg, %struct.FieldFunction** %_T43066440_52354.addr, align 8, !tbaa !3899
	%0 = load %struct.FieldFunction*, %struct.FieldFunction** %_T43066440_52354.addr, align 8, !tbaa !3899, !dbg !4125
	%1 = bitcast %struct.FieldFunction*  %0 to i8*, !dbg !4125
	%2 = bitcast %struct.FieldFunction** %..inline.addr to i8**, !dbg !4125
	store i8*  %1, i8**  %2, align 8, !tbaa !3899, !dbg !4125
	%3 = bitcast [5 x i32 (...)* (...)*]* @_ZTV13FieldFunction to i8*, !dbg !4125
	%4 = getelementptr i8, i8*  %3, i64 16, !dbg !4125
	%5 = load %struct.FieldFunction*, %struct.FieldFunction** %..inline.addr, align 8, !tbaa !3899, !dbg !4125
	%6 = bitcast %struct.FieldFunction*  %5 to i8**, !dbg !4125
	store i8*  %4, i8**  %6, align 8, !tbaa !3899, !dbg !4125
	%7 = bitcast [5 x i32 (...)* (...)*]* @_ZTV11T3DFunction to i8*, !dbg !4125
	%8 = getelementptr i8, i8*  %7, i64 16, !dbg !4125
	store i8*  %8, i8**  %6, align 8, !tbaa !3899, !dbg !4125
	call void  @_ZdlPvm (i8*  %1, i64 24) nounwind, !dbg !4125
	ret void, !dbg !4125
}
define linkonce_odr void @_ZN13FieldFunctionD2Ev(%struct.FieldFunction* %_T43066440_52355.arg) #0 inlinehint !dbg !4127 {
L.entry:
	%_T43066440_52355.addr = alloca %struct.FieldFunction*, align 8
	%..inline.addr = alloca %struct.FieldFunction*, align 8

	store %struct.FieldFunction* %_T43066440_52355.arg, %struct.FieldFunction** %_T43066440_52355.addr, align 8, !tbaa !3899
	%0 = load %struct.FieldFunction*, %struct.FieldFunction** %_T43066440_52355.addr, align 8, !tbaa !3899, !dbg !4143
	%1 = bitcast %struct.FieldFunction*  %0 to i8*, !dbg !4143
	%2 = bitcast %struct.FieldFunction** %..inline.addr to i8**, !dbg !4143
	store i8*  %1, i8**  %2, align 8, !tbaa !3899, !dbg !4143
	%3 = bitcast [5 x i32 (...)* (...)*]* @_ZTV13FieldFunction to i8*, !dbg !4143
	%4 = getelementptr i8, i8*  %3, i64 16, !dbg !4143
	%5 = load %struct.FieldFunction*, %struct.FieldFunction** %..inline.addr, align 8, !tbaa !3899, !dbg !4143
	%6 = bitcast %struct.FieldFunction*  %5 to i8**, !dbg !4143
	store i8*  %4, i8**  %6, align 8, !tbaa !3899, !dbg !4143
	%7 = bitcast [5 x i32 (...)* (...)*]* @_ZTV11T3DFunction to i8*, !dbg !4143
	%8 = getelementptr i8, i8*  %7, i64 16, !dbg !4143
	store i8*  %8, i8**  %6, align 8, !tbaa !3899, !dbg !4143
	ret void, !dbg !4143
}

%struct.ConstantField = type <{ %struct.__SO__13FieldFunction, i8, [3 x i8], [3 x double]}> 
%struct.__SO__13FieldFunction = type <{ %struct.T3DFunction, i32, i32, i32}> 

define linkonce_odr void @_ZN13ConstantFieldC1Ev(%struct.ConstantField* %_T43066624_52356.arg) #0 inlinehint !dbg !4150 {
L.entry:
	%_T43066624_52356.addr = alloca %struct.ConstantField*, align 8
	%..inline.addr = alloca %struct.FieldFunction*, align 8

	call void @llvm.dbg.declare (metadata %struct.ConstantField** %_T43066624_52356.addr, metadata !4158, metadata !3891), !dbg !4151
	store %struct.ConstantField* %_T43066624_52356.arg, %struct.ConstantField** %_T43066624_52356.addr, align 8, !tbaa !3899
	call void @llvm.dbg.declare (metadata %struct.ConstantField** %_T43066624_52356.addr, metadata !4159, metadata !3891), !dbg !4151
	%0 = load %struct.ConstantField*, %struct.ConstantField** %_T43066624_52356.addr, align 8, !tbaa !3899, !dbg !4160
	%1 = bitcast %struct.ConstantField*  %0 to i8*, !dbg !4160
	%2 = bitcast %struct.FieldFunction** %..inline.addr to i8**, !dbg !4160
	store i8*  %1, i8**  %2, align 8, !tbaa !3899, !dbg !4160
	%3 = load %struct.FieldFunction*, %struct.FieldFunction** %..inline.addr, align 8, !tbaa !3899, !dbg !4160
	call void  @_ZN13FieldFunctionC1Ev (%struct.FieldFunction*  %3), !dbg !4160
	%4 = bitcast [5 x i32 (...)* (...)*]* @_ZTV13ConstantField to i8*, !dbg !4160
	%5 = getelementptr i8, i8*  %4, i64 16, !dbg !4160
	%6 = load %struct.ConstantField*, %struct.ConstantField** %_T43066624_52356.addr, align 8, !tbaa !3899, !dbg !4160
	%7 = bitcast %struct.ConstantField*  %6 to i8**, !dbg !4160
	store i8*  %5, i8**  %7, align 8, !tbaa !3899, !dbg !4160
	%8 = bitcast %struct.ConstantField*  %6 to i8*, !dbg !4163
	%9 = getelementptr i8, i8*  %8, i64 20, !dbg !4163
	store i8 0, i8*  %9, align 1, !tbaa !4009, !dbg !4163
	ret void, !dbg !4164
}
define linkonce_odr void @_ZN13ConstantFieldC2Ev(%struct.ConstantField* %_T43066440_52357.arg) #0 inlinehint !dbg !4166 {
L.entry:
	%_T43066440_52357.addr = alloca %struct.ConstantField*, align 8
	%..inline.addr = alloca %struct.ConstantField*, align 8
	%..inline.addr.1 = alloca %struct.FieldFunction*, align 8

	store %struct.ConstantField* %_T43066440_52357.arg, %struct.ConstantField** %_T43066440_52357.addr, align 8, !tbaa !3899
	%0 = load %struct.ConstantField*, %struct.ConstantField** %_T43066440_52357.addr, align 8, !tbaa !3899, !dbg !4178
	%1 = bitcast %struct.ConstantField*  %0 to i8*, !dbg !4178
	%2 = bitcast %struct.ConstantField** %..inline.addr to i8**, !dbg !4178
	store i8*  %1, i8**  %2, align 8, !tbaa !3899, !dbg !4178
	%3 = load %struct.ConstantField*, %struct.ConstantField** %..inline.addr, align 8, !tbaa !3899, !dbg !4179
	%4 = bitcast %struct.ConstantField*  %3 to i8*, !dbg !4179
	%5 = bitcast %struct.FieldFunction** %..inline.addr.1 to i8**, !dbg !4179
	store i8*  %4, i8**  %5, align 8, !tbaa !3899, !dbg !4179
	%6 = load %struct.FieldFunction*, %struct.FieldFunction** %..inline.addr.1, align 8, !tbaa !3899, !dbg !4179
	call void  @_ZN13FieldFunctionC1Ev (%struct.FieldFunction*  %6), !dbg !4179
	%7 = bitcast [5 x i32 (...)* (...)*]* @_ZTV13ConstantField to i8*, !dbg !4179
	%8 = getelementptr i8, i8*  %7, i64 16, !dbg !4179
	%9 = load %struct.ConstantField*, %struct.ConstantField** %..inline.addr, align 8, !tbaa !3899, !dbg !4179
	%10 = bitcast %struct.ConstantField*  %9 to i8**, !dbg !4179
	store i8*  %8, i8**  %10, align 8, !tbaa !3899, !dbg !4179
	%11 = bitcast %struct.ConstantField*  %9 to i8*, !dbg !4179
	%12 = getelementptr i8, i8*  %11, i64 20, !dbg !4179
	store i8 0, i8*  %12, align 1, !tbaa !4009, !dbg !4179
	ret void, !dbg !4178
}
define linkonce_odr void @_ZN13ConstantFieldD1Ev(%struct.ConstantField* %_T43066440_52358.arg) #0 inlinehint !dbg !4181 {
L.entry:
	%_T43066440_52358.addr = alloca %struct.ConstantField*, align 8
	%..inline.addr = alloca %struct.FieldFunction*, align 8

	call void @llvm.dbg.declare (metadata %struct.ConstantField** %_T43066440_52358.addr, metadata !4201, metadata !3891), !dbg !4182
	store %struct.ConstantField* %_T43066440_52358.arg, %struct.ConstantField** %_T43066440_52358.addr, align 8, !tbaa !3899
	call void @llvm.dbg.declare (metadata %struct.ConstantField** %_T43066440_52358.addr, metadata !4202, metadata !3891), !dbg !4182
	%0 = bitcast [5 x i32 (...)* (...)*]* @_ZTV13ConstantField to i8*, !dbg !4203
	%1 = getelementptr i8, i8*  %0, i64 16, !dbg !4203
	%2 = load %struct.ConstantField*, %struct.ConstantField** %_T43066440_52358.addr, align 8, !tbaa !3899, !dbg !4203
	%3 = bitcast %struct.ConstantField*  %2 to i8**, !dbg !4203
	store i8*  %1, i8**  %3, align 8, !tbaa !3899, !dbg !4203
	%4 = bitcast %struct.ConstantField*  %2 to i8*, !dbg !4203
	%5 = bitcast %struct.FieldFunction** %..inline.addr to i8**, !dbg !4203
	store i8*  %4, i8**  %5, align 8, !tbaa !3899, !dbg !4203
	%6 = bitcast [5 x i32 (...)* (...)*]* @_ZTV13FieldFunction to i8*, !dbg !4203
	%7 = getelementptr i8, i8*  %6, i64 16, !dbg !4203
	%8 = load %struct.FieldFunction*, %struct.FieldFunction** %..inline.addr, align 8, !tbaa !3899, !dbg !4203
	%9 = bitcast %struct.FieldFunction*  %8 to i8**, !dbg !4203
	store i8*  %7, i8**  %9, align 8, !tbaa !3899, !dbg !4203
	%10 = bitcast [5 x i32 (...)* (...)*]* @_ZTV11T3DFunction to i8*, !dbg !4203
	%11 = getelementptr i8, i8*  %10, i64 16, !dbg !4203
	store i8*  %11, i8**  %9, align 8, !tbaa !3899, !dbg !4203
	ret void, !dbg !4203
}
define linkonce_odr void @_ZN13ConstantFieldD0Ev(%struct.ConstantField* %_T43066440_52359.arg) #0 inlinehint !dbg !4205 {
L.entry:
	%_T43066440_52359.addr = alloca %struct.ConstantField*, align 8
	%..inline.addr = alloca %struct.ConstantField*, align 8
	%..inline.addr.1 = alloca %struct.FieldFunction*, align 8

	store %struct.ConstantField* %_T43066440_52359.arg, %struct.ConstantField** %_T43066440_52359.addr, align 8, !tbaa !3899
	%0 = load %struct.ConstantField*, %struct.ConstantField** %_T43066440_52359.addr, align 8, !tbaa !3899, !dbg !4229
	%1 = bitcast %struct.ConstantField*  %0 to i8*, !dbg !4229
	%2 = bitcast %struct.ConstantField** %..inline.addr to i8**, !dbg !4229
	store i8*  %1, i8**  %2, align 8, !tbaa !3899, !dbg !4229
	%3 = bitcast [5 x i32 (...)* (...)*]* @_ZTV13ConstantField to i8*, !dbg !4229
	%4 = getelementptr i8, i8*  %3, i64 16, !dbg !4229
	%5 = load %struct.ConstantField*, %struct.ConstantField** %..inline.addr, align 8, !tbaa !3899, !dbg !4229
	%6 = bitcast %struct.ConstantField*  %5 to i8**, !dbg !4229
	store i8*  %4, i8**  %6, align 8, !tbaa !3899, !dbg !4229
	%7 = bitcast %struct.ConstantField*  %5 to i8*, !dbg !4229
	%8 = bitcast %struct.FieldFunction** %..inline.addr.1 to i8**, !dbg !4229
	store i8*  %7, i8**  %8, align 8, !tbaa !3899, !dbg !4229
	%9 = bitcast [5 x i32 (...)* (...)*]* @_ZTV13FieldFunction to i8*, !dbg !4229
	%10 = getelementptr i8, i8*  %9, i64 16, !dbg !4229
	store i8*  %10, i8**  %6, align 8, !tbaa !3899, !dbg !4229
	%11 = bitcast [5 x i32 (...)* (...)*]* @_ZTV11T3DFunction to i8*, !dbg !4229
	%12 = getelementptr i8, i8*  %11, i64 16, !dbg !4229
	%13 = load %struct.FieldFunction*, %struct.FieldFunction** %..inline.addr.1, align 8, !tbaa !3899, !dbg !4229
	%14 = bitcast %struct.FieldFunction*  %13 to i8**, !dbg !4229
	store i8*  %12, i8**  %14, align 8, !tbaa !3899, !dbg !4229
	call void  @_ZdlPvm (i8*  %1, i64 48) nounwind, !dbg !4229
	ret void, !dbg !4229
}
define linkonce_odr void @_ZN13ConstantFieldD2Ev(%struct.ConstantField* %_T43066440_52360.arg) #0 inlinehint !dbg !4231 {
L.entry:
	%_T43066440_52360.addr = alloca %struct.ConstantField*, align 8
	%..inline.addr = alloca %struct.ConstantField*, align 8
	%..inline.addr.1 = alloca %struct.FieldFunction*, align 8

	store %struct.ConstantField* %_T43066440_52360.arg, %struct.ConstantField** %_T43066440_52360.addr, align 8, !tbaa !3899
	%0 = load %struct.ConstantField*, %struct.ConstantField** %_T43066440_52360.addr, align 8, !tbaa !3899, !dbg !4255
	%1 = bitcast %struct.ConstantField*  %0 to i8*, !dbg !4255
	%2 = bitcast %struct.ConstantField** %..inline.addr to i8**, !dbg !4255
	store i8*  %1, i8**  %2, align 8, !tbaa !3899, !dbg !4255
	%3 = bitcast [5 x i32 (...)* (...)*]* @_ZTV13ConstantField to i8*, !dbg !4255
	%4 = getelementptr i8, i8*  %3, i64 16, !dbg !4255
	%5 = load %struct.ConstantField*, %struct.ConstantField** %..inline.addr, align 8, !tbaa !3899, !dbg !4255
	%6 = bitcast %struct.ConstantField*  %5 to i8**, !dbg !4255
	store i8*  %4, i8**  %6, align 8, !tbaa !3899, !dbg !4255
	%7 = bitcast %struct.ConstantField*  %5 to i8*, !dbg !4255
	%8 = bitcast %struct.FieldFunction** %..inline.addr.1 to i8**, !dbg !4255
	store i8*  %7, i8**  %8, align 8, !tbaa !3899, !dbg !4255
	%9 = bitcast [5 x i32 (...)* (...)*]* @_ZTV13FieldFunction to i8*, !dbg !4255
	%10 = getelementptr i8, i8*  %9, i64 16, !dbg !4255
	store i8*  %10, i8**  %6, align 8, !tbaa !3899, !dbg !4255
	%11 = bitcast [5 x i32 (...)* (...)*]* @_ZTV11T3DFunction to i8*, !dbg !4255
	%12 = getelementptr i8, i8*  %11, i64 16, !dbg !4255
	%13 = load %struct.FieldFunction*, %struct.FieldFunction** %..inline.addr.1, align 8, !tbaa !3899, !dbg !4255
	%14 = bitcast %struct.FieldFunction*  %13 to i8**, !dbg !4255
	store i8*  %12, i8**  %14, align 8, !tbaa !3899, !dbg !4255
	ret void, !dbg !4255
}
define linkonce_odr void @_ZNSt11char_traitsIcE6assignERcRKc(i8* %__c1.arg, i8* %__c2.arg) #0 inlinehint !dbg !4262 {
L.entry:
	%__c1.addr = alloca i8*, align 8
	%__c2.addr = alloca i8*, align 8

	call void @llvm.dbg.declare (metadata i8** %__c1.addr, metadata !4266, metadata !3891), !dbg !4263
	store i8* %__c1.arg, i8** %__c1.addr, align 8, !tbaa !3899
	call void @llvm.dbg.declare (metadata i8** %__c1.addr, metadata !4267, metadata !3891), !dbg !4263
	call void @llvm.dbg.declare (metadata i8** %__c2.addr, metadata !4268, metadata !3891), !dbg !4263
	store i8* %__c2.arg, i8** %__c2.addr, align 8, !tbaa !3899
	call void @llvm.dbg.declare (metadata i8** %__c2.addr, metadata !4269, metadata !3891), !dbg !4263
	%0 = load i8*, i8** %__c2.addr, align 8, !tbaa !3899, !dbg !4270
	%1 = load i8, i8*  %0, align 1, !tbaa !4009, !dbg !4270
	%2 = load i8*, i8** %__c1.addr, align 8, !tbaa !3899, !dbg !4270
	store i8  %1, i8*  %2, align 1, !tbaa !4009, !dbg !4270
	ret void, !dbg !4270
}
define linkonce_odr i64 @_ZNSt11char_traitsIcE6lengthEPKc(i8* %__s.arg) #0 inlinehint !dbg !4274 {
L.entry:
	%__s.addr = alloca i8*, align 8

	call void @llvm.dbg.declare (metadata i8** %__s.addr, metadata !4278, metadata !3891), !dbg !4275
	store i8* %__s.arg, i8** %__s.addr, align 8, !tbaa !3899
	call void @llvm.dbg.declare (metadata i8** %__s.addr, metadata !4279, metadata !3891), !dbg !4275
	%0 = load i8*, i8** %__s.addr, align 8, !tbaa !3899, !dbg !4280
	%1 = call i64  @strlen (i8*  %0) nounwind, !dbg !4280
	ret i64  %1, !dbg !4280
}
define linkonce_odr i8* @_ZNSt11char_traitsIcE4copyEPcPKcm(i8* %__s1.arg, i8* %__s2.arg, i64 %__n.arg) #0 inlinehint !dbg !4285 {
L.entry:
	%__s1.addr = alloca i8*, align 8
	%__s2.addr = alloca i8*, align 8
	%__n.addr = alloca i64, align 8

	call void @llvm.dbg.declare (metadata i8** %__s1.addr, metadata !4289, metadata !3891), !dbg !4286
	store i8* %__s1.arg, i8** %__s1.addr, align 8, !tbaa !3899
	call void @llvm.dbg.declare (metadata i8** %__s1.addr, metadata !4290, metadata !3891), !dbg !4286
	call void @llvm.dbg.declare (metadata i8** %__s2.addr, metadata !4291, metadata !3891), !dbg !4286
	store i8* %__s2.arg, i8** %__s2.addr, align 8, !tbaa !3899
	call void @llvm.dbg.declare (metadata i8** %__s2.addr, metadata !4292, metadata !3891), !dbg !4286
	call void @llvm.dbg.declare (metadata i64* %__n.addr, metadata !4293, metadata !3891), !dbg !4286
	store i64 %__n.arg, i64* %__n.addr, align 8, !tbaa !4009
	call void @llvm.dbg.declare (metadata i64* %__n.addr, metadata !4294, metadata !3891), !dbg !4286
	%0 = load i64, i64* %__n.addr, align 8, !tbaa !4300, !dbg !4295
	%1 = icmp ne i64  %0, 0, !dbg !4295
	br i1  %1, label %L.B0004, label %L.B0958, !dbg !4295
L.B0958:
	%2 = load i8*, i8** %__s1.addr, align 8, !tbaa !3899, !dbg !4296
	ret i8*  %2, !dbg !4296
L.B0959:
	br label %L.R0020, !dbg !4296
L.B0004:
	%3 = load i8*, i8** %__s1.addr, align 8, !tbaa !3899, !dbg !4297
	%4 = load i8*, i8** %__s2.addr, align 8, !tbaa !3899, !dbg !4297
	%5 = load i64, i64* %__n.addr, align 8, !tbaa !4300, !dbg !4297
	%6 = call i8*  @memcpy (i8*  %3, i8*  %4, i64  %5) nounwind, !dbg !4297
	ret i8*  %6, !dbg !4297
L.R0020:
	ret i8* null
}

%struct._ZSaIcE = type <{ [1 x i8]}> 

define linkonce_odr void @_ZNSaIcEC1Ev(%struct._ZSaIcE* %_T43066440_52369.arg) #0 inlinehint !dbg !4307 {
L.entry:
	%_T43066440_52369.addr = alloca %struct._ZSaIcE*, align 8

	call void @llvm.dbg.declare (metadata %struct._ZSaIcE** %_T43066440_52369.addr, metadata !4311, metadata !3891), !dbg !4308
	store %struct._ZSaIcE* %_T43066440_52369.arg, %struct._ZSaIcE** %_T43066440_52369.addr, align 8, !tbaa !3899
	call void @llvm.dbg.declare (metadata %struct._ZSaIcE** %_T43066440_52369.addr, metadata !4312, metadata !3891), !dbg !4308
	ret void, !dbg !4313
}
define linkonce_odr void @_ZNSaIcEC2Ev(%struct._ZSaIcE* %_T43066440_52370.arg) #0 inlinehint !dbg !4315 {
L.entry:
	%_T43066440_52370.addr = alloca %struct._ZSaIcE*, align 8

	store %struct._ZSaIcE* %_T43066440_52370.arg, %struct._ZSaIcE** %_T43066440_52370.addr, align 8, !tbaa !3899
	ret void, !dbg !4323
}
define linkonce_odr void @_ZNSaIcED1Ev(%struct._ZSaIcE* %_T43066440_52371.arg) #0 inlinehint !dbg !4325 {
L.entry:
	%_T43066440_52371.addr = alloca %struct._ZSaIcE*, align 8

	call void @llvm.dbg.declare (metadata %struct._ZSaIcE** %_T43066440_52371.addr, metadata !4329, metadata !3891), !dbg !4326
	store %struct._ZSaIcE* %_T43066440_52371.arg, %struct._ZSaIcE** %_T43066440_52371.addr, align 8, !tbaa !3899
	call void @llvm.dbg.declare (metadata %struct._ZSaIcE** %_T43066440_52371.addr, metadata !4330, metadata !3891), !dbg !4326
	ret void, !dbg !4331
}
define linkonce_odr void @_ZNSaIcED2Ev(%struct._ZSaIcE* %_T43066440_52372.arg) #0 inlinehint !dbg !4333 {
L.entry:
	%_T43066440_52372.addr = alloca %struct._ZSaIcE*, align 8

	store %struct._ZSaIcE* %_T43066440_52372.arg, %struct._ZSaIcE** %_T43066440_52372.addr, align 8, !tbaa !3899
	ret void, !dbg !4341
}
define linkonce_odr void @_ZNSt16allocator_traitsISaIcEE10deallocateERS0_Pcm(%struct._ZSaIcE* %__a.arg, i8* %__p.arg, i64 %__n.arg) #0 inlinehint !dbg !4351 {
L.entry:
	%__a.addr = alloca %struct._ZSaIcE*, align 8
	%__p.addr = alloca i8*, align 8
	%__n.addr = alloca i64, align 8
	%..inline.addr = alloca i8*, align 8

	call void @llvm.dbg.declare (metadata %struct._ZSaIcE** %__a.addr, metadata !4359, metadata !3891), !dbg !4352
	store %struct._ZSaIcE* %__a.arg, %struct._ZSaIcE** %__a.addr, align 8, !tbaa !3899
	call void @llvm.dbg.declare (metadata %struct._ZSaIcE** %__a.addr, metadata !4360, metadata !3891), !dbg !4352
	call void @llvm.dbg.declare (metadata i8** %__p.addr, metadata !4361, metadata !3891), !dbg !4352
	store i8* %__p.arg, i8** %__p.addr, align 8, !tbaa !3899
	call void @llvm.dbg.declare (metadata i8** %__p.addr, metadata !4362, metadata !3891), !dbg !4352
	call void @llvm.dbg.declare (metadata i64* %__n.addr, metadata !4363, metadata !3891), !dbg !4352
	store i64 %__n.arg, i64* %__n.addr, align 8, !tbaa !4009
	call void @llvm.dbg.declare (metadata i64* %__n.addr, metadata !4364, metadata !3891), !dbg !4352
	%0 = load i8*, i8** %__p.addr, align 8, !tbaa !3899, !dbg !4365
	call void  @_ZdlPv (i8*  %0) nounwind, !dbg !4366
	ret void, !dbg !4365
}
define linkonce_odr signext i8 @_ZNKSt5ctypeIcE5widenEc(%struct._ZSt5ctypeIcE* %_T43066624_52380.arg, i8 signext %__c.arg) #0 inlinehint !dbg !4372 {
L.entry:
	%_T43066624_52380.addr = alloca %struct._ZSt5ctypeIcE*, align 8
	%__c.addr = alloca i8, align 1
	%.Q0006.addr = alloca i32, align 4

	call void @llvm.dbg.declare (metadata %struct._ZSt5ctypeIcE** %_T43066624_52380.addr, metadata !4376, metadata !3891), !dbg !4373
	store %struct._ZSt5ctypeIcE* %_T43066624_52380.arg, %struct._ZSt5ctypeIcE** %_T43066624_52380.addr, align 8, !tbaa !3899
	call void @llvm.dbg.declare (metadata %struct._ZSt5ctypeIcE** %_T43066624_52380.addr, metadata !4377, metadata !3891), !dbg !4373
	call void @llvm.dbg.declare (metadata i8* %__c.addr, metadata !4378, metadata !3891), !dbg !4373
	store i8 %__c.arg, i8* %__c.addr, align 1, !tbaa !4009
	call void @llvm.dbg.declare (metadata i8* %__c.addr, metadata !4379, metadata !3891), !dbg !4373
	%0 = load %struct._ZSt5ctypeIcE*, %struct._ZSt5ctypeIcE** %_T43066624_52380.addr, align 8, !tbaa !3899, !dbg !4380
	%1 = bitcast %struct._ZSt5ctypeIcE*  %0 to i8*, !dbg !4380
	%2 = getelementptr i8, i8*  %1, i64 56, !dbg !4380
	%3 = load i8, i8*  %2, align 1, !tbaa !4009, !dbg !4380
	%4 = sext i8  %3 to i32, !dbg !4380
	%5 = icmp eq i32  %4, 0, !dbg !4380
	br i1  %5, label %L.B0005, label %L.B0966, !dbg !4380
L.B0966:
	%6 = bitcast %struct._ZSt5ctypeIcE*  %0 to i8*, !dbg !4381
	%7 = getelementptr i8, i8*  %6, i64 57, !dbg !4381
	%8 = load i8, i8* %__c.addr, align 1, !tbaa !4009, !dbg !4381
	%9 = sext i8  %8 to i32, !dbg !4381
	%10 = and i32  %9, 255, !dbg !4381
	%11 = sext i32  %10 to i64, !dbg !4381
	%12 = getelementptr i8, i8*  %7, i64  %11, !dbg !4381
	%13 = load i8, i8*  %12, align 1, !tbaa !4009, !dbg !4381
	ret i8  %13, !dbg !4381
L.B0967:
	br label %L.R0026, !dbg !4381
L.B0005:
	%14 = load %struct._ZSt5ctypeIcE*, %struct._ZSt5ctypeIcE** %_T43066624_52380.addr, align 8, !tbaa !3899, !dbg !4382
	call void  @_ZNKSt5ctypeIcE13_M_widen_initEv (%struct._ZSt5ctypeIcE*  %14), !dbg !4382
	%15 = load %struct._ZSt5ctypeIcE*, %struct._ZSt5ctypeIcE** %_T43066624_52380.addr, align 8, !tbaa !3899, !dbg !4383
	%16 = load i8, i8* %__c.addr, align 1, !tbaa !4009, !dbg !4383
	%17 = bitcast %struct._ZSt5ctypeIcE*  %15 to i8**, !dbg !4383
	%18 = load i8*, i8**  %17, align 8, !tbaa !3899, !dbg !4383
	%19 = getelementptr i8, i8*  %18, i64 48, !dbg !4383
	%20 = bitcast i8*  %19 to i8 (%struct._ZSt5ctypeIcE*, i8)**, !dbg !4383
	%21 = load i8 (%struct._ZSt5ctypeIcE*, i8)*, i8 (%struct._ZSt5ctypeIcE*, i8)**  %20, align 8, !tbaa !3899, !dbg !4383
	%22 = call i8  %21 (%struct._ZSt5ctypeIcE*  %15, i8  %16), !dbg !4383
	%23 = sext i8  %22 to i32, !dbg !4383
	store i32  %23, i32* %.Q0006.addr, align 4, !tbaa !4090, !dbg !4383
	%24 = shl i32  %23, 24, !dbg !4383
	%25 = ashr i32  %24, 24, !dbg !4383
	%26 = trunc i32  %25 to i8, !dbg !4383
	ret i8  %26, !dbg !4383
L.R0026:
	ret i8 0
}
define linkonce_odr signext i32 @_ZNKSt9basic_iosIcSt11char_traitsIcEE7rdstateEv(%struct._ZSt9basic_iosIcSt11char_traitsIcEE* %_T43066440_52383.arg) #0 inlinehint !dbg !4391 {
L.entry:
	%_T43066440_52383.addr = alloca %struct._ZSt9basic_iosIcSt11char_traitsIcEE*, align 8

	call void @llvm.dbg.declare (metadata %struct._ZSt9basic_iosIcSt11char_traitsIcEE** %_T43066440_52383.addr, metadata !4395, metadata !3891), !dbg !4392
	store %struct._ZSt9basic_iosIcSt11char_traitsIcEE* %_T43066440_52383.arg, %struct._ZSt9basic_iosIcSt11char_traitsIcEE** %_T43066440_52383.addr, align 8, !tbaa !3899
	call void @llvm.dbg.declare (metadata %struct._ZSt9basic_iosIcSt11char_traitsIcEE** %_T43066440_52383.addr, metadata !4396, metadata !3891), !dbg !4392
	%0 = load %struct._ZSt9basic_iosIcSt11char_traitsIcEE*, %struct._ZSt9basic_iosIcSt11char_traitsIcEE** %_T43066440_52383.addr, align 8, !tbaa !3899, !dbg !4397
	%1 = bitcast %struct._ZSt9basic_iosIcSt11char_traitsIcEE*  %0 to i8*, !dbg !4397
	%2 = getelementptr i8, i8*  %1, i64 32, !dbg !4397
	%3 = bitcast i8*  %2 to i32*, !dbg !4397
	%4 = load i32, i32*  %3, align 4, !tbaa !4009, !dbg !4397
	ret i32  %4, !dbg !4397
}
define linkonce_odr void @_ZNSt9basic_iosIcSt11char_traitsIcEE8setstateESt12_Ios_Iostate(%struct._ZSt9basic_iosIcSt11char_traitsIcEE* %_T43066440_52387.arg, i32 signext %__state.arg) #0 inlinehint !dbg !4401 {
L.entry:
	%_T43066440_52387.addr = alloca %struct._ZSt9basic_iosIcSt11char_traitsIcEE*, align 8
	%__state.addr = alloca i32, align 4
	%..inline.addr = alloca i32, align 4

	call void @llvm.dbg.declare (metadata %struct._ZSt9basic_iosIcSt11char_traitsIcEE** %_T43066440_52387.addr, metadata !4413, metadata !3891), !dbg !4402
	store %struct._ZSt9basic_iosIcSt11char_traitsIcEE* %_T43066440_52387.arg, %struct._ZSt9basic_iosIcSt11char_traitsIcEE** %_T43066440_52387.addr, align 8, !tbaa !3899
	call void @llvm.dbg.declare (metadata %struct._ZSt9basic_iosIcSt11char_traitsIcEE** %_T43066440_52387.addr, metadata !4414, metadata !3891), !dbg !4402
	call void @llvm.dbg.declare (metadata i32* %__state.addr, metadata !4415, metadata !3891), !dbg !4402
	store i32 %__state.arg, i32* %__state.addr, align 4, !tbaa !4009
	call void @llvm.dbg.declare (metadata i32* %__state.addr, metadata !4416, metadata !3891), !dbg !4402
	%0 = load i32, i32* %__state.addr, align 4, !tbaa !4009, !dbg !4417
	%1 = load %struct._ZSt9basic_iosIcSt11char_traitsIcEE*, %struct._ZSt9basic_iosIcSt11char_traitsIcEE** %_T43066440_52387.addr, align 8, !tbaa !3899, !dbg !4417
	%2 = bitcast %struct._ZSt9basic_iosIcSt11char_traitsIcEE*  %1 to i8*, !dbg !4417
	%3 = getelementptr i8, i8*  %2, i64 32, !dbg !4417
	%4 = bitcast i8*  %3 to i32*, !dbg !4417
	%5 = load i32, i32*  %4, align 4, !tbaa !4009, !dbg !4417
	%6 = or i32  %0,  %5, !dbg !4417
	call void  @_ZNSt9basic_iosIcSt11char_traitsIcEE5clearESt12_Ios_Iostate (%struct._ZSt9basic_iosIcSt11char_traitsIcEE*  %1, i32  %6), !dbg !4418
	ret void, !dbg !4417
}
define linkonce_odr signext i8 @_ZNKSt9basic_iosIcSt11char_traitsIcEE5widenEc(%struct._ZSt9basic_iosIcSt11char_traitsIcEE* %_T43066440_52389.arg, i8 signext %__c.arg) #0 inlinehint !dbg !4422 {
L.entry:
	%_T43066440_52389.addr = alloca %struct._ZSt9basic_iosIcSt11char_traitsIcEE*, align 8
	%__c.addr = alloca i8, align 1
	%..inline.addr = alloca %struct._ZSt5ctypeIcE*, align 8
	%..inline.addr.1 = alloca %struct._ZSt5ctypeIcE*, align 8
	%..inline.addr.2 = alloca i8, align 1
	%..inline.addr.3 = alloca i8, align 1
	%.Q0007.addr = alloca i32, align 4

	call void @llvm.dbg.declare (metadata %struct._ZSt9basic_iosIcSt11char_traitsIcEE** %_T43066440_52389.addr, metadata !4434, metadata !3891), !dbg !4423
	store %struct._ZSt9basic_iosIcSt11char_traitsIcEE* %_T43066440_52389.arg, %struct._ZSt9basic_iosIcSt11char_traitsIcEE** %_T43066440_52389.addr, align 8, !tbaa !3899
	call void @llvm.dbg.declare (metadata %struct._ZSt9basic_iosIcSt11char_traitsIcEE** %_T43066440_52389.addr, metadata !4435, metadata !3891), !dbg !4423
	call void @llvm.dbg.declare (metadata i8* %__c.addr, metadata !4436, metadata !3891), !dbg !4423
	store i8 %__c.arg, i8* %__c.addr, align 1, !tbaa !4009
	call void @llvm.dbg.declare (metadata i8* %__c.addr, metadata !4437, metadata !3891), !dbg !4423
	%0 = load %struct._ZSt9basic_iosIcSt11char_traitsIcEE*, %struct._ZSt9basic_iosIcSt11char_traitsIcEE** %_T43066440_52389.addr, align 8, !tbaa !3899, !dbg !4438
	%1 = bitcast %struct._ZSt9basic_iosIcSt11char_traitsIcEE*  %0 to i8*, !dbg !4438
	%2 = getelementptr i8, i8*  %1, i64 240, !dbg !4438
	%3 = bitcast i8*  %2 to i8**, !dbg !4438
	%4 = load i8*, i8**  %3, align 8, !tbaa !3899, !dbg !4438
	%5 = bitcast %struct._ZSt5ctypeIcE** %..inline.addr to i8**, !dbg !4438
	store i8*  %4, i8**  %5, align 8, !tbaa !3899, !dbg !4438
	%6 = load %struct._ZSt5ctypeIcE*, %struct._ZSt5ctypeIcE** %..inline.addr, align 8, !tbaa !3899, !dbg !4438
	%7 = bitcast %struct._ZSt5ctypeIcE*  %6 to i8*, !dbg !4438
	%8 = icmp ne i8*  %7,  null, !dbg !4438
	br i1  %8, label %L..inline.66316, label %L.B0976, !dbg !4438
L.B0976:
	call void  @_ZSt16__throw_bad_castv () noreturn, !dbg !4439
	br label %L..inline.66316
L..inline.66316:
	%9 = load %struct._ZSt5ctypeIcE*, %struct._ZSt5ctypeIcE** %..inline.addr, align 8, !tbaa !3899, !dbg !4440
	%10 = bitcast %struct._ZSt5ctypeIcE*  %9 to i8*, !dbg !4440
	%11 = bitcast %struct._ZSt5ctypeIcE** %..inline.addr.1 to i8**, !dbg !4440
	store i8*  %10, i8**  %11, align 8, !tbaa !3899, !dbg !4440
	%12 = load i8, i8* %__c.addr, align 1, !tbaa !4009, !dbg !4438
	store i8  %12, i8* %..inline.addr.2, align 1, !tbaa !4009, !dbg !4438
	%13 = load %struct._ZSt5ctypeIcE*, %struct._ZSt5ctypeIcE** %..inline.addr.1, align 8, !tbaa !3899, !dbg !4438
	%14 = bitcast %struct._ZSt5ctypeIcE*  %13 to i8*, !dbg !4438
	%15 = getelementptr i8, i8*  %14, i64 56, !dbg !4438
	%16 = load i8, i8*  %15, align 1, !tbaa !4009, !dbg !4438
	%17 = sext i8  %16 to i32, !dbg !4438
	%18 = icmp eq i32  %17, 0, !dbg !4438
	br i1  %18, label %L..inline.66322, label %L.B0977, !dbg !4438
L.B0977:
	%19 = bitcast %struct._ZSt5ctypeIcE*  %13 to i8*, !dbg !4441
	%20 = getelementptr i8, i8*  %19, i64 57, !dbg !4441
	%21 = sext i8  %12 to i32, !dbg !4441
	%22 = and i32  %21, 255, !dbg !4441
	%23 = sext i32  %22 to i64, !dbg !4441
	%24 = getelementptr i8, i8*  %20, i64  %23, !dbg !4441
	%25 = load i8, i8*  %24, align 1, !tbaa !4009, !dbg !4441
	store i8  %25, i8* %..inline.addr.3, align 1, !tbaa !4009, !dbg !4441
	br label %L..inline.66326, !dbg !4442
L..inline.66322:
	%26 = load %struct._ZSt5ctypeIcE*, %struct._ZSt5ctypeIcE** %..inline.addr.1, align 8, !tbaa !3899, !dbg !4443
	call void  @_ZNKSt5ctypeIcE13_M_widen_initEv (%struct._ZSt5ctypeIcE*  %26), !dbg !4443
	%27 = load %struct._ZSt5ctypeIcE*, %struct._ZSt5ctypeIcE** %..inline.addr.1, align 8, !tbaa !3899, !dbg !4444
	%28 = load i8, i8* %..inline.addr.2, align 1, !tbaa !4009, !dbg !4444
	%29 = bitcast %struct._ZSt5ctypeIcE*  %27 to i8**, !dbg !4444
	%30 = load i8*, i8**  %29, align 8, !tbaa !3899, !dbg !4444
	%31 = getelementptr i8, i8*  %30, i64 48, !dbg !4444
	%32 = bitcast i8*  %31 to i8 (%struct._ZSt5ctypeIcE*, i8)**, !dbg !4444
	%33 = load i8 (%struct._ZSt5ctypeIcE*, i8)*, i8 (%struct._ZSt5ctypeIcE*, i8)**  %32, align 8, !tbaa !3899, !dbg !4444
	%34 = call i8  %33 (%struct._ZSt5ctypeIcE*  %27, i8  %28), !dbg !4444
	%35 = sext i8  %34 to i32, !dbg !4444
	store i32  %35, i32* %.Q0007.addr, align 4, !tbaa !4090, !dbg !4444
	%36 = shl i32  %35, 24, !dbg !4444
	%37 = ashr i32  %36, 24, !dbg !4444
	%38 = trunc i32  %37 to i8, !dbg !4444
	store i8  %38, i8* %..inline.addr.3, align 1, !tbaa !4009, !dbg !4444
	br label %L..inline.66326
L..inline.66326:
	%39 = load i8, i8* %..inline.addr.3, align 1, !tbaa !4009, !dbg !4445
	ret i8  %39, !dbg !4445
}
define linkonce_odr %struct._ZSo* @_ZNSolsEPFRSoS_E(%struct._ZSo* %_T43066440_52391.arg, %struct._ZSo* (%struct._ZSo*)* %__pf.arg) #0 inlinehint !dbg !4454 {
L.entry:
	%_T43066440_52391.addr = alloca %struct._ZSo*, align 8
	%__pf.addr = alloca %struct._ZSo* (%struct._ZSo*)*, align 8
	%.Q0008.addr = alloca %struct._ZSo*, align 8

	call void @llvm.dbg.declare (metadata %struct._ZSo** %_T43066440_52391.addr, metadata !4458, metadata !3891), !dbg !4455
	store %struct._ZSo* %_T43066440_52391.arg, %struct._ZSo** %_T43066440_52391.addr, align 8, !tbaa !3899
	call void @llvm.dbg.declare (metadata %struct._ZSo** %_T43066440_52391.addr, metadata !4459, metadata !3891), !dbg !4455
	call void @llvm.dbg.declare (metadata %struct._ZSo* (%struct._ZSo*)** %__pf.addr, metadata !4460, metadata !3891), !dbg !4455
	store %struct._ZSo* (%struct._ZSo*)* %__pf.arg, %struct._ZSo* (%struct._ZSo*)** %__pf.addr, align 8, !tbaa !3899
	call void @llvm.dbg.declare (metadata %struct._ZSo* (%struct._ZSo*)** %__pf.addr, metadata !4461, metadata !3891), !dbg !4455
	%0 = load %struct._ZSo*, %struct._ZSo** %_T43066440_52391.addr, align 8, !tbaa !3899, !dbg !4462
	%1 = load %struct._ZSo* (%struct._ZSo*)*, %struct._ZSo* (%struct._ZSo*)** %__pf.addr, align 8, !tbaa !3899, !dbg !4462
	%2 = call %struct._ZSo*  %1 (%struct._ZSo*  %0), !dbg !4462
	%3 = bitcast %struct._ZSo*  %2 to i8*, !dbg !4462
	%4 = bitcast %struct._ZSo** %.Q0008.addr to i8**, !dbg !4462
	store i8*  %3, i8**  %4, align 8, !tbaa !3899, !dbg !4462
	%5 = load %struct._ZSo*, %struct._ZSo** %.Q0008.addr, align 8, !tbaa !3899, !dbg !4462
	ret %struct._ZSo*  %5, !dbg !4462
}
define linkonce_odr %struct._ZSo* @_ZNSolsEj(%struct._ZSo* %_T43066440_52393.arg, i32 zeroext %__n.arg) #0 inlinehint !dbg !4467 {
L.entry:
	%_T43066440_52393.addr = alloca %struct._ZSo*, align 8
	%__n.addr = alloca i32, align 4
	%.Q0009.addr = alloca %struct._ZSo*, align 8

	call void @llvm.dbg.declare (metadata %struct._ZSo** %_T43066440_52393.addr, metadata !4471, metadata !3891), !dbg !4468
	store %struct._ZSo* %_T43066440_52393.arg, %struct._ZSo** %_T43066440_52393.addr, align 8, !tbaa !3899
	call void @llvm.dbg.declare (metadata %struct._ZSo** %_T43066440_52393.addr, metadata !4472, metadata !3891), !dbg !4468
	call void @llvm.dbg.declare (metadata i32* %__n.addr, metadata !4473, metadata !3891), !dbg !4468
	store i32 %__n.arg, i32* %__n.addr, align 4, !tbaa !4009
	call void @llvm.dbg.declare (metadata i32* %__n.addr, metadata !4474, metadata !3891), !dbg !4468
	%0 = load %struct._ZSo*, %struct._ZSo** %_T43066440_52393.addr, align 8, !tbaa !3899, !dbg !4475
	%1 = load i32, i32* %__n.addr, align 4, !tbaa !4090, !dbg !4475
	%2 = zext i32  %1 to i64, !dbg !4475
	%3 = call %struct._ZSo*  @_ZNSo9_M_insertImEERSoT_ (%struct._ZSo*  %0, i64  %2), !dbg !4475
	%4 = bitcast %struct._ZSo*  %3 to i8*, !dbg !4475
	%5 = bitcast %struct._ZSo** %.Q0009.addr to i8**, !dbg !4475
	store i8*  %4, i8**  %5, align 8, !tbaa !3899, !dbg !4475
	%6 = load %struct._ZSo*, %struct._ZSo** %.Q0009.addr, align 8, !tbaa !3899, !dbg !4475
	ret %struct._ZSo*  %6, !dbg !4475
}
define linkonce_odr void @_ZNSt12_Destroy_auxILb1EE9__destroyIPjEEvT_S3_(i32* %_T43066440_52400.arg, i32* %_T43066736_52400.arg) #0 inlinehint !dbg !4482 {
L.entry:
	%_T43066440_52400.addr = alloca i32*, align 8
	%_T43066736_52400.addr = alloca i32*, align 8

	call void @llvm.dbg.declare (metadata i32** %_T43066440_52400.addr, metadata !4486, metadata !3891), !dbg !4483
	store i32* %_T43066440_52400.arg, i32** %_T43066440_52400.addr, align 8, !tbaa !3899
	call void @llvm.dbg.declare (metadata i32** %_T43066440_52400.addr, metadata !4487, metadata !3891), !dbg !4483
	call void @llvm.dbg.declare (metadata i32** %_T43066736_52400.addr, metadata !4488, metadata !3891), !dbg !4483
	store i32* %_T43066736_52400.arg, i32** %_T43066736_52400.addr, align 8, !tbaa !3899
	call void @llvm.dbg.declare (metadata i32** %_T43066736_52400.addr, metadata !4489, metadata !3891), !dbg !4483
	ret void, !dbg !4490
}
define linkonce_odr void @_ZNSt12_Destroy_auxILb1EE9__destroyIPdEEvT_S3_(double* %_T43066440_52403.arg, double* %_T43066736_52403.arg) #0 inlinehint !dbg !4494 {
L.entry:
	%_T43066440_52403.addr = alloca double*, align 8
	%_T43066736_52403.addr = alloca double*, align 8

	call void @llvm.dbg.declare (metadata double** %_T43066440_52403.addr, metadata !4498, metadata !3891), !dbg !4495
	store double* %_T43066440_52403.arg, double** %_T43066440_52403.addr, align 8, !tbaa !3899
	call void @llvm.dbg.declare (metadata double** %_T43066440_52403.addr, metadata !4499, metadata !3891), !dbg !4495
	call void @llvm.dbg.declare (metadata double** %_T43066736_52403.addr, metadata !4500, metadata !3891), !dbg !4495
	store double* %_T43066736_52403.arg, double** %_T43066736_52403.addr, align 8, !tbaa !3899
	call void @llvm.dbg.declare (metadata double** %_T43066736_52403.addr, metadata !4501, metadata !3891), !dbg !4495
	ret void, !dbg !4502
}

%struct._ZSaIjE = type <{ [1 x i8]}> 

define linkonce_odr void @_ZNSaIjED1Ev(%struct._ZSaIjE* %_T43066440_52404.arg) #0 inlinehint !dbg !4510 {
L.entry:
	%_T43066440_52404.addr = alloca %struct._ZSaIjE*, align 8

	call void @llvm.dbg.declare (metadata %struct._ZSaIjE** %_T43066440_52404.addr, metadata !4514, metadata !3891), !dbg !4511
	store %struct._ZSaIjE* %_T43066440_52404.arg, %struct._ZSaIjE** %_T43066440_52404.addr, align 8, !tbaa !3899
	call void @llvm.dbg.declare (metadata %struct._ZSaIjE** %_T43066440_52404.addr, metadata !4515, metadata !3891), !dbg !4511
	ret void, !dbg !4516
}
define linkonce_odr void @_ZNSaIjED2Ev(%struct._ZSaIjE* %_T43066440_52405.arg) #0 inlinehint !dbg !4518 {
L.entry:
	%_T43066440_52405.addr = alloca %struct._ZSaIjE*, align 8

	store %struct._ZSaIjE* %_T43066440_52405.arg, %struct._ZSaIjE** %_T43066440_52405.addr, align 8, !tbaa !3899
	ret void, !dbg !4526
}
define linkonce_odr void @_ZNSt16allocator_traitsISaIjEE10deallocateERS0_Pjm(%struct._ZSaIjE* %__a.arg, i32* %__p.arg, i64 %__n.arg) #0 inlinehint !dbg !4534 {
L.entry:
	%__a.addr = alloca %struct._ZSaIjE*, align 8
	%__p.addr = alloca i32*, align 8
	%__n.addr = alloca i64, align 8
	%..inline.addr = alloca i32*, align 8

	call void @llvm.dbg.declare (metadata %struct._ZSaIjE** %__a.addr, metadata !4542, metadata !3891), !dbg !4535
	store %struct._ZSaIjE* %__a.arg, %struct._ZSaIjE** %__a.addr, align 8, !tbaa !3899
	call void @llvm.dbg.declare (metadata %struct._ZSaIjE** %__a.addr, metadata !4543, metadata !3891), !dbg !4535
	call void @llvm.dbg.declare (metadata i32** %__p.addr, metadata !4544, metadata !3891), !dbg !4535
	store i32* %__p.arg, i32** %__p.addr, align 8, !tbaa !3899
	call void @llvm.dbg.declare (metadata i32** %__p.addr, metadata !4545, metadata !3891), !dbg !4535
	call void @llvm.dbg.declare (metadata i64* %__n.addr, metadata !4546, metadata !3891), !dbg !4535
	store i64 %__n.arg, i64* %__n.addr, align 8, !tbaa !4009
	call void @llvm.dbg.declare (metadata i64* %__n.addr, metadata !4547, metadata !3891), !dbg !4535
	%0 = load i32*, i32** %__p.addr, align 8, !tbaa !3899, !dbg !4548
	%1 = bitcast i32*  %0 to i8*, !dbg !4548
	%2 = bitcast i32** %..inline.addr to i8**, !dbg !4548
	store i8*  %1, i8**  %2, align 8, !tbaa !3899, !dbg !4548
	%3 = load i32*, i32** %..inline.addr, align 8, !tbaa !3899, !dbg !4549
	%4 = bitcast i32*  %3 to i8*, !dbg !4549
	call void  @_ZdlPv (i8*  %4) nounwind, !dbg !4549
	ret void, !dbg !4548
}

%struct._ZSt12_Vector_baseIjSaIjEE = type <{ %struct._ZNSt12_Vector_baseIjSaIjEE12_Vector_implE}> 
%struct._ZNSt12_Vector_baseIjSaIjEE12_Vector_implE = type <{ %struct._ZNSt12_Vector_baseIjSaIjEE17_Vector_impl_dataE}> 
%struct._ZNSt12_Vector_baseIjSaIjEE17_Vector_impl_dataE = type <{ i32*, i32*, i32*}> 

define linkonce_odr %struct._ZSaIjE* @_ZNSt12_Vector_baseIjSaIjEE19_M_get_Tp_allocatorEv(%struct._ZSt12_Vector_baseIjSaIjEE* %_T43066440_52411.arg) #0 inlinehint !dbg !4557 {
L.entry:
	%_T43066440_52411.addr = alloca %struct._ZSt12_Vector_baseIjSaIjEE*, align 8

	call void @llvm.dbg.declare (metadata %struct._ZSt12_Vector_baseIjSaIjEE** %_T43066440_52411.addr, metadata !4561, metadata !3891), !dbg !4558
	store %struct._ZSt12_Vector_baseIjSaIjEE* %_T43066440_52411.arg, %struct._ZSt12_Vector_baseIjSaIjEE** %_T43066440_52411.addr, align 8, !tbaa !3899
	call void @llvm.dbg.declare (metadata %struct._ZSt12_Vector_baseIjSaIjEE** %_T43066440_52411.addr, metadata !4562, metadata !3891), !dbg !4558
	%0 = load %struct._ZSt12_Vector_baseIjSaIjEE*, %struct._ZSt12_Vector_baseIjSaIjEE** %_T43066440_52411.addr, align 8, !tbaa !3899, !dbg !4563
	%1 = bitcast %struct._ZSt12_Vector_baseIjSaIjEE*  %0 to %struct._ZSaIjE*, !dbg !4563
	ret %struct._ZSaIjE*  %1, !dbg !4563
}
define linkonce_odr void @_ZNSt12_Vector_baseIjSaIjEED1Ev(%struct._ZSt12_Vector_baseIjSaIjEE* %_T43066440_52412.arg) #0 inlinehint !dbg !4567 {
L.entry:
	%_T43066440_52412.addr = alloca %struct._ZSt12_Vector_baseIjSaIjEE*, align 8
	%..inline.addr = alloca i32*, align 8

	call void @llvm.dbg.declare (metadata %struct._ZSt12_Vector_baseIjSaIjEE** %_T43066440_52412.addr, metadata !4595, metadata !3891), !dbg !4568
	store %struct._ZSt12_Vector_baseIjSaIjEE* %_T43066440_52412.arg, %struct._ZSt12_Vector_baseIjSaIjEE** %_T43066440_52412.addr, align 8, !tbaa !3899
	call void @llvm.dbg.declare (metadata %struct._ZSt12_Vector_baseIjSaIjEE** %_T43066440_52412.addr, metadata !4596, metadata !3891), !dbg !4568
	%0 = load %struct._ZSt12_Vector_baseIjSaIjEE*, %struct._ZSt12_Vector_baseIjSaIjEE** %_T43066440_52412.addr, align 8, !tbaa !3899, !dbg !4597
	%1 = bitcast %struct._ZSt12_Vector_baseIjSaIjEE*  %0 to i8**, !dbg !4597
	%2 = load i8*, i8**  %1, align 8, !tbaa !3899, !dbg !4597
	%3 = icmp eq i8*  %2,  null, !dbg !4597
	br i1  %3, label %L..inline.66391, label %L.B0986, !dbg !4597
L.B0986:
	%4 = bitcast %struct._ZSt12_Vector_baseIjSaIjEE*  %0 to i8**, !dbg !4598
	%5 = load i8*, i8**  %4, align 8, !tbaa !3899, !dbg !4598
	%6 = bitcast i32** %..inline.addr to i8**, !dbg !4598
	store i8*  %5, i8**  %6, align 8, !tbaa !3899, !dbg !4598
	%7 = load i32*, i32** %..inline.addr, align 8, !tbaa !3899, !dbg !4598
	%8 = bitcast i32*  %7 to i8*, !dbg !4598
	call void  @_ZdlPv (i8*  %8) nounwind, !dbg !4598
	br label %L..inline.66391
L..inline.66391:
	ret void, !dbg !4599
}
define linkonce_odr void @_ZNSt12_Vector_baseIjSaIjEED2Ev(%struct._ZSt12_Vector_baseIjSaIjEE* %_T43066440_52413.arg) #0 inlinehint !dbg !4601 {
L.entry:
	%_T43066440_52413.addr = alloca %struct._ZSt12_Vector_baseIjSaIjEE*, align 8
	%..inline.addr = alloca %struct._ZSt12_Vector_baseIjSaIjEE*, align 8
	%..inline.addr.1 = alloca i32*, align 8

	store %struct._ZSt12_Vector_baseIjSaIjEE* %_T43066440_52413.arg, %struct._ZSt12_Vector_baseIjSaIjEE** %_T43066440_52413.addr, align 8, !tbaa !3899
	%0 = load %struct._ZSt12_Vector_baseIjSaIjEE*, %struct._ZSt12_Vector_baseIjSaIjEE** %_T43066440_52413.addr, align 8, !tbaa !3899, !dbg !4633
	%1 = bitcast %struct._ZSt12_Vector_baseIjSaIjEE*  %0 to i8*, !dbg !4633
	%2 = bitcast %struct._ZSt12_Vector_baseIjSaIjEE** %..inline.addr to i8**, !dbg !4633
	store i8*  %1, i8**  %2, align 8, !tbaa !3899, !dbg !4633
	%3 = load %struct._ZSt12_Vector_baseIjSaIjEE*, %struct._ZSt12_Vector_baseIjSaIjEE** %..inline.addr, align 8, !tbaa !3899, !dbg !4633
	%4 = bitcast %struct._ZSt12_Vector_baseIjSaIjEE*  %3 to i8**, !dbg !4633
	%5 = load i8*, i8**  %4, align 8, !tbaa !3899, !dbg !4633
	%6 = icmp eq i8*  %5,  null, !dbg !4633
	br i1  %6, label %L..inline.66451, label %L.B0989, !dbg !4633
L.B0989:
	%7 = bitcast %struct._ZSt12_Vector_baseIjSaIjEE*  %3 to i8**, !dbg !4633
	%8 = load i8*, i8**  %7, align 8, !tbaa !3899, !dbg !4633
	%9 = bitcast i32** %..inline.addr.1 to i8**, !dbg !4633
	store i8*  %8, i8**  %9, align 8, !tbaa !3899, !dbg !4633
	%10 = load i32*, i32** %..inline.addr.1, align 8, !tbaa !3899, !dbg !4633
	%11 = bitcast i32*  %10 to i8*, !dbg !4633
	call void  @_ZdlPv (i8*  %11) nounwind, !dbg !4633
	br label %L..inline.66451
L..inline.66451:
	ret void, !dbg !4634
}
define linkonce_odr void @_ZNSt12_Vector_baseIjSaIjEE13_M_deallocateEPjm(%struct._ZSt12_Vector_baseIjSaIjEE* %_T43066440_52416.arg, i32* %__p.arg, i64 %__n.arg) #0 inlinehint !dbg !4638 {
L.entry:
	%_T43066440_52416.addr = alloca %struct._ZSt12_Vector_baseIjSaIjEE*, align 8
	%__p.addr = alloca i32*, align 8
	%__n.addr = alloca i64, align 8
	%..inline.addr = alloca i32*, align 8

	call void @llvm.dbg.declare (metadata %struct._ZSt12_Vector_baseIjSaIjEE** %_T43066440_52416.addr, metadata !4650, metadata !3891), !dbg !4639
	store %struct._ZSt12_Vector_baseIjSaIjEE* %_T43066440_52416.arg, %struct._ZSt12_Vector_baseIjSaIjEE** %_T43066440_52416.addr, align 8, !tbaa !3899
	call void @llvm.dbg.declare (metadata %struct._ZSt12_Vector_baseIjSaIjEE** %_T43066440_52416.addr, metadata !4651, metadata !3891), !dbg !4639
	call void @llvm.dbg.declare (metadata i32** %__p.addr, metadata !4652, metadata !3891), !dbg !4639
	store i32* %__p.arg, i32** %__p.addr, align 8, !tbaa !3899
	call void @llvm.dbg.declare (metadata i32** %__p.addr, metadata !4653, metadata !3891), !dbg !4639
	call void @llvm.dbg.declare (metadata i64* %__n.addr, metadata !4654, metadata !3891), !dbg !4639
	store i64 %__n.arg, i64* %__n.addr, align 8, !tbaa !4009
	call void @llvm.dbg.declare (metadata i64* %__n.addr, metadata !4655, metadata !3891), !dbg !4639
	%0 = load i32*, i32** %__p.addr, align 8, !tbaa !3899, !dbg !4656
	%1 = bitcast i32*  %0 to i8*, !dbg !4656
	%2 = icmp eq i8*  %1,  null, !dbg !4656
	br i1  %2, label %L.B0006, label %L.B0992, !dbg !4656
L.B0992:
	%3 = bitcast i32*  %0 to i8*, !dbg !4657
	%4 = bitcast i32** %..inline.addr to i8**, !dbg !4657
	store i8*  %3, i8**  %4, align 8, !tbaa !3899, !dbg !4657
	%5 = load i32*, i32** %..inline.addr, align 8, !tbaa !3899, !dbg !4657
	%6 = bitcast i32*  %5 to i8*, !dbg !4657
	call void  @_ZdlPv (i8*  %6) nounwind, !dbg !4657
	br label %L.B0006
L.B0006:
	ret void, !dbg !4658
}
define linkonce_odr void @_ZNSt12_Vector_baseIjSaIjEE12_Vector_implD1Ev(%struct._ZNSt12_Vector_baseIjSaIjEE12_Vector_implE* %_T43066440_52417.arg) #0 inlinehint !dbg !4663 {
L.entry:
	%_T43066440_52417.addr = alloca %struct._ZNSt12_Vector_baseIjSaIjEE12_Vector_implE*, align 8

	call void @llvm.dbg.declare (metadata %struct._ZNSt12_Vector_baseIjSaIjEE12_Vector_implE** %_T43066440_52417.addr, metadata !4675, metadata !3891), !dbg !4664
	store %struct._ZNSt12_Vector_baseIjSaIjEE12_Vector_implE* %_T43066440_52417.arg, %struct._ZNSt12_Vector_baseIjSaIjEE12_Vector_implE** %_T43066440_52417.addr, align 8, !tbaa !3899
	call void @llvm.dbg.declare (metadata %struct._ZNSt12_Vector_baseIjSaIjEE12_Vector_implE** %_T43066440_52417.addr, metadata !4676, metadata !3891), !dbg !4664
	ret void, !dbg !4677
}
define linkonce_odr void @_ZNSt12_Vector_baseIjSaIjEE12_Vector_implD2Ev(%struct._ZNSt12_Vector_baseIjSaIjEE12_Vector_implE* %_T43066440_52418.arg) #0 inlinehint !dbg !4679 {
L.entry:
	%_T43066440_52418.addr = alloca %struct._ZNSt12_Vector_baseIjSaIjEE12_Vector_implE*, align 8

	store %struct._ZNSt12_Vector_baseIjSaIjEE12_Vector_implE* %_T43066440_52418.arg, %struct._ZNSt12_Vector_baseIjSaIjEE12_Vector_implE** %_T43066440_52418.addr, align 8, !tbaa !3899
	ret void, !dbg !4695
}

%struct._ZSt6vectorIjSaIjEE = type <{ %struct._ZSt12_Vector_baseIjSaIjEE}> 

define linkonce_odr void @_ZNSt6vectorIjSaIjEED1Ev(%struct._ZSt6vectorIjSaIjEE* %_T43066440_52419.arg) #0 inlinehint !dbg !4699 {
L.entry:
	%_T43066440_52419.addr = alloca %struct._ZSt6vectorIjSaIjEE*, align 8
	%..inline.addr = alloca %struct._ZSt12_Vector_baseIjSaIjEE*, align 8
	%..inline.addr.1 = alloca i32*, align 8

	call void @llvm.dbg.declare (metadata %struct._ZSt6vectorIjSaIjEE** %_T43066440_52419.addr, metadata !4751, metadata !3891), !dbg !4700
	store %struct._ZSt6vectorIjSaIjEE* %_T43066440_52419.arg, %struct._ZSt6vectorIjSaIjEE** %_T43066440_52419.addr, align 8, !tbaa !3899
	call void @llvm.dbg.declare (metadata %struct._ZSt6vectorIjSaIjEE** %_T43066440_52419.addr, metadata !4752, metadata !3891), !dbg !4700
	%0 = load %struct._ZSt6vectorIjSaIjEE*, %struct._ZSt6vectorIjSaIjEE** %_T43066440_52419.addr, align 8, !tbaa !3899, !dbg !4753
	%1 = bitcast %struct._ZSt6vectorIjSaIjEE*  %0 to i8*, !dbg !4753
	%2 = bitcast %struct._ZSt12_Vector_baseIjSaIjEE** %..inline.addr to i8**, !dbg !4753
	store i8*  %1, i8**  %2, align 8, !tbaa !3899, !dbg !4753
	%3 = load %struct._ZSt12_Vector_baseIjSaIjEE*, %struct._ZSt12_Vector_baseIjSaIjEE** %..inline.addr, align 8, !tbaa !3899, !dbg !4754
	%4 = bitcast %struct._ZSt12_Vector_baseIjSaIjEE*  %3 to i8**, !dbg !4754
	%5 = load i8*, i8**  %4, align 8, !tbaa !3899, !dbg !4754
	%6 = icmp eq i8*  %5,  null, !dbg !4754
	br i1  %6, label %L..inline.66602, label %L.B1003, !dbg !4754
L.B1003:
	%7 = bitcast %struct._ZSt12_Vector_baseIjSaIjEE*  %3 to i8**, !dbg !4754
	%8 = load i8*, i8**  %7, align 8, !tbaa !3899, !dbg !4754
	%9 = bitcast i32** %..inline.addr.1 to i8**, !dbg !4754
	store i8*  %8, i8**  %9, align 8, !tbaa !3899, !dbg !4754
	%10 = load i32*, i32** %..inline.addr.1, align 8, !tbaa !3899, !dbg !4754
	%11 = bitcast i32*  %10 to i8*, !dbg !4754
	call void  @_ZdlPv (i8*  %11) nounwind, !dbg !4754
	br label %L..inline.66602
L..inline.66602:
	ret void, !dbg !4753
}
define linkonce_odr void @_ZNSt6vectorIjSaIjEED2Ev(%struct._ZSt6vectorIjSaIjEE* %_T43066440_52420.arg) #0 inlinehint !dbg !4756 {
L.entry:
	%_T43066440_52420.addr = alloca %struct._ZSt6vectorIjSaIjEE*, align 8
	%..inline.addr = alloca %struct._ZSt12_Vector_baseIjSaIjEE*, align 8
	%..inline.addr.1 = alloca i32*, align 8

	store %struct._ZSt6vectorIjSaIjEE* %_T43066440_52420.arg, %struct._ZSt6vectorIjSaIjEE** %_T43066440_52420.addr, align 8, !tbaa !3899
	%0 = load %struct._ZSt6vectorIjSaIjEE*, %struct._ZSt6vectorIjSaIjEE** %_T43066440_52420.addr, align 8, !tbaa !3899, !dbg !4812
	%1 = bitcast %struct._ZSt6vectorIjSaIjEE*  %0 to i8*, !dbg !4812
	%2 = bitcast %struct._ZSt12_Vector_baseIjSaIjEE** %..inline.addr to i8**, !dbg !4812
	store i8*  %1, i8**  %2, align 8, !tbaa !3899, !dbg !4812
	%3 = load %struct._ZSt12_Vector_baseIjSaIjEE*, %struct._ZSt12_Vector_baseIjSaIjEE** %..inline.addr, align 8, !tbaa !3899, !dbg !4812
	%4 = bitcast %struct._ZSt12_Vector_baseIjSaIjEE*  %3 to i8**, !dbg !4812
	%5 = load i8*, i8**  %4, align 8, !tbaa !3899, !dbg !4812
	%6 = icmp eq i8*  %5,  null, !dbg !4812
	br i1  %6, label %L..inline.66706, label %L.B1006, !dbg !4812
L.B1006:
	%7 = bitcast %struct._ZSt12_Vector_baseIjSaIjEE*  %3 to i8**, !dbg !4812
	%8 = load i8*, i8**  %7, align 8, !tbaa !3899, !dbg !4812
	%9 = bitcast i32** %..inline.addr.1 to i8**, !dbg !4812
	store i8*  %8, i8**  %9, align 8, !tbaa !3899, !dbg !4812
	%10 = load i32*, i32** %..inline.addr.1, align 8, !tbaa !3899, !dbg !4812
	%11 = bitcast i32*  %10 to i8*, !dbg !4812
	call void  @_ZdlPv (i8*  %11) nounwind, !dbg !4812
	br label %L..inline.66706
L..inline.66706:
	ret void, !dbg !4812
}

%struct._ZSaIdE = type <{ [1 x i8]}> 

define linkonce_odr void @_ZNSaIdED1Ev(%struct._ZSaIdE* %_T43066440_52421.arg) #0 inlinehint !dbg !4820 {
L.entry:
	%_T43066440_52421.addr = alloca %struct._ZSaIdE*, align 8

	call void @llvm.dbg.declare (metadata %struct._ZSaIdE** %_T43066440_52421.addr, metadata !4824, metadata !3891), !dbg !4821
	store %struct._ZSaIdE* %_T43066440_52421.arg, %struct._ZSaIdE** %_T43066440_52421.addr, align 8, !tbaa !3899
	call void @llvm.dbg.declare (metadata %struct._ZSaIdE** %_T43066440_52421.addr, metadata !4825, metadata !3891), !dbg !4821
	ret void, !dbg !4826
}
define linkonce_odr void @_ZNSaIdED2Ev(%struct._ZSaIdE* %_T43066440_52422.arg) #0 inlinehint !dbg !4828 {
L.entry:
	%_T43066440_52422.addr = alloca %struct._ZSaIdE*, align 8

	store %struct._ZSaIdE* %_T43066440_52422.arg, %struct._ZSaIdE** %_T43066440_52422.addr, align 8, !tbaa !3899
	ret void, !dbg !4836
}
define linkonce_odr void @_ZNSt16allocator_traitsISaIdEE10deallocateERS0_Pdm(%struct._ZSaIdE* %__a.arg, double* %__p.arg, i64 %__n.arg) #0 inlinehint !dbg !4844 {
L.entry:
	%__a.addr = alloca %struct._ZSaIdE*, align 8
	%__p.addr = alloca double*, align 8
	%__n.addr = alloca i64, align 8
	%..inline.addr = alloca double*, align 8

	call void @llvm.dbg.declare (metadata %struct._ZSaIdE** %__a.addr, metadata !4852, metadata !3891), !dbg !4845
	store %struct._ZSaIdE* %__a.arg, %struct._ZSaIdE** %__a.addr, align 8, !tbaa !3899
	call void @llvm.dbg.declare (metadata %struct._ZSaIdE** %__a.addr, metadata !4853, metadata !3891), !dbg !4845
	call void @llvm.dbg.declare (metadata double** %__p.addr, metadata !4854, metadata !3891), !dbg !4845
	store double* %__p.arg, double** %__p.addr, align 8, !tbaa !3899
	call void @llvm.dbg.declare (metadata double** %__p.addr, metadata !4855, metadata !3891), !dbg !4845
	call void @llvm.dbg.declare (metadata i64* %__n.addr, metadata !4856, metadata !3891), !dbg !4845
	store i64 %__n.arg, i64* %__n.addr, align 8, !tbaa !4009
	call void @llvm.dbg.declare (metadata i64* %__n.addr, metadata !4857, metadata !3891), !dbg !4845
	%0 = load double*, double** %__p.addr, align 8, !tbaa !3899, !dbg !4858
	%1 = bitcast double*  %0 to i8*, !dbg !4858
	%2 = bitcast double** %..inline.addr to i8**, !dbg !4858
	store i8*  %1, i8**  %2, align 8, !tbaa !3899, !dbg !4858
	%3 = load double*, double** %..inline.addr, align 8, !tbaa !3899, !dbg !4859
	%4 = bitcast double*  %3 to i8*, !dbg !4859
	call void  @_ZdlPv (i8*  %4) nounwind, !dbg !4859
	ret void, !dbg !4858
}

%struct._ZSt12_Vector_baseIdSaIdEE = type <{ %struct._ZNSt12_Vector_baseIdSaIdEE12_Vector_implE}> 
%struct._ZNSt12_Vector_baseIdSaIdEE17_Vector_impl_dataE = type <{ double*, double*, double*}> 
%struct._ZNSt12_Vector_baseIdSaIdEE12_Vector_implE = type <{ %struct._ZNSt12_Vector_baseIdSaIdEE17_Vector_impl_dataE}> 

define linkonce_odr %struct._ZSaIdE* @_ZNSt12_Vector_baseIdSaIdEE19_M_get_Tp_allocatorEv(%struct._ZSt12_Vector_baseIdSaIdEE* %_T43066440_52428.arg) #0 inlinehint !dbg !4865 {
L.entry:
	%_T43066440_52428.addr = alloca %struct._ZSt12_Vector_baseIdSaIdEE*, align 8

	call void @llvm.dbg.declare (metadata %struct._ZSt12_Vector_baseIdSaIdEE** %_T43066440_52428.addr, metadata !4869, metadata !3891), !dbg !4866
	store %struct._ZSt12_Vector_baseIdSaIdEE* %_T43066440_52428.arg, %struct._ZSt12_Vector_baseIdSaIdEE** %_T43066440_52428.addr, align 8, !tbaa !3899
	call void @llvm.dbg.declare (metadata %struct._ZSt12_Vector_baseIdSaIdEE** %_T43066440_52428.addr, metadata !4870, metadata !3891), !dbg !4866
	%0 = load %struct._ZSt12_Vector_baseIdSaIdEE*, %struct._ZSt12_Vector_baseIdSaIdEE** %_T43066440_52428.addr, align 8, !tbaa !3899, !dbg !4871
	%1 = bitcast %struct._ZSt12_Vector_baseIdSaIdEE*  %0 to %struct._ZSaIdE*, !dbg !4871
	ret %struct._ZSaIdE*  %1, !dbg !4871
}
define linkonce_odr void @_ZNSt12_Vector_baseIdSaIdEED1Ev(%struct._ZSt12_Vector_baseIdSaIdEE* %_T43066440_52429.arg) #0 inlinehint !dbg !4875 {
L.entry:
	%_T43066440_52429.addr = alloca %struct._ZSt12_Vector_baseIdSaIdEE*, align 8
	%..inline.addr = alloca double*, align 8

	call void @llvm.dbg.declare (metadata %struct._ZSt12_Vector_baseIdSaIdEE** %_T43066440_52429.addr, metadata !4903, metadata !3891), !dbg !4876
	store %struct._ZSt12_Vector_baseIdSaIdEE* %_T43066440_52429.arg, %struct._ZSt12_Vector_baseIdSaIdEE** %_T43066440_52429.addr, align 8, !tbaa !3899
	call void @llvm.dbg.declare (metadata %struct._ZSt12_Vector_baseIdSaIdEE** %_T43066440_52429.addr, metadata !4904, metadata !3891), !dbg !4876
	%0 = load %struct._ZSt12_Vector_baseIdSaIdEE*, %struct._ZSt12_Vector_baseIdSaIdEE** %_T43066440_52429.addr, align 8, !tbaa !3899, !dbg !4905
	%1 = bitcast %struct._ZSt12_Vector_baseIdSaIdEE*  %0 to i8**, !dbg !4905
	%2 = load i8*, i8**  %1, align 8, !tbaa !3899, !dbg !4905
	%3 = icmp eq i8*  %2,  null, !dbg !4905
	br i1  %3, label %L..inline.66802, label %L.B1015, !dbg !4905
L.B1015:
	%4 = bitcast %struct._ZSt12_Vector_baseIdSaIdEE*  %0 to i8**, !dbg !4906
	%5 = load i8*, i8**  %4, align 8, !tbaa !3899, !dbg !4906
	%6 = bitcast double** %..inline.addr to i8**, !dbg !4906
	store i8*  %5, i8**  %6, align 8, !tbaa !3899, !dbg !4906
	%7 = load double*, double** %..inline.addr, align 8, !tbaa !3899, !dbg !4906
	%8 = bitcast double*  %7 to i8*, !dbg !4906
	call void  @_ZdlPv (i8*  %8) nounwind, !dbg !4906
	br label %L..inline.66802
L..inline.66802:
	ret void, !dbg !4907
}
define linkonce_odr void @_ZNSt12_Vector_baseIdSaIdEED2Ev(%struct._ZSt12_Vector_baseIdSaIdEE* %_T43066440_52430.arg) #0 inlinehint !dbg !4909 {
L.entry:
	%_T43066440_52430.addr = alloca %struct._ZSt12_Vector_baseIdSaIdEE*, align 8
	%..inline.addr = alloca %struct._ZSt12_Vector_baseIdSaIdEE*, align 8
	%..inline.addr.1 = alloca double*, align 8

	store %struct._ZSt12_Vector_baseIdSaIdEE* %_T43066440_52430.arg, %struct._ZSt12_Vector_baseIdSaIdEE** %_T43066440_52430.addr, align 8, !tbaa !3899
	%0 = load %struct._ZSt12_Vector_baseIdSaIdEE*, %struct._ZSt12_Vector_baseIdSaIdEE** %_T43066440_52430.addr, align 8, !tbaa !3899, !dbg !4941
	%1 = bitcast %struct._ZSt12_Vector_baseIdSaIdEE*  %0 to i8*, !dbg !4941
	%2 = bitcast %struct._ZSt12_Vector_baseIdSaIdEE** %..inline.addr to i8**, !dbg !4941
	store i8*  %1, i8**  %2, align 8, !tbaa !3899, !dbg !4941
	%3 = load %struct._ZSt12_Vector_baseIdSaIdEE*, %struct._ZSt12_Vector_baseIdSaIdEE** %..inline.addr, align 8, !tbaa !3899, !dbg !4941
	%4 = bitcast %struct._ZSt12_Vector_baseIdSaIdEE*  %3 to i8**, !dbg !4941
	%5 = load i8*, i8**  %4, align 8, !tbaa !3899, !dbg !4941
	%6 = icmp eq i8*  %5,  null, !dbg !4941
	br i1  %6, label %L..inline.66863, label %L.B1018, !dbg !4941
L.B1018:
	%7 = bitcast %struct._ZSt12_Vector_baseIdSaIdEE*  %3 to i8**, !dbg !4941
	%8 = load i8*, i8**  %7, align 8, !tbaa !3899, !dbg !4941
	%9 = bitcast double** %..inline.addr.1 to i8**, !dbg !4941
	store i8*  %8, i8**  %9, align 8, !tbaa !3899, !dbg !4941
	%10 = load double*, double** %..inline.addr.1, align 8, !tbaa !3899, !dbg !4941
	%11 = bitcast double*  %10 to i8*, !dbg !4941
	call void  @_ZdlPv (i8*  %11) nounwind, !dbg !4941
	br label %L..inline.66863
L..inline.66863:
	ret void, !dbg !4942
}
define linkonce_odr void @_ZNSt12_Vector_baseIdSaIdEE13_M_deallocateEPdm(%struct._ZSt12_Vector_baseIdSaIdEE* %_T43066440_52433.arg, double* %__p.arg, i64 %__n.arg) #0 inlinehint !dbg !4946 {
L.entry:
	%_T43066440_52433.addr = alloca %struct._ZSt12_Vector_baseIdSaIdEE*, align 8
	%__p.addr = alloca double*, align 8
	%__n.addr = alloca i64, align 8
	%..inline.addr = alloca double*, align 8

	call void @llvm.dbg.declare (metadata %struct._ZSt12_Vector_baseIdSaIdEE** %_T43066440_52433.addr, metadata !4958, metadata !3891), !dbg !4947
	store %struct._ZSt12_Vector_baseIdSaIdEE* %_T43066440_52433.arg, %struct._ZSt12_Vector_baseIdSaIdEE** %_T43066440_52433.addr, align 8, !tbaa !3899
	call void @llvm.dbg.declare (metadata %struct._ZSt12_Vector_baseIdSaIdEE** %_T43066440_52433.addr, metadata !4959, metadata !3891), !dbg !4947
	call void @llvm.dbg.declare (metadata double** %__p.addr, metadata !4960, metadata !3891), !dbg !4947
	store double* %__p.arg, double** %__p.addr, align 8, !tbaa !3899
	call void @llvm.dbg.declare (metadata double** %__p.addr, metadata !4961, metadata !3891), !dbg !4947
	call void @llvm.dbg.declare (metadata i64* %__n.addr, metadata !4962, metadata !3891), !dbg !4947
	store i64 %__n.arg, i64* %__n.addr, align 8, !tbaa !4009
	call void @llvm.dbg.declare (metadata i64* %__n.addr, metadata !4963, metadata !3891), !dbg !4947
	%0 = load double*, double** %__p.addr, align 8, !tbaa !3899, !dbg !4964
	%1 = bitcast double*  %0 to i8*, !dbg !4964
	%2 = icmp eq i8*  %1,  null, !dbg !4964
	br i1  %2, label %L.B0007, label %L.B1021, !dbg !4964
L.B1021:
	%3 = bitcast double*  %0 to i8*, !dbg !4965
	%4 = bitcast double** %..inline.addr to i8**, !dbg !4965
	store i8*  %3, i8**  %4, align 8, !tbaa !3899, !dbg !4965
	%5 = load double*, double** %..inline.addr, align 8, !tbaa !3899, !dbg !4965
	%6 = bitcast double*  %5 to i8*, !dbg !4965
	call void  @_ZdlPv (i8*  %6) nounwind, !dbg !4965
	br label %L.B0007
L.B0007:
	ret void, !dbg !4966
}
define linkonce_odr void @_ZNSt12_Vector_baseIdSaIdEE12_Vector_implD1Ev(%struct._ZNSt12_Vector_baseIdSaIdEE12_Vector_implE* %_T43066440_52434.arg) #0 inlinehint !dbg !4971 {
L.entry:
	%_T43066440_52434.addr = alloca %struct._ZNSt12_Vector_baseIdSaIdEE12_Vector_implE*, align 8

	call void @llvm.dbg.declare (metadata %struct._ZNSt12_Vector_baseIdSaIdEE12_Vector_implE** %_T43066440_52434.addr, metadata !4983, metadata !3891), !dbg !4972
	store %struct._ZNSt12_Vector_baseIdSaIdEE12_Vector_implE* %_T43066440_52434.arg, %struct._ZNSt12_Vector_baseIdSaIdEE12_Vector_implE** %_T43066440_52434.addr, align 8, !tbaa !3899
	call void @llvm.dbg.declare (metadata %struct._ZNSt12_Vector_baseIdSaIdEE12_Vector_implE** %_T43066440_52434.addr, metadata !4984, metadata !3891), !dbg !4972
	ret void, !dbg !4985
}
define linkonce_odr void @_ZNSt12_Vector_baseIdSaIdEE12_Vector_implD2Ev(%struct._ZNSt12_Vector_baseIdSaIdEE12_Vector_implE* %_T43066440_52435.arg) #0 inlinehint !dbg !4987 {
L.entry:
	%_T43066440_52435.addr = alloca %struct._ZNSt12_Vector_baseIdSaIdEE12_Vector_implE*, align 8

	store %struct._ZNSt12_Vector_baseIdSaIdEE12_Vector_implE* %_T43066440_52435.arg, %struct._ZNSt12_Vector_baseIdSaIdEE12_Vector_implE** %_T43066440_52435.addr, align 8, !tbaa !3899
	ret void, !dbg !5003
}

%struct._ZSt6vectorIdSaIdEE = type <{ %struct._ZSt12_Vector_baseIdSaIdEE}> 

define linkonce_odr void @_ZNSt6vectorIdSaIdEED1Ev(%struct._ZSt6vectorIdSaIdEE* %_T43066440_52436.arg) #0 inlinehint !dbg !5008 {
L.entry:
	%_T43066440_52436.addr = alloca %struct._ZSt6vectorIdSaIdEE*, align 8
	%..inline.addr = alloca %struct._ZSt12_Vector_baseIdSaIdEE*, align 8
	%..inline.addr.1 = alloca double*, align 8

	call void @llvm.dbg.declare (metadata %struct._ZSt6vectorIdSaIdEE** %_T43066440_52436.addr, metadata !5060, metadata !3891), !dbg !5009
	store %struct._ZSt6vectorIdSaIdEE* %_T43066440_52436.arg, %struct._ZSt6vectorIdSaIdEE** %_T43066440_52436.addr, align 8, !tbaa !3899
	call void @llvm.dbg.declare (metadata %struct._ZSt6vectorIdSaIdEE** %_T43066440_52436.addr, metadata !5061, metadata !3891), !dbg !5009
	%0 = load %struct._ZSt6vectorIdSaIdEE*, %struct._ZSt6vectorIdSaIdEE** %_T43066440_52436.addr, align 8, !tbaa !3899, !dbg !5062
	%1 = bitcast %struct._ZSt6vectorIdSaIdEE*  %0 to i8*, !dbg !5062
	%2 = bitcast %struct._ZSt12_Vector_baseIdSaIdEE** %..inline.addr to i8**, !dbg !5062
	store i8*  %1, i8**  %2, align 8, !tbaa !3899, !dbg !5062
	%3 = load %struct._ZSt12_Vector_baseIdSaIdEE*, %struct._ZSt12_Vector_baseIdSaIdEE** %..inline.addr, align 8, !tbaa !3899, !dbg !5063
	%4 = bitcast %struct._ZSt12_Vector_baseIdSaIdEE*  %3 to i8**, !dbg !5063
	%5 = load i8*, i8**  %4, align 8, !tbaa !3899, !dbg !5063
	%6 = icmp eq i8*  %5,  null, !dbg !5063
	br i1  %6, label %L..inline.67014, label %L.B1032, !dbg !5063
L.B1032:
	%7 = bitcast %struct._ZSt12_Vector_baseIdSaIdEE*  %3 to i8**, !dbg !5063
	%8 = load i8*, i8**  %7, align 8, !tbaa !3899, !dbg !5063
	%9 = bitcast double** %..inline.addr.1 to i8**, !dbg !5063
	store i8*  %8, i8**  %9, align 8, !tbaa !3899, !dbg !5063
	%10 = load double*, double** %..inline.addr.1, align 8, !tbaa !3899, !dbg !5063
	%11 = bitcast double*  %10 to i8*, !dbg !5063
	call void  @_ZdlPv (i8*  %11) nounwind, !dbg !5063
	br label %L..inline.67014
L..inline.67014:
	ret void, !dbg !5062
}
define linkonce_odr void @_ZNSt6vectorIdSaIdEED2Ev(%struct._ZSt6vectorIdSaIdEE* %_T43066440_52437.arg) #0 inlinehint !dbg !5065 {
L.entry:
	%_T43066440_52437.addr = alloca %struct._ZSt6vectorIdSaIdEE*, align 8
	%..inline.addr = alloca %struct._ZSt12_Vector_baseIdSaIdEE*, align 8
	%..inline.addr.1 = alloca double*, align 8

	store %struct._ZSt6vectorIdSaIdEE* %_T43066440_52437.arg, %struct._ZSt6vectorIdSaIdEE** %_T43066440_52437.addr, align 8, !tbaa !3899
	%0 = load %struct._ZSt6vectorIdSaIdEE*, %struct._ZSt6vectorIdSaIdEE** %_T43066440_52437.addr, align 8, !tbaa !3899, !dbg !5121
	%1 = bitcast %struct._ZSt6vectorIdSaIdEE*  %0 to i8*, !dbg !5121
	%2 = bitcast %struct._ZSt12_Vector_baseIdSaIdEE** %..inline.addr to i8**, !dbg !5121
	store i8*  %1, i8**  %2, align 8, !tbaa !3899, !dbg !5121
	%3 = load %struct._ZSt12_Vector_baseIdSaIdEE*, %struct._ZSt12_Vector_baseIdSaIdEE** %..inline.addr, align 8, !tbaa !3899, !dbg !5121
	%4 = bitcast %struct._ZSt12_Vector_baseIdSaIdEE*  %3 to i8**, !dbg !5121
	%5 = load i8*, i8**  %4, align 8, !tbaa !3899, !dbg !5121
	%6 = icmp eq i8*  %5,  null, !dbg !5121
	br i1  %6, label %L..inline.67118, label %L.B1035, !dbg !5121
L.B1035:
	%7 = bitcast %struct._ZSt12_Vector_baseIdSaIdEE*  %3 to i8**, !dbg !5121
	%8 = load i8*, i8**  %7, align 8, !tbaa !3899, !dbg !5121
	%9 = bitcast double** %..inline.addr.1 to i8**, !dbg !5121
	store i8*  %8, i8**  %9, align 8, !tbaa !3899, !dbg !5121
	%10 = load double*, double** %..inline.addr.1, align 8, !tbaa !3899, !dbg !5121
	%11 = bitcast double*  %10 to i8*, !dbg !5121
	call void  @_ZdlPv (i8*  %11) nounwind, !dbg !5121
	br label %L..inline.67118
L..inline.67118:
	ret void, !dbg !5121
}

%struct._ZSaIN5vmesh14MeshParametersEE = type <{ [1 x i8]}> 

define linkonce_odr void @_ZNSaIN5vmesh14MeshParametersEED1Ev(%struct._ZSaIN5vmesh14MeshParametersEE* %_T43066440_52438.arg) #0 inlinehint !dbg !5126 {
L.entry:
	%_T43066440_52438.addr = alloca %struct._ZSaIN5vmesh14MeshParametersEE*, align 8

	call void @llvm.dbg.declare (metadata %struct._ZSaIN5vmesh14MeshParametersEE** %_T43066440_52438.addr, metadata !5130, metadata !3891), !dbg !5127
	store %struct._ZSaIN5vmesh14MeshParametersEE* %_T43066440_52438.arg, %struct._ZSaIN5vmesh14MeshParametersEE** %_T43066440_52438.addr, align 8, !tbaa !3899
	call void @llvm.dbg.declare (metadata %struct._ZSaIN5vmesh14MeshParametersEE** %_T43066440_52438.addr, metadata !5131, metadata !3891), !dbg !5127
	ret void, !dbg !5132
}
define linkonce_odr void @_ZNSaIN5vmesh14MeshParametersEED2Ev(%struct._ZSaIN5vmesh14MeshParametersEE* %_T43066440_52439.arg) #0 inlinehint !dbg !5134 {
L.entry:
	%_T43066440_52439.addr = alloca %struct._ZSaIN5vmesh14MeshParametersEE*, align 8

	store %struct._ZSaIN5vmesh14MeshParametersEE* %_T43066440_52439.arg, %struct._ZSaIN5vmesh14MeshParametersEE** %_T43066440_52439.addr, align 8, !tbaa !3899
	ret void, !dbg !5142
}

%struct._ZNSt7__cxx1112basic_stringIcSt11char_traitsIcESaIcEE12_Alloc_hiderE = type <{ i8*}> 
%struct._ZNSt7__cxx1112basic_stringIcSt11char_traitsIcESaIcEEE = type <{ %struct._ZNSt7__cxx1112basic_stringIcSt11char_traitsIcESaIcEE12_Alloc_hiderE, i64, %union.__C6}> 
%union.__C6 = type <{ [16 x i8]}> 
%struct._ZN5vmesh14MeshParametersE = type <{ %struct._ZNSt7__cxx1112basic_stringIcSt11char_traitsIcESaIcEEE, i32, [4 x i8], [6 x double], [3 x i32], [3 x i32], i8, i8, [6 x i8], [3 x double], [3 x double], [3 x double], [3 x double], [3 x double], %struct._ZSt6vectorIjSaIjEE, %struct._ZSt6vectorIdSaIdEE, %struct._ZSt6vectorIdSaIdEE, %struct._ZSt6vectorIjSaIjEE}> 

define linkonce_odr void @_ZNSt16allocator_traitsISaIN5vmesh14MeshParametersEEE10deallocateERS2_PS1_m(%struct._ZSaIN5vmesh14MeshParametersEE* %__a.arg, %struct._ZN5vmesh14MeshParametersE* %__p.arg, i64 %__n.arg) #0 inlinehint !dbg !5150 {
L.entry:
	%__a.addr = alloca %struct._ZSaIN5vmesh14MeshParametersEE*, align 8
	%__p.addr = alloca %struct._ZN5vmesh14MeshParametersE*, align 8
	%__n.addr = alloca i64, align 8
	%..inline.addr = alloca %struct._ZN5vmesh14MeshParametersE*, align 8

	call void @llvm.dbg.declare (metadata %struct._ZSaIN5vmesh14MeshParametersEE** %__a.addr, metadata !5158, metadata !3891), !dbg !5151
	store %struct._ZSaIN5vmesh14MeshParametersEE* %__a.arg, %struct._ZSaIN5vmesh14MeshParametersEE** %__a.addr, align 8, !tbaa !3899
	call void @llvm.dbg.declare (metadata %struct._ZSaIN5vmesh14MeshParametersEE** %__a.addr, metadata !5159, metadata !3891), !dbg !5151
	call void @llvm.dbg.declare (metadata %struct._ZN5vmesh14MeshParametersE** %__p.addr, metadata !5160, metadata !3891), !dbg !5151
	store %struct._ZN5vmesh14MeshParametersE* %__p.arg, %struct._ZN5vmesh14MeshParametersE** %__p.addr, align 8, !tbaa !3899
	call void @llvm.dbg.declare (metadata %struct._ZN5vmesh14MeshParametersE** %__p.addr, metadata !5161, metadata !3891), !dbg !5151
	call void @llvm.dbg.declare (metadata i64* %__n.addr, metadata !5162, metadata !3891), !dbg !5151
	store i64 %__n.arg, i64* %__n.addr, align 8, !tbaa !4009
	call void @llvm.dbg.declare (metadata i64* %__n.addr, metadata !5163, metadata !3891), !dbg !5151
	%0 = load %struct._ZN5vmesh14MeshParametersE*, %struct._ZN5vmesh14MeshParametersE** %__p.addr, align 8, !tbaa !3899, !dbg !5164
	%1 = bitcast %struct._ZN5vmesh14MeshParametersE*  %0 to i8*, !dbg !5164
	%2 = bitcast %struct._ZN5vmesh14MeshParametersE** %..inline.addr to i8**, !dbg !5164
	store i8*  %1, i8**  %2, align 8, !tbaa !3899, !dbg !5164
	%3 = load %struct._ZN5vmesh14MeshParametersE*, %struct._ZN5vmesh14MeshParametersE** %..inline.addr, align 8, !tbaa !3899, !dbg !5165
	%4 = bitcast %struct._ZN5vmesh14MeshParametersE*  %3 to i8*, !dbg !5165
	call void  @_ZdlPv (i8*  %4) nounwind, !dbg !5165
	ret void, !dbg !5164
}

%struct._ZSt12_Vector_baseIN5vmesh14MeshParametersESaIS1_EE = type <{ %struct._ZNSt12_Vector_baseIN5vmesh14MeshParametersESaIS1_EE12_Vector_implE}> 
%struct._ZNSt12_Vector_baseIN5vmesh14MeshParametersESaIS1_EE12_Vector_implE = type <{ %struct._ZNSt12_Vector_baseIN5vmesh14MeshParametersESaIS1_EE17_Vector_impl_dataE}> 
%struct._ZNSt12_Vector_baseIN5vmesh14MeshParametersESaIS1_EE17_Vector_impl_dataE = type <{ %struct._ZN5vmesh14MeshParametersE*, %struct._ZN5vmesh14MeshParametersE*, %struct._ZN5vmesh14MeshParametersE*}> 

define linkonce_odr %struct._ZSaIN5vmesh14MeshParametersEE* @_ZNSt12_Vector_baseIN5vmesh14MeshParametersESaIS1_EE19_M_get_Tp_allocatorEv(%struct._ZSt12_Vector_baseIN5vmesh14MeshParametersESaIS1_EE* %_T43066440_52445.arg) #0 inlinehint !dbg !5171 {
L.entry:
	%_T43066440_52445.addr = alloca %struct._ZSt12_Vector_baseIN5vmesh14MeshParametersESaIS1_EE*, align 8

	call void @llvm.dbg.declare (metadata %struct._ZSt12_Vector_baseIN5vmesh14MeshParametersESaIS1_EE** %_T43066440_52445.addr, metadata !5175, metadata !3891), !dbg !5172
	store %struct._ZSt12_Vector_baseIN5vmesh14MeshParametersESaIS1_EE* %_T43066440_52445.arg, %struct._ZSt12_Vector_baseIN5vmesh14MeshParametersESaIS1_EE** %_T43066440_52445.addr, align 8, !tbaa !3899
	call void @llvm.dbg.declare (metadata %struct._ZSt12_Vector_baseIN5vmesh14MeshParametersESaIS1_EE** %_T43066440_52445.addr, metadata !5176, metadata !3891), !dbg !5172
	%0 = load %struct._ZSt12_Vector_baseIN5vmesh14MeshParametersESaIS1_EE*, %struct._ZSt12_Vector_baseIN5vmesh14MeshParametersESaIS1_EE** %_T43066440_52445.addr, align 8, !tbaa !3899, !dbg !5177
	%1 = bitcast %struct._ZSt12_Vector_baseIN5vmesh14MeshParametersESaIS1_EE*  %0 to %struct._ZSaIN5vmesh14MeshParametersEE*, !dbg !5177
	ret %struct._ZSaIN5vmesh14MeshParametersEE*  %1, !dbg !5177
}
define linkonce_odr void @_ZNSt12_Vector_baseIN5vmesh14MeshParametersESaIS1_EEC1Ev(%struct._ZSt12_Vector_baseIN5vmesh14MeshParametersESaIS1_EE* %_T43066440_52446.arg) #0 inlinehint !dbg !5181 {
L.entry:
	%_T43066440_52446.addr = alloca %struct._ZSt12_Vector_baseIN5vmesh14MeshParametersESaIS1_EE*, align 8
	%..inline.addr = alloca %struct._ZNSt12_Vector_baseIN5vmesh14MeshParametersESaIS1_EE17_Vector_impl_dataE*, align 8

	call void @llvm.dbg.declare (metadata %struct._ZSt12_Vector_baseIN5vmesh14MeshParametersESaIS1_EE** %_T43066440_52446.addr, metadata !5197, metadata !3891), !dbg !5182
	store %struct._ZSt12_Vector_baseIN5vmesh14MeshParametersESaIS1_EE* %_T43066440_52446.arg, %struct._ZSt12_Vector_baseIN5vmesh14MeshParametersESaIS1_EE** %_T43066440_52446.addr, align 8, !tbaa !3899
	call void @llvm.dbg.declare (metadata %struct._ZSt12_Vector_baseIN5vmesh14MeshParametersESaIS1_EE** %_T43066440_52446.addr, metadata !5198, metadata !3891), !dbg !5182
	%0 = load %struct._ZSt12_Vector_baseIN5vmesh14MeshParametersESaIS1_EE*, %struct._ZSt12_Vector_baseIN5vmesh14MeshParametersESaIS1_EE** %_T43066440_52446.addr, align 8, !tbaa !3899, !dbg !5199
	%1 = bitcast %struct._ZSt12_Vector_baseIN5vmesh14MeshParametersESaIS1_EE*  %0 to i8*, !dbg !5199
	%2 = bitcast %struct._ZNSt12_Vector_baseIN5vmesh14MeshParametersESaIS1_EE17_Vector_impl_dataE** %..inline.addr to i8**, !dbg !5199
	store i8*  %1, i8**  %2, align 8, !tbaa !3899, !dbg !5199
	%3 = load %struct._ZNSt12_Vector_baseIN5vmesh14MeshParametersESaIS1_EE17_Vector_impl_dataE*, %struct._ZNSt12_Vector_baseIN5vmesh14MeshParametersESaIS1_EE17_Vector_impl_dataE** %..inline.addr, align 8, !tbaa !3899, !dbg !5199
	%4 = bitcast %struct._ZNSt12_Vector_baseIN5vmesh14MeshParametersESaIS1_EE17_Vector_impl_dataE*  %3 to i8**, !dbg !5199
	store i8* null, i8**  %4, align 8, !tbaa !3899, !dbg !5199
	%5 = bitcast %struct._ZNSt12_Vector_baseIN5vmesh14MeshParametersESaIS1_EE17_Vector_impl_dataE*  %3 to i8*, !dbg !5199
	%6 = getelementptr i8, i8*  %5, i64 8, !dbg !5199
	%7 = bitcast i8*  %6 to i8**, !dbg !5199
	store i8* null, i8**  %7, align 8, !tbaa !3899, !dbg !5199
	%8 = getelementptr i8, i8*  %5, i64 16, !dbg !5199
	%9 = bitcast i8*  %8 to i8**, !dbg !5199
	store i8* null, i8**  %9, align 8, !tbaa !3899, !dbg !5199
	ret void, !dbg !5199
}
define linkonce_odr void @_ZNSt12_Vector_baseIN5vmesh14MeshParametersESaIS1_EEC2Ev(%struct._ZSt12_Vector_baseIN5vmesh14MeshParametersESaIS1_EE* %_T43066440_52447.arg) #0 inlinehint !dbg !5201 {
L.entry:
	%_T43066440_52447.addr = alloca %struct._ZSt12_Vector_baseIN5vmesh14MeshParametersESaIS1_EE*, align 8
	%..inline.addr = alloca %struct._ZNSt12_Vector_baseIN5vmesh14MeshParametersESaIS1_EE17_Vector_impl_dataE*, align 8

	store %struct._ZSt12_Vector_baseIN5vmesh14MeshParametersESaIS1_EE* %_T43066440_52447.arg, %struct._ZSt12_Vector_baseIN5vmesh14MeshParametersESaIS1_EE** %_T43066440_52447.addr, align 8, !tbaa !3899
	%0 = load %struct._ZSt12_Vector_baseIN5vmesh14MeshParametersESaIS1_EE*, %struct._ZSt12_Vector_baseIN5vmesh14MeshParametersESaIS1_EE** %_T43066440_52447.addr, align 8, !tbaa !3899, !dbg !5221
	%1 = bitcast %struct._ZSt12_Vector_baseIN5vmesh14MeshParametersESaIS1_EE*  %0 to i8*, !dbg !5221
	%2 = bitcast %struct._ZNSt12_Vector_baseIN5vmesh14MeshParametersESaIS1_EE17_Vector_impl_dataE** %..inline.addr to i8**, !dbg !5221
	store i8*  %1, i8**  %2, align 8, !tbaa !3899, !dbg !5221
	%3 = load %struct._ZNSt12_Vector_baseIN5vmesh14MeshParametersESaIS1_EE17_Vector_impl_dataE*, %struct._ZNSt12_Vector_baseIN5vmesh14MeshParametersESaIS1_EE17_Vector_impl_dataE** %..inline.addr, align 8, !tbaa !3899, !dbg !5221
	%4 = bitcast %struct._ZNSt12_Vector_baseIN5vmesh14MeshParametersESaIS1_EE17_Vector_impl_dataE*  %3 to i8**, !dbg !5221
	store i8* null, i8**  %4, align 8, !tbaa !3899, !dbg !5221
	%5 = bitcast %struct._ZNSt12_Vector_baseIN5vmesh14MeshParametersESaIS1_EE17_Vector_impl_dataE*  %3 to i8*, !dbg !5221
	%6 = getelementptr i8, i8*  %5, i64 8, !dbg !5221
	%7 = bitcast i8*  %6 to i8**, !dbg !5221
	store i8* null, i8**  %7, align 8, !tbaa !3899, !dbg !5221
	%8 = getelementptr i8, i8*  %5, i64 16, !dbg !5221
	%9 = bitcast i8*  %8 to i8**, !dbg !5221
	store i8* null, i8**  %9, align 8, !tbaa !3899, !dbg !5221
	ret void, !dbg !5221
}
define linkonce_odr void @_ZNSt12_Vector_baseIN5vmesh14MeshParametersESaIS1_EED1Ev(%struct._ZSt12_Vector_baseIN5vmesh14MeshParametersESaIS1_EE* %_T43066440_52448.arg) #0 inlinehint !dbg !5223 {
L.entry:
	%_T43066440_52448.addr = alloca %struct._ZSt12_Vector_baseIN5vmesh14MeshParametersESaIS1_EE*, align 8
	%..inline.addr = alloca %struct._ZN5vmesh14MeshParametersE*, align 8

	call void @llvm.dbg.declare (metadata %struct._ZSt12_Vector_baseIN5vmesh14MeshParametersESaIS1_EE** %_T43066440_52448.addr, metadata !5251, metadata !3891), !dbg !5224
	store %struct._ZSt12_Vector_baseIN5vmesh14MeshParametersESaIS1_EE* %_T43066440_52448.arg, %struct._ZSt12_Vector_baseIN5vmesh14MeshParametersESaIS1_EE** %_T43066440_52448.addr, align 8, !tbaa !3899
	call void @llvm.dbg.declare (metadata %struct._ZSt12_Vector_baseIN5vmesh14MeshParametersESaIS1_EE** %_T43066440_52448.addr, metadata !5252, metadata !3891), !dbg !5224
	%0 = load %struct._ZSt12_Vector_baseIN5vmesh14MeshParametersESaIS1_EE*, %struct._ZSt12_Vector_baseIN5vmesh14MeshParametersESaIS1_EE** %_T43066440_52448.addr, align 8, !tbaa !3899, !dbg !5253
	%1 = bitcast %struct._ZSt12_Vector_baseIN5vmesh14MeshParametersESaIS1_EE*  %0 to i8**, !dbg !5253
	%2 = load i8*, i8**  %1, align 8, !tbaa !3899, !dbg !5253
	%3 = icmp eq i8*  %2,  null, !dbg !5253
	br i1  %3, label %L..inline.67262, label %L.B1048, !dbg !5253
L.B1048:
	%4 = bitcast %struct._ZSt12_Vector_baseIN5vmesh14MeshParametersESaIS1_EE*  %0 to i8**, !dbg !5254
	%5 = load i8*, i8**  %4, align 8, !tbaa !3899, !dbg !5254
	%6 = bitcast %struct._ZN5vmesh14MeshParametersE** %..inline.addr to i8**, !dbg !5254
	store i8*  %5, i8**  %6, align 8, !tbaa !3899, !dbg !5254
	%7 = load %struct._ZN5vmesh14MeshParametersE*, %struct._ZN5vmesh14MeshParametersE** %..inline.addr, align 8, !tbaa !3899, !dbg !5254
	%8 = bitcast %struct._ZN5vmesh14MeshParametersE*  %7 to i8*, !dbg !5254
	call void  @_ZdlPv (i8*  %8) nounwind, !dbg !5254
	br label %L..inline.67262
L..inline.67262:
	ret void, !dbg !5255
}
define linkonce_odr void @_ZNSt12_Vector_baseIN5vmesh14MeshParametersESaIS1_EED2Ev(%struct._ZSt12_Vector_baseIN5vmesh14MeshParametersESaIS1_EE* %_T43066440_52449.arg) #0 inlinehint !dbg !5257 {
L.entry:
	%_T43066440_52449.addr = alloca %struct._ZSt12_Vector_baseIN5vmesh14MeshParametersESaIS1_EE*, align 8
	%..inline.addr = alloca %struct._ZSt12_Vector_baseIN5vmesh14MeshParametersESaIS1_EE*, align 8
	%..inline.addr.1 = alloca %struct._ZN5vmesh14MeshParametersE*, align 8

	store %struct._ZSt12_Vector_baseIN5vmesh14MeshParametersESaIS1_EE* %_T43066440_52449.arg, %struct._ZSt12_Vector_baseIN5vmesh14MeshParametersESaIS1_EE** %_T43066440_52449.addr, align 8, !tbaa !3899
	%0 = load %struct._ZSt12_Vector_baseIN5vmesh14MeshParametersESaIS1_EE*, %struct._ZSt12_Vector_baseIN5vmesh14MeshParametersESaIS1_EE** %_T43066440_52449.addr, align 8, !tbaa !3899, !dbg !5289
	%1 = bitcast %struct._ZSt12_Vector_baseIN5vmesh14MeshParametersESaIS1_EE*  %0 to i8*, !dbg !5289
	%2 = bitcast %struct._ZSt12_Vector_baseIN5vmesh14MeshParametersESaIS1_EE** %..inline.addr to i8**, !dbg !5289
	store i8*  %1, i8**  %2, align 8, !tbaa !3899, !dbg !5289
	%3 = load %struct._ZSt12_Vector_baseIN5vmesh14MeshParametersESaIS1_EE*, %struct._ZSt12_Vector_baseIN5vmesh14MeshParametersESaIS1_EE** %..inline.addr, align 8, !tbaa !3899, !dbg !5289
	%4 = bitcast %struct._ZSt12_Vector_baseIN5vmesh14MeshParametersESaIS1_EE*  %3 to i8**, !dbg !5289
	%5 = load i8*, i8**  %4, align 8, !tbaa !3899, !dbg !5289
	%6 = icmp eq i8*  %5,  null, !dbg !5289
	br i1  %6, label %L..inline.67325, label %L.B1051, !dbg !5289
L.B1051:
	%7 = bitcast %struct._ZSt12_Vector_baseIN5vmesh14MeshParametersESaIS1_EE*  %3 to i8**, !dbg !5289
	%8 = load i8*, i8**  %7, align 8, !tbaa !3899, !dbg !5289
	%9 = bitcast %struct._ZN5vmesh14MeshParametersE** %..inline.addr.1 to i8**, !dbg !5289
	store i8*  %8, i8**  %9, align 8, !tbaa !3899, !dbg !5289
	%10 = load %struct._ZN5vmesh14MeshParametersE*, %struct._ZN5vmesh14MeshParametersE** %..inline.addr.1, align 8, !tbaa !3899, !dbg !5289
	%11 = bitcast %struct._ZN5vmesh14MeshParametersE*  %10 to i8*, !dbg !5289
	call void  @_ZdlPv (i8*  %11) nounwind, !dbg !5289
	br label %L..inline.67325
L..inline.67325:
	ret void, !dbg !5290
}
define linkonce_odr void @_ZNSt12_Vector_baseIN5vmesh14MeshParametersESaIS1_EE13_M_deallocateEPS1_m(%struct._ZSt12_Vector_baseIN5vmesh14MeshParametersESaIS1_EE* %_T43066440_52452.arg, %struct._ZN5vmesh14MeshParametersE* %__p.arg, i64 %__n.arg) #0 inlinehint !dbg !5294 {
L.entry:
	%_T43066440_52452.addr = alloca %struct._ZSt12_Vector_baseIN5vmesh14MeshParametersESaIS1_EE*, align 8
	%__p.addr = alloca %struct._ZN5vmesh14MeshParametersE*, align 8
	%__n.addr = alloca i64, align 8
	%..inline.addr = alloca %struct._ZN5vmesh14MeshParametersE*, align 8

	call void @llvm.dbg.declare (metadata %struct._ZSt12_Vector_baseIN5vmesh14MeshParametersESaIS1_EE** %_T43066440_52452.addr, metadata !5306, metadata !3891), !dbg !5295
	store %struct._ZSt12_Vector_baseIN5vmesh14MeshParametersESaIS1_EE* %_T43066440_52452.arg, %struct._ZSt12_Vector_baseIN5vmesh14MeshParametersESaIS1_EE** %_T43066440_52452.addr, align 8, !tbaa !3899
	call void @llvm.dbg.declare (metadata %struct._ZSt12_Vector_baseIN5vmesh14MeshParametersESaIS1_EE** %_T43066440_52452.addr, metadata !5307, metadata !3891), !dbg !5295
	call void @llvm.dbg.declare (metadata %struct._ZN5vmesh14MeshParametersE** %__p.addr, metadata !5308, metadata !3891), !dbg !5295
	store %struct._ZN5vmesh14MeshParametersE* %__p.arg, %struct._ZN5vmesh14MeshParametersE** %__p.addr, align 8, !tbaa !3899
	call void @llvm.dbg.declare (metadata %struct._ZN5vmesh14MeshParametersE** %__p.addr, metadata !5309, metadata !3891), !dbg !5295
	call void @llvm.dbg.declare (metadata i64* %__n.addr, metadata !5310, metadata !3891), !dbg !5295
	store i64 %__n.arg, i64* %__n.addr, align 8, !tbaa !4009
	call void @llvm.dbg.declare (metadata i64* %__n.addr, metadata !5311, metadata !3891), !dbg !5295
	%0 = load %struct._ZN5vmesh14MeshParametersE*, %struct._ZN5vmesh14MeshParametersE** %__p.addr, align 8, !tbaa !3899, !dbg !5312
	%1 = bitcast %struct._ZN5vmesh14MeshParametersE*  %0 to i8*, !dbg !5312
	%2 = icmp eq i8*  %1,  null, !dbg !5312
	br i1  %2, label %L.B0008, label %L.B1054, !dbg !5312
L.B1054:
	%3 = bitcast %struct._ZN5vmesh14MeshParametersE*  %0 to i8*, !dbg !5313
	%4 = bitcast %struct._ZN5vmesh14MeshParametersE** %..inline.addr to i8**, !dbg !5313
	store i8*  %3, i8**  %4, align 8, !tbaa !3899, !dbg !5313
	%5 = load %struct._ZN5vmesh14MeshParametersE*, %struct._ZN5vmesh14MeshParametersE** %..inline.addr, align 8, !tbaa !3899, !dbg !5313
	%6 = bitcast %struct._ZN5vmesh14MeshParametersE*  %5 to i8*, !dbg !5313
	call void  @_ZdlPv (i8*  %6) nounwind, !dbg !5313
	br label %L.B0008
L.B0008:
	ret void, !dbg !5314
}
define linkonce_odr void @_ZNSt12_Vector_baseIN5vmesh14MeshParametersESaIS1_EE17_Vector_impl_dataC1Ev(%struct._ZNSt12_Vector_baseIN5vmesh14MeshParametersESaIS1_EE17_Vector_impl_dataE* %_T43066440_52453.arg) #0 inlinehint !dbg !5319 {
L.entry:
	%_T43066440_52453.addr = alloca %struct._ZNSt12_Vector_baseIN5vmesh14MeshParametersESaIS1_EE17_Vector_impl_dataE*, align 8

	call void @llvm.dbg.declare (metadata %struct._ZNSt12_Vector_baseIN5vmesh14MeshParametersESaIS1_EE17_Vector_impl_dataE** %_T43066440_52453.addr, metadata !5323, metadata !3891), !dbg !5320
	store %struct._ZNSt12_Vector_baseIN5vmesh14MeshParametersESaIS1_EE17_Vector_impl_dataE* %_T43066440_52453.arg, %struct._ZNSt12_Vector_baseIN5vmesh14MeshParametersESaIS1_EE17_Vector_impl_dataE** %_T43066440_52453.addr, align 8, !tbaa !3899
	call void @llvm.dbg.declare (metadata %struct._ZNSt12_Vector_baseIN5vmesh14MeshParametersESaIS1_EE17_Vector_impl_dataE** %_T43066440_52453.addr, metadata !5324, metadata !3891), !dbg !5320
	%0 = load %struct._ZNSt12_Vector_baseIN5vmesh14MeshParametersESaIS1_EE17_Vector_impl_dataE*, %struct._ZNSt12_Vector_baseIN5vmesh14MeshParametersESaIS1_EE17_Vector_impl_dataE** %_T43066440_52453.addr, align 8, !tbaa !3899, !dbg !5325
	%1 = bitcast %struct._ZNSt12_Vector_baseIN5vmesh14MeshParametersESaIS1_EE17_Vector_impl_dataE*  %0 to i8**, !dbg !5325
	store i8* null, i8**  %1, align 8, !tbaa !3899, !dbg !5325
	%2 = bitcast %struct._ZNSt12_Vector_baseIN5vmesh14MeshParametersESaIS1_EE17_Vector_impl_dataE*  %0 to i8*, !dbg !5325
	%3 = getelementptr i8, i8*  %2, i64 8, !dbg !5325
	%4 = bitcast i8*  %3 to i8**, !dbg !5325
	store i8* null, i8**  %4, align 8, !tbaa !3899, !dbg !5325
	%5 = getelementptr i8, i8*  %2, i64 16, !dbg !5325
	%6 = bitcast i8*  %5 to i8**, !dbg !5325
	store i8* null, i8**  %6, align 8, !tbaa !3899, !dbg !5325
	ret void, !dbg !5325
}
define linkonce_odr void @_ZNSt12_Vector_baseIN5vmesh14MeshParametersESaIS1_EE17_Vector_impl_dataC2Ev(%struct._ZNSt12_Vector_baseIN5vmesh14MeshParametersESaIS1_EE17_Vector_impl_dataE* %_T43066440_52454.arg) #0 inlinehint !dbg !5327 {
L.entry:
	%_T43066440_52454.addr = alloca %struct._ZNSt12_Vector_baseIN5vmesh14MeshParametersESaIS1_EE17_Vector_impl_dataE*, align 8
	%..inline.addr = alloca %struct._ZNSt12_Vector_baseIN5vmesh14MeshParametersESaIS1_EE17_Vector_impl_dataE*, align 8

	store %struct._ZNSt12_Vector_baseIN5vmesh14MeshParametersESaIS1_EE17_Vector_impl_dataE* %_T43066440_52454.arg, %struct._ZNSt12_Vector_baseIN5vmesh14MeshParametersESaIS1_EE17_Vector_impl_dataE** %_T43066440_52454.addr, align 8, !tbaa !3899
	%0 = load %struct._ZNSt12_Vector_baseIN5vmesh14MeshParametersESaIS1_EE17_Vector_impl_dataE*, %struct._ZNSt12_Vector_baseIN5vmesh14MeshParametersESaIS1_EE17_Vector_impl_dataE** %_T43066440_52454.addr, align 8, !tbaa !3899, !dbg !5335
	%1 = bitcast %struct._ZNSt12_Vector_baseIN5vmesh14MeshParametersESaIS1_EE17_Vector_impl_dataE*  %0 to i8*, !dbg !5335
	%2 = bitcast %struct._ZNSt12_Vector_baseIN5vmesh14MeshParametersESaIS1_EE17_Vector_impl_dataE** %..inline.addr to i8**, !dbg !5335
	store i8*  %1, i8**  %2, align 8, !tbaa !3899, !dbg !5335
	%3 = load %struct._ZNSt12_Vector_baseIN5vmesh14MeshParametersESaIS1_EE17_Vector_impl_dataE*, %struct._ZNSt12_Vector_baseIN5vmesh14MeshParametersESaIS1_EE17_Vector_impl_dataE** %..inline.addr, align 8, !tbaa !3899, !dbg !5335
	%4 = bitcast %struct._ZNSt12_Vector_baseIN5vmesh14MeshParametersESaIS1_EE17_Vector_impl_dataE*  %3 to i8**, !dbg !5335
	store i8* null, i8**  %4, align 8, !tbaa !3899, !dbg !5335
	%5 = bitcast %struct._ZNSt12_Vector_baseIN5vmesh14MeshParametersESaIS1_EE17_Vector_impl_dataE*  %3 to i8*, !dbg !5335
	%6 = getelementptr i8, i8*  %5, i64 8, !dbg !5335
	%7 = bitcast i8*  %6 to i8**, !dbg !5335
	store i8* null, i8**  %7, align 8, !tbaa !3899, !dbg !5335
	%8 = getelementptr i8, i8*  %5, i64 16, !dbg !5335
	%9 = bitcast i8*  %8 to i8**, !dbg !5335
	store i8* null, i8**  %9, align 8, !tbaa !3899, !dbg !5335
	ret void, !dbg !5335
}
define linkonce_odr void @_ZNSt12_Vector_baseIN5vmesh14MeshParametersESaIS1_EE12_Vector_implC1Ev(%struct._ZNSt12_Vector_baseIN5vmesh14MeshParametersESaIS1_EE12_Vector_implE* %_T43066440_52455.arg) #0 inlinehint !dbg !5340 {
L.entry:
	%_T43066440_52455.addr = alloca %struct._ZNSt12_Vector_baseIN5vmesh14MeshParametersESaIS1_EE12_Vector_implE*, align 8
	%..inline.addr = alloca %struct._ZNSt12_Vector_baseIN5vmesh14MeshParametersESaIS1_EE17_Vector_impl_dataE*, align 8

	call void @llvm.dbg.declare (metadata %struct._ZNSt12_Vector_baseIN5vmesh14MeshParametersESaIS1_EE12_Vector_implE** %_T43066440_52455.addr, metadata !5352, metadata !3891), !dbg !5341
	store %struct._ZNSt12_Vector_baseIN5vmesh14MeshParametersESaIS1_EE12_Vector_implE* %_T43066440_52455.arg, %struct._ZNSt12_Vector_baseIN5vmesh14MeshParametersESaIS1_EE12_Vector_implE** %_T43066440_52455.addr, align 8, !tbaa !3899
	call void @llvm.dbg.declare (metadata %struct._ZNSt12_Vector_baseIN5vmesh14MeshParametersESaIS1_EE12_Vector_implE** %_T43066440_52455.addr, metadata !5353, metadata !3891), !dbg !5341
	%0 = load %struct._ZNSt12_Vector_baseIN5vmesh14MeshParametersESaIS1_EE12_Vector_implE*, %struct._ZNSt12_Vector_baseIN5vmesh14MeshParametersESaIS1_EE12_Vector_implE** %_T43066440_52455.addr, align 8, !tbaa !3899, !dbg !5354
	%1 = bitcast %struct._ZNSt12_Vector_baseIN5vmesh14MeshParametersESaIS1_EE12_Vector_implE*  %0 to i8*, !dbg !5354
	%2 = bitcast %struct._ZNSt12_Vector_baseIN5vmesh14MeshParametersESaIS1_EE17_Vector_impl_dataE** %..inline.addr to i8**, !dbg !5354
	store i8*  %1, i8**  %2, align 8, !tbaa !3899, !dbg !5354
	%3 = load %struct._ZNSt12_Vector_baseIN5vmesh14MeshParametersESaIS1_EE17_Vector_impl_dataE*, %struct._ZNSt12_Vector_baseIN5vmesh14MeshParametersESaIS1_EE17_Vector_impl_dataE** %..inline.addr, align 8, !tbaa !3899, !dbg !5354
	%4 = bitcast %struct._ZNSt12_Vector_baseIN5vmesh14MeshParametersESaIS1_EE17_Vector_impl_dataE*  %3 to i8**, !dbg !5354
	store i8* null, i8**  %4, align 8, !tbaa !3899, !dbg !5354
	%5 = bitcast %struct._ZNSt12_Vector_baseIN5vmesh14MeshParametersESaIS1_EE17_Vector_impl_dataE*  %3 to i8*, !dbg !5355
	%6 = getelementptr i8, i8*  %5, i64 8, !dbg !5355
	%7 = bitcast i8*  %6 to i8**, !dbg !5355
	store i8* null, i8**  %7, align 8, !tbaa !3899, !dbg !5355
	%8 = getelementptr i8, i8*  %5, i64 16, !dbg !5355
	%9 = bitcast i8*  %8 to i8**, !dbg !5355
	store i8* null, i8**  %9, align 8, !tbaa !3899, !dbg !5355
	ret void, !dbg !5354
}
define linkonce_odr void @_ZNSt12_Vector_baseIN5vmesh14MeshParametersESaIS1_EE12_Vector_implC2Ev(%struct._ZNSt12_Vector_baseIN5vmesh14MeshParametersESaIS1_EE12_Vector_implE* %_T43066440_52456.arg) #0 inlinehint !dbg !5357 {
L.entry:
	%_T43066440_52456.addr = alloca %struct._ZNSt12_Vector_baseIN5vmesh14MeshParametersESaIS1_EE12_Vector_implE*, align 8
	%..inline.addr = alloca %struct._ZNSt12_Vector_baseIN5vmesh14MeshParametersESaIS1_EE17_Vector_impl_dataE*, align 8

	store %struct._ZNSt12_Vector_baseIN5vmesh14MeshParametersESaIS1_EE12_Vector_implE* %_T43066440_52456.arg, %struct._ZNSt12_Vector_baseIN5vmesh14MeshParametersESaIS1_EE12_Vector_implE** %_T43066440_52456.addr, align 8, !tbaa !3899
	%0 = load %struct._ZNSt12_Vector_baseIN5vmesh14MeshParametersESaIS1_EE12_Vector_implE*, %struct._ZNSt12_Vector_baseIN5vmesh14MeshParametersESaIS1_EE12_Vector_implE** %_T43066440_52456.addr, align 8, !tbaa !3899, !dbg !5373
	%1 = bitcast %struct._ZNSt12_Vector_baseIN5vmesh14MeshParametersESaIS1_EE12_Vector_implE*  %0 to i8*, !dbg !5373
	%2 = bitcast %struct._ZNSt12_Vector_baseIN5vmesh14MeshParametersESaIS1_EE17_Vector_impl_dataE** %..inline.addr to i8**, !dbg !5373
	store i8*  %1, i8**  %2, align 8, !tbaa !3899, !dbg !5373
	%3 = load %struct._ZNSt12_Vector_baseIN5vmesh14MeshParametersESaIS1_EE17_Vector_impl_dataE*, %struct._ZNSt12_Vector_baseIN5vmesh14MeshParametersESaIS1_EE17_Vector_impl_dataE** %..inline.addr, align 8, !tbaa !3899, !dbg !5373
	%4 = bitcast %struct._ZNSt12_Vector_baseIN5vmesh14MeshParametersESaIS1_EE17_Vector_impl_dataE*  %3 to i8**, !dbg !5373
	store i8* null, i8**  %4, align 8, !tbaa !3899, !dbg !5373
	%5 = bitcast %struct._ZNSt12_Vector_baseIN5vmesh14MeshParametersESaIS1_EE17_Vector_impl_dataE*  %3 to i8*, !dbg !5373
	%6 = getelementptr i8, i8*  %5, i64 8, !dbg !5373
	%7 = bitcast i8*  %6 to i8**, !dbg !5373
	store i8* null, i8**  %7, align 8, !tbaa !3899, !dbg !5373
	%8 = getelementptr i8, i8*  %5, i64 16, !dbg !5373
	%9 = bitcast i8*  %8 to i8**, !dbg !5373
	store i8* null, i8**  %9, align 8, !tbaa !3899, !dbg !5373
	ret void, !dbg !5373
}
define linkonce_odr void @_ZNSt12_Vector_baseIN5vmesh14MeshParametersESaIS1_EE12_Vector_implD1Ev(%struct._ZNSt12_Vector_baseIN5vmesh14MeshParametersESaIS1_EE12_Vector_implE* %_T43066440_52457.arg) #0 inlinehint !dbg !5375 {
L.entry:
	%_T43066440_52457.addr = alloca %struct._ZNSt12_Vector_baseIN5vmesh14MeshParametersESaIS1_EE12_Vector_implE*, align 8

	call void @llvm.dbg.declare (metadata %struct._ZNSt12_Vector_baseIN5vmesh14MeshParametersESaIS1_EE12_Vector_implE** %_T43066440_52457.addr, metadata !5387, metadata !3891), !dbg !5376
	store %struct._ZNSt12_Vector_baseIN5vmesh14MeshParametersESaIS1_EE12_Vector_implE* %_T43066440_52457.arg, %struct._ZNSt12_Vector_baseIN5vmesh14MeshParametersESaIS1_EE12_Vector_implE** %_T43066440_52457.addr, align 8, !tbaa !3899
	call void @llvm.dbg.declare (metadata %struct._ZNSt12_Vector_baseIN5vmesh14MeshParametersESaIS1_EE12_Vector_implE** %_T43066440_52457.addr, metadata !5388, metadata !3891), !dbg !5376
	ret void, !dbg !5389
}
define linkonce_odr void @_ZNSt12_Vector_baseIN5vmesh14MeshParametersESaIS1_EE12_Vector_implD2Ev(%struct._ZNSt12_Vector_baseIN5vmesh14MeshParametersESaIS1_EE12_Vector_implE* %_T43066440_52458.arg) #0 inlinehint !dbg !5391 {
L.entry:
	%_T43066440_52458.addr = alloca %struct._ZNSt12_Vector_baseIN5vmesh14MeshParametersESaIS1_EE12_Vector_implE*, align 8

	store %struct._ZNSt12_Vector_baseIN5vmesh14MeshParametersESaIS1_EE12_Vector_implE* %_T43066440_52458.arg, %struct._ZNSt12_Vector_baseIN5vmesh14MeshParametersESaIS1_EE12_Vector_implE** %_T43066440_52458.addr, align 8, !tbaa !3899
	ret void, !dbg !5407
}

%struct._ZSt6vectorIN5vmesh14MeshParametersESaIS1_EE = type <{ %struct._ZSt12_Vector_baseIN5vmesh14MeshParametersESaIS1_EE}> 

define linkonce_odr void @_ZNSt6vectorIN5vmesh14MeshParametersESaIS1_EEC1Ev(%struct._ZSt6vectorIN5vmesh14MeshParametersESaIS1_EE* %_T43066440_52459.arg) #0 inlinehint !dbg !5412 {
L.entry:
	%_T43066440_52459.addr = alloca %struct._ZSt6vectorIN5vmesh14MeshParametersESaIS1_EE*, align 8
	%..inline.addr = alloca %struct._ZNSt12_Vector_baseIN5vmesh14MeshParametersESaIS1_EE17_Vector_impl_dataE*, align 8

	call void @llvm.dbg.declare (metadata %struct._ZSt6vectorIN5vmesh14MeshParametersESaIS1_EE** %_T43066440_52459.addr, metadata !5436, metadata !3891), !dbg !5413
	store %struct._ZSt6vectorIN5vmesh14MeshParametersESaIS1_EE* %_T43066440_52459.arg, %struct._ZSt6vectorIN5vmesh14MeshParametersESaIS1_EE** %_T43066440_52459.addr, align 8, !tbaa !3899
	call void @llvm.dbg.declare (metadata %struct._ZSt6vectorIN5vmesh14MeshParametersESaIS1_EE** %_T43066440_52459.addr, metadata !5437, metadata !3891), !dbg !5413
	%0 = load %struct._ZSt6vectorIN5vmesh14MeshParametersESaIS1_EE*, %struct._ZSt6vectorIN5vmesh14MeshParametersESaIS1_EE** %_T43066440_52459.addr, align 8, !tbaa !3899, !dbg !5438
	%1 = bitcast %struct._ZSt6vectorIN5vmesh14MeshParametersESaIS1_EE*  %0 to i8*, !dbg !5438
	%2 = bitcast %struct._ZNSt12_Vector_baseIN5vmesh14MeshParametersESaIS1_EE17_Vector_impl_dataE** %..inline.addr to i8**, !dbg !5438
	store i8*  %1, i8**  %2, align 8, !tbaa !3899, !dbg !5438
	%3 = load %struct._ZNSt12_Vector_baseIN5vmesh14MeshParametersESaIS1_EE17_Vector_impl_dataE*, %struct._ZNSt12_Vector_baseIN5vmesh14MeshParametersESaIS1_EE17_Vector_impl_dataE** %..inline.addr, align 8, !tbaa !3899, !dbg !5438
	%4 = bitcast %struct._ZNSt12_Vector_baseIN5vmesh14MeshParametersESaIS1_EE17_Vector_impl_dataE*  %3 to i8**, !dbg !5438
	store i8* null, i8**  %4, align 8, !tbaa !3899, !dbg !5438
	%5 = bitcast %struct._ZNSt12_Vector_baseIN5vmesh14MeshParametersESaIS1_EE17_Vector_impl_dataE*  %3 to i8*, !dbg !5438
	%6 = getelementptr i8, i8*  %5, i64 8, !dbg !5438
	%7 = bitcast i8*  %6 to i8**, !dbg !5438
	store i8* null, i8**  %7, align 8, !tbaa !3899, !dbg !5438
	%8 = getelementptr i8, i8*  %5, i64 16, !dbg !5438
	%9 = bitcast i8*  %8 to i8**, !dbg !5438
	store i8* null, i8**  %9, align 8, !tbaa !3899, !dbg !5438
	ret void, !dbg !5438
}
define linkonce_odr void @_ZNSt6vectorIN5vmesh14MeshParametersESaIS1_EEC2Ev(%struct._ZSt6vectorIN5vmesh14MeshParametersESaIS1_EE* %_T43066440_52460.arg) #0 inlinehint !dbg !5440 {
L.entry:
	%_T43066440_52460.addr = alloca %struct._ZSt6vectorIN5vmesh14MeshParametersESaIS1_EE*, align 8
	%..inline.addr = alloca %struct._ZNSt12_Vector_baseIN5vmesh14MeshParametersESaIS1_EE17_Vector_impl_dataE*, align 8

	store %struct._ZSt6vectorIN5vmesh14MeshParametersESaIS1_EE* %_T43066440_52460.arg, %struct._ZSt6vectorIN5vmesh14MeshParametersESaIS1_EE** %_T43066440_52460.addr, align 8, !tbaa !3899
	%0 = load %struct._ZSt6vectorIN5vmesh14MeshParametersESaIS1_EE*, %struct._ZSt6vectorIN5vmesh14MeshParametersESaIS1_EE** %_T43066440_52460.addr, align 8, !tbaa !3899, !dbg !5468
	%1 = bitcast %struct._ZSt6vectorIN5vmesh14MeshParametersESaIS1_EE*  %0 to i8*, !dbg !5468
	%2 = bitcast %struct._ZNSt12_Vector_baseIN5vmesh14MeshParametersESaIS1_EE17_Vector_impl_dataE** %..inline.addr to i8**, !dbg !5468
	store i8*  %1, i8**  %2, align 8, !tbaa !3899, !dbg !5468
	%3 = load %struct._ZNSt12_Vector_baseIN5vmesh14MeshParametersESaIS1_EE17_Vector_impl_dataE*, %struct._ZNSt12_Vector_baseIN5vmesh14MeshParametersESaIS1_EE17_Vector_impl_dataE** %..inline.addr, align 8, !tbaa !3899, !dbg !5468
	%4 = bitcast %struct._ZNSt12_Vector_baseIN5vmesh14MeshParametersESaIS1_EE17_Vector_impl_dataE*  %3 to i8**, !dbg !5468
	store i8* null, i8**  %4, align 8, !tbaa !3899, !dbg !5468
	%5 = bitcast %struct._ZNSt12_Vector_baseIN5vmesh14MeshParametersESaIS1_EE17_Vector_impl_dataE*  %3 to i8*, !dbg !5468
	%6 = getelementptr i8, i8*  %5, i64 8, !dbg !5468
	%7 = bitcast i8*  %6 to i8**, !dbg !5468
	store i8* null, i8**  %7, align 8, !tbaa !3899, !dbg !5468
	%8 = getelementptr i8, i8*  %5, i64 16, !dbg !5468
	%9 = bitcast i8*  %8 to i8**, !dbg !5468
	store i8* null, i8**  %9, align 8, !tbaa !3899, !dbg !5468
	ret void, !dbg !5468
}
define linkonce_odr void @_ZNSt6vectorIN5vmesh14MeshParametersESaIS1_EED1Ev(%struct._ZSt6vectorIN5vmesh14MeshParametersESaIS1_EE* %_T43066440_52461.arg) #0 inlinehint !dbg !5470 {
L.entry:
	%_T43066440_52461.addr = alloca %struct._ZSt6vectorIN5vmesh14MeshParametersESaIS1_EE*, align 8
	%..inline.addr = alloca %struct._ZN5vmesh14MeshParametersE*, align 8
	%..inline.addr.1 = alloca %struct._ZN5vmesh14MeshParametersE*, align 8
	%.lcr4474753.addr = alloca i8*, align 8
	%..inline.addr.2 = alloca %struct._ZN5vmesh14MeshParametersE*, align 8
	%..inline.addr.3 = alloca %struct._ZSt12_Vector_baseIN5vmesh14MeshParametersESaIS1_EE*, align 8
	%..inline.addr.4 = alloca %struct._ZN5vmesh14MeshParametersE*, align 8

	call void @llvm.dbg.declare (metadata %struct._ZSt6vectorIN5vmesh14MeshParametersESaIS1_EE** %_T43066440_52461.addr, metadata !5530, metadata !3891), !dbg !5471
	store %struct._ZSt6vectorIN5vmesh14MeshParametersESaIS1_EE* %_T43066440_52461.arg, %struct._ZSt6vectorIN5vmesh14MeshParametersESaIS1_EE** %_T43066440_52461.addr, align 8, !tbaa !3899
	call void @llvm.dbg.declare (metadata %struct._ZSt6vectorIN5vmesh14MeshParametersESaIS1_EE** %_T43066440_52461.addr, metadata !5531, metadata !3891), !dbg !5471
	%0 = load %struct._ZSt6vectorIN5vmesh14MeshParametersESaIS1_EE*, %struct._ZSt6vectorIN5vmesh14MeshParametersESaIS1_EE** %_T43066440_52461.addr, align 8, !tbaa !3899, !dbg !5532
	%1 = bitcast %struct._ZSt6vectorIN5vmesh14MeshParametersESaIS1_EE*  %0 to i8**, !dbg !5532
	%2 = load i8*, i8**  %1, align 8, !tbaa !3899, !dbg !5532
	%3 = bitcast %struct._ZN5vmesh14MeshParametersE** %..inline.addr to i8**, !dbg !5532
	store i8*  %2, i8**  %3, align 8, !tbaa !3899, !dbg !5532
	%4 = bitcast %struct._ZSt6vectorIN5vmesh14MeshParametersESaIS1_EE*  %0 to i8*, !dbg !5532
	%5 = getelementptr i8, i8*  %4, i64 8, !dbg !5532
	%6 = bitcast i8*  %5 to i8**, !dbg !5532
	%7 = load i8*, i8**  %6, align 8, !tbaa !3899, !dbg !5532
	%8 = bitcast %struct._ZN5vmesh14MeshParametersE** %..inline.addr.1 to i8**, !dbg !5532
	store i8*  %7, i8**  %8, align 8, !tbaa !3899, !dbg !5532
	%9 = load %struct._ZN5vmesh14MeshParametersE*, %struct._ZN5vmesh14MeshParametersE** %..inline.addr, align 8, !tbaa !3899, !dbg !5532
	%10 = bitcast %struct._ZN5vmesh14MeshParametersE*  %9 to i8*, !dbg !5532
	%11 = load %struct._ZN5vmesh14MeshParametersE*, %struct._ZN5vmesh14MeshParametersE** %..inline.addr.1, align 8, !tbaa !3899, !dbg !5532
	%12 = bitcast %struct._ZN5vmesh14MeshParametersE*  %11 to i8*, !dbg !5532
	%13 = icmp eq i8*  %10,  %12, !dbg !5532
	br i1  %13, label %L..inline.67578, label %L.B1075, !dbg !5532
L.B1075:
	%14 = bitcast %struct._ZN5vmesh14MeshParametersE*  %9 to i8*, !dbg !5532
	%15 = bitcast %struct._ZN5vmesh14MeshParametersE*  %11 to i8*, !dbg !5532
	%16 = ptrtoint i8*  %14 to i64, !dbg !5532
	%17 = sub i64 0,  %16, !dbg !5532
	%18 = getelementptr i8, i8*  %15, i64  %17, !dbg !5532
	%19 = ptrtoint i8*  %18 to i64, !dbg !5532
	%20 = add i64  %19, 335, !dbg !5532
	%21 = sub i64 0,  %16, !dbg !5532
	%22 = getelementptr i8, i8*  %15, i64  %21, !dbg !5532
	%23 = ptrtoint i8*  %22 to i64, !dbg !5532
	%24 = add i64  %23, 335, !dbg !5532
	%25 = sext i64 -4392081922311798003 to i128, !dbg !5532
	%26 = sext i64  %24 to i128, !dbg !5532
	%27 = mul i128  %25,  %26, !dbg !5532
	%28 = ashr i128  %27, 64, !dbg !5532
	%29 = trunc i128  %28 to i64, !dbg !5532
	%30 = add i64  %20,  %29, !dbg !5532
	%31 = sext i32 8 to i64, !dbg !5532
	%32 = ashr i64  %30,  %31, !dbg !5532
	%33 = sub i64 0,  %16, !dbg !5532
	%34 = getelementptr i8, i8*  %15, i64  %33, !dbg !5532
	%35 = ptrtoint i8*  %34 to i64, !dbg !5532
	%36 = add i64  %35, 335, !dbg !5532
	%37 = sext i32 63 to i64, !dbg !5532
	%38 = ashr i64  %36,  %37, !dbg !5532
	%39 = sub i64  %32,  %38, !dbg !5532
	%40 = mul i64  %39, 336, !dbg !5532
	%41 = getelementptr i8, i8*  %14, i64  %40, !dbg !5532
	store i8*  %41, i8** %.lcr4474753.addr, align 8, !tbaa !3899, !dbg !5532
	br label %L..inline.67577
L..inline.67577:
	%42 = load %struct._ZN5vmesh14MeshParametersE*, %struct._ZN5vmesh14MeshParametersE** %..inline.addr, align 8, !tbaa !3899, !dbg !5532
	%43 = bitcast %struct._ZN5vmesh14MeshParametersE*  %42 to i8*, !dbg !5532
	%44 = bitcast %struct._ZN5vmesh14MeshParametersE** %..inline.addr.2 to i8**, !dbg !5532
	store i8*  %43, i8**  %44, align 8, !tbaa !3899, !dbg !5532
	%45 = load %struct._ZN5vmesh14MeshParametersE*, %struct._ZN5vmesh14MeshParametersE** %..inline.addr.2, align 8, !tbaa !3899, !dbg !5532
	call void  @_ZN5vmesh14MeshParametersD1Ev (%struct._ZN5vmesh14MeshParametersE*  %45) nounwind, !dbg !5532
	%46 = load %struct._ZN5vmesh14MeshParametersE*, %struct._ZN5vmesh14MeshParametersE** %..inline.addr, align 8, !tbaa !3899, !dbg !5532
	%47 = bitcast %struct._ZN5vmesh14MeshParametersE*  %46 to i8*, !dbg !5532
	%48 = getelementptr i8, i8*  %47, i64 336, !dbg !5532
	%49 = bitcast %struct._ZN5vmesh14MeshParametersE** %..inline.addr to i8**, !dbg !5532
	store i8*  %48, i8**  %49, align 8, !tbaa !3899, !dbg !5532
	%50 = load %struct._ZN5vmesh14MeshParametersE*, %struct._ZN5vmesh14MeshParametersE** %..inline.addr, align 8, !tbaa !3899, !dbg !5532
	%51 = bitcast %struct._ZN5vmesh14MeshParametersE*  %50 to i8*, !dbg !5532
	%52 = load i8*, i8** %.lcr4474753.addr, align 8, !tbaa !3899, !dbg !5532
	%53 = icmp ult i8*  %51,  %52, !dbg !5532
	br i1  %53, label %L..inline.67577, label %L..inline.67578, !dbg !5532
L..inline.67578:
	%54 = load %struct._ZSt6vectorIN5vmesh14MeshParametersESaIS1_EE*, %struct._ZSt6vectorIN5vmesh14MeshParametersESaIS1_EE** %_T43066440_52461.addr, align 8, !tbaa !3899, !dbg !5533
	%55 = bitcast %struct._ZSt6vectorIN5vmesh14MeshParametersESaIS1_EE*  %54 to i8*, !dbg !5533
	%56 = bitcast %struct._ZSt12_Vector_baseIN5vmesh14MeshParametersESaIS1_EE** %..inline.addr.3 to i8**, !dbg !5533
	store i8*  %55, i8**  %56, align 8, !tbaa !3899, !dbg !5533
	%57 = load %struct._ZSt12_Vector_baseIN5vmesh14MeshParametersESaIS1_EE*, %struct._ZSt12_Vector_baseIN5vmesh14MeshParametersESaIS1_EE** %..inline.addr.3, align 8, !tbaa !3899, !dbg !5534
	%58 = bitcast %struct._ZSt12_Vector_baseIN5vmesh14MeshParametersESaIS1_EE*  %57 to i8**, !dbg !5534
	%59 = load i8*, i8**  %58, align 8, !tbaa !3899, !dbg !5534
	%60 = icmp eq i8*  %59,  null, !dbg !5534
	br i1  %60, label %L..inline.67610, label %L.B1076, !dbg !5534
L.B1076:
	%61 = bitcast %struct._ZSt12_Vector_baseIN5vmesh14MeshParametersESaIS1_EE*  %57 to i8**, !dbg !5534
	%62 = load i8*, i8**  %61, align 8, !tbaa !3899, !dbg !5534
	%63 = bitcast %struct._ZN5vmesh14MeshParametersE** %..inline.addr.4 to i8**, !dbg !5534
	store i8*  %62, i8**  %63, align 8, !tbaa !3899, !dbg !5534
	%64 = load %struct._ZN5vmesh14MeshParametersE*, %struct._ZN5vmesh14MeshParametersE** %..inline.addr.4, align 8, !tbaa !3899, !dbg !5534
	%65 = bitcast %struct._ZN5vmesh14MeshParametersE*  %64 to i8*, !dbg !5534
	call void  @_ZdlPv (i8*  %65) nounwind, !dbg !5534
	br label %L..inline.67610
L..inline.67610:
	ret void, !dbg !5533
}
define linkonce_odr void @_ZNSt6vectorIN5vmesh14MeshParametersESaIS1_EED2Ev(%struct._ZSt6vectorIN5vmesh14MeshParametersESaIS1_EE* %_T43066440_52462.arg) #0 inlinehint !dbg !5536 {
L.entry:
	%_T43066440_52462.addr = alloca %struct._ZSt6vectorIN5vmesh14MeshParametersESaIS1_EE*, align 8
	%..inline.addr = alloca %struct._ZSt6vectorIN5vmesh14MeshParametersESaIS1_EE*, align 8
	%..inline.addr.1 = alloca %struct._ZN5vmesh14MeshParametersE*, align 8
	%..inline.addr.2 = alloca %struct._ZN5vmesh14MeshParametersE*, align 8
	%.lcr4475777.addr = alloca i8*, align 8
	%..inline.addr.3 = alloca %struct._ZN5vmesh14MeshParametersE*, align 8
	%..inline.addr.4 = alloca %struct._ZN5vmesh14MeshParametersE*, align 8

	store %struct._ZSt6vectorIN5vmesh14MeshParametersESaIS1_EE* %_T43066440_52462.arg, %struct._ZSt6vectorIN5vmesh14MeshParametersESaIS1_EE** %_T43066440_52462.addr, align 8, !tbaa !3899
	%0 = load %struct._ZSt6vectorIN5vmesh14MeshParametersESaIS1_EE*, %struct._ZSt6vectorIN5vmesh14MeshParametersESaIS1_EE** %_T43066440_52462.addr, align 8, !tbaa !3899, !dbg !5600
	%1 = bitcast %struct._ZSt6vectorIN5vmesh14MeshParametersESaIS1_EE*  %0 to i8*, !dbg !5600
	%2 = bitcast %struct._ZSt6vectorIN5vmesh14MeshParametersESaIS1_EE** %..inline.addr to i8**, !dbg !5600
	store i8*  %1, i8**  %2, align 8, !tbaa !3899, !dbg !5600
	%3 = load %struct._ZSt6vectorIN5vmesh14MeshParametersESaIS1_EE*, %struct._ZSt6vectorIN5vmesh14MeshParametersESaIS1_EE** %..inline.addr, align 8, !tbaa !3899, !dbg !5601
	%4 = bitcast %struct._ZSt6vectorIN5vmesh14MeshParametersESaIS1_EE*  %3 to i8**, !dbg !5601
	%5 = load i8*, i8**  %4, align 8, !tbaa !3899, !dbg !5601
	%6 = bitcast %struct._ZN5vmesh14MeshParametersE** %..inline.addr.1 to i8**, !dbg !5601
	store i8*  %5, i8**  %6, align 8, !tbaa !3899, !dbg !5601
	%7 = bitcast %struct._ZSt6vectorIN5vmesh14MeshParametersESaIS1_EE*  %3 to i8*, !dbg !5601
	%8 = getelementptr i8, i8*  %7, i64 8, !dbg !5601
	%9 = bitcast i8*  %8 to i8**, !dbg !5601
	%10 = load i8*, i8**  %9, align 8, !tbaa !3899, !dbg !5601
	%11 = bitcast %struct._ZN5vmesh14MeshParametersE** %..inline.addr.2 to i8**, !dbg !5601
	store i8*  %10, i8**  %11, align 8, !tbaa !3899, !dbg !5601
	%12 = load %struct._ZN5vmesh14MeshParametersE*, %struct._ZN5vmesh14MeshParametersE** %..inline.addr.1, align 8, !tbaa !3899, !dbg !5601
	%13 = bitcast %struct._ZN5vmesh14MeshParametersE*  %12 to i8*, !dbg !5601
	%14 = load %struct._ZN5vmesh14MeshParametersE*, %struct._ZN5vmesh14MeshParametersE** %..inline.addr.2, align 8, !tbaa !3899, !dbg !5601
	%15 = bitcast %struct._ZN5vmesh14MeshParametersE*  %14 to i8*, !dbg !5601
	%16 = icmp eq i8*  %13,  %15, !dbg !5601
	br i1  %16, label %L..inline.67709, label %L.B1079, !dbg !5601
L.B1079:
	%17 = bitcast %struct._ZN5vmesh14MeshParametersE*  %12 to i8*, !dbg !5601
	%18 = bitcast %struct._ZN5vmesh14MeshParametersE*  %14 to i8*, !dbg !5601
	%19 = ptrtoint i8*  %17 to i64, !dbg !5601
	%20 = sub i64 0,  %19, !dbg !5601
	%21 = getelementptr i8, i8*  %18, i64  %20, !dbg !5601
	%22 = ptrtoint i8*  %21 to i64, !dbg !5601
	%23 = add i64  %22, 335, !dbg !5601
	%24 = sub i64 0,  %19, !dbg !5601
	%25 = getelementptr i8, i8*  %18, i64  %24, !dbg !5601
	%26 = ptrtoint i8*  %25 to i64, !dbg !5601
	%27 = add i64  %26, 335, !dbg !5601
	%28 = sext i64 -4392081922311798003 to i128, !dbg !5601
	%29 = sext i64  %27 to i128, !dbg !5601
	%30 = mul i128  %28,  %29, !dbg !5601
	%31 = ashr i128  %30, 64, !dbg !5601
	%32 = trunc i128  %31 to i64, !dbg !5601
	%33 = add i64  %23,  %32, !dbg !5601
	%34 = sext i32 8 to i64, !dbg !5601
	%35 = ashr i64  %33,  %34, !dbg !5601
	%36 = sub i64 0,  %19, !dbg !5601
	%37 = getelementptr i8, i8*  %18, i64  %36, !dbg !5601
	%38 = ptrtoint i8*  %37 to i64, !dbg !5601
	%39 = add i64  %38, 335, !dbg !5601
	%40 = sext i32 63 to i64, !dbg !5601
	%41 = ashr i64  %39,  %40, !dbg !5601
	%42 = sub i64  %35,  %41, !dbg !5601
	%43 = mul i64  %42, 336, !dbg !5601
	%44 = getelementptr i8, i8*  %17, i64  %43, !dbg !5601
	store i8*  %44, i8** %.lcr4475777.addr, align 8, !tbaa !3899, !dbg !5601
	br label %L..inline.67708
L..inline.67708:
	%45 = load %struct._ZN5vmesh14MeshParametersE*, %struct._ZN5vmesh14MeshParametersE** %..inline.addr.1, align 8, !tbaa !3899, !dbg !5601
	%46 = bitcast %struct._ZN5vmesh14MeshParametersE*  %45 to i8*, !dbg !5601
	%47 = bitcast %struct._ZN5vmesh14MeshParametersE** %..inline.addr.3 to i8**, !dbg !5601
	store i8*  %46, i8**  %47, align 8, !tbaa !3899, !dbg !5601
	%48 = load %struct._ZN5vmesh14MeshParametersE*, %struct._ZN5vmesh14MeshParametersE** %..inline.addr.3, align 8, !tbaa !3899, !dbg !5601
	call void  @_ZN5vmesh14MeshParametersD1Ev (%struct._ZN5vmesh14MeshParametersE*  %48) nounwind, !dbg !5601
	%49 = load %struct._ZN5vmesh14MeshParametersE*, %struct._ZN5vmesh14MeshParametersE** %..inline.addr.1, align 8, !tbaa !3899, !dbg !5601
	%50 = bitcast %struct._ZN5vmesh14MeshParametersE*  %49 to i8*, !dbg !5601
	%51 = getelementptr i8, i8*  %50, i64 336, !dbg !5601
	%52 = bitcast %struct._ZN5vmesh14MeshParametersE** %..inline.addr.1 to i8**, !dbg !5601
	store i8*  %51, i8**  %52, align 8, !tbaa !3899, !dbg !5601
	%53 = load %struct._ZN5vmesh14MeshParametersE*, %struct._ZN5vmesh14MeshParametersE** %..inline.addr.1, align 8, !tbaa !3899, !dbg !5601
	%54 = bitcast %struct._ZN5vmesh14MeshParametersE*  %53 to i8*, !dbg !5601
	%55 = load i8*, i8** %.lcr4475777.addr, align 8, !tbaa !3899, !dbg !5601
	%56 = icmp ult i8*  %54,  %55, !dbg !5601
	br i1  %56, label %L..inline.67708, label %L..inline.67709, !dbg !5601
L..inline.67709:
	%57 = load %struct._ZSt6vectorIN5vmesh14MeshParametersESaIS1_EE*, %struct._ZSt6vectorIN5vmesh14MeshParametersESaIS1_EE** %..inline.addr, align 8, !tbaa !3899, !dbg !5602
	%58 = bitcast %struct._ZSt6vectorIN5vmesh14MeshParametersESaIS1_EE*  %57 to i8**, !dbg !5602
	%59 = load i8*, i8**  %58, align 8, !tbaa !3899, !dbg !5602
	%60 = icmp eq i8*  %59,  null, !dbg !5602
	br i1  %60, label %L..inline.67739, label %L.B1080, !dbg !5602
L.B1080:
	%61 = bitcast %struct._ZSt6vectorIN5vmesh14MeshParametersESaIS1_EE*  %57 to i8**, !dbg !5602
	%62 = load i8*, i8**  %61, align 8, !tbaa !3899, !dbg !5602
	%63 = bitcast %struct._ZN5vmesh14MeshParametersE** %..inline.addr.4 to i8**, !dbg !5602
	store i8*  %62, i8**  %63, align 8, !tbaa !3899, !dbg !5602
	%64 = load %struct._ZN5vmesh14MeshParametersE*, %struct._ZN5vmesh14MeshParametersE** %..inline.addr.4, align 8, !tbaa !3899, !dbg !5602
	%65 = bitcast %struct._ZN5vmesh14MeshParametersE*  %64 to i8*, !dbg !5602
	call void  @_ZdlPv (i8*  %65) nounwind, !dbg !5602
	br label %L..inline.67739
L..inline.67739:
	ret void, !dbg !5602
}
define linkonce_odr %struct._ZN5vmesh14MeshParametersE* @_ZNSt6vectorIN5vmesh14MeshParametersESaIS1_EEixEm(%struct._ZSt6vectorIN5vmesh14MeshParametersESaIS1_EE* %_T43066440_52465.arg, i64 %__n.arg) #0 inlinehint !dbg !5606 {
L.entry:
	%_T43066440_52465.addr = alloca %struct._ZSt6vectorIN5vmesh14MeshParametersESaIS1_EE*, align 8
	%__n.addr = alloca i64, align 8

	call void @llvm.dbg.declare (metadata %struct._ZSt6vectorIN5vmesh14MeshParametersESaIS1_EE** %_T43066440_52465.addr, metadata !5610, metadata !3891), !dbg !5607
	store %struct._ZSt6vectorIN5vmesh14MeshParametersESaIS1_EE* %_T43066440_52465.arg, %struct._ZSt6vectorIN5vmesh14MeshParametersESaIS1_EE** %_T43066440_52465.addr, align 8, !tbaa !3899
	call void @llvm.dbg.declare (metadata %struct._ZSt6vectorIN5vmesh14MeshParametersESaIS1_EE** %_T43066440_52465.addr, metadata !5611, metadata !3891), !dbg !5607
	call void @llvm.dbg.declare (metadata i64* %__n.addr, metadata !5612, metadata !3891), !dbg !5607
	store i64 %__n.arg, i64* %__n.addr, align 8, !tbaa !4009
	call void @llvm.dbg.declare (metadata i64* %__n.addr, metadata !5613, metadata !3891), !dbg !5607
	%0 = load %struct._ZSt6vectorIN5vmesh14MeshParametersESaIS1_EE*, %struct._ZSt6vectorIN5vmesh14MeshParametersESaIS1_EE** %_T43066440_52465.addr, align 8, !tbaa !3899, !dbg !5614
	%1 = bitcast %struct._ZSt6vectorIN5vmesh14MeshParametersESaIS1_EE*  %0 to i8**, !dbg !5614
	%2 = load i8*, i8**  %1, align 8, !tbaa !3899, !dbg !5614
	%3 = load i64, i64* %__n.addr, align 8, !tbaa !4300, !dbg !5614
	%4 = mul i64  %3, 336, !dbg !5614
	%5 = getelementptr i8, i8*  %2, i64  %4, !dbg !5614
	%6 = bitcast i8*  %5 to %struct._ZN5vmesh14MeshParametersE*, !dbg !5614
	ret %struct._ZN5vmesh14MeshParametersE*  %6, !dbg !5614
}

%struct._ZN7species7SpeciesE = type <{ %struct._ZNSt7__cxx1112basic_stringIcSt11char_traitsIcESaIcEEE, double, double, double, i64, i32, i8, [3 x i8], i32, [4 x i8], double, double, double, double, double, %struct._ZSt5arrayIdLm3EE, double, double, double, double, i32, [4 x i8], double, double, double}> 
%struct._ZSt12_Vector_baseIN7species7SpeciesESaIS1_EE = type <{ %struct._ZNSt12_Vector_baseIN7species7SpeciesESaIS1_EE12_Vector_implE}> 
%struct._ZSt6vectorIN7species7SpeciesESaIS1_EE = type <{ %struct._ZSt12_Vector_baseIN7species7SpeciesESaIS1_EE}> 
%struct._ZSt5arrayIdLm3EE = type <{ [3 x double]}> 
%struct._ZNSt12_Vector_baseIN7species7SpeciesESaIS1_EE12_Vector_implE = type <{ %struct._ZNSt12_Vector_baseIN7species7SpeciesESaIS1_EE17_Vector_impl_dataE}> 
%struct._ZNSt12_Vector_baseIN7species7SpeciesESaIS1_EE17_Vector_impl_dataE = type <{ %struct._ZN7species7SpeciesE*, %struct._ZN7species7SpeciesE*, %struct._ZN7species7SpeciesE*}> 

define linkonce_odr i64 @_ZNKSt6vectorIN7species7SpeciesESaIS1_EE4sizeEv(%struct._ZSt6vectorIN7species7SpeciesESaIS1_EE* %_T43066440_52467.arg) #0 inlinehint !dbg !5620 {
L.entry:
	%_T43066440_52467.addr = alloca %struct._ZSt6vectorIN7species7SpeciesESaIS1_EE*, align 8
	%_T43067328_52467.addr = alloca i64, align 8

	call void @llvm.dbg.declare (metadata %struct._ZSt6vectorIN7species7SpeciesESaIS1_EE** %_T43066440_52467.addr, metadata !5624, metadata !3891), !dbg !5621
	store %struct._ZSt6vectorIN7species7SpeciesESaIS1_EE* %_T43066440_52467.arg, %struct._ZSt6vectorIN7species7SpeciesESaIS1_EE** %_T43066440_52467.addr, align 8, !tbaa !3899
	call void @llvm.dbg.declare (metadata %struct._ZSt6vectorIN7species7SpeciesESaIS1_EE** %_T43066440_52467.addr, metadata !5625, metadata !3891), !dbg !5621
	%0 = load %struct._ZSt6vectorIN7species7SpeciesESaIS1_EE*, %struct._ZSt6vectorIN7species7SpeciesESaIS1_EE** %_T43066440_52467.addr, align 8, !tbaa !3899, !dbg !5626
	%1 = bitcast %struct._ZSt6vectorIN7species7SpeciesESaIS1_EE*  %0 to i8*, !dbg !5626
	%2 = getelementptr i8, i8*  %1, i64 8, !dbg !5626
	%3 = bitcast i8*  %2 to i8**, !dbg !5626
	%4 = load i8*, i8**  %3, align 8, !tbaa !3899, !dbg !5626
	%5 = bitcast %struct._ZSt6vectorIN7species7SpeciesESaIS1_EE*  %0 to i8**, !dbg !5626
	%6 = load i8*, i8**  %5, align 8, !tbaa !3899, !dbg !5626
	%7 = ptrtoint i8*  %6 to i64, !dbg !5626
	%8 = sub i64 0,  %7, !dbg !5626
	%9 = getelementptr i8, i8*  %4, i64  %8, !dbg !5626
	%10 = ptrtoint i8*  %9 to i64, !dbg !5626
	%11 = sext i64 5675921253449092805 to i128, !dbg !5626
	%12 = sext i64  %10 to i128, !dbg !5626
	%13 = mul i128  %11,  %12, !dbg !5626
	%14 = ashr i128  %13, 64, !dbg !5626
	%15 = trunc i128  %14 to i64, !dbg !5626
	%16 = sext i32 6 to i64, !dbg !5626
	%17 = ashr i64  %15,  %16, !dbg !5626
	%18 = sub i64 0,  %7, !dbg !5626
	%19 = getelementptr i8, i8*  %4, i64  %18, !dbg !5626
	%20 = ptrtoint i8*  %19 to i64, !dbg !5626
	%21 = sext i32 63 to i64, !dbg !5626
	%22 = ashr i64  %20,  %21, !dbg !5626
	%23 = sub i64  %17,  %22, !dbg !5626
	ret i64  %23, !dbg !5626
}
define linkonce_odr %struct._ZN7species7SpeciesE* @_ZNSt6vectorIN7species7SpeciesESaIS1_EEixEm(%struct._ZSt6vectorIN7species7SpeciesESaIS1_EE* %_T43066440_52470.arg, i64 %__n.arg) #0 inlinehint !dbg !5630 {
L.entry:
	%_T43066440_52470.addr = alloca %struct._ZSt6vectorIN7species7SpeciesESaIS1_EE*, align 8
	%__n.addr = alloca i64, align 8

	call void @llvm.dbg.declare (metadata %struct._ZSt6vectorIN7species7SpeciesESaIS1_EE** %_T43066440_52470.addr, metadata !5634, metadata !3891), !dbg !5631
	store %struct._ZSt6vectorIN7species7SpeciesESaIS1_EE* %_T43066440_52470.arg, %struct._ZSt6vectorIN7species7SpeciesESaIS1_EE** %_T43066440_52470.addr, align 8, !tbaa !3899
	call void @llvm.dbg.declare (metadata %struct._ZSt6vectorIN7species7SpeciesESaIS1_EE** %_T43066440_52470.addr, metadata !5635, metadata !3891), !dbg !5631
	call void @llvm.dbg.declare (metadata i64* %__n.addr, metadata !5636, metadata !3891), !dbg !5631
	store i64 %__n.arg, i64* %__n.addr, align 8, !tbaa !4009
	call void @llvm.dbg.declare (metadata i64* %__n.addr, metadata !5637, metadata !3891), !dbg !5631
	%0 = load %struct._ZSt6vectorIN7species7SpeciesESaIS1_EE*, %struct._ZSt6vectorIN7species7SpeciesESaIS1_EE** %_T43066440_52470.addr, align 8, !tbaa !3899, !dbg !5638
	%1 = bitcast %struct._ZSt6vectorIN7species7SpeciesESaIS1_EE*  %0 to i8**, !dbg !5638
	%2 = load i8*, i8**  %1, align 8, !tbaa !3899, !dbg !5638
	%3 = load i64, i64* %__n.addr, align 8, !tbaa !4300, !dbg !5638
	%4 = mul i64  %3, 208, !dbg !5638
	%5 = getelementptr i8, i8*  %2, i64  %4, !dbg !5638
	%6 = bitcast i8*  %5 to %struct._ZN7species7SpeciesE*, !dbg !5638
	ret %struct._ZN7species7SpeciesE*  %6, !dbg !5638
}
define linkonce_odr i8* @_ZNSt14pointer_traitsIPcE10pointer_toERc(i8* %__r.arg) #0 inlinehint !dbg !5645 {
L.entry:
	%__r.addr = alloca i8*, align 8

	call void @llvm.dbg.declare (metadata i8** %__r.addr, metadata !5657, metadata !3891), !dbg !5646
	store i8* %__r.arg, i8** %__r.addr, align 8, !tbaa !3899
	call void @llvm.dbg.declare (metadata i8** %__r.addr, metadata !5658, metadata !3891), !dbg !5646
	%0 = load i8*, i8** %__r.addr, align 8, !tbaa !3899, !dbg !5659
	ret i8*  %0, !dbg !5659
}
define linkonce_odr i8* @_ZNSt14pointer_traitsIPKcE10pointer_toERS0_(i8* %__r.arg) #0 inlinehint !dbg !5661 {
L.entry:
	%__r.addr = alloca i8*, align 8

	call void @llvm.dbg.declare (metadata i8** %__r.addr, metadata !5673, metadata !3891), !dbg !5662
	store i8* %__r.arg, i8** %__r.addr, align 8, !tbaa !3899
	call void @llvm.dbg.declare (metadata i8** %__r.addr, metadata !5674, metadata !3891), !dbg !5662
	%0 = load i8*, i8** %__r.addr, align 8, !tbaa !3899, !dbg !5675
	ret i8*  %0, !dbg !5675
}
define linkonce_odr void @_ZNSt12_Destroy_auxILb0EE9__destroyIPN5vmesh14MeshParametersEEEvT_S5_(%struct._ZN5vmesh14MeshParametersE* %__first.arg, %struct._ZN5vmesh14MeshParametersE* %__last.arg) #0 inlinehint !dbg !5679 {
L.entry:
	%__first.addr = alloca %struct._ZN5vmesh14MeshParametersE*, align 8
	%__last.addr = alloca %struct._ZN5vmesh14MeshParametersE*, align 8
	%.lcr4481921.addr = alloca i8*, align 8
	%..inline.addr = alloca %struct._ZN5vmesh14MeshParametersE*, align 8

	call void @llvm.dbg.declare (metadata %struct._ZN5vmesh14MeshParametersE** %__first.addr, metadata !5691, metadata !3891), !dbg !5680
	store %struct._ZN5vmesh14MeshParametersE* %__first.arg, %struct._ZN5vmesh14MeshParametersE** %__first.addr, align 8, !tbaa !3899
	call void @llvm.dbg.declare (metadata %struct._ZN5vmesh14MeshParametersE** %__first.addr, metadata !5692, metadata !3891), !dbg !5680
	call void @llvm.dbg.declare (metadata %struct._ZN5vmesh14MeshParametersE** %__last.addr, metadata !5693, metadata !3891), !dbg !5680
	store %struct._ZN5vmesh14MeshParametersE* %__last.arg, %struct._ZN5vmesh14MeshParametersE** %__last.addr, align 8, !tbaa !3899
	call void @llvm.dbg.declare (metadata %struct._ZN5vmesh14MeshParametersE** %__last.addr, metadata !5694, metadata !3891), !dbg !5680
	%0 = load %struct._ZN5vmesh14MeshParametersE*, %struct._ZN5vmesh14MeshParametersE** %__first.addr, align 8, !tbaa !3899, !dbg !5695
	%1 = bitcast %struct._ZN5vmesh14MeshParametersE*  %0 to i8*, !dbg !5695
	%2 = load %struct._ZN5vmesh14MeshParametersE*, %struct._ZN5vmesh14MeshParametersE** %__last.addr, align 8, !tbaa !3899, !dbg !5695
	%3 = bitcast %struct._ZN5vmesh14MeshParametersE*  %2 to i8*, !dbg !5695
	%4 = icmp eq i8*  %1,  %3, !dbg !5695
	br i1  %4, label %L.B0010, label %L.B1089, !dbg !5695
L.B1089:
	%5 = bitcast %struct._ZN5vmesh14MeshParametersE*  %0 to i8*, !dbg !5695
	%6 = bitcast %struct._ZN5vmesh14MeshParametersE*  %2 to i8*, !dbg !5695
	%7 = ptrtoint i8*  %5 to i64, !dbg !5695
	%8 = sub i64 0,  %7, !dbg !5695
	%9 = getelementptr i8, i8*  %6, i64  %8, !dbg !5695
	%10 = ptrtoint i8*  %9 to i64, !dbg !5695
	%11 = add i64  %10, 335, !dbg !5695
	%12 = sub i64 0,  %7, !dbg !5695
	%13 = getelementptr i8, i8*  %6, i64  %12, !dbg !5695
	%14 = ptrtoint i8*  %13 to i64, !dbg !5695
	%15 = add i64  %14, 335, !dbg !5695
	%16 = sext i64 -4392081922311798003 to i128, !dbg !5695
	%17 = sext i64  %15 to i128, !dbg !5695
	%18 = mul i128  %16,  %17, !dbg !5695
	%19 = ashr i128  %18, 64, !dbg !5695
	%20 = trunc i128  %19 to i64, !dbg !5695
	%21 = add i64  %11,  %20, !dbg !5695
	%22 = sext i32 8 to i64, !dbg !5695
	%23 = ashr i64  %21,  %22, !dbg !5695
	%24 = sub i64 0,  %7, !dbg !5695
	%25 = getelementptr i8, i8*  %6, i64  %24, !dbg !5695
	%26 = ptrtoint i8*  %25 to i64, !dbg !5695
	%27 = add i64  %26, 335, !dbg !5695
	%28 = sext i32 63 to i64, !dbg !5695
	%29 = ashr i64  %27,  %28, !dbg !5695
	%30 = sub i64  %23,  %29, !dbg !5695
	%31 = mul i64  %30, 336, !dbg !5695
	%32 = getelementptr i8, i8*  %5, i64  %31, !dbg !5695
	store i8*  %32, i8** %.lcr4481921.addr, align 8, !tbaa !3899, !dbg !5695
	br label %L.B0009
L.B0009:
	%33 = load %struct._ZN5vmesh14MeshParametersE*, %struct._ZN5vmesh14MeshParametersE** %__first.addr, align 8, !tbaa !3899, !dbg !5696
	%34 = bitcast %struct._ZN5vmesh14MeshParametersE*  %33 to i8*, !dbg !5696
	%35 = bitcast %struct._ZN5vmesh14MeshParametersE** %..inline.addr to i8**, !dbg !5696
	store i8*  %34, i8**  %35, align 8, !tbaa !3899, !dbg !5696
	%36 = load %struct._ZN5vmesh14MeshParametersE*, %struct._ZN5vmesh14MeshParametersE** %..inline.addr, align 8, !tbaa !3899, !dbg !5697
	call void  @_ZN5vmesh14MeshParametersD1Ev (%struct._ZN5vmesh14MeshParametersE*  %36) nounwind, !dbg !5697
	%37 = load %struct._ZN5vmesh14MeshParametersE*, %struct._ZN5vmesh14MeshParametersE** %__first.addr, align 8, !tbaa !3899, !dbg !5698
	%38 = bitcast %struct._ZN5vmesh14MeshParametersE*  %37 to i8*, !dbg !5698
	%39 = getelementptr i8, i8*  %38, i64 336, !dbg !5698
	%40 = bitcast %struct._ZN5vmesh14MeshParametersE** %__first.addr to i8**, !dbg !5698
	store i8*  %39, i8**  %40, align 8, !tbaa !3899, !dbg !5698
	%41 = load %struct._ZN5vmesh14MeshParametersE*, %struct._ZN5vmesh14MeshParametersE** %__first.addr, align 8, !tbaa !3899, !dbg !5698
	%42 = bitcast %struct._ZN5vmesh14MeshParametersE*  %41 to i8*, !dbg !5698
	%43 = load i8*, i8** %.lcr4481921.addr, align 8, !tbaa !3899, !dbg !5698
	%44 = icmp ult i8*  %42,  %43, !dbg !5698
	br i1  %44, label %L.B0009, label %L.B0010, !dbg !5698
L.B0010:
	ret void, !dbg !5699
}
define linkonce_odr void @_ZNSt7__cxx1112basic_stringIcSt11char_traitsIcESaIcEE7_M_dataEPc(%struct._ZNSt7__cxx1112basic_stringIcSt11char_traitsIcESaIcEEE* %_T43066440_52481.arg, i8* %__p.arg) #0 inlinehint !dbg !5706 {
L.entry:
	%_T43066440_52481.addr = alloca %struct._ZNSt7__cxx1112basic_stringIcSt11char_traitsIcESaIcEEE*, align 8
	%__p.addr = alloca i8*, align 8

	call void @llvm.dbg.declare (metadata %struct._ZNSt7__cxx1112basic_stringIcSt11char_traitsIcESaIcEEE** %_T43066440_52481.addr, metadata !5710, metadata !3891), !dbg !5707
	store %struct._ZNSt7__cxx1112basic_stringIcSt11char_traitsIcESaIcEEE* %_T43066440_52481.arg, %struct._ZNSt7__cxx1112basic_stringIcSt11char_traitsIcESaIcEEE** %_T43066440_52481.addr, align 8, !tbaa !3899
	call void @llvm.dbg.declare (metadata %struct._ZNSt7__cxx1112basic_stringIcSt11char_traitsIcESaIcEEE** %_T43066440_52481.addr, metadata !5711, metadata !3891), !dbg !5707
	call void @llvm.dbg.declare (metadata i8** %__p.addr, metadata !5712, metadata !3891), !dbg !5707
	store i8* %__p.arg, i8** %__p.addr, align 8, !tbaa !3899
	call void @llvm.dbg.declare (metadata i8** %__p.addr, metadata !5713, metadata !3891), !dbg !5707
	%0 = load i8*, i8** %__p.addr, align 8, !tbaa !3899, !dbg !5714
	%1 = load %struct._ZNSt7__cxx1112basic_stringIcSt11char_traitsIcESaIcEEE*, %struct._ZNSt7__cxx1112basic_stringIcSt11char_traitsIcESaIcEEE** %_T43066440_52481.addr, align 8, !tbaa !3899, !dbg !5714
	%2 = bitcast %struct._ZNSt7__cxx1112basic_stringIcSt11char_traitsIcESaIcEEE*  %1 to i8**, !dbg !5714
	store i8*  %0, i8**  %2, align 8, !tbaa !3899, !dbg !5714
	ret void, !dbg !5714
}
define linkonce_odr void @_ZNSt7__cxx1112basic_stringIcSt11char_traitsIcESaIcEE9_M_lengthEm(%struct._ZNSt7__cxx1112basic_stringIcSt11char_traitsIcESaIcEEE* %_T43066440_52483.arg, i64 %__length.arg) #0 inlinehint !dbg !5718 {
L.entry:
	%_T43066440_52483.addr = alloca %struct._ZNSt7__cxx1112basic_stringIcSt11char_traitsIcESaIcEEE*, align 8
	%__length.addr = alloca i64, align 8

	call void @llvm.dbg.declare (metadata %struct._ZNSt7__cxx1112basic_stringIcSt11char_traitsIcESaIcEEE** %_T43066440_52483.addr, metadata !5722, metadata !3891), !dbg !5719
	store %struct._ZNSt7__cxx1112basic_stringIcSt11char_traitsIcESaIcEEE* %_T43066440_52483.arg, %struct._ZNSt7__cxx1112basic_stringIcSt11char_traitsIcESaIcEEE** %_T43066440_52483.addr, align 8, !tbaa !3899
	call void @llvm.dbg.declare (metadata %struct._ZNSt7__cxx1112basic_stringIcSt11char_traitsIcESaIcEEE** %_T43066440_52483.addr, metadata !5723, metadata !3891), !dbg !5719
	call void @llvm.dbg.declare (metadata i64* %__length.addr, metadata !5724, metadata !3891), !dbg !5719
	store i64 %__length.arg, i64* %__length.addr, align 8, !tbaa !4009
	call void @llvm.dbg.declare (metadata i64* %__length.addr, metadata !5725, metadata !3891), !dbg !5719
	%0 = load i64, i64* %__length.addr, align 8, !tbaa !4300, !dbg !5726
	%1 = load %struct._ZNSt7__cxx1112basic_stringIcSt11char_traitsIcESaIcEEE*, %struct._ZNSt7__cxx1112basic_stringIcSt11char_traitsIcESaIcEEE** %_T43066440_52483.addr, align 8, !tbaa !3899, !dbg !5726
	%2 = bitcast %struct._ZNSt7__cxx1112basic_stringIcSt11char_traitsIcESaIcEEE*  %1 to i8*, !dbg !5726
	%3 = getelementptr i8, i8*  %2, i64 8, !dbg !5726
	%4 = bitcast i8*  %3 to i64*, !dbg !5726
	store i64  %0, i64*  %4, align 8, !tbaa !4009, !dbg !5726
	ret void, !dbg !5726
}
define linkonce_odr i8* @_ZNKSt7__cxx1112basic_stringIcSt11char_traitsIcESaIcEE7_M_dataEv(%struct._ZNSt7__cxx1112basic_stringIcSt11char_traitsIcESaIcEEE* %_T43066440_52485.arg) #0 inlinehint !dbg !5730 {
L.entry:
	%_T43066440_52485.addr = alloca %struct._ZNSt7__cxx1112basic_stringIcSt11char_traitsIcESaIcEEE*, align 8

	call void @llvm.dbg.declare (metadata %struct._ZNSt7__cxx1112basic_stringIcSt11char_traitsIcESaIcEEE** %_T43066440_52485.addr, metadata !5734, metadata !3891), !dbg !5731
	store %struct._ZNSt7__cxx1112basic_stringIcSt11char_traitsIcESaIcEEE* %_T43066440_52485.arg, %struct._ZNSt7__cxx1112basic_stringIcSt11char_traitsIcESaIcEEE** %_T43066440_52485.addr, align 8, !tbaa !3899
	call void @llvm.dbg.declare (metadata %struct._ZNSt7__cxx1112basic_stringIcSt11char_traitsIcESaIcEEE** %_T43066440_52485.addr, metadata !5735, metadata !3891), !dbg !5731
	%0 = load %struct._ZNSt7__cxx1112basic_stringIcSt11char_traitsIcESaIcEEE*, %struct._ZNSt7__cxx1112basic_stringIcSt11char_traitsIcESaIcEEE** %_T43066440_52485.addr, align 8, !tbaa !3899, !dbg !5736
	%1 = bitcast %struct._ZNSt7__cxx1112basic_stringIcSt11char_traitsIcESaIcEEE*  %0 to i8**, !dbg !5736
	%2 = load i8*, i8**  %1, align 8, !tbaa !3899, !dbg !5736
	ret i8*  %2, !dbg !5736
}
define linkonce_odr i8* @_ZNSt7__cxx1112basic_stringIcSt11char_traitsIcESaIcEE13_M_local_dataEv(%struct._ZNSt7__cxx1112basic_stringIcSt11char_traitsIcESaIcEEE* %_T43066440_52487.arg) #0 inlinehint !dbg !5738 {
L.entry:
	%_T43066440_52487.addr = alloca %struct._ZNSt7__cxx1112basic_stringIcSt11char_traitsIcESaIcEEE*, align 8

	call void @llvm.dbg.declare (metadata %struct._ZNSt7__cxx1112basic_stringIcSt11char_traitsIcESaIcEEE** %_T43066440_52487.addr, metadata !5754, metadata !3891), !dbg !5739
	store %struct._ZNSt7__cxx1112basic_stringIcSt11char_traitsIcESaIcEEE* %_T43066440_52487.arg, %struct._ZNSt7__cxx1112basic_stringIcSt11char_traitsIcESaIcEEE** %_T43066440_52487.addr, align 8, !tbaa !3899
	call void @llvm.dbg.declare (metadata %struct._ZNSt7__cxx1112basic_stringIcSt11char_traitsIcESaIcEEE** %_T43066440_52487.addr, metadata !5755, metadata !3891), !dbg !5739
	%0 = load %struct._ZNSt7__cxx1112basic_stringIcSt11char_traitsIcESaIcEEE*, %struct._ZNSt7__cxx1112basic_stringIcSt11char_traitsIcESaIcEEE** %_T43066440_52487.addr, align 8, !tbaa !3899, !dbg !5756
	%1 = bitcast %struct._ZNSt7__cxx1112basic_stringIcSt11char_traitsIcESaIcEEE*  %0 to i8*, !dbg !5756
	%2 = getelementptr i8, i8*  %1, i64 16, !dbg !5756
	ret i8*  %2, !dbg !5756
}
define linkonce_odr i8* @_ZNKSt7__cxx1112basic_stringIcSt11char_traitsIcESaIcEE13_M_local_dataEv(%struct._ZNSt7__cxx1112basic_stringIcSt11char_traitsIcESaIcEEE* %_T43066440_52489.arg) #0 inlinehint !dbg !5759 {
L.entry:
	%_T43066440_52489.addr = alloca %struct._ZNSt7__cxx1112basic_stringIcSt11char_traitsIcESaIcEEE*, align 8

	call void @llvm.dbg.declare (metadata %struct._ZNSt7__cxx1112basic_stringIcSt11char_traitsIcESaIcEEE** %_T43066440_52489.addr, metadata !5775, metadata !3891), !dbg !5760
	store %struct._ZNSt7__cxx1112basic_stringIcSt11char_traitsIcESaIcEEE* %_T43066440_52489.arg, %struct._ZNSt7__cxx1112basic_stringIcSt11char_traitsIcESaIcEEE** %_T43066440_52489.addr, align 8, !tbaa !3899
	call void @llvm.dbg.declare (metadata %struct._ZNSt7__cxx1112basic_stringIcSt11char_traitsIcESaIcEEE** %_T43066440_52489.addr, metadata !5776, metadata !3891), !dbg !5760
	%0 = load %struct._ZNSt7__cxx1112basic_stringIcSt11char_traitsIcESaIcEEE*, %struct._ZNSt7__cxx1112basic_stringIcSt11char_traitsIcESaIcEEE** %_T43066440_52489.addr, align 8, !tbaa !3899, !dbg !5777
	%1 = bitcast %struct._ZNSt7__cxx1112basic_stringIcSt11char_traitsIcESaIcEEE*  %0 to i8*, !dbg !5777
	%2 = getelementptr i8, i8*  %1, i64 16, !dbg !5777
	ret i8*  %2, !dbg !5777
}
define linkonce_odr void @_ZNSt7__cxx1112basic_stringIcSt11char_traitsIcESaIcEE11_M_capacityEm(%struct._ZNSt7__cxx1112basic_stringIcSt11char_traitsIcESaIcEEE* %_T43066440_52491.arg, i64 %__capacity.arg) #0 inlinehint !dbg !5780 {
L.entry:
	%_T43066440_52491.addr = alloca %struct._ZNSt7__cxx1112basic_stringIcSt11char_traitsIcESaIcEEE*, align 8
	%__capacity.addr = alloca i64, align 8

	call void @llvm.dbg.declare (metadata %struct._ZNSt7__cxx1112basic_stringIcSt11char_traitsIcESaIcEEE** %_T43066440_52491.addr, metadata !5784, metadata !3891), !dbg !5781
	store %struct._ZNSt7__cxx1112basic_stringIcSt11char_traitsIcESaIcEEE* %_T43066440_52491.arg, %struct._ZNSt7__cxx1112basic_stringIcSt11char_traitsIcESaIcEEE** %_T43066440_52491.addr, align 8, !tbaa !3899
	call void @llvm.dbg.declare (metadata %struct._ZNSt7__cxx1112basic_stringIcSt11char_traitsIcESaIcEEE** %_T43066440_52491.addr, metadata !5785, metadata !3891), !dbg !5781
	call void @llvm.dbg.declare (metadata i64* %__capacity.addr, metadata !5786, metadata !3891), !dbg !5781
	store i64 %__capacity.arg, i64* %__capacity.addr, align 8, !tbaa !4009
	call void @llvm.dbg.declare (metadata i64* %__capacity.addr, metadata !5787, metadata !3891), !dbg !5781
	%0 = load i64, i64* %__capacity.addr, align 8, !tbaa !4300, !dbg !5788
	%1 = load %struct._ZNSt7__cxx1112basic_stringIcSt11char_traitsIcESaIcEEE*, %struct._ZNSt7__cxx1112basic_stringIcSt11char_traitsIcESaIcEEE** %_T43066440_52491.addr, align 8, !tbaa !3899, !dbg !5788
	%2 = bitcast %struct._ZNSt7__cxx1112basic_stringIcSt11char_traitsIcESaIcEEE*  %1 to i8*, !dbg !5788
	%3 = getelementptr i8, i8*  %2, i64 16, !dbg !5788
	%4 = bitcast i8*  %3 to i64*, !dbg !5788
	store i64  %0, i64*  %4, align 8, !tbaa !4009, !dbg !5788
	ret void, !dbg !5788
}
define linkonce_odr void @_ZNSt7__cxx1112basic_stringIcSt11char_traitsIcESaIcEE13_M_set_lengthEm(%struct._ZNSt7__cxx1112basic_stringIcSt11char_traitsIcESaIcEEE* %_T43066440_52493.arg, i64 %__n.arg) #0 inlinehint !dbg !5790 {
L.entry:
	%_T43066440_52493.addr = alloca %struct._ZNSt7__cxx1112basic_stringIcSt11char_traitsIcESaIcEEE*, align 8
	%__n.addr = alloca i64, align 8
	%..inline.addr = alloca i8*, align 8

	call void @llvm.dbg.declare (metadata %struct._ZNSt7__cxx1112basic_stringIcSt11char_traitsIcESaIcEEE** %_T43066440_52493.addr, metadata !5806, metadata !3891), !dbg !5791
	store %struct._ZNSt7__cxx1112basic_stringIcSt11char_traitsIcESaIcEEE* %_T43066440_52493.arg, %struct._ZNSt7__cxx1112basic_stringIcSt11char_traitsIcESaIcEEE** %_T43066440_52493.addr, align 8, !tbaa !3899
	call void @llvm.dbg.declare (metadata %struct._ZNSt7__cxx1112basic_stringIcSt11char_traitsIcESaIcEEE** %_T43066440_52493.addr, metadata !5807, metadata !3891), !dbg !5791
	call void @llvm.dbg.declare (metadata i64* %__n.addr, metadata !5808, metadata !3891), !dbg !5791
	store i64 %__n.arg, i64* %__n.addr, align 8, !tbaa !4009
	call void @llvm.dbg.declare (metadata i64* %__n.addr, metadata !5809, metadata !3891), !dbg !5791
	%0 = load i64, i64* %__n.addr, align 8, !tbaa !4300, !dbg !5810
	%1 = load %struct._ZNSt7__cxx1112basic_stringIcSt11char_traitsIcESaIcEEE*, %struct._ZNSt7__cxx1112basic_stringIcSt11char_traitsIcESaIcEEE** %_T43066440_52493.addr, align 8, !tbaa !3899, !dbg !5810
	%2 = bitcast %struct._ZNSt7__cxx1112basic_stringIcSt11char_traitsIcESaIcEEE*  %1 to i8*, !dbg !5810
	%3 = getelementptr i8, i8*  %2, i64 8, !dbg !5810
	%4 = bitcast i8*  %3 to i64*, !dbg !5810
	store i64  %0, i64*  %4, align 8, !tbaa !4009, !dbg !5810
	%5 = bitcast %struct._ZNSt7__cxx1112basic_stringIcSt11char_traitsIcESaIcEEE*  %1 to i8**, !dbg !5811
	%6 = load i8*, i8**  %5, align 8, !tbaa !3899, !dbg !5811
	%7 = getelementptr i8, i8*  %6, i64  %0, !dbg !5811
	store i8 0, i8*  %7, align 1, !tbaa !4009, !dbg !5812
	ret void, !dbg !5813
}
define linkonce_odr signext i8 @_ZNKSt7__cxx1112basic_stringIcSt11char_traitsIcESaIcEE11_M_is_localEv(%struct._ZNSt7__cxx1112basic_stringIcSt11char_traitsIcESaIcEEE* %_T43066440_52494.arg) #0 inlinehint !dbg !5817 {
L.entry:
	%_T43066440_52494.addr = alloca %struct._ZNSt7__cxx1112basic_stringIcSt11char_traitsIcESaIcEEE*, align 8

	call void @llvm.dbg.declare (metadata %struct._ZNSt7__cxx1112basic_stringIcSt11char_traitsIcESaIcEEE** %_T43066440_52494.addr, metadata !5841, metadata !3891), !dbg !5818
	store %struct._ZNSt7__cxx1112basic_stringIcSt11char_traitsIcESaIcEEE* %_T43066440_52494.arg, %struct._ZNSt7__cxx1112basic_stringIcSt11char_traitsIcESaIcEEE** %_T43066440_52494.addr, align 8, !tbaa !3899
	call void @llvm.dbg.declare (metadata %struct._ZNSt7__cxx1112basic_stringIcSt11char_traitsIcESaIcEEE** %_T43066440_52494.addr, metadata !5842, metadata !3891), !dbg !5818
	%0 = load %struct._ZNSt7__cxx1112basic_stringIcSt11char_traitsIcESaIcEEE*, %struct._ZNSt7__cxx1112basic_stringIcSt11char_traitsIcESaIcEEE** %_T43066440_52494.addr, align 8, !tbaa !3899, !dbg !5843
	%1 = bitcast %struct._ZNSt7__cxx1112basic_stringIcSt11char_traitsIcESaIcEEE*  %0 to i8**, !dbg !5843
	%2 = load i8*, i8**  %1, align 8, !tbaa !3899, !dbg !5843
	%3 = bitcast %struct._ZNSt7__cxx1112basic_stringIcSt11char_traitsIcESaIcEEE*  %0 to i8*, !dbg !5843
	%4 = getelementptr i8, i8*  %3, i64 16, !dbg !5843
	%5 = icmp eq i8*  %2,  %4, !dbg !5843
	%6 = zext i1  %5 to i32, !dbg !5843
	%7 = trunc i32  %6 to i8, !dbg !5843
	ret i8  %7, !dbg !5843
}
define linkonce_odr void @_ZNSt7__cxx1112basic_stringIcSt11char_traitsIcESaIcEE10_M_disposeEv(%struct._ZNSt7__cxx1112basic_stringIcSt11char_traitsIcESaIcEEE* %_T43066440_52499.arg) #0 inlinehint !dbg !5848 {
L.entry:
	%_T43066440_52499.addr = alloca %struct._ZNSt7__cxx1112basic_stringIcSt11char_traitsIcESaIcEEE*, align 8
	%..inline.addr = alloca i8*, align 8

	call void @llvm.dbg.declare (metadata %struct._ZNSt7__cxx1112basic_stringIcSt11char_traitsIcESaIcEEE** %_T43066440_52499.addr, metadata !5896, metadata !3891), !dbg !5849
	store %struct._ZNSt7__cxx1112basic_stringIcSt11char_traitsIcESaIcEEE* %_T43066440_52499.arg, %struct._ZNSt7__cxx1112basic_stringIcSt11char_traitsIcESaIcEEE** %_T43066440_52499.addr, align 8, !tbaa !3899
	call void @llvm.dbg.declare (metadata %struct._ZNSt7__cxx1112basic_stringIcSt11char_traitsIcESaIcEEE** %_T43066440_52499.addr, metadata !5897, metadata !3891), !dbg !5849
	%0 = load %struct._ZNSt7__cxx1112basic_stringIcSt11char_traitsIcESaIcEEE*, %struct._ZNSt7__cxx1112basic_stringIcSt11char_traitsIcESaIcEEE** %_T43066440_52499.addr, align 8, !tbaa !3899, !dbg !5898
	%1 = bitcast %struct._ZNSt7__cxx1112basic_stringIcSt11char_traitsIcESaIcEEE*  %0 to i8**, !dbg !5898
	%2 = load i8*, i8**  %1, align 8, !tbaa !3899, !dbg !5898
	%3 = bitcast %struct._ZNSt7__cxx1112basic_stringIcSt11char_traitsIcESaIcEEE*  %0 to i8*, !dbg !5898
	%4 = getelementptr i8, i8*  %3, i64 16, !dbg !5898
	%5 = icmp eq i8*  %2,  %4, !dbg !5898
	br i1  %5, label %L.B0011, label %L.B1108, !dbg !5898
L.B1108:
	%6 = bitcast %struct._ZNSt7__cxx1112basic_stringIcSt11char_traitsIcESaIcEEE*  %0 to i8**, !dbg !5899
	%7 = load i8*, i8**  %6, align 8, !tbaa !3899, !dbg !5899
	call void  @_ZdlPv (i8*  %7) nounwind, !dbg !5899
	br label %L.B0011
L.B0011:
	ret void, !dbg !5900
}
define linkonce_odr void @_ZNSt7__cxx1112basic_stringIcSt11char_traitsIcESaIcEE10_M_destroyEm(%struct._ZNSt7__cxx1112basic_stringIcSt11char_traitsIcESaIcEEE* %_T43066440_52501.arg, i64 %__size.arg) #0 inlinehint !dbg !5902 {
L.entry:
	%_T43066440_52501.addr = alloca %struct._ZNSt7__cxx1112basic_stringIcSt11char_traitsIcESaIcEEE*, align 8
	%__size.addr = alloca i64, align 8
	%..inline.addr = alloca i8*, align 8

	call void @llvm.dbg.declare (metadata %struct._ZNSt7__cxx1112basic_stringIcSt11char_traitsIcESaIcEEE** %_T43066440_52501.addr, metadata !5922, metadata !3891), !dbg !5903
	store %struct._ZNSt7__cxx1112basic_stringIcSt11char_traitsIcESaIcEEE* %_T43066440_52501.arg, %struct._ZNSt7__cxx1112basic_stringIcSt11char_traitsIcESaIcEEE** %_T43066440_52501.addr, align 8, !tbaa !3899
	call void @llvm.dbg.declare (metadata %struct._ZNSt7__cxx1112basic_stringIcSt11char_traitsIcESaIcEEE** %_T43066440_52501.addr, metadata !5923, metadata !3891), !dbg !5903
	call void @llvm.dbg.declare (metadata i64* %__size.addr, metadata !5924, metadata !3891), !dbg !5903
	store i64 %__size.arg, i64* %__size.addr, align 8, !tbaa !4009
	call void @llvm.dbg.declare (metadata i64* %__size.addr, metadata !5925, metadata !3891), !dbg !5903
	%0 = load %struct._ZNSt7__cxx1112basic_stringIcSt11char_traitsIcESaIcEEE*, %struct._ZNSt7__cxx1112basic_stringIcSt11char_traitsIcESaIcEEE** %_T43066440_52501.addr, align 8, !tbaa !3899, !dbg !5926
	%1 = bitcast %struct._ZNSt7__cxx1112basic_stringIcSt11char_traitsIcESaIcEEE*  %0 to i8**, !dbg !5926
	%2 = load i8*, i8**  %1, align 8, !tbaa !3899, !dbg !5926
	call void  @_ZdlPv (i8*  %2) nounwind, !dbg !5926
	ret void, !dbg !5927
}
define linkonce_odr %struct._ZSaIcE* @_ZNSt7__cxx1112basic_stringIcSt11char_traitsIcESaIcEE16_M_get_allocatorEv(%struct._ZNSt7__cxx1112basic_stringIcSt11char_traitsIcESaIcEEE* %_T43066440_52503.arg) #0 inlinehint !dbg !5932 {
L.entry:
	%_T43066440_52503.addr = alloca %struct._ZNSt7__cxx1112basic_stringIcSt11char_traitsIcESaIcEEE*, align 8

	call void @llvm.dbg.declare (metadata %struct._ZNSt7__cxx1112basic_stringIcSt11char_traitsIcESaIcEEE** %_T43066440_52503.addr, metadata !5936, metadata !3891), !dbg !5933
	store %struct._ZNSt7__cxx1112basic_stringIcSt11char_traitsIcESaIcEEE* %_T43066440_52503.arg, %struct._ZNSt7__cxx1112basic_stringIcSt11char_traitsIcESaIcEEE** %_T43066440_52503.addr, align 8, !tbaa !3899
	call void @llvm.dbg.declare (metadata %struct._ZNSt7__cxx1112basic_stringIcSt11char_traitsIcESaIcEEE** %_T43066440_52503.addr, metadata !5937, metadata !3891), !dbg !5933
	%0 = load %struct._ZNSt7__cxx1112basic_stringIcSt11char_traitsIcESaIcEEE*, %struct._ZNSt7__cxx1112basic_stringIcSt11char_traitsIcESaIcEEE** %_T43066440_52503.addr, align 8, !tbaa !3899, !dbg !5938
	%1 = bitcast %struct._ZNSt7__cxx1112basic_stringIcSt11char_traitsIcESaIcEEE*  %0 to %struct._ZSaIcE*, !dbg !5938
	ret %struct._ZSaIcE*  %1, !dbg !5938
}
define linkonce_odr void @_ZNSt7__cxx1112basic_stringIcSt11char_traitsIcESaIcEE7_S_copyEPcPKcm(i8* %__d.arg, i8* %__s.arg, i64 %__n.arg) #0 inlinehint !dbg !5942 {
L.entry:
	%__d.addr = alloca i8*, align 8
	%__s.addr = alloca i8*, align 8
	%__n.addr = alloca i64, align 8
	%..inline.addr = alloca i8*, align 8
	%..inline.addr.1 = alloca i8*, align 8
	%..inline.addr.2 = alloca i64, align 8
	%..inline.addr.3 = alloca i8*, align 8

	call void @llvm.dbg.declare (metadata i8** %__d.addr, metadata !5954, metadata !3891), !dbg !5943
	store i8* %__d.arg, i8** %__d.addr, align 8, !tbaa !3899
	call void @llvm.dbg.declare (metadata i8** %__d.addr, metadata !5955, metadata !3891), !dbg !5943
	call void @llvm.dbg.declare (metadata i8** %__s.addr, metadata !5956, metadata !3891), !dbg !5943
	store i8* %__s.arg, i8** %__s.addr, align 8, !tbaa !3899
	call void @llvm.dbg.declare (metadata i8** %__s.addr, metadata !5957, metadata !3891), !dbg !5943
	call void @llvm.dbg.declare (metadata i64* %__n.addr, metadata !5958, metadata !3891), !dbg !5943
	store i64 %__n.arg, i64* %__n.addr, align 8, !tbaa !4009
	call void @llvm.dbg.declare (metadata i64* %__n.addr, metadata !5959, metadata !3891), !dbg !5943
	%0 = load i64, i64* %__n.addr, align 8, !tbaa !4300, !dbg !5960
	%1 = icmp ne i64  %0, 1, !dbg !5960
	br i1  %1, label %L.B0012, label %L.B1119, !dbg !5960
L.B1119:
	%2 = load i8*, i8** %__s.addr, align 8, !tbaa !3899, !dbg !5961
	%3 = load i8, i8*  %2, align 1, !tbaa !4009, !dbg !5961
	%4 = load i8*, i8** %__d.addr, align 8, !tbaa !3899, !dbg !5961
	store i8  %3, i8*  %4, align 1, !tbaa !4009, !dbg !5961
	br label %L.B0013, !dbg !5961
L.B0012:
	%5 = load i8*, i8** %__d.addr, align 8, !tbaa !3899, !dbg !5962
	store i8*  %5, i8** %..inline.addr, align 8, !tbaa !3899, !dbg !5962
	%6 = load i8*, i8** %__s.addr, align 8, !tbaa !3899, !dbg !5962
	store i8*  %6, i8** %..inline.addr.1, align 8, !tbaa !3899, !dbg !5962
	%7 = load i64, i64* %__n.addr, align 8, !tbaa !4300, !dbg !5962
	store i64  %7, i64* %..inline.addr.2, align 8, !tbaa !4300, !dbg !5962
	%8 = icmp ne i64  %7, 0, !dbg !5962
	br i1  %8, label %L..inline.68186, label %L.B1120, !dbg !5962
L.B1120:
	br label %L..inline.68191, !dbg !5963
L..inline.68186:
	%9 = load i8*, i8** %..inline.addr, align 8, !tbaa !3899, !dbg !5964
	%10 = load i8*, i8** %..inline.addr.1, align 8, !tbaa !3899, !dbg !5964
	%11 = load i64, i64* %..inline.addr.2, align 8, !tbaa !4300, !dbg !5964
	%12 = call i8*  @memcpy (i8*  %9, i8*  %10, i64  %11) nounwind, !dbg !5964
	store i8*  %12, i8** %..inline.addr.3, align 8, !tbaa !3899, !dbg !5964
	br label %L..inline.68191
L..inline.68191:
	br label %L.B0013
L.B0013:
	ret void, !dbg !5965
}
define linkonce_odr void @_ZNSt7__cxx1112basic_stringIcSt11char_traitsIcESaIcEE13_S_copy_charsEPcPKcS7_(i8* %__p.arg, i8* %__k1.arg, i8* %__k2.arg) #0 inlinehint !dbg !5969 {
L.entry:
	%__p.addr = alloca i8*, align 8
	%__k1.addr = alloca i8*, align 8
	%__k2.addr = alloca i8*, align 8
	%..inline.addr = alloca i64, align 8
	%..inline.addr.1 = alloca i8*, align 8
	%..inline.addr.2 = alloca i8*, align 8
	%..inline.addr.3 = alloca i64, align 8
	%..inline.addr.4 = alloca i8*, align 8

	call void @llvm.dbg.declare (metadata i8** %__p.addr, metadata !5985, metadata !3891), !dbg !5970
	store i8* %__p.arg, i8** %__p.addr, align 8, !tbaa !3899
	call void @llvm.dbg.declare (metadata i8** %__p.addr, metadata !5986, metadata !3891), !dbg !5970
	call void @llvm.dbg.declare (metadata i8** %__k1.addr, metadata !5987, metadata !3891), !dbg !5970
	store i8* %__k1.arg, i8** %__k1.addr, align 8, !tbaa !3899
	call void @llvm.dbg.declare (metadata i8** %__k1.addr, metadata !5988, metadata !3891), !dbg !5970
	call void @llvm.dbg.declare (metadata i8** %__k2.addr, metadata !5989, metadata !3891), !dbg !5970
	store i8* %__k2.arg, i8** %__k2.addr, align 8, !tbaa !3899
	call void @llvm.dbg.declare (metadata i8** %__k2.addr, metadata !5990, metadata !3891), !dbg !5970
	%0 = load i8*, i8** %__k2.addr, align 8, !tbaa !3899, !dbg !5991
	%1 = load i8*, i8** %__k1.addr, align 8, !tbaa !3899, !dbg !5991
	%2 = ptrtoint i8*  %1 to i64, !dbg !5991
	%3 = sub i64 0,  %2, !dbg !5991
	%4 = getelementptr i8, i8*  %0, i64  %3, !dbg !5991
	%5 = ptrtoint i8*  %4 to i64, !dbg !5991
	store i64  %5, i64* %..inline.addr, align 8, !tbaa !4300, !dbg !5991
	%6 = icmp ne i64  %5, 1, !dbg !5991
	br i1  %6, label %L..inline.68208, label %L.B1123, !dbg !5991
L.B1123:
	%7 = load i8, i8*  %1, align 1, !tbaa !4009, !dbg !5992
	%8 = load i8*, i8** %__p.addr, align 8, !tbaa !3899, !dbg !5992
	store i8  %7, i8*  %8, align 1, !tbaa !4009, !dbg !5992
	br label %L..inline.68217, !dbg !5992
L..inline.68208:
	%9 = load i8*, i8** %__p.addr, align 8, !tbaa !3899, !dbg !5993
	store i8*  %9, i8** %..inline.addr.1, align 8, !tbaa !3899, !dbg !5993
	%10 = load i8*, i8** %__k1.addr, align 8, !tbaa !3899, !dbg !5993
	store i8*  %10, i8** %..inline.addr.2, align 8, !tbaa !3899, !dbg !5993
	%11 = load i64, i64* %..inline.addr, align 8, !tbaa !4300, !dbg !5993
	store i64  %11, i64* %..inline.addr.3, align 8, !tbaa !4300, !dbg !5993
	%12 = icmp ne i64  %11, 0, !dbg !5993
	br i1  %12, label %L..inline.68224, label %L.B1124, !dbg !5993
L.B1124:
	br label %L..inline.68226, !dbg !5993
L..inline.68224:
	%13 = load i8*, i8** %..inline.addr.1, align 8, !tbaa !3899, !dbg !5993
	%14 = load i8*, i8** %..inline.addr.2, align 8, !tbaa !3899, !dbg !5993
	%15 = load i64, i64* %..inline.addr.3, align 8, !tbaa !4300, !dbg !5993
	%16 = call i8*  @memcpy (i8*  %13, i8*  %14, i64  %15) nounwind, !dbg !5993
	store i8*  %16, i8** %..inline.addr.4, align 8, !tbaa !3899, !dbg !5993
	br label %L..inline.68226
L..inline.68226:
	br label %L..inline.68217
L..inline.68217:
	ret void, !dbg !5991
}

%struct._ZSt26random_access_iterator_tag = type <{ [1 x i8]}> 

define linkonce_odr void @_ZNSt7__cxx1112basic_stringIcSt11char_traitsIcESaIcEEC1EPKcRKS3_(%struct._ZNSt7__cxx1112basic_stringIcSt11char_traitsIcESaIcEEE* %_T43066624_52507.arg, i8* %__s.arg, %struct._ZSaIcE* %__a.arg) #0 inlinehint !dbg !6001 {
L.entry:
	%_T43066624_52507.addr = alloca %struct._ZNSt7__cxx1112basic_stringIcSt11char_traitsIcESaIcEEE*, align 8
	%__s.addr = alloca i8*, align 8
	%__a.addr = alloca %struct._ZSaIcE*, align 8
	%..inline.addr = alloca i8*, align 8
	%..inline.addr.1 = alloca i64, align 8
	%.I0001.addr = alloca i8*, align 8
	%..inline.addr.2 = alloca %struct._ZNSt7__cxx1112basic_stringIcSt11char_traitsIcESaIcEEE*, align 8
	%..inline.addr.3 = alloca i8*, align 8
	%..inline.addr.4 = alloca i8*, align 8
	%....inline.__FILL_CHARARRAY.addr = alloca [1 x i8], align 1
	%....inline.__FILL_CHARARRAY.addr.1 = alloca [1 x i8], align 1
	%..inline.addr.5 = alloca %struct._ZSt26random_access_iterator_tag, align 1

	call void @llvm.dbg.declare (metadata %struct._ZNSt7__cxx1112basic_stringIcSt11char_traitsIcESaIcEEE** %_T43066624_52507.addr, metadata !6037, metadata !3891), !dbg !6002
	store %struct._ZNSt7__cxx1112basic_stringIcSt11char_traitsIcESaIcEEE* %_T43066624_52507.arg, %struct._ZNSt7__cxx1112basic_stringIcSt11char_traitsIcESaIcEEE** %_T43066624_52507.addr, align 8, !tbaa !3899
	call void @llvm.dbg.declare (metadata %struct._ZNSt7__cxx1112basic_stringIcSt11char_traitsIcESaIcEEE** %_T43066624_52507.addr, metadata !6038, metadata !3891), !dbg !6002
	call void @llvm.dbg.declare (metadata i8** %__s.addr, metadata !6039, metadata !3891), !dbg !6002
	store i8* %__s.arg, i8** %__s.addr, align 8, !tbaa !3899
	call void @llvm.dbg.declare (metadata i8** %__s.addr, metadata !6040, metadata !3891), !dbg !6002
	call void @llvm.dbg.declare (metadata %struct._ZSaIcE** %__a.addr, metadata !6041, metadata !3891), !dbg !6002
	store %struct._ZSaIcE* %__a.arg, %struct._ZSaIcE** %__a.addr, align 8, !tbaa !3899
	call void @llvm.dbg.declare (metadata %struct._ZSaIcE** %__a.addr, metadata !6042, metadata !3891), !dbg !6002
	%0 = load %struct._ZNSt7__cxx1112basic_stringIcSt11char_traitsIcESaIcEEE*, %struct._ZNSt7__cxx1112basic_stringIcSt11char_traitsIcESaIcEEE** %_T43066624_52507.addr, align 8, !tbaa !3899, !dbg !6043
	%1 = bitcast %struct._ZNSt7__cxx1112basic_stringIcSt11char_traitsIcESaIcEEE*  %0 to i8*, !dbg !6043
	%2 = getelementptr i8, i8*  %1, i64 16, !dbg !6043
	%3 = bitcast %struct._ZNSt7__cxx1112basic_stringIcSt11char_traitsIcESaIcEEE*  %0 to i8**, !dbg !6043
	store i8*  %2, i8**  %3, align 8, !tbaa !3899, !dbg !6043
	%4 = load i8*, i8** %__s.addr, align 8, !tbaa !3899, !dbg !6043
	%5 = icmp eq i8*  %4,  null, !dbg !6043
	br i1  %5, label %L.B0014, label %L.B1133, !dbg !6043
L.B1133:
	%6 = call i64  @strlen (i8*  %4) nounwind, !dbg !6044
	%7 = load i8*, i8** %__s.addr, align 8, !tbaa !3899, !dbg !6045
	%8 = getelementptr i8, i8*  %7, i64  %6, !dbg !6045
	store i8*  %8, i8** %.I0001.addr, align 8, !tbaa !3899, !dbg !6045
	br label %L.B0015, !dbg !6043
L.B0014:
	%9 = load i8*, i8** %__s.addr, align 8, !tbaa !3899, !dbg !6043
	%10 = getelementptr i8, i8*  %9, i64 18446744073709551615, !dbg !6043
	store i8*  %10, i8** %.I0001.addr, align 8, !tbaa !3899, !dbg !6043
	br label %L.B0015
L.B0015:
	%11 = load %struct._ZNSt7__cxx1112basic_stringIcSt11char_traitsIcESaIcEEE*, %struct._ZNSt7__cxx1112basic_stringIcSt11char_traitsIcESaIcEEE** %_T43066624_52507.addr, align 8, !tbaa !3899, !dbg !6046
	%12 = bitcast %struct._ZNSt7__cxx1112basic_stringIcSt11char_traitsIcESaIcEEE*  %11 to i8*, !dbg !6046
	%13 = bitcast %struct._ZNSt7__cxx1112basic_stringIcSt11char_traitsIcESaIcEEE** %..inline.addr.2 to i8**, !dbg !6046
	store i8*  %12, i8**  %13, align 8, !tbaa !3899, !dbg !6046
	%14 = load i8*, i8** %__s.addr, align 8, !tbaa !3899, !dbg !6046
	store i8*  %14, i8** %..inline.addr.3, align 8, !tbaa !3899, !dbg !6046
	%15 = load i8*, i8** %.I0001.addr, align 8, !tbaa !3899, !dbg !6046
	store i8*  %15, i8** %..inline.addr.4, align 8, !tbaa !3899, !dbg !6046
	call void @llvm.dbg.declare (metadata [1 x i8]* %....inline.__FILL_CHARARRAY.addr, metadata !6047, metadata !3891), !dbg !6004
	%16 = bitcast [1 x i8]* %....inline.__FILL_CHARARRAY.addr to i8*, !dbg !6043
	%17 = load i8, i8*  %16, align 1, !tbaa !4009, !dbg !6043
	%18 = zext i8  %17 to i32, !dbg !6043
	%19 = trunc i32  %18 to i8, !dbg !6043
	call void @llvm.dbg.declare (metadata [1 x i8]* %....inline.__FILL_CHARARRAY.addr.1, metadata !6047, metadata !3891), !dbg !6004
	%20 = bitcast [1 x i8]* %....inline.__FILL_CHARARRAY.addr.1 to i8*, !dbg !6043
	store i8  %19, i8*  %20, align 1, !tbaa !4009, !dbg !6043
	%21 = load %struct._ZNSt7__cxx1112basic_stringIcSt11char_traitsIcESaIcEEE*, %struct._ZNSt7__cxx1112basic_stringIcSt11char_traitsIcESaIcEEE** %..inline.addr.2, align 8, !tbaa !3899, !dbg !6046
	%22 = load i8*, i8** %..inline.addr.3, align 8, !tbaa !3899, !dbg !6046
	%23 = load i8*, i8** %..inline.addr.4, align 8, !tbaa !3899, !dbg !6046
	%24 = bitcast %struct._ZSt26random_access_iterator_tag* %..inline.addr.5 to i8*, !dbg !6046
	%25 = load i8, i8*  %24, align 1, !tbaa !4009, !dbg !6046
	call void  @_ZNSt7__cxx1112basic_stringIcSt11char_traitsIcESaIcEE12_M_constructIPKcEEvT_S8_St20forward_iterator_tag (%struct._ZNSt7__cxx1112basic_stringIcSt11char_traitsIcESaIcEEE*  %21, i8*  %22, i8*  %23, i8  %25), !dbg !6046
	ret void, !dbg !6043
}
define linkonce_odr void @_ZNSt7__cxx1112basic_stringIcSt11char_traitsIcESaIcEEC2EPKcRKS3_(%struct._ZNSt7__cxx1112basic_stringIcSt11char_traitsIcESaIcEEE* %_T43066440_52508.arg, i8* %_T43066736_52508.arg, %struct._ZSaIcE* %_T43067032_52508.arg) #0 inlinehint !dbg !6049 {
L.entry:
	%_T43066440_52508.addr = alloca %struct._ZNSt7__cxx1112basic_stringIcSt11char_traitsIcESaIcEEE*, align 8
	%_T43066736_52508.addr = alloca i8*, align 8
	%_T43067032_52508.addr = alloca %struct._ZSaIcE*, align 8
	%..inline.addr = alloca %struct._ZNSt7__cxx1112basic_stringIcSt11char_traitsIcESaIcEEE*, align 8
	%..inline.addr.1 = alloca i8*, align 8
	%..inline.addr.2 = alloca i8*, align 8
	%..inline.addr.3 = alloca i64, align 8
	%..inline.addr.4 = alloca i8*, align 8
	%..inline.addr.5 = alloca %struct._ZNSt7__cxx1112basic_stringIcSt11char_traitsIcESaIcEEE*, align 8
	%..inline.addr.6 = alloca i8*, align 8
	%..inline.addr.7 = alloca i8*, align 8
	%....inline.__FILL_CHARARRAY.addr = alloca [1 x i8], align 1
	%....inline.__FILL_CHARARRAY.addr.1 = alloca [1 x i8], align 1
	%..inline.addr.8 = alloca %struct._ZSt26random_access_iterator_tag, align 1

	store %struct._ZNSt7__cxx1112basic_stringIcSt11char_traitsIcESaIcEEE* %_T43066440_52508.arg, %struct._ZNSt7__cxx1112basic_stringIcSt11char_traitsIcESaIcEEE** %_T43066440_52508.addr, align 8, !tbaa !3899
	store i8* %_T43066736_52508.arg, i8** %_T43066736_52508.addr, align 8, !tbaa !3899
	store %struct._ZSaIcE* %_T43067032_52508.arg, %struct._ZSaIcE** %_T43067032_52508.addr, align 8, !tbaa !3899
	%0 = load %struct._ZNSt7__cxx1112basic_stringIcSt11char_traitsIcESaIcEEE*, %struct._ZNSt7__cxx1112basic_stringIcSt11char_traitsIcESaIcEEE** %_T43066440_52508.addr, align 8, !tbaa !3899, !dbg !6089
	%1 = bitcast %struct._ZNSt7__cxx1112basic_stringIcSt11char_traitsIcESaIcEEE*  %0 to i8*, !dbg !6089
	%2 = bitcast %struct._ZNSt7__cxx1112basic_stringIcSt11char_traitsIcESaIcEEE** %..inline.addr to i8**, !dbg !6089
	store i8*  %1, i8**  %2, align 8, !tbaa !3899, !dbg !6089
	%3 = load i8*, i8** %_T43066736_52508.addr, align 8, !tbaa !3899, !dbg !6089
	store i8*  %3, i8** %..inline.addr.1, align 8, !tbaa !3899, !dbg !6089
	%4 = getelementptr i8, i8*  %1, i64 16, !dbg !6089
	%5 = bitcast %struct._ZNSt7__cxx1112basic_stringIcSt11char_traitsIcESaIcEEE*  %0 to i8**, !dbg !6089
	store i8*  %4, i8**  %5, align 8, !tbaa !3899, !dbg !6089
	%6 = icmp eq i8*  %3,  null, !dbg !6089
	br i1  %6, label %L..inline.68378, label %L.B1136, !dbg !6089
L.B1136:
	%7 = call i64  @strlen (i8*  %3) nounwind, !dbg !6089
	%8 = load i8*, i8** %..inline.addr.1, align 8, !tbaa !3899, !dbg !6089
	%9 = getelementptr i8, i8*  %8, i64  %7, !dbg !6089
	store i8*  %9, i8** %..inline.addr.4, align 8, !tbaa !3899, !dbg !6089
	br label %L..inline.68386, !dbg !6089
L..inline.68378:
	%10 = load i8*, i8** %..inline.addr.1, align 8, !tbaa !3899, !dbg !6089
	%11 = getelementptr i8, i8*  %10, i64 18446744073709551615, !dbg !6089
	store i8*  %11, i8** %..inline.addr.4, align 8, !tbaa !3899, !dbg !6089
	br label %L..inline.68386
L..inline.68386:
	%12 = load %struct._ZNSt7__cxx1112basic_stringIcSt11char_traitsIcESaIcEEE*, %struct._ZNSt7__cxx1112basic_stringIcSt11char_traitsIcESaIcEEE** %..inline.addr, align 8, !tbaa !3899, !dbg !6089
	%13 = bitcast %struct._ZNSt7__cxx1112basic_stringIcSt11char_traitsIcESaIcEEE*  %12 to i8*, !dbg !6089
	%14 = bitcast %struct._ZNSt7__cxx1112basic_stringIcSt11char_traitsIcESaIcEEE** %..inline.addr.5 to i8**, !dbg !6089
	store i8*  %13, i8**  %14, align 8, !tbaa !3899, !dbg !6089
	%15 = load i8*, i8** %..inline.addr.1, align 8, !tbaa !3899, !dbg !6089
	store i8*  %15, i8** %..inline.addr.6, align 8, !tbaa !3899, !dbg !6089
	%16 = load i8*, i8** %..inline.addr.4, align 8, !tbaa !3899, !dbg !6089
	store i8*  %16, i8** %..inline.addr.7, align 8, !tbaa !3899, !dbg !6089
	call void @llvm.dbg.declare (metadata [1 x i8]* %....inline.__FILL_CHARARRAY.addr, metadata !6090, metadata !3891), !dbg !6052
	%17 = bitcast [1 x i8]* %....inline.__FILL_CHARARRAY.addr to i8*, !dbg !6089
	%18 = load i8, i8*  %17, align 1, !tbaa !4009, !dbg !6089
	%19 = zext i8  %18 to i32, !dbg !6089
	%20 = trunc i32  %19 to i8, !dbg !6089
	call void @llvm.dbg.declare (metadata [1 x i8]* %....inline.__FILL_CHARARRAY.addr.1, metadata !6090, metadata !3891), !dbg !6052
	%21 = bitcast [1 x i8]* %....inline.__FILL_CHARARRAY.addr.1 to i8*, !dbg !6089
	store i8  %20, i8*  %21, align 1, !tbaa !4009, !dbg !6089
	%22 = load %struct._ZNSt7__cxx1112basic_stringIcSt11char_traitsIcESaIcEEE*, %struct._ZNSt7__cxx1112basic_stringIcSt11char_traitsIcESaIcEEE** %..inline.addr.5, align 8, !tbaa !3899, !dbg !6089
	%23 = load i8*, i8** %..inline.addr.6, align 8, !tbaa !3899, !dbg !6089
	%24 = load i8*, i8** %..inline.addr.7, align 8, !tbaa !3899, !dbg !6089
	%25 = bitcast %struct._ZSt26random_access_iterator_tag* %..inline.addr.8 to i8*, !dbg !6089
	%26 = load i8, i8*  %25, align 1, !tbaa !4009, !dbg !6089
	call void  @_ZNSt7__cxx1112basic_stringIcSt11char_traitsIcESaIcEE12_M_constructIPKcEEvT_S8_St20forward_iterator_tag (%struct._ZNSt7__cxx1112basic_stringIcSt11char_traitsIcESaIcEEE*  %22, i8*  %23, i8*  %24, i8  %26), !dbg !6089
	ret void, !dbg !6089
}
define linkonce_odr void @_ZNSt7__cxx1112basic_stringIcSt11char_traitsIcESaIcEED1Ev(%struct._ZNSt7__cxx1112basic_stringIcSt11char_traitsIcESaIcEEE* %_T43066440_52509.arg) #0 inlinehint !dbg !6092 {
L.entry:
	%_T43066440_52509.addr = alloca %struct._ZNSt7__cxx1112basic_stringIcSt11char_traitsIcESaIcEEE*, align 8
	%..inline.addr = alloca i8*, align 8

	call void @llvm.dbg.declare (metadata %struct._ZNSt7__cxx1112basic_stringIcSt11char_traitsIcESaIcEEE** %_T43066440_52509.addr, metadata !6144, metadata !3891), !dbg !6093
	store %struct._ZNSt7__cxx1112basic_stringIcSt11char_traitsIcESaIcEEE* %_T43066440_52509.arg, %struct._ZNSt7__cxx1112basic_stringIcSt11char_traitsIcESaIcEEE** %_T43066440_52509.addr, align 8, !tbaa !3899
	call void @llvm.dbg.declare (metadata %struct._ZNSt7__cxx1112basic_stringIcSt11char_traitsIcESaIcEEE** %_T43066440_52509.addr, metadata !6145, metadata !3891), !dbg !6093
	%0 = load %struct._ZNSt7__cxx1112basic_stringIcSt11char_traitsIcESaIcEEE*, %struct._ZNSt7__cxx1112basic_stringIcSt11char_traitsIcESaIcEEE** %_T43066440_52509.addr, align 8, !tbaa !3899, !dbg !6146
	%1 = bitcast %struct._ZNSt7__cxx1112basic_stringIcSt11char_traitsIcESaIcEEE*  %0 to i8**, !dbg !6146
	%2 = load i8*, i8**  %1, align 8, !tbaa !3899, !dbg !6146
	%3 = bitcast %struct._ZNSt7__cxx1112basic_stringIcSt11char_traitsIcESaIcEEE*  %0 to i8*, !dbg !6146
	%4 = getelementptr i8, i8*  %3, i64 16, !dbg !6146
	%5 = icmp eq i8*  %2,  %4, !dbg !6146
	br i1  %5, label %L..inline.68485, label %L.B1139, !dbg !6146
L.B1139:
	%6 = bitcast %struct._ZNSt7__cxx1112basic_stringIcSt11char_traitsIcESaIcEEE*  %0 to i8**, !dbg !6147
	%7 = load i8*, i8**  %6, align 8, !tbaa !3899, !dbg !6147
	call void  @_ZdlPv (i8*  %7) nounwind, !dbg !6147
	br label %L..inline.68485
L..inline.68485:
	ret void, !dbg !6148
}
define linkonce_odr void @_ZNSt7__cxx1112basic_stringIcSt11char_traitsIcESaIcEED2Ev(%struct._ZNSt7__cxx1112basic_stringIcSt11char_traitsIcESaIcEEE* %_T43066440_52510.arg) #0 inlinehint !dbg !6150 {
L.entry:
	%_T43066440_52510.addr = alloca %struct._ZNSt7__cxx1112basic_stringIcSt11char_traitsIcESaIcEEE*, align 8
	%..inline.addr = alloca i8*, align 8

	store %struct._ZNSt7__cxx1112basic_stringIcSt11char_traitsIcESaIcEEE* %_T43066440_52510.arg, %struct._ZNSt7__cxx1112basic_stringIcSt11char_traitsIcESaIcEEE** %_T43066440_52510.addr, align 8, !tbaa !3899
	%0 = load %struct._ZNSt7__cxx1112basic_stringIcSt11char_traitsIcESaIcEEE*, %struct._ZNSt7__cxx1112basic_stringIcSt11char_traitsIcESaIcEEE** %_T43066440_52510.addr, align 8, !tbaa !3899, !dbg !6206
	%1 = bitcast %struct._ZNSt7__cxx1112basic_stringIcSt11char_traitsIcESaIcEEE*  %0 to i8**, !dbg !6206
	%2 = load i8*, i8**  %1, align 8, !tbaa !3899, !dbg !6206
	%3 = bitcast %struct._ZNSt7__cxx1112basic_stringIcSt11char_traitsIcESaIcEEE*  %0 to i8*, !dbg !6206
	%4 = getelementptr i8, i8*  %3, i64 16, !dbg !6206
	%5 = icmp eq i8*  %2,  %4, !dbg !6206
	br i1  %5, label %L..inline.68591, label %L.B1142, !dbg !6206
L.B1142:
	%6 = bitcast %struct._ZNSt7__cxx1112basic_stringIcSt11char_traitsIcESaIcEEE*  %0 to i8**, !dbg !6206
	%7 = load i8*, i8**  %6, align 8, !tbaa !3899, !dbg !6206
	call void  @_ZdlPv (i8*  %7) nounwind, !dbg !6206
	br label %L..inline.68591
L..inline.68591:
	ret void, !dbg !6206
}
define linkonce_odr void @_ZNSt7__cxx1112basic_stringIcSt11char_traitsIcESaIcEE12_M_constructIPKcEEvT_S8_(%struct._ZNSt7__cxx1112basic_stringIcSt11char_traitsIcESaIcEEE* %_T43066440_52511.arg, i8* %__beg.arg, i8* %__end.arg) #0 inlinehint !dbg !6210 {
L.entry:
	%_T43066440_52511.addr = alloca %struct._ZNSt7__cxx1112basic_stringIcSt11char_traitsIcESaIcEEE*, align 8
	%__beg.addr = alloca i8*, align 8
	%__end.addr = alloca i8*, align 8
	%..inline.addr = alloca %struct._ZNSt7__cxx1112basic_stringIcSt11char_traitsIcESaIcEEE*, align 8
	%..inline.addr.1 = alloca i8*, align 8
	%..inline.addr.2 = alloca i8*, align 8
	%.._T43067920_52511.__FILL_CHARARRAY.addr = alloca [1 x i8], align 1
	%....inline.__FILL_CHARARRAY.addr = alloca [1 x i8], align 1
	%..inline.addr.3 = alloca %struct._ZSt26random_access_iterator_tag, align 1

	call void @llvm.dbg.declare (metadata %struct._ZNSt7__cxx1112basic_stringIcSt11char_traitsIcESaIcEEE** %_T43066440_52511.addr, metadata !6218, metadata !3891), !dbg !6211
	store %struct._ZNSt7__cxx1112basic_stringIcSt11char_traitsIcESaIcEEE* %_T43066440_52511.arg, %struct._ZNSt7__cxx1112basic_stringIcSt11char_traitsIcESaIcEEE** %_T43066440_52511.addr, align 8, !tbaa !3899
	call void @llvm.dbg.declare (metadata %struct._ZNSt7__cxx1112basic_stringIcSt11char_traitsIcESaIcEEE** %_T43066440_52511.addr, metadata !6219, metadata !3891), !dbg !6211
	call void @llvm.dbg.declare (metadata i8** %__beg.addr, metadata !6220, metadata !3891), !dbg !6211
	store i8* %__beg.arg, i8** %__beg.addr, align 8, !tbaa !3899
	call void @llvm.dbg.declare (metadata i8** %__beg.addr, metadata !6221, metadata !3891), !dbg !6211
	call void @llvm.dbg.declare (metadata i8** %__end.addr, metadata !6222, metadata !3891), !dbg !6211
	store i8* %__end.arg, i8** %__end.addr, align 8, !tbaa !3899
	call void @llvm.dbg.declare (metadata i8** %__end.addr, metadata !6223, metadata !3891), !dbg !6211
	%0 = load %struct._ZNSt7__cxx1112basic_stringIcSt11char_traitsIcESaIcEEE*, %struct._ZNSt7__cxx1112basic_stringIcSt11char_traitsIcESaIcEEE** %_T43066440_52511.addr, align 8, !tbaa !3899, !dbg !6224
	%1 = bitcast %struct._ZNSt7__cxx1112basic_stringIcSt11char_traitsIcESaIcEEE*  %0 to i8*, !dbg !6224
	%2 = bitcast %struct._ZNSt7__cxx1112basic_stringIcSt11char_traitsIcESaIcEEE** %..inline.addr to i8**, !dbg !6224
	store i8*  %1, i8**  %2, align 8, !tbaa !3899, !dbg !6224
	%3 = load i8*, i8** %__beg.addr, align 8, !tbaa !3899, !dbg !6224
	store i8*  %3, i8** %..inline.addr.1, align 8, !tbaa !3899, !dbg !6224
	%4 = load i8*, i8** %__end.addr, align 8, !tbaa !3899, !dbg !6224
	store i8*  %4, i8** %..inline.addr.2, align 8, !tbaa !3899, !dbg !6224
	call void @llvm.dbg.declare (metadata [1 x i8]* %.._T43067920_52511.__FILL_CHARARRAY.addr, metadata !6226, metadata !3891), !dbg !6213
	%5 = bitcast [1 x i8]* %.._T43067920_52511.__FILL_CHARARRAY.addr to i8*, !dbg !6225
	%6 = load i8, i8*  %5, align 1, !tbaa !4009, !dbg !6225
	%7 = zext i8  %6 to i32, !dbg !6225
	%8 = trunc i32  %7 to i8, !dbg !6225
	call void @llvm.dbg.declare (metadata [1 x i8]* %....inline.__FILL_CHARARRAY.addr, metadata !6227, metadata !3891), !dbg !6213
	%9 = bitcast [1 x i8]* %....inline.__FILL_CHARARRAY.addr to i8*, !dbg !6225
	store i8  %8, i8*  %9, align 1, !tbaa !4009, !dbg !6225
	%10 = load %struct._ZNSt7__cxx1112basic_stringIcSt11char_traitsIcESaIcEEE*, %struct._ZNSt7__cxx1112basic_stringIcSt11char_traitsIcESaIcEEE** %..inline.addr, align 8, !tbaa !3899, !dbg !6228
	%11 = load i8*, i8** %..inline.addr.1, align 8, !tbaa !3899, !dbg !6228
	%12 = load i8*, i8** %..inline.addr.2, align 8, !tbaa !3899, !dbg !6228
	%13 = bitcast %struct._ZSt26random_access_iterator_tag* %..inline.addr.3 to i8*, !dbg !6228
	%14 = load i8, i8*  %13, align 1, !tbaa !4009, !dbg !6228
	call void  @_ZNSt7__cxx1112basic_stringIcSt11char_traitsIcESaIcEE12_M_constructIPKcEEvT_S8_St20forward_iterator_tag (%struct._ZNSt7__cxx1112basic_stringIcSt11char_traitsIcESaIcEEE*  %10, i8*  %11, i8*  %12, i8  %14), !dbg !6228
	ret void, !dbg !6225
}

%struct._ZSt12__false_type = type <{ [1 x i8]}> 

define linkonce_odr void @_ZNSt7__cxx1112basic_stringIcSt11char_traitsIcESaIcEE16_M_construct_auxIPKcEEvT_S8_St12__false_type(%struct._ZNSt7__cxx1112basic_stringIcSt11char_traitsIcESaIcEEE* %_T43066440_52512.arg, i8* %__beg.arg, i8* %__end.arg, i8 %_T43067328_52512.coerce) #0 inlinehint !dbg !6232 {
L.entry:
	%_T43066440_52512.addr = alloca %struct._ZNSt7__cxx1112basic_stringIcSt11char_traitsIcESaIcEEE*, align 8
	%__beg.addr = alloca i8*, align 8
	%__end.addr = alloca i8*, align 8
	%_T43067328_52512.addr = alloca %struct._ZSt12__false_type, align 1
	%_T43068216_52512.addr = alloca %struct._ZSt26random_access_iterator_tag, align 1

	call void @llvm.dbg.declare (metadata %struct._ZNSt7__cxx1112basic_stringIcSt11char_traitsIcESaIcEEE** %_T43066440_52512.addr, metadata !6236, metadata !3891), !dbg !6233
	store %struct._ZNSt7__cxx1112basic_stringIcSt11char_traitsIcESaIcEEE* %_T43066440_52512.arg, %struct._ZNSt7__cxx1112basic_stringIcSt11char_traitsIcESaIcEEE** %_T43066440_52512.addr, align 8, !tbaa !3899
	call void @llvm.dbg.declare (metadata %struct._ZNSt7__cxx1112basic_stringIcSt11char_traitsIcESaIcEEE** %_T43066440_52512.addr, metadata !6237, metadata !3891), !dbg !6233
	call void @llvm.dbg.declare (metadata i8** %__beg.addr, metadata !6238, metadata !3891), !dbg !6233
	store i8* %__beg.arg, i8** %__beg.addr, align 8, !tbaa !3899
	call void @llvm.dbg.declare (metadata i8** %__beg.addr, metadata !6239, metadata !3891), !dbg !6233
	call void @llvm.dbg.declare (metadata i8** %__end.addr, metadata !6240, metadata !3891), !dbg !6233
	store i8* %__end.arg, i8** %__end.addr, align 8, !tbaa !3899
	call void @llvm.dbg.declare (metadata i8** %__end.addr, metadata !6241, metadata !3891), !dbg !6233
	call void @llvm.dbg.declare (metadata %struct._ZSt12__false_type* %_T43067328_52512.addr, metadata !6242, metadata !3891), !dbg !6233
	%0 = bitcast %struct._ZSt12__false_type* %_T43067328_52512.addr to i8*
	store i8 %_T43067328_52512.coerce, i8*  %0, align 1, !tbaa !4009
	call void @llvm.dbg.declare (metadata %struct._ZSt12__false_type* %_T43067328_52512.addr, metadata !6243, metadata !3891), !dbg !6233
	%1 = load %struct._ZNSt7__cxx1112basic_stringIcSt11char_traitsIcESaIcEEE*, %struct._ZNSt7__cxx1112basic_stringIcSt11char_traitsIcESaIcEEE** %_T43066440_52512.addr, align 8, !tbaa !3899, !dbg !6244
	%2 = load i8*, i8** %__beg.addr, align 8, !tbaa !3899, !dbg !6244
	%3 = load i8*, i8** %__end.addr, align 8, !tbaa !3899, !dbg !6244
	%4 = bitcast %struct._ZSt26random_access_iterator_tag* %_T43068216_52512.addr to i8*, !dbg !6244
	%5 = load i8, i8*  %4, align 1, !tbaa !4009, !dbg !6244
	call void  @_ZNSt7__cxx1112basic_stringIcSt11char_traitsIcESaIcEE12_M_constructIPKcEEvT_S8_St20forward_iterator_tag (%struct._ZNSt7__cxx1112basic_stringIcSt11char_traitsIcESaIcEEE*  %1, i8*  %2, i8*  %3, i8  %5), !dbg !6244
	ret void, !dbg !6245
}

%struct._ZSt20forward_iterator_tag = type <{ [1 x i8]}> 

define linkonce_odr void @_ZNSt7__cxx1112basic_stringIcSt11char_traitsIcESaIcEE12_M_constructIPKcEEvT_S8_St20forward_iterator_tag(%struct._ZNSt7__cxx1112basic_stringIcSt11char_traitsIcESaIcEEE* %_T43066440_52513.arg, i8* %__beg.arg, i8* %__end.arg, i8 %_T43067328_52513.coerce) #0 inlinehint personality i8* bitcast (i32 (...)* @__gxx_personality_v0 to i8*) !dbg !6251 {
L.entry:
	%_T43066440_52513.addr = alloca %struct._ZNSt7__cxx1112basic_stringIcSt11char_traitsIcESaIcEEE*, align 8
	%__beg.addr = alloca i8*, align 8
	%__end.addr = alloca i8*, align 8
	%_T43067328_52513.addr = alloca %struct._ZSt20forward_iterator_tag, align 1
	%..inline.addr = alloca i8*, align 8
	%..inline.addr.1 = alloca i8, align 1
	%..inline.addr.2 = alloca i8*, align 8
	%..inline.addr.3 = alloca i8*, align 8
	%..inline.addr.4 = alloca %struct._ZSt26random_access_iterator_tag, align 1
	%..inline.addr.5 = alloca i8*, align 8
	%..inline.addr.6 = alloca i8*, align 8
	%..inline.addr.7 = alloca %struct._ZSt26random_access_iterator_tag, align 1
	%..inline.addr.8 = alloca i64, align 8
	%..inline.addr.9 = alloca i64, align 8
	%__dnew.addr = alloca i64, align 8
	%..inline.addr.190 = alloca %struct._ZNSt7__cxx1112basic_stringIcSt11char_traitsIcESaIcEEE*, align 8
	%.Q0010.addr = alloca i8*, align 8
	%..inline.addr.210 = alloca i8*, align 8
	%..inline.addr.220 = alloca %struct._ZNSt7__cxx1112basic_stringIcSt11char_traitsIcESaIcEEE*, align 8
	%..inline.addr.230 = alloca i64, align 8
	%..inline.addr.240 = alloca %struct._ZNSt7__cxx1112basic_stringIcSt11char_traitsIcESaIcEEE*, align 8
	%..inline.addr.250 = alloca i8*, align 8
	%..inline.addr.260 = alloca i8*, align 8
	%..inline.addr.270 = alloca i8*, align 8
	%..inline.addr.280 = alloca i8*, align 8
	%..inline.addr.290 = alloca i8*, align 8
	%..inline.addr.300 = alloca i64, align 8
	%..inline.addr.310 = alloca i8*, align 8
	%..inline.addr.320 = alloca i8*, align 8
	%..inline.addr.330 = alloca i8*, align 8
	%..inline.addr.340 = alloca i8*, align 8
	%..inline.addr.350 = alloca i64, align 8
	%..inline.addr.360 = alloca i8*, align 8
	%..inline.addr.370 = alloca %struct._ZNSt7__cxx1112basic_stringIcSt11char_traitsIcESaIcEEE*, align 8
	%..inline.addr.380 = alloca i64, align 8
	%..inline.addr.390 = alloca %struct._ZNSt7__cxx1112basic_stringIcSt11char_traitsIcESaIcEEE*, align 8
	%..inline.addr.400 = alloca i64, align 8
	%..inline.addr.410 = alloca i8, align 1
	%..inline.addr.420 = alloca %struct._ZNSt7__cxx1112basic_stringIcSt11char_traitsIcESaIcEEE*, align 8
	%..inline.addr.430 = alloca i8*, align 8
	%__caught_object_address.addr = alloca i8*, align 8
	%__catch_clause_number.addr = alloca i32, align 4
	%..inline.addr.460 = alloca %struct._ZNSt7__cxx1112basic_stringIcSt11char_traitsIcESaIcEEE*, align 8
	%..inline.addr.470 = alloca %struct._ZNSt7__cxx1112basic_stringIcSt11char_traitsIcESaIcEEE*, align 8
	%..inline.addr.480 = alloca %struct._ZNSt7__cxx1112basic_stringIcSt11char_traitsIcESaIcEEE*, align 8
	%..inline.addr.490 = alloca %struct._ZNSt7__cxx1112basic_stringIcSt11char_traitsIcESaIcEEE*, align 8
	%..inline.addr.500 = alloca i8*, align 8
	%..inline.addr.510 = alloca i8*, align 8
	%..inline.addr.520 = alloca i8*, align 8
	%..inline.addr.530 = alloca i8*, align 8
	%..inline.addr.540 = alloca i8*, align 8
	%..inline.addr.550 = alloca i8*, align 8
	%..inline.addr.560 = alloca i8, align 1
	%..inline.addr.570 = alloca %struct._ZNSt7__cxx1112basic_stringIcSt11char_traitsIcESaIcEEE*, align 8
	%..inline.addr.580 = alloca i64, align 8
	%..inline.addr.590 = alloca %struct._ZNSt7__cxx1112basic_stringIcSt11char_traitsIcESaIcEEE*, align 8
	%..inline.addr.600 = alloca %struct._ZNSt7__cxx1112basic_stringIcSt11char_traitsIcESaIcEEE*, align 8
	%..inline.addr.610 = alloca %struct._ZSaIcE*, align 8
	%..inline.addr.620 = alloca i8*, align 8
	%..inline.addr.630 = alloca i64, align 8
	%..inline.addr.640 = alloca i8*, align 8

	call void @llvm.dbg.declare (metadata %struct._ZNSt7__cxx1112basic_stringIcSt11char_traitsIcESaIcEEE** %_T43066440_52513.addr, metadata !6361, metadata !3891), !dbg !6252
	store %struct._ZNSt7__cxx1112basic_stringIcSt11char_traitsIcESaIcEEE* %_T43066440_52513.arg, %struct._ZNSt7__cxx1112basic_stringIcSt11char_traitsIcESaIcEEE** %_T43066440_52513.addr, align 8
	call void @llvm.dbg.declare (metadata %struct._ZNSt7__cxx1112basic_stringIcSt11char_traitsIcESaIcEEE** %_T43066440_52513.addr, metadata !6362, metadata !3891), !dbg !6252
	call void @llvm.dbg.declare (metadata i8** %__beg.addr, metadata !6363, metadata !3891), !dbg !6252
	store i8* %__beg.arg, i8** %__beg.addr, align 8
	call void @llvm.dbg.declare (metadata i8** %__beg.addr, metadata !6364, metadata !3891), !dbg !6252
	call void @llvm.dbg.declare (metadata i8** %__end.addr, metadata !6365, metadata !3891), !dbg !6252
	store i8* %__end.arg, i8** %__end.addr, align 8
	call void @llvm.dbg.declare (metadata i8** %__end.addr, metadata !6366, metadata !3891), !dbg !6252
	call void @llvm.dbg.declare (metadata %struct._ZSt20forward_iterator_tag* %_T43067328_52513.addr, metadata !6367, metadata !3891), !dbg !6252
	%0 = bitcast %struct._ZSt20forward_iterator_tag* %_T43067328_52513.addr to i8*
	store i8 %_T43067328_52513.coerce, i8*  %0, align 1
	call void @llvm.dbg.declare (metadata %struct._ZSt20forward_iterator_tag* %_T43067328_52513.addr, metadata !6368, metadata !3891), !dbg !6252
	%1 = load i8*, i8** %__beg.addr, align 8, !dbg !6369
	store i8*  %1, i8** %..inline.addr, align 8, !dbg !6369
	%2 = icmp eq i8*  %1,  null, !dbg !6369
	%3 = zext i1  %2 to i32, !dbg !6369
	%4 = shl i32  %3, 24, !dbg !6369
	%5 = ashr i32  %4, 24, !dbg !6369
	%6 = trunc i32  %5 to i8, !dbg !6369
	store i8  %6, i8* %..inline.addr.1, align 1, !dbg !6369
	%7 = sext i8  %6 to i32, !dbg !6370
	%8 = icmp eq i32  %7, 0, !dbg !6370
	br i1  %8, label %L.B0016, label %L.B1161, !dbg !6370
L.B1161:
	%9 = load i8*, i8** %__beg.addr, align 8, !dbg !6369
	%10 = load i8*, i8** %__end.addr, align 8, !dbg !6369
	%11 = icmp eq i8*  %9,  %10, !dbg !6369
	br i1  %11, label %L.B0016, label %L.B1162, !dbg !6369
L.B1162:
	%12 = bitcast [42 x i8]* @.S54279 to i8*, !dbg !6371
	call void  @_ZSt19__throw_logic_errorPKc (i8*  %12) noreturn, !dbg !6371
	br label %L.B0016
L.B0016:
	%13 = load i8*, i8** %__beg.addr, align 8, !dbg !6372
	store i8*  %13, i8** %..inline.addr.2, align 8, !dbg !6372
	%14 = load i8*, i8** %__end.addr, align 8, !dbg !6372
	store i8*  %14, i8** %..inline.addr.3, align 8, !dbg !6372
	%15 = bitcast %struct._ZSt26random_access_iterator_tag* %..inline.addr.4 to i8*, !dbg !6372
	store i8 0, i8*  %15, align 1, !dbg !6372
	store i8*  %13, i8** %..inline.addr.5, align 8, !dbg !6373
	store i8*  %14, i8** %..inline.addr.6, align 8, !dbg !6373
	%16 = zext i8 0 to i32, !dbg !6374
	%17 = trunc i32  %16 to i8, !dbg !6374
	%18 = bitcast %struct._ZSt26random_access_iterator_tag* %..inline.addr.7 to i8*, !dbg !6374
	store i8  %17, i8*  %18, align 1, !dbg !6374
	%19 = ptrtoint i8*  %13 to i64, !dbg !6373
	%20 = sub i64 0,  %19, !dbg !6373
	%21 = getelementptr i8, i8*  %14, i64  %20, !dbg !6373
	%22 = ptrtoint i8*  %21 to i64, !dbg !6373
	store i64  %22, i64* %..inline.addr.8, align 8, !dbg !6373
	store i64  %22, i64* %..inline.addr.9, align 8, !dbg !6373
	br label %L..inline.68708, !dbg !6373
L..inline.68708:
	%23 = load i64, i64* %..inline.addr.9, align 8, !dbg !6375
	call void @llvm.dbg.declare (metadata i64* %__dnew.addr, metadata !6376, metadata !3891), !dbg !6252
	store i64  %23, i64* %__dnew.addr, align 8, !dbg !6375
	%24 = icmp ule i64  %23, 15, !dbg !6377
	br i1  %24, label %L.B0017, label %L.B1163, !dbg !6377
L.B1163:
	%25 = load %struct._ZNSt7__cxx1112basic_stringIcSt11char_traitsIcESaIcEEE*, %struct._ZNSt7__cxx1112basic_stringIcSt11char_traitsIcESaIcEEE** %_T43066440_52513.addr, align 8, !dbg !6378
	%26 = bitcast %struct._ZNSt7__cxx1112basic_stringIcSt11char_traitsIcESaIcEEE*  %25 to i8*, !dbg !6378
	%27 = bitcast %struct._ZNSt7__cxx1112basic_stringIcSt11char_traitsIcESaIcEEE** %..inline.addr.190 to i8**, !dbg !6378
	store i8*  %26, i8**  %27, align 8, !dbg !6378
	%28 = call i8*  @_ZNSt7__cxx1112basic_stringIcSt11char_traitsIcESaIcEE9_M_createERmm (%struct._ZNSt7__cxx1112basic_stringIcSt11char_traitsIcESaIcEEE*  %25, i64* %__dnew.addr, i64 0), !dbg !6378
	store i8*  %28, i8** %.Q0010.addr, align 8, !dbg !6378
	%29 = load i8*, i8** %.Q0010.addr, align 8, !dbg !6378
	store i8*  %29, i8** %..inline.addr.210, align 8, !dbg !6378
	%30 = load %struct._ZNSt7__cxx1112basic_stringIcSt11char_traitsIcESaIcEEE*, %struct._ZNSt7__cxx1112basic_stringIcSt11char_traitsIcESaIcEEE** %..inline.addr.190, align 8, !dbg !6378
	%31 = bitcast %struct._ZNSt7__cxx1112basic_stringIcSt11char_traitsIcESaIcEEE*  %30 to i8**, !dbg !6378
	store i8*  %29, i8**  %31, align 8, !dbg !6378
	%32 = load %struct._ZNSt7__cxx1112basic_stringIcSt11char_traitsIcESaIcEEE*, %struct._ZNSt7__cxx1112basic_stringIcSt11char_traitsIcESaIcEEE** %_T43066440_52513.addr, align 8, !dbg !6379
	%33 = bitcast %struct._ZNSt7__cxx1112basic_stringIcSt11char_traitsIcESaIcEEE*  %32 to i8*, !dbg !6379
	%34 = bitcast %struct._ZNSt7__cxx1112basic_stringIcSt11char_traitsIcESaIcEEE** %..inline.addr.220 to i8**, !dbg !6379
	store i8*  %33, i8**  %34, align 8, !dbg !6379
	%35 = load i64, i64* %__dnew.addr, align 8, !dbg !6379
	store i64  %35, i64* %..inline.addr.230, align 8, !dbg !6379
	%36 = load %struct._ZNSt7__cxx1112basic_stringIcSt11char_traitsIcESaIcEEE*, %struct._ZNSt7__cxx1112basic_stringIcSt11char_traitsIcESaIcEEE** %..inline.addr.220, align 8, !dbg !6379
	%37 = bitcast %struct._ZNSt7__cxx1112basic_stringIcSt11char_traitsIcESaIcEEE*  %36 to i8*, !dbg !6379
	%38 = getelementptr i8, i8*  %37, i64 16, !dbg !6379
	%39 = bitcast i8*  %38 to i64*, !dbg !6379
	store i64  %35, i64*  %39, align 8, !dbg !6379
	br label %L.B0017
L.B0017:
	%40 = load %struct._ZNSt7__cxx1112basic_stringIcSt11char_traitsIcESaIcEEE*, %struct._ZNSt7__cxx1112basic_stringIcSt11char_traitsIcESaIcEEE** %_T43066440_52513.addr, align 8, !dbg !6380
	%41 = bitcast %struct._ZNSt7__cxx1112basic_stringIcSt11char_traitsIcESaIcEEE*  %40 to i8*, !dbg !6380
	%42 = bitcast %struct._ZNSt7__cxx1112basic_stringIcSt11char_traitsIcESaIcEEE** %..inline.addr.240 to i8**, !dbg !6380
	store i8*  %41, i8**  %42, align 8, !dbg !6380
	%43 = load %struct._ZNSt7__cxx1112basic_stringIcSt11char_traitsIcESaIcEEE*, %struct._ZNSt7__cxx1112basic_stringIcSt11char_traitsIcESaIcEEE** %..inline.addr.240, align 8, !dbg !6381
	%44 = bitcast %struct._ZNSt7__cxx1112basic_stringIcSt11char_traitsIcESaIcEEE*  %43 to i8**, !dbg !6381
	%45 = load i8*, i8**  %44, align 8, !dbg !6381
	store i8*  %45, i8** %..inline.addr.250, align 8, !dbg !6381
	%46 = load i8*, i8** %__beg.addr, align 8, !dbg !6380
	store i8*  %46, i8** %..inline.addr.260, align 8, !dbg !6380
	%47 = load i8*, i8** %__end.addr, align 8, !dbg !6380
	store i8*  %47, i8** %..inline.addr.270, align 8, !dbg !6380
	store i8*  %45, i8** %..inline.addr.280, align 8, !dbg !6382
	store i8*  %46, i8** %..inline.addr.290, align 8, !dbg !6382
	%48 = ptrtoint i8*  %46 to i64, !dbg !6382
	%49 = sub i64 0,  %48, !dbg !6382
	%50 = getelementptr i8, i8*  %47, i64  %49, !dbg !6382
	%51 = ptrtoint i8*  %50 to i64, !dbg !6382
	store i64  %51, i64* %..inline.addr.300, align 8, !dbg !6382
	%52 = icmp ne i64  %51, 1, !dbg !6382
	br i1  %52, label %L..inline.68737, label %L.B1164, !dbg !6382
L.B1164:
	%53 = load i8*, i8** %..inline.addr.280, align 8, !dbg !6382
	store i8*  %53, i8** %..inline.addr.310, align 8, !dbg !6382
	%54 = load i8*, i8** %..inline.addr.290, align 8, !dbg !6382
	store i8*  %54, i8** %..inline.addr.320, align 8, !dbg !6382
	%55 = load i8, i8*  %54, align 1, !dbg !6382
	store i8  %55, i8*  %53, align 1, !dbg !6382
	br label %L..inline.68744, !dbg !6382
L..inline.68737:
	%56 = load i8*, i8** %..inline.addr.280, align 8, !dbg !6382
	store i8*  %56, i8** %..inline.addr.330, align 8, !dbg !6382
	%57 = load i8*, i8** %..inline.addr.290, align 8, !dbg !6382
	store i8*  %57, i8** %..inline.addr.340, align 8, !dbg !6382
	%58 = load i64, i64* %..inline.addr.300, align 8, !dbg !6382
	store i64  %58, i64* %..inline.addr.350, align 8, !dbg !6382
	%59 = icmp ne i64  %58, 0, !dbg !6382
	br i1  %59, label %L..inline.68751, label %L.B1165, !dbg !6382
L.B1165:
	%60 = load i8*, i8** %..inline.addr.330, align 8, !dbg !6382
	store i8*  %60, i8** %..inline.addr.360, align 8, !dbg !6382
	br label %L..inline.68753, !dbg !6382
L..inline.68751:
	%61 = load i8*, i8** %..inline.addr.330, align 8, !dbg !6382
	%62 = load i8*, i8** %..inline.addr.340, align 8, !dbg !6382
	%63 = load i64, i64* %..inline.addr.350, align 8, !dbg !6382
	%64 = call i8*  @memcpy (i8*  %61, i8*  %62, i64  %63) nounwind, !dbg !6382
	store i8*  %64, i8** %..inline.addr.360, align 8, !dbg !6382
	br label %L..inline.68753
L..inline.68753:
	br label %L..inline.68744
L..inline.68744:
	br label %L_T43068752_52513
L_T43068752_52513:
	%65 = load %struct._ZNSt7__cxx1112basic_stringIcSt11char_traitsIcESaIcEEE*, %struct._ZNSt7__cxx1112basic_stringIcSt11char_traitsIcESaIcEEE** %_T43066440_52513.addr, align 8, !dbg !6383
	%66 = bitcast %struct._ZNSt7__cxx1112basic_stringIcSt11char_traitsIcESaIcEEE*  %65 to i8*, !dbg !6383
	%67 = bitcast %struct._ZNSt7__cxx1112basic_stringIcSt11char_traitsIcESaIcEEE** %..inline.addr.370 to i8**, !dbg !6383
	store i8*  %66, i8**  %67, align 8, !dbg !6383
	%68 = load i64, i64* %__dnew.addr, align 8, !dbg !6383
	store i64  %68, i64* %..inline.addr.380, align 8, !dbg !6383
	%69 = load %struct._ZNSt7__cxx1112basic_stringIcSt11char_traitsIcESaIcEEE*, %struct._ZNSt7__cxx1112basic_stringIcSt11char_traitsIcESaIcEEE** %..inline.addr.370, align 8, !dbg !6384
	%70 = bitcast %struct._ZNSt7__cxx1112basic_stringIcSt11char_traitsIcESaIcEEE*  %69 to i8*, !dbg !6384
	%71 = bitcast %struct._ZNSt7__cxx1112basic_stringIcSt11char_traitsIcESaIcEEE** %..inline.addr.390 to i8**, !dbg !6384
	store i8*  %70, i8**  %71, align 8, !dbg !6384
	store i64  %68, i64* %..inline.addr.400, align 8, !dbg !6384
	%72 = load %struct._ZNSt7__cxx1112basic_stringIcSt11char_traitsIcESaIcEEE*, %struct._ZNSt7__cxx1112basic_stringIcSt11char_traitsIcESaIcEEE** %..inline.addr.390, align 8, !dbg !6384
	%73 = bitcast %struct._ZNSt7__cxx1112basic_stringIcSt11char_traitsIcESaIcEEE*  %72 to i8*, !dbg !6384
	%74 = getelementptr i8, i8*  %73, i64 8, !dbg !6384
	%75 = bitcast i8*  %74 to i64*, !dbg !6384
	store i64  %68, i64*  %75, align 8, !dbg !6384
	store i8 0, i8* %..inline.addr.410, align 1, !dbg !6384
	%76 = bitcast %struct._ZNSt7__cxx1112basic_stringIcSt11char_traitsIcESaIcEEE** %..inline.addr.420 to i8**, !dbg !6377
	store i8*  %70, i8**  %76, align 8, !dbg !6377
	%77 = load %struct._ZNSt7__cxx1112basic_stringIcSt11char_traitsIcESaIcEEE*, %struct._ZNSt7__cxx1112basic_stringIcSt11char_traitsIcESaIcEEE** %..inline.addr.420, align 8, !dbg !6377
	%78 = bitcast %struct._ZNSt7__cxx1112basic_stringIcSt11char_traitsIcESaIcEEE*  %77 to i8**, !dbg !6377
	%79 = load i8*, i8**  %78, align 8, !dbg !6377
	%80 = getelementptr i8, i8*  %79, i64  %68, !dbg !6377
	store i8*  %80, i8** %..inline.addr.430, align 8, !dbg !6377
	store i8 0, i8*  %80, align 1, !dbg !6377
	br label %L.R0100, !dbg !6383
L_T43068512_52513:
	%81 = landingpad %astruct.dt64
	catch i8*  null 
	%82 = extractvalue %astruct.dt64  %81, 0, !dbg !6383
	store i8*  %82, i8** %__caught_object_address.addr, align 1, !dbg !6383
	%83 = extractvalue %astruct.dt64  %81, 1, !dbg !6383
	store i32  %83, i32* %__catch_clause_number.addr, align 1, !dbg !6383
	%84 = load i8*, i8** %__caught_object_address.addr, align 8, !dbg !6385
	%85 = call i8*  @__cxa_begin_catch (i8*  %84) nounwind, !dbg !6385
	%86 = load %struct._ZNSt7__cxx1112basic_stringIcSt11char_traitsIcESaIcEEE*, %struct._ZNSt7__cxx1112basic_stringIcSt11char_traitsIcESaIcEEE** %_T43066440_52513.addr, align 8, !dbg !6386
	%87 = bitcast %struct._ZNSt7__cxx1112basic_stringIcSt11char_traitsIcESaIcEEE*  %86 to i8*, !dbg !6386
	%88 = bitcast %struct._ZNSt7__cxx1112basic_stringIcSt11char_traitsIcESaIcEEE** %..inline.addr.460 to i8**, !dbg !6386
	store i8*  %87, i8**  %88, align 8, !dbg !6386
	%89 = load %struct._ZNSt7__cxx1112basic_stringIcSt11char_traitsIcESaIcEEE*, %struct._ZNSt7__cxx1112basic_stringIcSt11char_traitsIcESaIcEEE** %..inline.addr.460, align 8, !dbg !6387
	%90 = bitcast %struct._ZNSt7__cxx1112basic_stringIcSt11char_traitsIcESaIcEEE*  %89 to i8*, !dbg !6387
	%91 = bitcast %struct._ZNSt7__cxx1112basic_stringIcSt11char_traitsIcESaIcEEE** %..inline.addr.470 to i8**, !dbg !6387
	store i8*  %90, i8**  %91, align 8, !dbg !6387
	%92 = load %struct._ZNSt7__cxx1112basic_stringIcSt11char_traitsIcESaIcEEE*, %struct._ZNSt7__cxx1112basic_stringIcSt11char_traitsIcESaIcEEE** %..inline.addr.470, align 8, !dbg !6387
	%93 = bitcast %struct._ZNSt7__cxx1112basic_stringIcSt11char_traitsIcESaIcEEE*  %92 to i8*, !dbg !6387
	%94 = bitcast %struct._ZNSt7__cxx1112basic_stringIcSt11char_traitsIcESaIcEEE** %..inline.addr.480 to i8**, !dbg !6387
	store i8*  %93, i8**  %94, align 8, !dbg !6387
	%95 = bitcast %struct._ZNSt7__cxx1112basic_stringIcSt11char_traitsIcESaIcEEE** %..inline.addr.490 to i8**, !dbg !6387
	store i8*  %93, i8**  %95, align 8, !dbg !6387
	%96 = load %struct._ZNSt7__cxx1112basic_stringIcSt11char_traitsIcESaIcEEE*, %struct._ZNSt7__cxx1112basic_stringIcSt11char_traitsIcESaIcEEE** %..inline.addr.490, align 8, !dbg !6387
	%97 = bitcast %struct._ZNSt7__cxx1112basic_stringIcSt11char_traitsIcESaIcEEE*  %96 to i8*, !dbg !6387
	%98 = getelementptr i8, i8*  %97, i64 16, !dbg !6387
	store i8*  %98, i8** %..inline.addr.500, align 8, !dbg !6387
	store i8*  %98, i8** %..inline.addr.510, align 8, !dbg !6387
	store i8*  %98, i8** %..inline.addr.520, align 8, !dbg !6387
	store i8*  %98, i8** %..inline.addr.530, align 8, !dbg !6387
	store i8*  %98, i8** %..inline.addr.540, align 8, !dbg !6387
	store i8*  %98, i8** %..inline.addr.550, align 8, !dbg !6387
	br label %L..inline.68822, !dbg !6387
L..inline.68822:
	%99 = load %struct._ZNSt7__cxx1112basic_stringIcSt11char_traitsIcESaIcEEE*, %struct._ZNSt7__cxx1112basic_stringIcSt11char_traitsIcESaIcEEE** %..inline.addr.480, align 8, !dbg !6387
	%100 = bitcast %struct._ZNSt7__cxx1112basic_stringIcSt11char_traitsIcESaIcEEE*  %99 to i8**, !dbg !6387
	%101 = load i8*, i8**  %100, align 8, !dbg !6387
	%102 = load i8*, i8** %..inline.addr.550, align 8, !dbg !6387
	%103 = icmp eq i8*  %101,  %102, !dbg !6387
	%104 = zext i1  %103 to i32, !dbg !6387
	%105 = trunc i32  %104 to i8, !dbg !6387
	store i8  %105, i8* %..inline.addr.560, align 1, !dbg !6387
	br label %L..inline.68824, !dbg !6387
L..inline.68824:
	%106 = load i8, i8* %..inline.addr.560, align 1, !dbg !6387
	%107 = sext i8  %106 to i32, !dbg !6387
	%108 = icmp ne i32  %107, 0, !dbg !6387
	br i1  %108, label %L..inline.68825, label %L.B1166, !dbg !6387
L.B1166:
	%109 = load %struct._ZNSt7__cxx1112basic_stringIcSt11char_traitsIcESaIcEEE*, %struct._ZNSt7__cxx1112basic_stringIcSt11char_traitsIcESaIcEEE** %..inline.addr.460, align 8, !dbg !6383
	%110 = bitcast %struct._ZNSt7__cxx1112basic_stringIcSt11char_traitsIcESaIcEEE*  %109 to i8*, !dbg !6383
	%111 = bitcast %struct._ZNSt7__cxx1112basic_stringIcSt11char_traitsIcESaIcEEE** %..inline.addr.570 to i8**, !dbg !6383
	store i8*  %110, i8**  %111, align 8, !dbg !6383
	%112 = getelementptr i8, i8*  %110, i64 16, !dbg !6383
	%113 = bitcast i8*  %112 to i64*, !dbg !6383
	%114 = load i64, i64*  %113, align 8, !dbg !6383
	store i64  %114, i64* %..inline.addr.580, align 8, !dbg !6383
	%115 = load %struct._ZNSt7__cxx1112basic_stringIcSt11char_traitsIcESaIcEEE*, %struct._ZNSt7__cxx1112basic_stringIcSt11char_traitsIcESaIcEEE** %..inline.addr.570, align 8, !dbg !6383
	%116 = bitcast %struct._ZNSt7__cxx1112basic_stringIcSt11char_traitsIcESaIcEEE*  %115 to i8*, !dbg !6383
	%117 = bitcast %struct._ZNSt7__cxx1112basic_stringIcSt11char_traitsIcESaIcEEE** %..inline.addr.590 to i8**, !dbg !6383
	store i8*  %116, i8**  %117, align 8, !dbg !6383
	%118 = bitcast %struct._ZNSt7__cxx1112basic_stringIcSt11char_traitsIcESaIcEEE** %..inline.addr.600 to i8**, !dbg !6383
	store i8*  %116, i8**  %118, align 8, !dbg !6383
	%119 = load %struct._ZNSt7__cxx1112basic_stringIcSt11char_traitsIcESaIcEEE*, %struct._ZNSt7__cxx1112basic_stringIcSt11char_traitsIcESaIcEEE** %..inline.addr.590, align 8, !dbg !6383
	%120 = bitcast %struct._ZNSt7__cxx1112basic_stringIcSt11char_traitsIcESaIcEEE*  %119 to i8*, !dbg !6383
	%121 = bitcast %struct._ZSaIcE** %..inline.addr.610 to i8**, !dbg !6383
	store i8*  %120, i8**  %121, align 8, !dbg !6383
	%122 = load %struct._ZNSt7__cxx1112basic_stringIcSt11char_traitsIcESaIcEEE*, %struct._ZNSt7__cxx1112basic_stringIcSt11char_traitsIcESaIcEEE** %..inline.addr.600, align 8, !dbg !6383
	%123 = bitcast %struct._ZNSt7__cxx1112basic_stringIcSt11char_traitsIcESaIcEEE*  %122 to i8**, !dbg !6383
	%124 = load i8*, i8**  %123, align 8, !dbg !6383
	store i8*  %124, i8** %..inline.addr.620, align 8, !dbg !6383
	%125 = add i64  %114, 1, !dbg !6383
	store i64  %125, i64* %..inline.addr.630, align 8, !dbg !6383
	store i8*  %124, i8** %..inline.addr.640, align 8, !dbg !6383
	call void  @_ZdlPv (i8*  %124) nounwind, !dbg !6383
	br label %L..inline.68825
L..inline.68825:
	invoke void  @__cxa_rethrow () noreturn
		to label %L.B1167
		unwind label %L_T43068872_52513, !dbg !6388
L.B1167:
	br label %L_T43068752_52513, !dbg !6388
L_T43068872_52513:
	%126 = landingpad %astruct.dt64
	cleanup
	%127 = extractvalue %astruct.dt64  %126, 0, !dbg !6389
	store i8*  %127, i8** %__caught_object_address.addr, align 1, !dbg !6389
	%128 = extractvalue %astruct.dt64  %126, 1, !dbg !6389
	store i32  %128, i32* %__catch_clause_number.addr, align 1, !dbg !6389
	call void  @__cxa_end_catch () nounwind, !dbg !6389
	%129 = load i32, i32* %__catch_clause_number.addr, align 4, !dbg !6389
	%130 = load i8*, i8** %__caught_object_address.addr, align 8, !dbg !6389
	%131 = insertvalue %astruct.dt64 undef, i8*  %130, 0, !dbg !6389
	%132 = insertvalue %astruct.dt64  %131, i32  %129, 1, !dbg !6389
	resume %astruct.dt64  %132 , !dbg !6389
L.R0100:
	ret void, !dbg !6374
}
define linkonce_odr void @_ZNSt7__cxx1112basic_stringIcSt11char_traitsIcESaIcEE12_Alloc_hiderC1EPcRKS3_(%struct._ZNSt7__cxx1112basic_stringIcSt11char_traitsIcESaIcEE12_Alloc_hiderE* %_T43066440_52515.arg, i8* %__dat.arg, %struct._ZSaIcE* %__a.arg) #0 inlinehint !dbg !6394 {
L.entry:
	%_T43066440_52515.addr = alloca %struct._ZNSt7__cxx1112basic_stringIcSt11char_traitsIcESaIcEE12_Alloc_hiderE*, align 8
	%__dat.addr = alloca i8*, align 8
	%__a.addr = alloca %struct._ZSaIcE*, align 8

	call void @llvm.dbg.declare (metadata %struct._ZNSt7__cxx1112basic_stringIcSt11char_traitsIcESaIcEE12_Alloc_hiderE** %_T43066440_52515.addr, metadata !6398, metadata !3891), !dbg !6395
	store %struct._ZNSt7__cxx1112basic_stringIcSt11char_traitsIcESaIcEE12_Alloc_hiderE* %_T43066440_52515.arg, %struct._ZNSt7__cxx1112basic_stringIcSt11char_traitsIcESaIcEE12_Alloc_hiderE** %_T43066440_52515.addr, align 8, !tbaa !3899
	call void @llvm.dbg.declare (metadata %struct._ZNSt7__cxx1112basic_stringIcSt11char_traitsIcESaIcEE12_Alloc_hiderE** %_T43066440_52515.addr, metadata !6399, metadata !3891), !dbg !6395
	call void @llvm.dbg.declare (metadata i8** %__dat.addr, metadata !6400, metadata !3891), !dbg !6395
	store i8* %__dat.arg, i8** %__dat.addr, align 8, !tbaa !3899
	call void @llvm.dbg.declare (metadata i8** %__dat.addr, metadata !6401, metadata !3891), !dbg !6395
	call void @llvm.dbg.declare (metadata %struct._ZSaIcE** %__a.addr, metadata !6402, metadata !3891), !dbg !6395
	store %struct._ZSaIcE* %__a.arg, %struct._ZSaIcE** %__a.addr, align 8, !tbaa !3899
	call void @llvm.dbg.declare (metadata %struct._ZSaIcE** %__a.addr, metadata !6403, metadata !3891), !dbg !6395
	%0 = load i8*, i8** %__dat.addr, align 8, !tbaa !3899, !dbg !6404
	%1 = load %struct._ZNSt7__cxx1112basic_stringIcSt11char_traitsIcESaIcEE12_Alloc_hiderE*, %struct._ZNSt7__cxx1112basic_stringIcSt11char_traitsIcESaIcEE12_Alloc_hiderE** %_T43066440_52515.addr, align 8, !tbaa !3899, !dbg !6404
	%2 = bitcast %struct._ZNSt7__cxx1112basic_stringIcSt11char_traitsIcESaIcEE12_Alloc_hiderE*  %1 to i8**, !dbg !6404
	store i8*  %0, i8**  %2, align 8, !tbaa !3899, !dbg !6404
	ret void, !dbg !6404
}
define linkonce_odr void @_ZNSt7__cxx1112basic_stringIcSt11char_traitsIcESaIcEE12_Alloc_hiderC2EPcRKS3_(%struct._ZNSt7__cxx1112basic_stringIcSt11char_traitsIcESaIcEE12_Alloc_hiderE* %_T43066440_52517.arg, i8* %_T43066736_52517.arg, %struct._ZSaIcE* %_T43067032_52517.arg) #0 inlinehint !dbg !6406 {
L.entry:
	%_T43066440_52517.addr = alloca %struct._ZNSt7__cxx1112basic_stringIcSt11char_traitsIcESaIcEE12_Alloc_hiderE*, align 8
	%_T43066736_52517.addr = alloca i8*, align 8
	%_T43067032_52517.addr = alloca %struct._ZSaIcE*, align 8

	store %struct._ZNSt7__cxx1112basic_stringIcSt11char_traitsIcESaIcEE12_Alloc_hiderE* %_T43066440_52517.arg, %struct._ZNSt7__cxx1112basic_stringIcSt11char_traitsIcESaIcEE12_Alloc_hiderE** %_T43066440_52517.addr, align 8, !tbaa !3899
	store i8* %_T43066736_52517.arg, i8** %_T43066736_52517.addr, align 8, !tbaa !3899
	store %struct._ZSaIcE* %_T43067032_52517.arg, %struct._ZSaIcE** %_T43067032_52517.addr, align 8, !tbaa !3899
	%0 = load i8*, i8** %_T43066736_52517.addr, align 8, !tbaa !3899, !dbg !6414
	%1 = load %struct._ZNSt7__cxx1112basic_stringIcSt11char_traitsIcESaIcEE12_Alloc_hiderE*, %struct._ZNSt7__cxx1112basic_stringIcSt11char_traitsIcESaIcEE12_Alloc_hiderE** %_T43066440_52517.addr, align 8, !tbaa !3899, !dbg !6414
	%2 = bitcast %struct._ZNSt7__cxx1112basic_stringIcSt11char_traitsIcESaIcEE12_Alloc_hiderE*  %1 to i8**, !dbg !6414
	store i8*  %0, i8**  %2, align 8, !tbaa !3899, !dbg !6414
	ret void, !dbg !6414
}

%struct._ZN9__gnu_cxx13new_allocatorIcEE = type <{ [1 x i8]}> 

define linkonce_odr void @_ZN9__gnu_cxx13new_allocatorIcE10deallocateEPcm(%struct._ZN9__gnu_cxx13new_allocatorIcEE* %_T43066440_52520.arg, i8* %__p.arg, i64 %_T43067032_52520.arg) #0 inlinehint !dbg !6421 {
L.entry:
	%_T43066440_52520.addr = alloca %struct._ZN9__gnu_cxx13new_allocatorIcEE*, align 8
	%__p.addr = alloca i8*, align 8
	%_T43067032_52520.addr = alloca i64, align 8

	call void @llvm.dbg.declare (metadata %struct._ZN9__gnu_cxx13new_allocatorIcEE** %_T43066440_52520.addr, metadata !6425, metadata !3891), !dbg !6422
	store %struct._ZN9__gnu_cxx13new_allocatorIcEE* %_T43066440_52520.arg, %struct._ZN9__gnu_cxx13new_allocatorIcEE** %_T43066440_52520.addr, align 8, !tbaa !3899
	call void @llvm.dbg.declare (metadata %struct._ZN9__gnu_cxx13new_allocatorIcEE** %_T43066440_52520.addr, metadata !6426, metadata !3891), !dbg !6422
	call void @llvm.dbg.declare (metadata i8** %__p.addr, metadata !6427, metadata !3891), !dbg !6422
	store i8* %__p.arg, i8** %__p.addr, align 8, !tbaa !3899
	call void @llvm.dbg.declare (metadata i8** %__p.addr, metadata !6428, metadata !3891), !dbg !6422
	call void @llvm.dbg.declare (metadata i64* %_T43067032_52520.addr, metadata !6429, metadata !3891), !dbg !6422
	store i64 %_T43067032_52520.arg, i64* %_T43067032_52520.addr, align 8, !tbaa !4009
	call void @llvm.dbg.declare (metadata i64* %_T43067032_52520.addr, metadata !6430, metadata !3891), !dbg !6422
	%0 = load i8*, i8** %__p.addr, align 8, !tbaa !3899, !dbg !6431
	call void  @_ZdlPv (i8*  %0) nounwind, !dbg !6431
	ret void, !dbg !6432
}

%struct._ZN9__gnu_cxx13new_allocatorIjEE = type <{ [1 x i8]}> 

define linkonce_odr void @_ZN9__gnu_cxx13new_allocatorIjE10deallocateEPjm(%struct._ZN9__gnu_cxx13new_allocatorIjEE* %_T43066440_52523.arg, i32* %__p.arg, i64 %_T43067032_52523.arg) #0 inlinehint !dbg !6440 {
L.entry:
	%_T43066440_52523.addr = alloca %struct._ZN9__gnu_cxx13new_allocatorIjEE*, align 8
	%__p.addr = alloca i32*, align 8
	%_T43067032_52523.addr = alloca i64, align 8

	call void @llvm.dbg.declare (metadata %struct._ZN9__gnu_cxx13new_allocatorIjEE** %_T43066440_52523.addr, metadata !6444, metadata !3891), !dbg !6441
	store %struct._ZN9__gnu_cxx13new_allocatorIjEE* %_T43066440_52523.arg, %struct._ZN9__gnu_cxx13new_allocatorIjEE** %_T43066440_52523.addr, align 8, !tbaa !3899
	call void @llvm.dbg.declare (metadata %struct._ZN9__gnu_cxx13new_allocatorIjEE** %_T43066440_52523.addr, metadata !6445, metadata !3891), !dbg !6441
	call void @llvm.dbg.declare (metadata i32** %__p.addr, metadata !6446, metadata !3891), !dbg !6441
	store i32* %__p.arg, i32** %__p.addr, align 8, !tbaa !3899
	call void @llvm.dbg.declare (metadata i32** %__p.addr, metadata !6447, metadata !3891), !dbg !6441
	call void @llvm.dbg.declare (metadata i64* %_T43067032_52523.addr, metadata !6448, metadata !3891), !dbg !6441
	store i64 %_T43067032_52523.arg, i64* %_T43067032_52523.addr, align 8, !tbaa !4009
	call void @llvm.dbg.declare (metadata i64* %_T43067032_52523.addr, metadata !6449, metadata !3891), !dbg !6441
	%0 = load i32*, i32** %__p.addr, align 8, !tbaa !3899, !dbg !6450
	%1 = bitcast i32*  %0 to i8*, !dbg !6450
	call void  @_ZdlPv (i8*  %1) nounwind, !dbg !6450
	ret void, !dbg !6451
}

%struct._ZN9__gnu_cxx13new_allocatorIdEE = type <{ [1 x i8]}> 

define linkonce_odr void @_ZN9__gnu_cxx13new_allocatorIdE10deallocateEPdm(%struct._ZN9__gnu_cxx13new_allocatorIdEE* %_T43066440_52526.arg, double* %__p.arg, i64 %_T43067032_52526.arg) #0 inlinehint !dbg !6459 {
L.entry:
	%_T43066440_52526.addr = alloca %struct._ZN9__gnu_cxx13new_allocatorIdEE*, align 8
	%__p.addr = alloca double*, align 8
	%_T43067032_52526.addr = alloca i64, align 8

	call void @llvm.dbg.declare (metadata %struct._ZN9__gnu_cxx13new_allocatorIdEE** %_T43066440_52526.addr, metadata !6463, metadata !3891), !dbg !6460
	store %struct._ZN9__gnu_cxx13new_allocatorIdEE* %_T43066440_52526.arg, %struct._ZN9__gnu_cxx13new_allocatorIdEE** %_T43066440_52526.addr, align 8, !tbaa !3899
	call void @llvm.dbg.declare (metadata %struct._ZN9__gnu_cxx13new_allocatorIdEE** %_T43066440_52526.addr, metadata !6464, metadata !3891), !dbg !6460
	call void @llvm.dbg.declare (metadata double** %__p.addr, metadata !6465, metadata !3891), !dbg !6460
	store double* %__p.arg, double** %__p.addr, align 8, !tbaa !3899
	call void @llvm.dbg.declare (metadata double** %__p.addr, metadata !6466, metadata !3891), !dbg !6460
	call void @llvm.dbg.declare (metadata i64* %_T43067032_52526.addr, metadata !6467, metadata !3891), !dbg !6460
	store i64 %_T43067032_52526.arg, i64* %_T43067032_52526.addr, align 8, !tbaa !4009
	call void @llvm.dbg.declare (metadata i64* %_T43067032_52526.addr, metadata !6468, metadata !3891), !dbg !6460
	%0 = load double*, double** %__p.addr, align 8, !tbaa !3899, !dbg !6469
	%1 = bitcast double*  %0 to i8*, !dbg !6469
	call void  @_ZdlPv (i8*  %1) nounwind, !dbg !6469
	ret void, !dbg !6470
}

%struct._ZN9__gnu_cxx13new_allocatorIN5vmesh14MeshParametersEEE = type <{ [1 x i8]}> 

define linkonce_odr void @_ZN9__gnu_cxx13new_allocatorIN5vmesh14MeshParametersEE10deallocateEPS2_m(%struct._ZN9__gnu_cxx13new_allocatorIN5vmesh14MeshParametersEEE* %_T43066440_52529.arg, %struct._ZN5vmesh14MeshParametersE* %__p.arg, i64 %_T43067032_52529.arg) #0 inlinehint !dbg !6478 {
L.entry:
	%_T43066440_52529.addr = alloca %struct._ZN9__gnu_cxx13new_allocatorIN5vmesh14MeshParametersEEE*, align 8
	%__p.addr = alloca %struct._ZN5vmesh14MeshParametersE*, align 8
	%_T43067032_52529.addr = alloca i64, align 8

	call void @llvm.dbg.declare (metadata %struct._ZN9__gnu_cxx13new_allocatorIN5vmesh14MeshParametersEEE** %_T43066440_52529.addr, metadata !6482, metadata !3891), !dbg !6479
	store %struct._ZN9__gnu_cxx13new_allocatorIN5vmesh14MeshParametersEEE* %_T43066440_52529.arg, %struct._ZN9__gnu_cxx13new_allocatorIN5vmesh14MeshParametersEEE** %_T43066440_52529.addr, align 8, !tbaa !3899
	call void @llvm.dbg.declare (metadata %struct._ZN9__gnu_cxx13new_allocatorIN5vmesh14MeshParametersEEE** %_T43066440_52529.addr, metadata !6483, metadata !3891), !dbg !6479
	call void @llvm.dbg.declare (metadata %struct._ZN5vmesh14MeshParametersE** %__p.addr, metadata !6484, metadata !3891), !dbg !6479
	store %struct._ZN5vmesh14MeshParametersE* %__p.arg, %struct._ZN5vmesh14MeshParametersE** %__p.addr, align 8, !tbaa !3899
	call void @llvm.dbg.declare (metadata %struct._ZN5vmesh14MeshParametersE** %__p.addr, metadata !6485, metadata !3891), !dbg !6479
	call void @llvm.dbg.declare (metadata i64* %_T43067032_52529.addr, metadata !6486, metadata !3891), !dbg !6479
	store i64 %_T43067032_52529.arg, i64* %_T43067032_52529.addr, align 8, !tbaa !4009
	call void @llvm.dbg.declare (metadata i64* %_T43067032_52529.addr, metadata !6487, metadata !3891), !dbg !6479
	%0 = load %struct._ZN5vmesh14MeshParametersE*, %struct._ZN5vmesh14MeshParametersE** %__p.addr, align 8, !tbaa !3899, !dbg !6488
	%1 = bitcast %struct._ZN5vmesh14MeshParametersE*  %0 to i8*, !dbg !6488
	call void  @_ZdlPv (i8*  %1) nounwind, !dbg !6488
	ret void, !dbg !6489
}
define linkonce_odr void @_ZN5vmesh14MeshParametersD1Ev(%struct._ZN5vmesh14MeshParametersE* %_T43066440_52530.arg) #0 inlinehint !dbg !6495 {
L.entry:
	%_T43066440_52530.addr = alloca %struct._ZN5vmesh14MeshParametersE*, align 8
	%..inline.addr = alloca %struct._ZSt12_Vector_baseIjSaIjEE*, align 8
	%..inline.addr.1 = alloca i32*, align 8
	%..inline.addr.2 = alloca %struct._ZSt12_Vector_baseIdSaIdEE*, align 8
	%..inline.addr.3 = alloca double*, align 8
	%..inline.addr.4 = alloca %struct._ZSt12_Vector_baseIdSaIdEE*, align 8
	%..inline.addr.5 = alloca double*, align 8
	%..inline.addr.6 = alloca %struct._ZSt12_Vector_baseIjSaIjEE*, align 8
	%..inline.addr.7 = alloca i32*, align 8
	%..inline.addr.8 = alloca i8*, align 8

	call void @llvm.dbg.declare (metadata %struct._ZN5vmesh14MeshParametersE** %_T43066440_52530.addr, metadata !6759, metadata !3891), !dbg !6496
	store %struct._ZN5vmesh14MeshParametersE* %_T43066440_52530.arg, %struct._ZN5vmesh14MeshParametersE** %_T43066440_52530.addr, align 8, !tbaa !3899
	call void @llvm.dbg.declare (metadata %struct._ZN5vmesh14MeshParametersE** %_T43066440_52530.addr, metadata !6760, metadata !3891), !dbg !6496
	%0 = load %struct._ZN5vmesh14MeshParametersE*, %struct._ZN5vmesh14MeshParametersE** %_T43066440_52530.addr, align 8, !tbaa !3899, !dbg !6761
	%1 = bitcast %struct._ZN5vmesh14MeshParametersE*  %0 to i8*, !dbg !6761
	%2 = getelementptr i8, i8*  %1, i64 312, !dbg !6761
	%3 = bitcast %struct._ZSt12_Vector_baseIjSaIjEE** %..inline.addr to i8**, !dbg !6761
	store i8*  %2, i8**  %3, align 8, !tbaa !3899, !dbg !6761
	%4 = load %struct._ZSt12_Vector_baseIjSaIjEE*, %struct._ZSt12_Vector_baseIjSaIjEE** %..inline.addr, align 8, !tbaa !3899, !dbg !6761
	%5 = bitcast %struct._ZSt12_Vector_baseIjSaIjEE*  %4 to i8**, !dbg !6761
	%6 = load i8*, i8**  %5, align 8, !tbaa !3899, !dbg !6761
	%7 = icmp eq i8*  %6,  null, !dbg !6761
	br i1  %7, label %L..inline.69010, label %L.B1180, !dbg !6761
L.B1180:
	%8 = bitcast %struct._ZSt12_Vector_baseIjSaIjEE*  %4 to i8**, !dbg !6761
	%9 = load i8*, i8**  %8, align 8, !tbaa !3899, !dbg !6761
	%10 = bitcast i32** %..inline.addr.1 to i8**, !dbg !6761
	store i8*  %9, i8**  %10, align 8, !tbaa !3899, !dbg !6761
	%11 = load i32*, i32** %..inline.addr.1, align 8, !tbaa !3899, !dbg !6761
	%12 = bitcast i32*  %11 to i8*, !dbg !6761
	call void  @_ZdlPv (i8*  %12) nounwind, !dbg !6761
	br label %L..inline.69010
L..inline.69010:
	%13 = load %struct._ZN5vmesh14MeshParametersE*, %struct._ZN5vmesh14MeshParametersE** %_T43066440_52530.addr, align 8, !tbaa !3899, !dbg !6761
	%14 = bitcast %struct._ZN5vmesh14MeshParametersE*  %13 to i8*, !dbg !6761
	%15 = getelementptr i8, i8*  %14, i64 288, !dbg !6761
	%16 = bitcast %struct._ZSt12_Vector_baseIdSaIdEE** %..inline.addr.2 to i8**, !dbg !6761
	store i8*  %15, i8**  %16, align 8, !tbaa !3899, !dbg !6761
	%17 = load %struct._ZSt12_Vector_baseIdSaIdEE*, %struct._ZSt12_Vector_baseIdSaIdEE** %..inline.addr.2, align 8, !tbaa !3899, !dbg !6761
	%18 = bitcast %struct._ZSt12_Vector_baseIdSaIdEE*  %17 to i8**, !dbg !6761
	%19 = load i8*, i8**  %18, align 8, !tbaa !3899, !dbg !6761
	%20 = icmp eq i8*  %19,  null, !dbg !6761
	br i1  %20, label %L..inline.69088, label %L.B1181, !dbg !6761
L.B1181:
	%21 = bitcast %struct._ZSt12_Vector_baseIdSaIdEE*  %17 to i8**, !dbg !6761
	%22 = load i8*, i8**  %21, align 8, !tbaa !3899, !dbg !6761
	%23 = bitcast double** %..inline.addr.3 to i8**, !dbg !6761
	store i8*  %22, i8**  %23, align 8, !tbaa !3899, !dbg !6761
	%24 = load double*, double** %..inline.addr.3, align 8, !tbaa !3899, !dbg !6761
	%25 = bitcast double*  %24 to i8*, !dbg !6761
	call void  @_ZdlPv (i8*  %25) nounwind, !dbg !6761
	br label %L..inline.69088
L..inline.69088:
	%26 = load %struct._ZN5vmesh14MeshParametersE*, %struct._ZN5vmesh14MeshParametersE** %_T43066440_52530.addr, align 8, !tbaa !3899, !dbg !6761
	%27 = bitcast %struct._ZN5vmesh14MeshParametersE*  %26 to i8*, !dbg !6761
	%28 = getelementptr i8, i8*  %27, i64 264, !dbg !6761
	%29 = bitcast %struct._ZSt12_Vector_baseIdSaIdEE** %..inline.addr.4 to i8**, !dbg !6761
	store i8*  %28, i8**  %29, align 8, !tbaa !3899, !dbg !6761
	%30 = load %struct._ZSt12_Vector_baseIdSaIdEE*, %struct._ZSt12_Vector_baseIdSaIdEE** %..inline.addr.4, align 8, !tbaa !3899, !dbg !6761
	%31 = bitcast %struct._ZSt12_Vector_baseIdSaIdEE*  %30 to i8**, !dbg !6761
	%32 = load i8*, i8**  %31, align 8, !tbaa !3899, !dbg !6761
	%33 = icmp eq i8*  %32,  null, !dbg !6761
	br i1  %33, label %L..inline.69166, label %L.B1182, !dbg !6761
L.B1182:
	%34 = bitcast %struct._ZSt12_Vector_baseIdSaIdEE*  %30 to i8**, !dbg !6761
	%35 = load i8*, i8**  %34, align 8, !tbaa !3899, !dbg !6761
	%36 = bitcast double** %..inline.addr.5 to i8**, !dbg !6761
	store i8*  %35, i8**  %36, align 8, !tbaa !3899, !dbg !6761
	%37 = load double*, double** %..inline.addr.5, align 8, !tbaa !3899, !dbg !6761
	%38 = bitcast double*  %37 to i8*, !dbg !6761
	call void  @_ZdlPv (i8*  %38) nounwind, !dbg !6761
	br label %L..inline.69166
L..inline.69166:
	%39 = load %struct._ZN5vmesh14MeshParametersE*, %struct._ZN5vmesh14MeshParametersE** %_T43066440_52530.addr, align 8, !tbaa !3899, !dbg !6761
	%40 = bitcast %struct._ZN5vmesh14MeshParametersE*  %39 to i8*, !dbg !6761
	%41 = getelementptr i8, i8*  %40, i64 240, !dbg !6761
	%42 = bitcast %struct._ZSt12_Vector_baseIjSaIjEE** %..inline.addr.6 to i8**, !dbg !6761
	store i8*  %41, i8**  %42, align 8, !tbaa !3899, !dbg !6761
	%43 = load %struct._ZSt12_Vector_baseIjSaIjEE*, %struct._ZSt12_Vector_baseIjSaIjEE** %..inline.addr.6, align 8, !tbaa !3899, !dbg !6761
	%44 = bitcast %struct._ZSt12_Vector_baseIjSaIjEE*  %43 to i8**, !dbg !6761
	%45 = load i8*, i8**  %44, align 8, !tbaa !3899, !dbg !6761
	%46 = icmp eq i8*  %45,  null, !dbg !6761
	br i1  %46, label %L..inline.69244, label %L.B1183, !dbg !6761
L.B1183:
	%47 = bitcast %struct._ZSt12_Vector_baseIjSaIjEE*  %43 to i8**, !dbg !6761
	%48 = load i8*, i8**  %47, align 8, !tbaa !3899, !dbg !6761
	%49 = bitcast i32** %..inline.addr.7 to i8**, !dbg !6761
	store i8*  %48, i8**  %49, align 8, !tbaa !3899, !dbg !6761
	%50 = load i32*, i32** %..inline.addr.7, align 8, !tbaa !3899, !dbg !6761
	%51 = bitcast i32*  %50 to i8*, !dbg !6761
	call void  @_ZdlPv (i8*  %51) nounwind, !dbg !6761
	br label %L..inline.69244
L..inline.69244:
	%52 = load %struct._ZN5vmesh14MeshParametersE*, %struct._ZN5vmesh14MeshParametersE** %_T43066440_52530.addr, align 8, !tbaa !3899, !dbg !6762
	%53 = bitcast %struct._ZN5vmesh14MeshParametersE*  %52 to i8**, !dbg !6762
	%54 = load i8*, i8**  %53, align 8, !tbaa !3899, !dbg !6762
	%55 = bitcast %struct._ZN5vmesh14MeshParametersE*  %52 to i8*, !dbg !6762
	%56 = getelementptr i8, i8*  %55, i64 16, !dbg !6762
	%57 = icmp eq i8*  %54,  %56, !dbg !6762
	br i1  %57, label %L..inline.69325, label %L.B1184, !dbg !6762
L.B1184:
	%58 = bitcast %struct._ZN5vmesh14MeshParametersE*  %52 to i8**, !dbg !6762
	%59 = load i8*, i8**  %58, align 8, !tbaa !3899, !dbg !6762
	call void  @_ZdlPv (i8*  %59) nounwind, !dbg !6762
	br label %L..inline.69325
L..inline.69325:
	ret void, !dbg !6762
}
define linkonce_odr void @_ZN5vmesh14MeshParametersD2Ev(%struct._ZN5vmesh14MeshParametersE* %_T43066440_52531.arg) #0 inlinehint !dbg !6764 {
L.entry:
	%_T43066440_52531.addr = alloca %struct._ZN5vmesh14MeshParametersE*, align 8

	store %struct._ZN5vmesh14MeshParametersE* %_T43066440_52531.arg, %struct._ZN5vmesh14MeshParametersE** %_T43066440_52531.addr, align 8, !tbaa !3899
	%0 = load %struct._ZN5vmesh14MeshParametersE*, %struct._ZN5vmesh14MeshParametersE** %_T43066440_52531.addr, align 8, !tbaa !3899, !dbg !6768
	call void  @_ZN5vmesh14MeshParametersD1Ev (%struct._ZN5vmesh14MeshParametersE*  %0) nounwind, !dbg !6768
	ret void, !dbg !6768
}

%struct.ompi_datatype_t = type opaque
%struct._ZN3MPI8DatatypeE = type <{ i32 (...)* (...)*, %struct.ompi_datatype_t*}> 

define linkonce_odr void @_ZN3MPI8DatatypeD1Ev(%struct._ZN3MPI8DatatypeE* %_T43066440_52532.arg) #0 inlinehint !dbg !6772 {
L.entry:
	%_T43066440_52532.addr = alloca %struct._ZN3MPI8DatatypeE*, align 8

	call void @llvm.dbg.declare (metadata %struct._ZN3MPI8DatatypeE** %_T43066440_52532.addr, metadata !6776, metadata !3891), !dbg !6773
	store %struct._ZN3MPI8DatatypeE* %_T43066440_52532.arg, %struct._ZN3MPI8DatatypeE** %_T43066440_52532.addr, align 8, !tbaa !3899
	call void @llvm.dbg.declare (metadata %struct._ZN3MPI8DatatypeE** %_T43066440_52532.addr, metadata !6777, metadata !3891), !dbg !6773
	%0 = bitcast [32 x i32 (...)* (...)*]* @_ZTVN3MPI8DatatypeE to i8*, !dbg !6778
	%1 = getelementptr i8, i8*  %0, i64 16, !dbg !6778
	%2 = load %struct._ZN3MPI8DatatypeE*, %struct._ZN3MPI8DatatypeE** %_T43066440_52532.addr, align 8, !tbaa !3899, !dbg !6778
	%3 = bitcast %struct._ZN3MPI8DatatypeE*  %2 to i8**, !dbg !6778
	store i8*  %1, i8**  %3, align 8, !tbaa !3899, !dbg !6778
	ret void, !dbg !6778
}
define linkonce_odr void @_ZN3MPI8DatatypeD0Ev(%struct._ZN3MPI8DatatypeE* %_T43066440_52533.arg) #0 inlinehint !dbg !6783 {
L.entry:
	%_T43066440_52533.addr = alloca %struct._ZN3MPI8DatatypeE*, align 8

	store %struct._ZN3MPI8DatatypeE* %_T43066440_52533.arg, %struct._ZN3MPI8DatatypeE** %_T43066440_52533.addr, align 8, !tbaa !3899
	%0 = bitcast [32 x i32 (...)* (...)*]* @_ZTVN3MPI8DatatypeE to i8*, !dbg !6791
	%1 = getelementptr i8, i8*  %0, i64 16, !dbg !6791
	%2 = load %struct._ZN3MPI8DatatypeE*, %struct._ZN3MPI8DatatypeE** %_T43066440_52533.addr, align 8, !tbaa !3899, !dbg !6791
	%3 = bitcast %struct._ZN3MPI8DatatypeE*  %2 to i8**, !dbg !6791
	store i8*  %1, i8**  %3, align 8, !tbaa !3899, !dbg !6791
	%4 = bitcast %struct._ZN3MPI8DatatypeE*  %2 to i8*, !dbg !6791
	call void  @_ZdlPvm (i8*  %4, i64 16) nounwind, !dbg !6791
	ret void, !dbg !6791
}
define linkonce_odr void @_ZN3MPI8DatatypeD2Ev(%struct._ZN3MPI8DatatypeE* %_T43066440_52534.arg) #0 inlinehint !dbg !6793 {
L.entry:
	%_T43066440_52534.addr = alloca %struct._ZN3MPI8DatatypeE*, align 8

	store %struct._ZN3MPI8DatatypeE* %_T43066440_52534.arg, %struct._ZN3MPI8DatatypeE** %_T43066440_52534.addr, align 8, !tbaa !3899
	%0 = bitcast [32 x i32 (...)* (...)*]* @_ZTVN3MPI8DatatypeE to i8*, !dbg !6801
	%1 = getelementptr i8, i8*  %0, i64 16, !dbg !6801
	%2 = load %struct._ZN3MPI8DatatypeE*, %struct._ZN3MPI8DatatypeE** %_T43066440_52534.addr, align 8, !tbaa !3899, !dbg !6801
	%3 = bitcast %struct._ZN3MPI8DatatypeE*  %2 to i8**, !dbg !6801
	store i8*  %1, i8**  %3, align 8, !tbaa !3899, !dbg !6801
	ret void, !dbg !6801
}
define linkonce_odr void @_ZN3MPI8DatatypeC1EP15ompi_datatype_t(%struct._ZN3MPI8DatatypeE* %_T43066440_52536.arg, %struct.ompi_datatype_t* %i.arg) #0 inlinehint !dbg !6805 {
L.entry:
	%_T43066440_52536.addr = alloca %struct._ZN3MPI8DatatypeE*, align 8
	%i.addr = alloca %struct.ompi_datatype_t*, align 8

	call void @llvm.dbg.declare (metadata %struct._ZN3MPI8DatatypeE** %_T43066440_52536.addr, metadata !6809, metadata !3891), !dbg !6806
	store %struct._ZN3MPI8DatatypeE* %_T43066440_52536.arg, %struct._ZN3MPI8DatatypeE** %_T43066440_52536.addr, align 8, !tbaa !3899
	call void @llvm.dbg.declare (metadata %struct._ZN3MPI8DatatypeE** %_T43066440_52536.addr, metadata !6810, metadata !3891), !dbg !6806
	call void @llvm.dbg.declare (metadata %struct.ompi_datatype_t** %i.addr, metadata !6811, metadata !3891), !dbg !6806
	store %struct.ompi_datatype_t* %i.arg, %struct.ompi_datatype_t** %i.addr, align 8, !tbaa !3899
	call void @llvm.dbg.declare (metadata %struct.ompi_datatype_t** %i.addr, metadata !6812, metadata !3891), !dbg !6806
	%0 = bitcast [32 x i32 (...)* (...)*]* @_ZTVN3MPI8DatatypeE to i8*, !dbg !6813
	%1 = getelementptr i8, i8*  %0, i64 16, !dbg !6813
	%2 = load %struct._ZN3MPI8DatatypeE*, %struct._ZN3MPI8DatatypeE** %_T43066440_52536.addr, align 8, !tbaa !3899, !dbg !6813
	%3 = bitcast %struct._ZN3MPI8DatatypeE*  %2 to i8**, !dbg !6813
	store i8*  %1, i8**  %3, align 8, !tbaa !3899, !dbg !6813
	%4 = load %struct.ompi_datatype_t*, %struct.ompi_datatype_t** %i.addr, align 8, !tbaa !3899, !dbg !6813
	%5 = bitcast %struct.ompi_datatype_t*  %4 to i8*, !dbg !6813
	%6 = bitcast %struct._ZN3MPI8DatatypeE*  %2 to i8*, !dbg !6813
	%7 = getelementptr i8, i8*  %6, i64 8, !dbg !6813
	%8 = bitcast i8*  %7 to i8**, !dbg !6813
	store i8*  %5, i8**  %8, align 8, !tbaa !3899, !dbg !6813
	ret void, !dbg !6813
}
define linkonce_odr void @_ZN3MPI8DatatypeC2EP15ompi_datatype_t(%struct._ZN3MPI8DatatypeE* %_T43066440_52538.arg, %struct.ompi_datatype_t* %_T43066736_52538.arg) #0 inlinehint !dbg !6815 {
L.entry:
	%_T43066440_52538.addr = alloca %struct._ZN3MPI8DatatypeE*, align 8
	%_T43066736_52538.addr = alloca %struct.ompi_datatype_t*, align 8
	%..inline.addr = alloca %struct._ZN3MPI8DatatypeE*, align 8
	%..inline.addr.1 = alloca %struct.ompi_datatype_t*, align 8

	store %struct._ZN3MPI8DatatypeE* %_T43066440_52538.arg, %struct._ZN3MPI8DatatypeE** %_T43066440_52538.addr, align 8, !tbaa !3899
	store %struct.ompi_datatype_t* %_T43066736_52538.arg, %struct.ompi_datatype_t** %_T43066736_52538.addr, align 8, !tbaa !3899
	%0 = load %struct._ZN3MPI8DatatypeE*, %struct._ZN3MPI8DatatypeE** %_T43066440_52538.addr, align 8, !tbaa !3899, !dbg !6823
	%1 = bitcast %struct._ZN3MPI8DatatypeE*  %0 to i8*, !dbg !6823
	%2 = bitcast %struct._ZN3MPI8DatatypeE** %..inline.addr to i8**, !dbg !6823
	store i8*  %1, i8**  %2, align 8, !tbaa !3899, !dbg !6823
	%3 = load %struct.ompi_datatype_t*, %struct.ompi_datatype_t** %_T43066736_52538.addr, align 8, !tbaa !3899, !dbg !6823
	%4 = bitcast %struct.ompi_datatype_t*  %3 to i8*, !dbg !6823
	%5 = bitcast %struct.ompi_datatype_t** %..inline.addr.1 to i8**, !dbg !6823
	store i8*  %4, i8**  %5, align 8, !tbaa !3899, !dbg !6823
	%6 = bitcast [32 x i32 (...)* (...)*]* @_ZTVN3MPI8DatatypeE to i8*, !dbg !6823
	%7 = getelementptr i8, i8*  %6, i64 16, !dbg !6823
	%8 = load %struct._ZN3MPI8DatatypeE*, %struct._ZN3MPI8DatatypeE** %..inline.addr, align 8, !tbaa !3899, !dbg !6823
	%9 = bitcast %struct._ZN3MPI8DatatypeE*  %8 to i8**, !dbg !6823
	store i8*  %7, i8**  %9, align 8, !tbaa !3899, !dbg !6823
	%10 = load %struct.ompi_datatype_t*, %struct.ompi_datatype_t** %..inline.addr.1, align 8, !tbaa !3899, !dbg !6823
	%11 = bitcast %struct.ompi_datatype_t*  %10 to i8*, !dbg !6823
	%12 = bitcast %struct._ZN3MPI8DatatypeE*  %8 to i8*, !dbg !6823
	%13 = getelementptr i8, i8*  %12, i64 8, !dbg !6823
	%14 = bitcast i8*  %13 to i8**, !dbg !6823
	store i8*  %11, i8**  %14, align 8, !tbaa !3899, !dbg !6823
	ret void, !dbg !6823
}
define linkonce_odr %struct._ZN3MPI8DatatypeE* @_ZN3MPI8DatatypeaSERKP15ompi_datatype_t(%struct._ZN3MPI8DatatypeE* %_T43066440_52539.arg, %struct.ompi_datatype_t** %i.arg) #0 inlinehint !dbg !6831 {
L.entry:
	%_T43066440_52539.addr = alloca %struct._ZN3MPI8DatatypeE*, align 8
	%i.addr = alloca %struct.ompi_datatype_t**, align 8

	call void @llvm.dbg.declare (metadata %struct._ZN3MPI8DatatypeE** %_T43066440_52539.addr, metadata !6835, metadata !3891), !dbg !6832
	store %struct._ZN3MPI8DatatypeE* %_T43066440_52539.arg, %struct._ZN3MPI8DatatypeE** %_T43066440_52539.addr, align 8, !tbaa !3899
	call void @llvm.dbg.declare (metadata %struct._ZN3MPI8DatatypeE** %_T43066440_52539.addr, metadata !6836, metadata !3891), !dbg !6832
	call void @llvm.dbg.declare (metadata %struct.ompi_datatype_t*** %i.addr, metadata !6837, metadata !3891), !dbg !6832
	store %struct.ompi_datatype_t** %i.arg, %struct.ompi_datatype_t*** %i.addr, align 8, !tbaa !3899
	call void @llvm.dbg.declare (metadata %struct.ompi_datatype_t*** %i.addr, metadata !6838, metadata !3891), !dbg !6832
	%0 = load %struct.ompi_datatype_t**, %struct.ompi_datatype_t*** %i.addr, align 8, !tbaa !3899, !dbg !6839
	%1 = bitcast %struct.ompi_datatype_t**  %0 to i8**, !dbg !6839
	%2 = load i8*, i8**  %1, align 8, !tbaa !3899, !dbg !6839
	%3 = load %struct._ZN3MPI8DatatypeE*, %struct._ZN3MPI8DatatypeE** %_T43066440_52539.addr, align 8, !tbaa !3899, !dbg !6839
	%4 = bitcast %struct._ZN3MPI8DatatypeE*  %3 to i8*, !dbg !6839
	%5 = getelementptr i8, i8*  %4, i64 8, !dbg !6839
	%6 = bitcast i8*  %5 to i8**, !dbg !6839
	store i8*  %2, i8**  %6, align 8, !tbaa !3899, !dbg !6839
	ret %struct._ZN3MPI8DatatypeE*  %3, !dbg !6839
}
define linkonce_odr %struct.ompi_datatype_t* @_ZNK3MPI8DatatypecvP15ompi_datatype_tEv(%struct._ZN3MPI8DatatypeE* %_T43066440_52541.arg) #0 inlinehint !dbg !6843 {
L.entry:
	%_T43066440_52541.addr = alloca %struct._ZN3MPI8DatatypeE*, align 8

	call void @llvm.dbg.declare (metadata %struct._ZN3MPI8DatatypeE** %_T43066440_52541.addr, metadata !6847, metadata !3891), !dbg !6844
	store %struct._ZN3MPI8DatatypeE* %_T43066440_52541.arg, %struct._ZN3MPI8DatatypeE** %_T43066440_52541.addr, align 8, !tbaa !3899
	call void @llvm.dbg.declare (metadata %struct._ZN3MPI8DatatypeE** %_T43066440_52541.addr, metadata !6848, metadata !3891), !dbg !6844
	%0 = load %struct._ZN3MPI8DatatypeE*, %struct._ZN3MPI8DatatypeE** %_T43066440_52541.addr, align 8, !tbaa !3899, !dbg !6849
	%1 = bitcast %struct._ZN3MPI8DatatypeE*  %0 to i8*, !dbg !6849
	%2 = getelementptr i8, i8*  %1, i64 8, !dbg !6849
	%3 = bitcast i8*  %2 to %struct.ompi_datatype_t**, !dbg !6849
	%4 = load %struct.ompi_datatype_t*, %struct.ompi_datatype_t**  %3, align 8, !tbaa !3899, !dbg !6849
	ret %struct.ompi_datatype_t*  %4, !dbg !6849
}
define linkonce_odr void @_ZNK3MPI8Datatype17Create_contiguousEi(%struct._ZN3MPI8DatatypeE* sret %_T43066440_52542.arg, %struct._ZN3MPI8DatatypeE* %_T43066736_52542.arg, i32 signext %count.arg) #0 inlinehint !dbg !6853 {
L.entry:
	%_T43066440_52542.addr = alloca %struct._ZN3MPI8DatatypeE*, align 8
	%_T43066736_52542.addr = alloca %struct._ZN3MPI8DatatypeE*, align 8
	%count.addr = alloca i32, align 4
	%newtype.addr = alloca %struct.ompi_datatype_t*, align 8
	%..inline.addr = alloca %struct._ZN3MPI8DatatypeE*, align 8
	%..inline.addr.1 = alloca %struct.ompi_datatype_t*, align 8

	store %struct._ZN3MPI8DatatypeE* %_T43066440_52542.arg, %struct._ZN3MPI8DatatypeE** %_T43066440_52542.addr, align 8, !tbaa !3899
	call void @llvm.dbg.declare (metadata %struct._ZN3MPI8DatatypeE** %_T43066736_52542.addr, metadata !6861, metadata !3891), !dbg !6854
	store %struct._ZN3MPI8DatatypeE* %_T43066736_52542.arg, %struct._ZN3MPI8DatatypeE** %_T43066736_52542.addr, align 8, !tbaa !3899
	call void @llvm.dbg.declare (metadata %struct._ZN3MPI8DatatypeE** %_T43066736_52542.addr, metadata !6862, metadata !3891), !dbg !6854
	call void @llvm.dbg.declare (metadata i32* %count.addr, metadata !6863, metadata !3891), !dbg !6854
	store i32 %count.arg, i32* %count.addr, align 4, !tbaa !4009
	call void @llvm.dbg.declare (metadata i32* %count.addr, metadata !6864, metadata !3891), !dbg !6854
	%0 = load i32, i32* %count.addr, align 4, !tbaa !4090, !dbg !6865
	%1 = load %struct._ZN3MPI8DatatypeE*, %struct._ZN3MPI8DatatypeE** %_T43066736_52542.addr, align 8, !tbaa !3899, !dbg !6865
	%2 = bitcast %struct._ZN3MPI8DatatypeE*  %1 to i8*, !dbg !6865
	%3 = getelementptr i8, i8*  %2, i64 8, !dbg !6865
	%4 = bitcast i8*  %3 to %struct.ompi_datatype_t**, !dbg !6865
	%5 = load %struct.ompi_datatype_t*, %struct.ompi_datatype_t**  %4, align 8, !tbaa !3899, !dbg !6865
	call void @llvm.dbg.declare (metadata %struct.ompi_datatype_t** %newtype.addr, metadata !6866, metadata !3891), !dbg !6854
	%6 = call i32  @MPI_Type_contiguous (i32  %0, %struct.ompi_datatype_t*  %5, %struct.ompi_datatype_t** %newtype.addr) nounwind, !dbg !6865
	%7 = load %struct._ZN3MPI8DatatypeE*, %struct._ZN3MPI8DatatypeE** %_T43066440_52542.addr, align 8, !tbaa !3899, !dbg !6867
	%8 = bitcast %struct._ZN3MPI8DatatypeE*  %7 to i8*, !dbg !6867
	%9 = bitcast %struct._ZN3MPI8DatatypeE** %..inline.addr to i8**, !dbg !6867
	store i8*  %8, i8**  %9, align 8, !tbaa !3899, !dbg !6867
	%10 = load %struct.ompi_datatype_t*, %struct.ompi_datatype_t** %newtype.addr, align 8, !tbaa !3899, !dbg !6867
	%11 = bitcast %struct.ompi_datatype_t*  %10 to i8*, !dbg !6867
	%12 = bitcast %struct.ompi_datatype_t** %..inline.addr.1 to i8**, !dbg !6867
	store i8*  %11, i8**  %12, align 8, !tbaa !3899, !dbg !6867
	%13 = bitcast [32 x i32 (...)* (...)*]* @_ZTVN3MPI8DatatypeE to i8*, !dbg !6867
	%14 = getelementptr i8, i8*  %13, i64 16, !dbg !6867
	%15 = load %struct._ZN3MPI8DatatypeE*, %struct._ZN3MPI8DatatypeE** %..inline.addr, align 8, !tbaa !3899, !dbg !6867
	%16 = bitcast %struct._ZN3MPI8DatatypeE*  %15 to i8**, !dbg !6867
	store i8*  %14, i8**  %16, align 8, !tbaa !3899, !dbg !6867
	%17 = load %struct.ompi_datatype_t*, %struct.ompi_datatype_t** %..inline.addr.1, align 8, !tbaa !3899, !dbg !6868
	%18 = bitcast %struct.ompi_datatype_t*  %17 to i8*, !dbg !6868
	%19 = bitcast %struct._ZN3MPI8DatatypeE*  %15 to i8*, !dbg !6868
	%20 = getelementptr i8, i8*  %19, i64 8, !dbg !6868
	%21 = bitcast i8*  %20 to i8**, !dbg !6868
	store i8*  %18, i8**  %21, align 8, !tbaa !3899, !dbg !6868
	ret void, !dbg !6869
}
define linkonce_odr void @_ZNK3MPI8Datatype13Create_vectorEiii(%struct._ZN3MPI8DatatypeE* sret %_T43066440_52543.arg, %struct._ZN3MPI8DatatypeE* %_T43066736_52543.arg, i32 signext %count.arg, i32 signext %blocklength.arg, i32 signext %stride.arg) #0 inlinehint !dbg !6871 {
L.entry:
	%_T43066440_52543.addr = alloca %struct._ZN3MPI8DatatypeE*, align 8
	%_T43066736_52543.addr = alloca %struct._ZN3MPI8DatatypeE*, align 8
	%count.addr = alloca i32, align 4
	%blocklength.addr = alloca i32, align 4
	%stride.addr = alloca i32, align 4
	%newtype.addr = alloca %struct.ompi_datatype_t*, align 8
	%..inline.addr = alloca %struct._ZN3MPI8DatatypeE*, align 8
	%..inline.addr.1 = alloca %struct.ompi_datatype_t*, align 8

	store %struct._ZN3MPI8DatatypeE* %_T43066440_52543.arg, %struct._ZN3MPI8DatatypeE** %_T43066440_52543.addr, align 8, !tbaa !3899
	call void @llvm.dbg.declare (metadata %struct._ZN3MPI8DatatypeE** %_T43066736_52543.addr, metadata !6879, metadata !3891), !dbg !6872
	store %struct._ZN3MPI8DatatypeE* %_T43066736_52543.arg, %struct._ZN3MPI8DatatypeE** %_T43066736_52543.addr, align 8, !tbaa !3899
	call void @llvm.dbg.declare (metadata %struct._ZN3MPI8DatatypeE** %_T43066736_52543.addr, metadata !6880, metadata !3891), !dbg !6872
	call void @llvm.dbg.declare (metadata i32* %count.addr, metadata !6881, metadata !3891), !dbg !6872
	store i32 %count.arg, i32* %count.addr, align 4, !tbaa !4009
	call void @llvm.dbg.declare (metadata i32* %count.addr, metadata !6882, metadata !3891), !dbg !6872
	call void @llvm.dbg.declare (metadata i32* %blocklength.addr, metadata !6883, metadata !3891), !dbg !6872
	store i32 %blocklength.arg, i32* %blocklength.addr, align 4, !tbaa !4009
	call void @llvm.dbg.declare (metadata i32* %blocklength.addr, metadata !6884, metadata !3891), !dbg !6872
	call void @llvm.dbg.declare (metadata i32* %stride.addr, metadata !6885, metadata !3891), !dbg !6872
	store i32 %stride.arg, i32* %stride.addr, align 4, !tbaa !4009
	call void @llvm.dbg.declare (metadata i32* %stride.addr, metadata !6886, metadata !3891), !dbg !6872
	%0 = load i32, i32* %count.addr, align 4, !tbaa !4090, !dbg !6887
	%1 = load i32, i32* %blocklength.addr, align 4, !tbaa !4090, !dbg !6887
	%2 = load i32, i32* %stride.addr, align 4, !tbaa !4090, !dbg !6887
	%3 = load %struct._ZN3MPI8DatatypeE*, %struct._ZN3MPI8DatatypeE** %_T43066736_52543.addr, align 8, !tbaa !3899, !dbg !6887
	%4 = bitcast %struct._ZN3MPI8DatatypeE*  %3 to i8*, !dbg !6887
	%5 = getelementptr i8, i8*  %4, i64 8, !dbg !6887
	%6 = bitcast i8*  %5 to %struct.ompi_datatype_t**, !dbg !6887
	%7 = load %struct.ompi_datatype_t*, %struct.ompi_datatype_t**  %6, align 8, !tbaa !3899, !dbg !6887
	call void @llvm.dbg.declare (metadata %struct.ompi_datatype_t** %newtype.addr, metadata !6888, metadata !3891), !dbg !6872
	%8 = call i32  @MPI_Type_vector (i32  %0, i32  %1, i32  %2, %struct.ompi_datatype_t*  %7, %struct.ompi_datatype_t** %newtype.addr) nounwind, !dbg !6887
	%9 = load %struct._ZN3MPI8DatatypeE*, %struct._ZN3MPI8DatatypeE** %_T43066440_52543.addr, align 8, !tbaa !3899, !dbg !6889
	%10 = bitcast %struct._ZN3MPI8DatatypeE*  %9 to i8*, !dbg !6889
	%11 = bitcast %struct._ZN3MPI8DatatypeE** %..inline.addr to i8**, !dbg !6889
	store i8*  %10, i8**  %11, align 8, !tbaa !3899, !dbg !6889
	%12 = load %struct.ompi_datatype_t*, %struct.ompi_datatype_t** %newtype.addr, align 8, !tbaa !3899, !dbg !6889
	%13 = bitcast %struct.ompi_datatype_t*  %12 to i8*, !dbg !6889
	%14 = bitcast %struct.ompi_datatype_t** %..inline.addr.1 to i8**, !dbg !6889
	store i8*  %13, i8**  %14, align 8, !tbaa !3899, !dbg !6889
	%15 = bitcast [32 x i32 (...)* (...)*]* @_ZTVN3MPI8DatatypeE to i8*, !dbg !6889
	%16 = getelementptr i8, i8*  %15, i64 16, !dbg !6889
	%17 = load %struct._ZN3MPI8DatatypeE*, %struct._ZN3MPI8DatatypeE** %..inline.addr, align 8, !tbaa !3899, !dbg !6889
	%18 = bitcast %struct._ZN3MPI8DatatypeE*  %17 to i8**, !dbg !6889
	store i8*  %16, i8**  %18, align 8, !tbaa !3899, !dbg !6889
	%19 = load %struct.ompi_datatype_t*, %struct.ompi_datatype_t** %..inline.addr.1, align 8, !tbaa !3899, !dbg !6890
	%20 = bitcast %struct.ompi_datatype_t*  %19 to i8*, !dbg !6890
	%21 = bitcast %struct._ZN3MPI8DatatypeE*  %17 to i8*, !dbg !6890
	%22 = getelementptr i8, i8*  %21, i64 8, !dbg !6890
	%23 = bitcast i8*  %22 to i8**, !dbg !6890
	store i8*  %20, i8**  %23, align 8, !tbaa !3899, !dbg !6890
	ret void, !dbg !6891
}
define linkonce_odr void @_ZNK3MPI8Datatype14Create_indexedEiPKiS2_(%struct._ZN3MPI8DatatypeE* sret %_T43066440_52544.arg, %struct._ZN3MPI8DatatypeE* %_T43066736_52544.arg, i32 signext %count.arg, i32* %array_of_blocklengths.arg, i32* %array_of_displacements.arg) #0 inlinehint !dbg !6893 {
L.entry:
	%_T43066440_52544.addr = alloca %struct._ZN3MPI8DatatypeE*, align 8
	%_T43066736_52544.addr = alloca %struct._ZN3MPI8DatatypeE*, align 8
	%count.addr = alloca i32, align 4
	%array_of_blocklengths.addr = alloca i32*, align 8
	%array_of_displacements.addr = alloca i32*, align 8
	%newtype.addr = alloca %struct.ompi_datatype_t*, align 8
	%..inline.addr = alloca %struct._ZN3MPI8DatatypeE*, align 8
	%..inline.addr.1 = alloca %struct.ompi_datatype_t*, align 8

	store %struct._ZN3MPI8DatatypeE* %_T43066440_52544.arg, %struct._ZN3MPI8DatatypeE** %_T43066440_52544.addr, align 8, !tbaa !3899
	call void @llvm.dbg.declare (metadata %struct._ZN3MPI8DatatypeE** %_T43066736_52544.addr, metadata !6901, metadata !3891), !dbg !6894
	store %struct._ZN3MPI8DatatypeE* %_T43066736_52544.arg, %struct._ZN3MPI8DatatypeE** %_T43066736_52544.addr, align 8, !tbaa !3899
	call void @llvm.dbg.declare (metadata %struct._ZN3MPI8DatatypeE** %_T43066736_52544.addr, metadata !6902, metadata !3891), !dbg !6894
	call void @llvm.dbg.declare (metadata i32* %count.addr, metadata !6903, metadata !3891), !dbg !6894
	store i32 %count.arg, i32* %count.addr, align 4, !tbaa !4009
	call void @llvm.dbg.declare (metadata i32* %count.addr, metadata !6904, metadata !3891), !dbg !6894
	call void @llvm.dbg.declare (metadata i32** %array_of_blocklengths.addr, metadata !6905, metadata !3891), !dbg !6894
	store i32* %array_of_blocklengths.arg, i32** %array_of_blocklengths.addr, align 8, !tbaa !3899
	call void @llvm.dbg.declare (metadata i32** %array_of_blocklengths.addr, metadata !6906, metadata !3891), !dbg !6894
	call void @llvm.dbg.declare (metadata i32** %array_of_displacements.addr, metadata !6907, metadata !3891), !dbg !6894
	store i32* %array_of_displacements.arg, i32** %array_of_displacements.addr, align 8, !tbaa !3899
	call void @llvm.dbg.declare (metadata i32** %array_of_displacements.addr, metadata !6908, metadata !3891), !dbg !6894
	%0 = load i32, i32* %count.addr, align 4, !tbaa !4090, !dbg !6909
	%1 = load i32*, i32** %array_of_blocklengths.addr, align 8, !tbaa !3899, !dbg !6909
	%2 = load i32*, i32** %array_of_displacements.addr, align 8, !tbaa !3899, !dbg !6909
	%3 = load %struct._ZN3MPI8DatatypeE*, %struct._ZN3MPI8DatatypeE** %_T43066736_52544.addr, align 8, !tbaa !3899, !dbg !6909
	%4 = bitcast %struct._ZN3MPI8DatatypeE*  %3 to i8*, !dbg !6909
	%5 = getelementptr i8, i8*  %4, i64 8, !dbg !6909
	%6 = bitcast i8*  %5 to %struct.ompi_datatype_t**, !dbg !6909
	%7 = load %struct.ompi_datatype_t*, %struct.ompi_datatype_t**  %6, align 8, !tbaa !3899, !dbg !6909
	call void @llvm.dbg.declare (metadata %struct.ompi_datatype_t** %newtype.addr, metadata !6910, metadata !3891), !dbg !6894
	%8 = call i32  @MPI_Type_indexed (i32  %0, i32*  %1, i32*  %2, %struct.ompi_datatype_t*  %7, %struct.ompi_datatype_t** %newtype.addr) nounwind, !dbg !6909
	%9 = load %struct._ZN3MPI8DatatypeE*, %struct._ZN3MPI8DatatypeE** %_T43066440_52544.addr, align 8, !tbaa !3899, !dbg !6911
	%10 = bitcast %struct._ZN3MPI8DatatypeE*  %9 to i8*, !dbg !6911
	%11 = bitcast %struct._ZN3MPI8DatatypeE** %..inline.addr to i8**, !dbg !6911
	store i8*  %10, i8**  %11, align 8, !tbaa !3899, !dbg !6911
	%12 = load %struct.ompi_datatype_t*, %struct.ompi_datatype_t** %newtype.addr, align 8, !tbaa !3899, !dbg !6911
	%13 = bitcast %struct.ompi_datatype_t*  %12 to i8*, !dbg !6911
	%14 = bitcast %struct.ompi_datatype_t** %..inline.addr.1 to i8**, !dbg !6911
	store i8*  %13, i8**  %14, align 8, !tbaa !3899, !dbg !6911
	%15 = bitcast [32 x i32 (...)* (...)*]* @_ZTVN3MPI8DatatypeE to i8*, !dbg !6911
	%16 = getelementptr i8, i8*  %15, i64 16, !dbg !6911
	%17 = load %struct._ZN3MPI8DatatypeE*, %struct._ZN3MPI8DatatypeE** %..inline.addr, align 8, !tbaa !3899, !dbg !6911
	%18 = bitcast %struct._ZN3MPI8DatatypeE*  %17 to i8**, !dbg !6911
	store i8*  %16, i8**  %18, align 8, !tbaa !3899, !dbg !6911
	%19 = load %struct.ompi_datatype_t*, %struct.ompi_datatype_t** %..inline.addr.1, align 8, !tbaa !3899, !dbg !6912
	%20 = bitcast %struct.ompi_datatype_t*  %19 to i8*, !dbg !6912
	%21 = bitcast %struct._ZN3MPI8DatatypeE*  %17 to i8*, !dbg !6912
	%22 = getelementptr i8, i8*  %21, i64 8, !dbg !6912
	%23 = bitcast i8*  %22 to i8**, !dbg !6912
	store i8*  %20, i8**  %23, align 8, !tbaa !3899, !dbg !6912
	ret void, !dbg !6913
}
define linkonce_odr void @_ZNK3MPI8Datatype15Create_hindexedEiPKiPKl(%struct._ZN3MPI8DatatypeE* sret %_T43066440_52545.arg, %struct._ZN3MPI8DatatypeE* %_T43066736_52545.arg, i32 signext %count.arg, i32* %array_of_blocklengths.arg, i64* %array_of_displacements.arg) #0 inlinehint !dbg !6915 {
L.entry:
	%_T43066440_52545.addr = alloca %struct._ZN3MPI8DatatypeE*, align 8
	%_T43066736_52545.addr = alloca %struct._ZN3MPI8DatatypeE*, align 8
	%count.addr = alloca i32, align 4
	%array_of_blocklengths.addr = alloca i32*, align 8
	%array_of_displacements.addr = alloca i64*, align 8
	%newtype.addr = alloca %struct.ompi_datatype_t*, align 8
	%..inline.addr = alloca %struct._ZN3MPI8DatatypeE*, align 8
	%..inline.addr.1 = alloca %struct.ompi_datatype_t*, align 8

	store %struct._ZN3MPI8DatatypeE* %_T43066440_52545.arg, %struct._ZN3MPI8DatatypeE** %_T43066440_52545.addr, align 8, !tbaa !3899
	call void @llvm.dbg.declare (metadata %struct._ZN3MPI8DatatypeE** %_T43066736_52545.addr, metadata !6923, metadata !3891), !dbg !6916
	store %struct._ZN3MPI8DatatypeE* %_T43066736_52545.arg, %struct._ZN3MPI8DatatypeE** %_T43066736_52545.addr, align 8, !tbaa !3899
	call void @llvm.dbg.declare (metadata %struct._ZN3MPI8DatatypeE** %_T43066736_52545.addr, metadata !6924, metadata !3891), !dbg !6916
	call void @llvm.dbg.declare (metadata i32* %count.addr, metadata !6925, metadata !3891), !dbg !6916
	store i32 %count.arg, i32* %count.addr, align 4, !tbaa !4009
	call void @llvm.dbg.declare (metadata i32* %count.addr, metadata !6926, metadata !3891), !dbg !6916
	call void @llvm.dbg.declare (metadata i32** %array_of_blocklengths.addr, metadata !6927, metadata !3891), !dbg !6916
	store i32* %array_of_blocklengths.arg, i32** %array_of_blocklengths.addr, align 8, !tbaa !3899
	call void @llvm.dbg.declare (metadata i32** %array_of_blocklengths.addr, metadata !6928, metadata !3891), !dbg !6916
	call void @llvm.dbg.declare (metadata i64** %array_of_displacements.addr, metadata !6929, metadata !3891), !dbg !6916
	store i64* %array_of_displacements.arg, i64** %array_of_displacements.addr, align 8, !tbaa !3899
	call void @llvm.dbg.declare (metadata i64** %array_of_displacements.addr, metadata !6930, metadata !3891), !dbg !6916
	%0 = load i32, i32* %count.addr, align 4, !tbaa !4090, !dbg !6931
	%1 = load i32*, i32** %array_of_blocklengths.addr, align 8, !tbaa !3899, !dbg !6931
	%2 = load i64*, i64** %array_of_displacements.addr, align 8, !tbaa !3899, !dbg !6931
	%3 = load %struct._ZN3MPI8DatatypeE*, %struct._ZN3MPI8DatatypeE** %_T43066736_52545.addr, align 8, !tbaa !3899, !dbg !6931
	%4 = bitcast %struct._ZN3MPI8DatatypeE*  %3 to i8*, !dbg !6931
	%5 = getelementptr i8, i8*  %4, i64 8, !dbg !6931
	%6 = bitcast i8*  %5 to %struct.ompi_datatype_t**, !dbg !6931
	%7 = load %struct.ompi_datatype_t*, %struct.ompi_datatype_t**  %6, align 8, !tbaa !3899, !dbg !6931
	call void @llvm.dbg.declare (metadata %struct.ompi_datatype_t** %newtype.addr, metadata !6932, metadata !3891), !dbg !6916
	%8 = call i32  @MPI_Type_create_hindexed (i32  %0, i32*  %1, i64*  %2, %struct.ompi_datatype_t*  %7, %struct.ompi_datatype_t** %newtype.addr) nounwind, !dbg !6931
	%9 = load %struct._ZN3MPI8DatatypeE*, %struct._ZN3MPI8DatatypeE** %_T43066440_52545.addr, align 8, !tbaa !3899, !dbg !6933
	%10 = bitcast %struct._ZN3MPI8DatatypeE*  %9 to i8*, !dbg !6933
	%11 = bitcast %struct._ZN3MPI8DatatypeE** %..inline.addr to i8**, !dbg !6933
	store i8*  %10, i8**  %11, align 8, !tbaa !3899, !dbg !6933
	%12 = load %struct.ompi_datatype_t*, %struct.ompi_datatype_t** %newtype.addr, align 8, !tbaa !3899, !dbg !6933
	%13 = bitcast %struct.ompi_datatype_t*  %12 to i8*, !dbg !6933
	%14 = bitcast %struct.ompi_datatype_t** %..inline.addr.1 to i8**, !dbg !6933
	store i8*  %13, i8**  %14, align 8, !tbaa !3899, !dbg !6933
	%15 = bitcast [32 x i32 (...)* (...)*]* @_ZTVN3MPI8DatatypeE to i8*, !dbg !6933
	%16 = getelementptr i8, i8*  %15, i64 16, !dbg !6933
	%17 = load %struct._ZN3MPI8DatatypeE*, %struct._ZN3MPI8DatatypeE** %..inline.addr, align 8, !tbaa !3899, !dbg !6933
	%18 = bitcast %struct._ZN3MPI8DatatypeE*  %17 to i8**, !dbg !6933
	store i8*  %16, i8**  %18, align 8, !tbaa !3899, !dbg !6933
	%19 = load %struct.ompi_datatype_t*, %struct.ompi_datatype_t** %..inline.addr.1, align 8, !tbaa !3899, !dbg !6934
	%20 = bitcast %struct.ompi_datatype_t*  %19 to i8*, !dbg !6934
	%21 = bitcast %struct._ZN3MPI8DatatypeE*  %17 to i8*, !dbg !6934
	%22 = getelementptr i8, i8*  %21, i64 8, !dbg !6934
	%23 = bitcast i8*  %22 to i8**, !dbg !6934
	store i8*  %20, i8**  %23, align 8, !tbaa !3899, !dbg !6934
	ret void, !dbg !6935
}
define linkonce_odr void @_ZNK3MPI8Datatype14Create_hvectorEiil(%struct._ZN3MPI8DatatypeE* sret %_T43066440_52547.arg, %struct._ZN3MPI8DatatypeE* %_T43066736_52547.arg, i32 signext %count.arg, i32 signext %blocklength.arg, i64 %stride.arg) #0 inlinehint !dbg !6937 {
L.entry:
	%_T43066440_52547.addr = alloca %struct._ZN3MPI8DatatypeE*, align 8
	%_T43066736_52547.addr = alloca %struct._ZN3MPI8DatatypeE*, align 8
	%count.addr = alloca i32, align 4
	%blocklength.addr = alloca i32, align 4
	%stride.addr = alloca i64, align 8
	%newtype.addr = alloca %struct.ompi_datatype_t*, align 8
	%..inline.addr = alloca %struct._ZN3MPI8DatatypeE*, align 8
	%..inline.addr.1 = alloca %struct.ompi_datatype_t*, align 8

	store %struct._ZN3MPI8DatatypeE* %_T43066440_52547.arg, %struct._ZN3MPI8DatatypeE** %_T43066440_52547.addr, align 8, !tbaa !3899
	call void @llvm.dbg.declare (metadata %struct._ZN3MPI8DatatypeE** %_T43066736_52547.addr, metadata !6945, metadata !3891), !dbg !6938
	store %struct._ZN3MPI8DatatypeE* %_T43066736_52547.arg, %struct._ZN3MPI8DatatypeE** %_T43066736_52547.addr, align 8, !tbaa !3899
	call void @llvm.dbg.declare (metadata %struct._ZN3MPI8DatatypeE** %_T43066736_52547.addr, metadata !6946, metadata !3891), !dbg !6938
	call void @llvm.dbg.declare (metadata i32* %count.addr, metadata !6947, metadata !3891), !dbg !6938
	store i32 %count.arg, i32* %count.addr, align 4, !tbaa !4009
	call void @llvm.dbg.declare (metadata i32* %count.addr, metadata !6948, metadata !3891), !dbg !6938
	call void @llvm.dbg.declare (metadata i32* %blocklength.addr, metadata !6949, metadata !3891), !dbg !6938
	store i32 %blocklength.arg, i32* %blocklength.addr, align 4, !tbaa !4009
	call void @llvm.dbg.declare (metadata i32* %blocklength.addr, metadata !6950, metadata !3891), !dbg !6938
	call void @llvm.dbg.declare (metadata i64* %stride.addr, metadata !6951, metadata !3891), !dbg !6938
	store i64 %stride.arg, i64* %stride.addr, align 8, !tbaa !4009
	call void @llvm.dbg.declare (metadata i64* %stride.addr, metadata !6952, metadata !3891), !dbg !6938
	%0 = load i32, i32* %count.addr, align 4, !tbaa !4090, !dbg !6953
	%1 = load i32, i32* %blocklength.addr, align 4, !tbaa !4090, !dbg !6953
	%2 = load i64, i64* %stride.addr, align 8, !tbaa !4300, !dbg !6953
	%3 = load %struct._ZN3MPI8DatatypeE*, %struct._ZN3MPI8DatatypeE** %_T43066736_52547.addr, align 8, !tbaa !3899, !dbg !6953
	%4 = bitcast %struct._ZN3MPI8DatatypeE*  %3 to i8*, !dbg !6953
	%5 = getelementptr i8, i8*  %4, i64 8, !dbg !6953
	%6 = bitcast i8*  %5 to %struct.ompi_datatype_t**, !dbg !6953
