; ModuleID = 'version.cpp'
target datalayout = "e-p:64:64-i64:64-f80:128-n8:16:32:64-S128"
target triple = "x86_64-pc-linux-gnu"
define internal void @pgCplus_compiled.() noinline {
L.entry:
	ret void
}

%struct._ZNSt8ios_base6_WordsE = type <{ i8*, i64}> 
%struct._ZSt6locale = type <{ %struct._ZNSt6locale5_ImplE*}> 
%struct.__locale_struct = type <{ [13 x %struct.__locale_data*], i16*, i32*, i32*, [13 x i8*]}> 
%struct._ZNSt8ios_base14_Callback_listE = type <{ %struct._ZNSt8ios_base14_Callback_listE*, void (i32, %struct._ZSt8ios_base*, i32)*, i32, i32}> 
%struct.ompi_communicator_t = type opaque
%struct._ZNSt6locale5facetE = type <{ i32 (...)* (...)*, i32, [4 x i8]}> 
%struct.__locale_data = type opaque
%struct._ZSt7num_putIcSt19ostreambuf_iteratorIcSt11char_traitsIcEEE = type <{ %struct.__SO__NSt6locale5facetE, [4 x i8]}> 
%struct._ZSt9basic_iosIcSt11char_traitsIcEE = type <{ %struct._ZSt8ios_base, %struct._ZSo*, i8, i8, [6 x i8], %struct._ZSt15basic_streambufIcSt11char_traitsIcEE*, %struct._ZSt5ctypeIcE*, %struct._ZSt7num_putIcSt19ostreambuf_iteratorIcSt11char_traitsIcEEE*, %struct._ZSt7num_getIcSt19istreambuf_iteratorIcSt11char_traitsIcEEE*}> 
%struct.__SO__NSt6locale5facetE = type <{ i32 (...)* (...)*, i32}> 
%struct._ZSt8ios_base = type <{ i32 (...)* (...)*, i64, i64, i32, i32, i32, [4 x i8], %struct._ZNSt8ios_base14_Callback_listE*, %struct._ZNSt8ios_base6_WordsE, [8 x %struct._ZNSt8ios_base6_WordsE], i32, [4 x i8], %struct._ZNSt8ios_base6_WordsE*, %struct._ZSt6locale}> 
%struct._ZSo = type <{ i32 (...)* (...)*, %struct._ZSt9basic_iosIcSt11char_traitsIcEE}> 
%struct._ZNSt6locale5_ImplE = type <{ i32, [4 x i8], %struct._ZNSt6locale5facetE**, i64, %struct._ZNSt6locale5facetE**, i8**}> 
%struct._ZSt15basic_streambufIcSt11char_traitsIcEE = type <{ i32 (...)* (...)*, i8*, i8*, i8*, i8*, i8*, i8*, %struct._ZSt6locale}> 
%struct.ompi_predefined_communicator_t = type opaque
%struct._ZSt5ctypeIcE = type <{ %struct.__SO__NSt6locale5facetE, [4 x i8], %struct.__locale_struct*, i8, [7 x i8], i32*, i32*, i16*, i8, [256 x i8], [256 x i8], i8, [6 x i8]}> 
%struct._ZSt7num_getIcSt19istreambuf_iteratorIcSt11char_traitsIcEEE = type <{ %struct.__SO__NSt6locale5facetE, [4 x i8]}> 



define signext i8 @_Z12printVersionv() #0 !dbg !1849 {
L.entry:
	%rank.addr = alloca i32, align 4
	%.Q0000.addr = alloca %struct._ZSo*, align 8
	%..inline.addr = alloca %struct._ZSo*, align 8
	%..inline.addr.1 = alloca %struct._ZSt9basic_iosIcSt11char_traitsIcEE*, align 8
	%..inline.addr.2 = alloca %struct._ZSt9basic_iosIcSt11char_traitsIcEE*, align 8
	%..inline.addr.3 = alloca i32, align 4
	%..inline.addr.4 = alloca i64, align 8
	%.Q0001.addr = alloca %struct._ZSo*, align 8
	%..inline.addr.5 = alloca %struct._ZSo*, align 8
	%.Q0002.addr = alloca %struct._ZSo*, align 8
	%..inline.addr.6 = alloca %struct._ZSt9basic_iosIcSt11char_traitsIcEE*, align 8
	%..inline.addr.7 = alloca %struct._ZSt9basic_iosIcSt11char_traitsIcEE*, align 8
	%..inline.addr.8 = alloca i32, align 4
	%..inline.addr.9 = alloca i64, align 8
	%.Q0003.addr = alloca %struct._ZSo*, align 8
	%.Q0004.addr = alloca %struct._ZSo*, align 8
	%..inline.addr.160 = alloca %struct._ZSt9basic_iosIcSt11char_traitsIcEE*, align 8
	%..inline.addr.170 = alloca %struct._ZSt9basic_iosIcSt11char_traitsIcEE*, align 8
	%..inline.addr.180 = alloca i32, align 4
	%..inline.addr.190 = alloca i64, align 8
	%.Q0005.addr = alloca %struct._ZSo*, align 8
	%.Q0006.addr = alloca %struct._ZSo*, align 8
	%..inline.addr.220 = alloca %struct._ZSt9basic_iosIcSt11char_traitsIcEE*, align 8
	%..inline.addr.230 = alloca %struct._ZSt9basic_iosIcSt11char_traitsIcEE*, align 8
	%..inline.addr.240 = alloca i32, align 4
	%..inline.addr.250 = alloca i64, align 8
	%.Q0007.addr = alloca %struct._ZSo*, align 8
	%.Q0008.addr = alloca %struct._ZSo*, align 8
	%..inline.addr.280 = alloca %struct._ZSt9basic_iosIcSt11char_traitsIcEE*, align 8
	%..inline.addr.290 = alloca %struct._ZSt9basic_iosIcSt11char_traitsIcEE*, align 8
	%..inline.addr.300 = alloca i32, align 4
	%..inline.addr.310 = alloca i64, align 8
	%.Q0009.addr = alloca %struct._ZSo*, align 8
	%.Q0010.addr = alloca %struct._ZSo*, align 8
	%..inline.addr.340 = alloca %struct._ZSt9basic_iosIcSt11char_traitsIcEE*, align 8
	%..inline.addr.350 = alloca %struct._ZSt9basic_iosIcSt11char_traitsIcEE*, align 8
	%..inline.addr.360 = alloca i32, align 4
	%..inline.addr.370 = alloca i64, align 8
	%.Q0011.addr = alloca %struct._ZSo*, align 8
	%.Q0012.addr = alloca %struct._ZSo*, align 8
	%..inline.addr.400 = alloca %struct._ZSt9basic_iosIcSt11char_traitsIcEE*, align 8
	%..inline.addr.410 = alloca %struct._ZSt9basic_iosIcSt11char_traitsIcEE*, align 8
	%..inline.addr.420 = alloca i32, align 4
	%..inline.addr.430 = alloca i64, align 8
	%.Q0013.addr = alloca %struct._ZSo*, align 8
	%.Q0014.addr = alloca %struct._ZSo*, align 8
	%..inline.addr.460 = alloca %struct._ZSt9basic_iosIcSt11char_traitsIcEE*, align 8
	%..inline.addr.470 = alloca %struct._ZSt9basic_iosIcSt11char_traitsIcEE*, align 8
	%..inline.addr.480 = alloca i32, align 4
	%..inline.addr.490 = alloca i64, align 8
	%.Q0015.addr = alloca %struct._ZSo*, align 8
	%.Q0016.addr = alloca %struct._ZSo*, align 8
	%..inline.addr.520 = alloca %struct._ZSt9basic_iosIcSt11char_traitsIcEE*, align 8
	%..inline.addr.530 = alloca %struct._ZSt9basic_iosIcSt11char_traitsIcEE*, align 8
	%..inline.addr.540 = alloca i32, align 4
	%..inline.addr.550 = alloca i64, align 8
	%.Q0017.addr = alloca %struct._ZSo*, align 8
	%.Q0018.addr = alloca %struct._ZSo*, align 8
	%..inline.addr.580 = alloca %struct._ZSt9basic_iosIcSt11char_traitsIcEE*, align 8
	%..inline.addr.590 = alloca %struct._ZSt9basic_iosIcSt11char_traitsIcEE*, align 8
	%..inline.addr.600 = alloca i32, align 4
	%..inline.addr.610 = alloca i64, align 8
	%.Q0019.addr = alloca %struct._ZSo*, align 8
	%.Q0020.addr = alloca %struct._ZSo*, align 8
	%.Q0021.addr = alloca %struct._ZSo*, align 8
	%..inline.addr.650 = alloca %struct._ZSo*, align 8
	%..inline.addr.660 = alloca %struct._ZSt9basic_iosIcSt11char_traitsIcEE*, align 8
	%..inline.addr.670 = alloca %struct._ZSt9basic_iosIcSt11char_traitsIcEE*, align 8
	%..inline.addr.680 = alloca i32, align 4
	%..inline.addr.690 = alloca i64, align 8
	%.Q0022.addr = alloca %struct._ZSo*, align 8
	%..inline.addr.710 = alloca %struct._ZSo*, align 8
	%.Q0023.addr = alloca %struct._ZSo*, align 8
	%..inline.addr.730 = alloca %struct._ZSt9basic_iosIcSt11char_traitsIcEE*, align 8
	%..inline.addr.740 = alloca %struct._ZSt9basic_iosIcSt11char_traitsIcEE*, align 8
	%..inline.addr.750 = alloca i32, align 4
	%..inline.addr.760 = alloca i64, align 8
	%.Q0024.addr = alloca %struct._ZSo*, align 8
	%.Q0025.addr = alloca %struct._ZSo*, align 8
	%.Q0026.addr = alloca %struct._ZSo*, align 8
	%..inline.addr.800 = alloca %struct._ZSo*, align 8
	%..inline.addr.810 = alloca %struct._ZSt9basic_iosIcSt11char_traitsIcEE*, align 8
	%..inline.addr.820 = alloca %struct._ZSt9basic_iosIcSt11char_traitsIcEE*, align 8
	%..inline.addr.830 = alloca i32, align 4
	%..inline.addr.840 = alloca i64, align 8
	%.Q0027.addr = alloca %struct._ZSo*, align 8
	%..inline.addr.860 = alloca %struct._ZSo*, align 8
	%.Q0028.addr = alloca %struct._ZSo*, align 8
	%..inline.addr.880 = alloca %struct._ZSt9basic_iosIcSt11char_traitsIcEE*, align 8
	%..inline.addr.890 = alloca %struct._ZSt9basic_iosIcSt11char_traitsIcEE*, align 8
	%..inline.addr.900 = alloca i32, align 4
	%..inline.addr.910 = alloca i64, align 8
	%.Q0029.addr = alloca %struct._ZSo*, align 8
	%.Q0030.addr = alloca %struct._ZSo*, align 8
	%..inline.addr.940 = alloca %struct._ZSt9basic_iosIcSt11char_traitsIcEE*, align 8
	%..inline.addr.950 = alloca %struct._ZSt9basic_iosIcSt11char_traitsIcEE*, align 8
	%..inline.addr.960 = alloca i32, align 4
	%..inline.addr.970 = alloca i64, align 8
	%.Q0031.addr = alloca %struct._ZSo*, align 8
	%.Q0032.addr = alloca %struct._ZSo*, align 8
	%..inline.addr.1000 = alloca %struct._ZSt9basic_iosIcSt11char_traitsIcEE*, align 8
	%..inline.addr.1010 = alloca %struct._ZSt9basic_iosIcSt11char_traitsIcEE*, align 8
	%..inline.addr.1020 = alloca i32, align 4
	%..inline.addr.1030 = alloca i64, align 8
	%.Q0033.addr = alloca %struct._ZSo*, align 8
	%.Q0034.addr = alloca %struct._ZSo*, align 8
	%..inline.addr.1060 = alloca %struct._ZSt9basic_iosIcSt11char_traitsIcEE*, align 8
	%..inline.addr.1070 = alloca %struct._ZSt9basic_iosIcSt11char_traitsIcEE*, align 8
	%..inline.addr.1080 = alloca i32, align 4
	%..inline.addr.1090 = alloca i64, align 8
	%.Q0035.addr = alloca %struct._ZSo*, align 8
	%.Q0036.addr = alloca %struct._ZSo*, align 8
	%..inline.addr.1120 = alloca %struct._ZSt9basic_iosIcSt11char_traitsIcEE*, align 8
	%..inline.addr.1130 = alloca %struct._ZSt9basic_iosIcSt11char_traitsIcEE*, align 8
	%..inline.addr.1140 = alloca i32, align 4
	%..inline.addr.1150 = alloca i64, align 8
	%.Q0037.addr = alloca %struct._ZSo*, align 8
	%.Q0038.addr = alloca %struct._ZSo*, align 8
	%..inline.addr.1180 = alloca %struct._ZSt9basic_iosIcSt11char_traitsIcEE*, align 8
	%..inline.addr.1190 = alloca %struct._ZSt9basic_iosIcSt11char_traitsIcEE*, align 8
	%..inline.addr.1200 = alloca i32, align 4
	%..inline.addr.1210 = alloca i64, align 8
	%.Q0039.addr = alloca %struct._ZSo*, align 8
	%.Q0040.addr = alloca %struct._ZSo*, align 8
	%..inline.addr.1240 = alloca %struct._ZSt9basic_iosIcSt11char_traitsIcEE*, align 8
	%..inline.addr.1250 = alloca %struct._ZSt9basic_iosIcSt11char_traitsIcEE*, align 8
	%..inline.addr.1260 = alloca i32, align 4
	%..inline.addr.1270 = alloca i64, align 8
	%.Q0041.addr = alloca %struct._ZSo*, align 8
	%.Q0042.addr = alloca %struct._ZSo*, align 8
	%..inline.addr.1300 = alloca %struct._ZSt9basic_iosIcSt11char_traitsIcEE*, align 8
	%..inline.addr.1310 = alloca %struct._ZSt9basic_iosIcSt11char_traitsIcEE*, align 8
	%..inline.addr.1320 = alloca i32, align 4
	%..inline.addr.1330 = alloca i64, align 8
	%.Q0043.addr = alloca %struct._ZSo*, align 8
	%.Q0044.addr = alloca %struct._ZSo*, align 8
	%..inline.addr.1360 = alloca %struct._ZSt9basic_iosIcSt11char_traitsIcEE*, align 8
	%..inline.addr.1370 = alloca %struct._ZSt9basic_iosIcSt11char_traitsIcEE*, align 8
	%..inline.addr.1380 = alloca i32, align 4
	%..inline.addr.1390 = alloca i64, align 8
	%.Q0045.addr = alloca %struct._ZSo*, align 8
	%.Q0046.addr = alloca %struct._ZSo*, align 8
	%..inline.addr.1420 = alloca %struct._ZSt9basic_iosIcSt11char_traitsIcEE*, align 8
	%..inline.addr.1430 = alloca %struct._ZSt9basic_iosIcSt11char_traitsIcEE*, align 8
	%..inline.addr.1440 = alloca i32, align 4
	%..inline.addr.1450 = alloca i64, align 8
	%.Q0047.addr = alloca %struct._ZSo*, align 8
	%.Q0048.addr = alloca %struct._ZSo*, align 8
	%.Q0049.addr = alloca %struct._ZSo*, align 8
	%..inline.addr.1490 = alloca %struct._ZSo*, align 8
	%..inline.addr.1500 = alloca %struct._ZSt9basic_iosIcSt11char_traitsIcEE*, align 8
	%..inline.addr.1510 = alloca %struct._ZSt9basic_iosIcSt11char_traitsIcEE*, align 8
	%..inline.addr.1520 = alloca i32, align 4
	%..inline.addr.1530 = alloca i64, align 8
	%.Q0050.addr = alloca %struct._ZSo*, align 8
	%..inline.addr.1550 = alloca %struct._ZSo*, align 8
	%.Q0051.addr = alloca %struct._ZSo*, align 8
	%..inline.addr.1570 = alloca %struct._ZSt9basic_iosIcSt11char_traitsIcEE*, align 8
	%..inline.addr.1580 = alloca %struct._ZSt9basic_iosIcSt11char_traitsIcEE*, align 8
	%..inline.addr.1590 = alloca i32, align 4
	%..inline.addr.1600 = alloca i64, align 8
	%.Q0052.addr = alloca %struct._ZSo*, align 8
	%.Q0053.addr = alloca %struct._ZSo*, align 8
	%.Q0054.addr = alloca %struct._ZSo*, align 8
	%..inline.addr.1640 = alloca %struct._ZSo*, align 8
	%..inline.addr.1650 = alloca %struct._ZSt9basic_iosIcSt11char_traitsIcEE*, align 8
	%..inline.addr.1660 = alloca %struct._ZSt9basic_iosIcSt11char_traitsIcEE*, align 8
	%..inline.addr.1670 = alloca i32, align 4
	%..inline.addr.1680 = alloca i64, align 8
	%.Q0055.addr = alloca %struct._ZSo*, align 8
	%..inline.addr.1700 = alloca %struct._ZSo*, align 8
	%.Q0056.addr = alloca %struct._ZSo*, align 8
	%..inline.addr.1720 = alloca %struct._ZSt9basic_iosIcSt11char_traitsIcEE*, align 8
	%..inline.addr.1730 = alloca %struct._ZSt9basic_iosIcSt11char_traitsIcEE*, align 8
	%..inline.addr.1740 = alloca i32, align 4
	%..inline.addr.1750 = alloca i64, align 8
	%.Q0057.addr = alloca %struct._ZSo*, align 8
	%.Q0058.addr = alloca %struct._ZSo*, align 8
	%..inline.addr.1780 = alloca %struct._ZSt9basic_iosIcSt11char_traitsIcEE*, align 8
	%..inline.addr.1790 = alloca %struct._ZSt9basic_iosIcSt11char_traitsIcEE*, align 8
	%..inline.addr.1800 = alloca i32, align 4
	%..inline.addr.1810 = alloca i64, align 8
	%.Q0059.addr = alloca %struct._ZSo*, align 8
	%.Q0060.addr = alloca %struct._ZSo*, align 8
	%..inline.addr.1840 = alloca %struct._ZSt9basic_iosIcSt11char_traitsIcEE*, align 8
	%..inline.addr.1850 = alloca %struct._ZSt9basic_iosIcSt11char_traitsIcEE*, align 8
	%..inline.addr.1860 = alloca i32, align 4
	%..inline.addr.1870 = alloca i64, align 8
	%.Q0061.addr = alloca %struct._ZSo*, align 8
	%.Q0062.addr = alloca %struct._ZSo*, align 8
	%..inline.addr.1900 = alloca %struct._ZSt9basic_iosIcSt11char_traitsIcEE*, align 8
	%..inline.addr.1910 = alloca %struct._ZSt9basic_iosIcSt11char_traitsIcEE*, align 8
	%..inline.addr.1920 = alloca i32, align 4
	%..inline.addr.1930 = alloca i64, align 8
	%.Q0063.addr = alloca %struct._ZSo*, align 8
	%.Q0064.addr = alloca %struct._ZSo*, align 8
	%..inline.addr.1960 = alloca %struct._ZSt9basic_iosIcSt11char_traitsIcEE*, align 8
	%..inline.addr.1970 = alloca %struct._ZSt9basic_iosIcSt11char_traitsIcEE*, align 8
	%..inline.addr.1980 = alloca i32, align 4
	%..inline.addr.1990 = alloca i64, align 8
	%.Q0065.addr = alloca %struct._ZSo*, align 8
	%.Q0066.addr = alloca %struct._ZSo*, align 8
	%..inline.addr.2020 = alloca %struct._ZSt9basic_iosIcSt11char_traitsIcEE*, align 8
	%..inline.addr.2030 = alloca %struct._ZSt9basic_iosIcSt11char_traitsIcEE*, align 8
	%..inline.addr.2040 = alloca i32, align 4
	%..inline.addr.2050 = alloca i64, align 8
	%.Q0067.addr = alloca %struct._ZSo*, align 8
	%.Q0068.addr = alloca %struct._ZSo*, align 8
	%..inline.addr.2080 = alloca %struct._ZSt9basic_iosIcSt11char_traitsIcEE*, align 8
	%..inline.addr.2090 = alloca %struct._ZSt9basic_iosIcSt11char_traitsIcEE*, align 8
	%..inline.addr.2100 = alloca i32, align 4
	%..inline.addr.2110 = alloca i64, align 8
	%.Q0069.addr = alloca %struct._ZSo*, align 8
	%.Q0070.addr = alloca %struct._ZSo*, align 8
	%..inline.addr.2140 = alloca %struct._ZSt9basic_iosIcSt11char_traitsIcEE*, align 8
	%..inline.addr.2150 = alloca %struct._ZSt9basic_iosIcSt11char_traitsIcEE*, align 8
	%..inline.addr.2160 = alloca i32, align 4
	%..inline.addr.2170 = alloca i64, align 8
	%.Q0071.addr = alloca %struct._ZSo*, align 8
	%.Q0072.addr = alloca %struct._ZSo*, align 8
	%..inline.addr.2200 = alloca %struct._ZSt9basic_iosIcSt11char_traitsIcEE*, align 8
	%..inline.addr.2210 = alloca %struct._ZSt9basic_iosIcSt11char_traitsIcEE*, align 8
	%..inline.addr.2220 = alloca i32, align 4
	%..inline.addr.2230 = alloca i64, align 8
	%.Q0073.addr = alloca %struct._ZSo*, align 8
	%.Q0074.addr = alloca %struct._ZSo*, align 8
	%..inline.addr.2260 = alloca %struct._ZSt9basic_iosIcSt11char_traitsIcEE*, align 8
	%..inline.addr.2270 = alloca %struct._ZSt9basic_iosIcSt11char_traitsIcEE*, align 8
	%..inline.addr.2280 = alloca i32, align 4
	%..inline.addr.2290 = alloca i64, align 8
	%.Q0075.addr = alloca %struct._ZSo*, align 8
	%.Q0076.addr = alloca %struct._ZSo*, align 8
	%..inline.addr.2320 = alloca %struct._ZSt9basic_iosIcSt11char_traitsIcEE*, align 8
	%..inline.addr.2330 = alloca %struct._ZSt9basic_iosIcSt11char_traitsIcEE*, align 8
	%..inline.addr.2340 = alloca i32, align 4
	%..inline.addr.2350 = alloca i64, align 8
	%.Q0077.addr = alloca %struct._ZSo*, align 8
	%.Q0078.addr = alloca %struct._ZSo*, align 8
	%..inline.addr.2380 = alloca %struct._ZSt9basic_iosIcSt11char_traitsIcEE*, align 8
	%..inline.addr.2390 = alloca %struct._ZSt9basic_iosIcSt11char_traitsIcEE*, align 8
	%..inline.addr.2400 = alloca i32, align 4
	%..inline.addr.2410 = alloca i64, align 8
	%.Q0079.addr = alloca %struct._ZSo*, align 8
	%.Q0080.addr = alloca %struct._ZSo*, align 8
	%..inline.addr.2440 = alloca %struct._ZSt9basic_iosIcSt11char_traitsIcEE*, align 8
	%..inline.addr.2450 = alloca %struct._ZSt9basic_iosIcSt11char_traitsIcEE*, align 8
	%..inline.addr.2460 = alloca i32, align 4
	%..inline.addr.2470 = alloca i64, align 8
	%.Q0081.addr = alloca %struct._ZSo*, align 8
	%.Q0082.addr = alloca %struct._ZSo*, align 8
	%..inline.addr.2500 = alloca %struct._ZSt9basic_iosIcSt11char_traitsIcEE*, align 8
	%..inline.addr.2510 = alloca %struct._ZSt9basic_iosIcSt11char_traitsIcEE*, align 8
	%..inline.addr.2520 = alloca i32, align 4
	%..inline.addr.2530 = alloca i64, align 8
	%.Q0083.addr = alloca %struct._ZSo*, align 8
	%.Q0084.addr = alloca %struct._ZSo*, align 8
	%..inline.addr.2560 = alloca %struct._ZSt9basic_iosIcSt11char_traitsIcEE*, align 8
	%..inline.addr.2570 = alloca %struct._ZSt9basic_iosIcSt11char_traitsIcEE*, align 8
	%..inline.addr.2580 = alloca i32, align 4
	%..inline.addr.2590 = alloca i64, align 8
	%.Q0085.addr = alloca %struct._ZSo*, align 8
	%.Q0086.addr = alloca %struct._ZSo*, align 8
	%..inline.addr.2620 = alloca %struct._ZSt9basic_iosIcSt11char_traitsIcEE*, align 8
	%..inline.addr.2630 = alloca %struct._ZSt9basic_iosIcSt11char_traitsIcEE*, align 8
	%..inline.addr.2640 = alloca i32, align 4
	%..inline.addr.2650 = alloca i64, align 8
	%.Q0087.addr = alloca %struct._ZSo*, align 8
	%.Q0088.addr = alloca %struct._ZSo*, align 8
	%..inline.addr.2680 = alloca %struct._ZSt9basic_iosIcSt11char_traitsIcEE*, align 8
	%..inline.addr.2690 = alloca %struct._ZSt9basic_iosIcSt11char_traitsIcEE*, align 8
	%..inline.addr.2700 = alloca i32, align 4
	%..inline.addr.2710 = alloca i64, align 8
	%.Q0089.addr = alloca %struct._ZSo*, align 8
	%.Q0090.addr = alloca %struct._ZSo*, align 8
	%..inline.addr.2740 = alloca %struct._ZSt9basic_iosIcSt11char_traitsIcEE*, align 8
	%..inline.addr.2750 = alloca %struct._ZSt9basic_iosIcSt11char_traitsIcEE*, align 8
	%..inline.addr.2760 = alloca i32, align 4
	%..inline.addr.2770 = alloca i64, align 8
	%.Q0091.addr = alloca %struct._ZSo*, align 8
	%.Q0092.addr = alloca %struct._ZSo*, align 8
	%..inline.addr.2800 = alloca %struct._ZSt9basic_iosIcSt11char_traitsIcEE*, align 8
	%..inline.addr.2810 = alloca %struct._ZSt9basic_iosIcSt11char_traitsIcEE*, align 8
	%..inline.addr.2820 = alloca i32, align 4
	%..inline.addr.2830 = alloca i64, align 8
	%.Q0093.addr = alloca %struct._ZSo*, align 8
	%.Q0094.addr = alloca %struct._ZSo*, align 8
	%..inline.addr.2860 = alloca %struct._ZSt9basic_iosIcSt11char_traitsIcEE*, align 8
	%..inline.addr.2870 = alloca %struct._ZSt9basic_iosIcSt11char_traitsIcEE*, align 8
	%..inline.addr.2880 = alloca i32, align 4
	%..inline.addr.2890 = alloca i64, align 8
	%.Q0095.addr = alloca %struct._ZSo*, align 8
	%.Q0096.addr = alloca %struct._ZSo*, align 8
	%..inline.addr.2920 = alloca %struct._ZSt9basic_iosIcSt11char_traitsIcEE*, align 8
	%..inline.addr.2930 = alloca %struct._ZSt9basic_iosIcSt11char_traitsIcEE*, align 8
	%..inline.addr.2940 = alloca i32, align 4
	%..inline.addr.2950 = alloca i64, align 8
	%.Q0097.addr = alloca %struct._ZSo*, align 8
	%.Q0098.addr = alloca %struct._ZSo*, align 8
	%..inline.addr.2980 = alloca %struct._ZSt9basic_iosIcSt11char_traitsIcEE*, align 8
	%..inline.addr.2990 = alloca %struct._ZSt9basic_iosIcSt11char_traitsIcEE*, align 8
	%..inline.addr.3000 = alloca i32, align 4
	%..inline.addr.3010 = alloca i64, align 8
	%.Q0099.addr = alloca %struct._ZSo*, align 8
	%.Q0100.addr = alloca %struct._ZSo*, align 8
	%..inline.addr.3040 = alloca %struct._ZSt9basic_iosIcSt11char_traitsIcEE*, align 8
	%..inline.addr.3050 = alloca %struct._ZSt9basic_iosIcSt11char_traitsIcEE*, align 8
	%..inline.addr.3060 = alloca i32, align 4
	%..inline.addr.3070 = alloca i64, align 8
	%.Q0101.addr = alloca %struct._ZSo*, align 8
	%.Q0102.addr = alloca %struct._ZSo*, align 8
	%..inline.addr.3100 = alloca %struct._ZSt9basic_iosIcSt11char_traitsIcEE*, align 8
	%..inline.addr.3110 = alloca %struct._ZSt9basic_iosIcSt11char_traitsIcEE*, align 8
	%..inline.addr.3120 = alloca i32, align 4
	%..inline.addr.3130 = alloca i64, align 8
	%.Q0103.addr = alloca %struct._ZSo*, align 8
	%.Q0104.addr = alloca %struct._ZSo*, align 8
	%..inline.addr.3160 = alloca %struct._ZSt9basic_iosIcSt11char_traitsIcEE*, align 8
	%..inline.addr.3170 = alloca %struct._ZSt9basic_iosIcSt11char_traitsIcEE*, align 8
	%..inline.addr.3180 = alloca i32, align 4
	%..inline.addr.3190 = alloca i64, align 8
	%.Q0105.addr = alloca %struct._ZSo*, align 8
	%.Q0106.addr = alloca %struct._ZSo*, align 8
	%..inline.addr.3220 = alloca %struct._ZSt9basic_iosIcSt11char_traitsIcEE*, align 8
	%..inline.addr.3230 = alloca %struct._ZSt9basic_iosIcSt11char_traitsIcEE*, align 8
	%..inline.addr.3240 = alloca i32, align 4
	%..inline.addr.3250 = alloca i64, align 8
	%.Q0107.addr = alloca %struct._ZSo*, align 8
	%.Q0108.addr = alloca %struct._ZSo*, align 8
	%..inline.addr.3280 = alloca %struct._ZSt9basic_iosIcSt11char_traitsIcEE*, align 8
	%..inline.addr.3290 = alloca %struct._ZSt9basic_iosIcSt11char_traitsIcEE*, align 8
	%..inline.addr.3300 = alloca i32, align 4
	%..inline.addr.3310 = alloca i64, align 8
	%.Q0109.addr = alloca %struct._ZSo*, align 8
	%.Q0110.addr = alloca %struct._ZSo*, align 8
	%..inline.addr.3340 = alloca %struct._ZSt9basic_iosIcSt11char_traitsIcEE*, align 8
	%..inline.addr.3350 = alloca %struct._ZSt9basic_iosIcSt11char_traitsIcEE*, align 8
	%..inline.addr.3360 = alloca i32, align 4
	%..inline.addr.3370 = alloca i64, align 8
	%.Q0111.addr = alloca %struct._ZSo*, align 8
	%.Q0112.addr = alloca %struct._ZSo*, align 8
	%..inline.addr.3400 = alloca %struct._ZSt9basic_iosIcSt11char_traitsIcEE*, align 8
	%..inline.addr.3410 = alloca %struct._ZSt9basic_iosIcSt11char_traitsIcEE*, align 8
	%..inline.addr.3420 = alloca i32, align 4
	%..inline.addr.3430 = alloca i64, align 8
	%.Q0113.addr = alloca %struct._ZSo*, align 8
	%.Q0114.addr = alloca %struct._ZSo*, align 8
	%..inline.addr.3460 = alloca %struct._ZSt9basic_iosIcSt11char_traitsIcEE*, align 8
	%..inline.addr.3470 = alloca %struct._ZSt9basic_iosIcSt11char_traitsIcEE*, align 8
	%..inline.addr.3480 = alloca i32, align 4
	%..inline.addr.3490 = alloca i64, align 8
	%.Q0115.addr = alloca %struct._ZSo*, align 8
	%.Q0116.addr = alloca %struct._ZSo*, align 8
	%..inline.addr.3520 = alloca %struct._ZSt9basic_iosIcSt11char_traitsIcEE*, align 8
	%..inline.addr.3530 = alloca %struct._ZSt9basic_iosIcSt11char_traitsIcEE*, align 8
	%..inline.addr.3540 = alloca i32, align 4
	%..inline.addr.3550 = alloca i64, align 8
	%.Q0117.addr = alloca %struct._ZSo*, align 8
	%.Q0118.addr = alloca %struct._ZSo*, align 8
	%..inline.addr.3580 = alloca %struct._ZSt9basic_iosIcSt11char_traitsIcEE*, align 8
	%..inline.addr.3590 = alloca %struct._ZSt9basic_iosIcSt11char_traitsIcEE*, align 8
	%..inline.addr.3600 = alloca i32, align 4
	%..inline.addr.3610 = alloca i64, align 8
	%.Q0119.addr = alloca %struct._ZSo*, align 8
	%.Q0120.addr = alloca %struct._ZSo*, align 8
	%..inline.addr.3640 = alloca %struct._ZSt9basic_iosIcSt11char_traitsIcEE*, align 8
	%..inline.addr.3650 = alloca %struct._ZSt9basic_iosIcSt11char_traitsIcEE*, align 8
	%..inline.addr.3660 = alloca i32, align 4
	%..inline.addr.3670 = alloca i64, align 8
	%.Q0121.addr = alloca %struct._ZSo*, align 8
	%.Q0122.addr = alloca %struct._ZSo*, align 8
	%..inline.addr.3700 = alloca %struct._ZSt9basic_iosIcSt11char_traitsIcEE*, align 8
	%..inline.addr.3710 = alloca %struct._ZSt9basic_iosIcSt11char_traitsIcEE*, align 8
	%..inline.addr.3720 = alloca i32, align 4
	%..inline.addr.3730 = alloca i64, align 8
	%.Q0123.addr = alloca %struct._ZSo*, align 8
	%.Q0124.addr = alloca %struct._ZSo*, align 8
	%..inline.addr.3760 = alloca %struct._ZSt9basic_iosIcSt11char_traitsIcEE*, align 8
	%..inline.addr.3770 = alloca %struct._ZSt9basic_iosIcSt11char_traitsIcEE*, align 8
	%..inline.addr.3780 = alloca i32, align 4
	%..inline.addr.3790 = alloca i64, align 8
	%.Q0125.addr = alloca %struct._ZSo*, align 8
	%.Q0126.addr = alloca %struct._ZSo*, align 8
	%..inline.addr.3820 = alloca %struct._ZSt9basic_iosIcSt11char_traitsIcEE*, align 8
	%..inline.addr.3830 = alloca %struct._ZSt9basic_iosIcSt11char_traitsIcEE*, align 8
	%..inline.addr.3840 = alloca i32, align 4
	%..inline.addr.3850 = alloca i64, align 8
	%.Q0127.addr = alloca %struct._ZSo*, align 8
	%.Q0128.addr = alloca %struct._ZSo*, align 8
	%..inline.addr.3880 = alloca %struct._ZSt9basic_iosIcSt11char_traitsIcEE*, align 8
	%..inline.addr.3890 = alloca %struct._ZSt9basic_iosIcSt11char_traitsIcEE*, align 8
	%..inline.addr.3900 = alloca i32, align 4
	%..inline.addr.3910 = alloca i64, align 8
	%.Q0129.addr = alloca %struct._ZSo*, align 8
	%.Q0130.addr = alloca %struct._ZSo*, align 8
	%..inline.addr.3940 = alloca %struct._ZSt9basic_iosIcSt11char_traitsIcEE*, align 8
	%..inline.addr.3950 = alloca %struct._ZSt9basic_iosIcSt11char_traitsIcEE*, align 8
	%..inline.addr.3960 = alloca i32, align 4
	%..inline.addr.3970 = alloca i64, align 8
	%.Q0131.addr = alloca %struct._ZSo*, align 8
	%.Q0132.addr = alloca %struct._ZSo*, align 8
	%..inline.addr.4000 = alloca %struct._ZSt9basic_iosIcSt11char_traitsIcEE*, align 8
	%..inline.addr.4010 = alloca %struct._ZSt9basic_iosIcSt11char_traitsIcEE*, align 8
	%..inline.addr.4020 = alloca i32, align 4
	%..inline.addr.4030 = alloca i64, align 8
	%.Q0133.addr = alloca %struct._ZSo*, align 8
	%.Q0134.addr = alloca %struct._ZSo*, align 8
	%..inline.addr.4060 = alloca %struct._ZSt9basic_iosIcSt11char_traitsIcEE*, align 8
	%..inline.addr.4070 = alloca %struct._ZSt9basic_iosIcSt11char_traitsIcEE*, align 8
	%..inline.addr.4080 = alloca i32, align 4
	%..inline.addr.4090 = alloca i64, align 8
	%.Q0135.addr = alloca %struct._ZSo*, align 8
	%.Q0136.addr = alloca %struct._ZSo*, align 8
	%..inline.addr.4120 = alloca %struct._ZSt9basic_iosIcSt11char_traitsIcEE*, align 8
	%..inline.addr.4130 = alloca %struct._ZSt9basic_iosIcSt11char_traitsIcEE*, align 8
	%..inline.addr.4140 = alloca i32, align 4
	%..inline.addr.4150 = alloca i64, align 8
	%.Q0137.addr = alloca %struct._ZSo*, align 8
	%.Q0138.addr = alloca %struct._ZSo*, align 8
	%..inline.addr.4180 = alloca %struct._ZSt9basic_iosIcSt11char_traitsIcEE*, align 8
	%..inline.addr.4190 = alloca %struct._ZSt9basic_iosIcSt11char_traitsIcEE*, align 8
	%..inline.addr.4200 = alloca i32, align 4
	%..inline.addr.4210 = alloca i64, align 8
	%.Q0139.addr = alloca %struct._ZSo*, align 8
	%.Q0140.addr = alloca %struct._ZSo*, align 8
	%..inline.addr.4240 = alloca %struct._ZSt9basic_iosIcSt11char_traitsIcEE*, align 8
	%..inline.addr.4250 = alloca %struct._ZSt9basic_iosIcSt11char_traitsIcEE*, align 8
	%..inline.addr.4260 = alloca i32, align 4
	%..inline.addr.4270 = alloca i64, align 8
	%.Q0141.addr = alloca %struct._ZSo*, align 8
	%.Q0142.addr = alloca %struct._ZSo*, align 8
	%..inline.addr.4300 = alloca %struct._ZSt9basic_iosIcSt11char_traitsIcEE*, align 8
	%..inline.addr.4310 = alloca %struct._ZSt9basic_iosIcSt11char_traitsIcEE*, align 8
	%..inline.addr.4320 = alloca i32, align 4
	%..inline.addr.4330 = alloca i64, align 8
	%.Q0143.addr = alloca %struct._ZSo*, align 8
	%.Q0144.addr = alloca %struct._ZSo*, align 8
	%..inline.addr.4360 = alloca %struct._ZSt9basic_iosIcSt11char_traitsIcEE*, align 8
	%..inline.addr.4370 = alloca %struct._ZSt9basic_iosIcSt11char_traitsIcEE*, align 8
	%..inline.addr.4380 = alloca i32, align 4
	%..inline.addr.4390 = alloca i64, align 8
	%.Q0145.addr = alloca %struct._ZSo*, align 8
	%.Q0146.addr = alloca %struct._ZSo*, align 8
	%..inline.addr.4420 = alloca %struct._ZSt9basic_iosIcSt11char_traitsIcEE*, align 8
	%..inline.addr.4430 = alloca %struct._ZSt9basic_iosIcSt11char_traitsIcEE*, align 8
	%..inline.addr.4440 = alloca i32, align 4
	%..inline.addr.4450 = alloca i64, align 8
	%.Q0147.addr = alloca %struct._ZSo*, align 8
	%.Q0148.addr = alloca %struct._ZSo*, align 8
	%..inline.addr.4480 = alloca %struct._ZSt9basic_iosIcSt11char_traitsIcEE*, align 8
	%..inline.addr.4490 = alloca %struct._ZSt9basic_iosIcSt11char_traitsIcEE*, align 8
	%..inline.addr.4500 = alloca i32, align 4
	%..inline.addr.4510 = alloca i64, align 8
	%.Q0149.addr = alloca %struct._ZSo*, align 8
	%.Q0150.addr = alloca %struct._ZSo*, align 8
	%..inline.addr.4540 = alloca %struct._ZSt9basic_iosIcSt11char_traitsIcEE*, align 8
	%..inline.addr.4550 = alloca %struct._ZSt9basic_iosIcSt11char_traitsIcEE*, align 8
	%..inline.addr.4560 = alloca i32, align 4
	%..inline.addr.4570 = alloca i64, align 8
	%.Q0151.addr = alloca %struct._ZSo*, align 8
	%.Q0152.addr = alloca %struct._ZSo*, align 8
	%..inline.addr.4600 = alloca %struct._ZSt9basic_iosIcSt11char_traitsIcEE*, align 8
	%..inline.addr.4610 = alloca %struct._ZSt9basic_iosIcSt11char_traitsIcEE*, align 8
	%..inline.addr.4620 = alloca i32, align 4
	%..inline.addr.4630 = alloca i64, align 8
	%.Q0153.addr = alloca %struct._ZSo*, align 8
	%.Q0154.addr = alloca %struct._ZSo*, align 8
	%..inline.addr.4660 = alloca %struct._ZSt9basic_iosIcSt11char_traitsIcEE*, align 8
	%..inline.addr.4670 = alloca %struct._ZSt9basic_iosIcSt11char_traitsIcEE*, align 8
	%..inline.addr.4680 = alloca i32, align 4
	%..inline.addr.4690 = alloca i64, align 8
	%.Q0155.addr = alloca %struct._ZSo*, align 8
	%.Q0156.addr = alloca %struct._ZSo*, align 8
	%..inline.addr.4720 = alloca %struct._ZSt9basic_iosIcSt11char_traitsIcEE*, align 8
	%..inline.addr.4730 = alloca %struct._ZSt9basic_iosIcSt11char_traitsIcEE*, align 8
	%..inline.addr.4740 = alloca i32, align 4
	%..inline.addr.4750 = alloca i64, align 8
	%.Q0157.addr = alloca %struct._ZSo*, align 8
	%.Q0158.addr = alloca %struct._ZSo*, align 8
	%..inline.addr.4780 = alloca %struct._ZSt9basic_iosIcSt11char_traitsIcEE*, align 8
	%..inline.addr.4790 = alloca %struct._ZSt9basic_iosIcSt11char_traitsIcEE*, align 8
	%..inline.addr.4800 = alloca i32, align 4
	%..inline.addr.4810 = alloca i64, align 8
	%.Q0159.addr = alloca %struct._ZSo*, align 8
	%.Q0160.addr = alloca %struct._ZSo*, align 8
	%..inline.addr.4840 = alloca %struct._ZSt9basic_iosIcSt11char_traitsIcEE*, align 8
	%..inline.addr.4850 = alloca %struct._ZSt9basic_iosIcSt11char_traitsIcEE*, align 8
	%..inline.addr.4860 = alloca i32, align 4
	%..inline.addr.4870 = alloca i64, align 8
	%.Q0161.addr = alloca %struct._ZSo*, align 8
	%.Q0162.addr = alloca %struct._ZSo*, align 8
	%..inline.addr.4900 = alloca %struct._ZSt9basic_iosIcSt11char_traitsIcEE*, align 8
	%..inline.addr.4910 = alloca %struct._ZSt9basic_iosIcSt11char_traitsIcEE*, align 8
	%..inline.addr.4920 = alloca i32, align 4
	%..inline.addr.4930 = alloca i64, align 8
	%.Q0163.addr = alloca %struct._ZSo*, align 8
	%.Q0164.addr = alloca %struct._ZSo*, align 8
	%..inline.addr.4960 = alloca %struct._ZSt9basic_iosIcSt11char_traitsIcEE*, align 8
	%..inline.addr.4970 = alloca %struct._ZSt9basic_iosIcSt11char_traitsIcEE*, align 8
	%..inline.addr.4980 = alloca i32, align 4
	%..inline.addr.4990 = alloca i64, align 8
	%.Q0165.addr = alloca %struct._ZSo*, align 8
	%.Q0166.addr = alloca %struct._ZSo*, align 8
	%..inline.addr.5020 = alloca %struct._ZSt9basic_iosIcSt11char_traitsIcEE*, align 8
	%..inline.addr.5030 = alloca %struct._ZSt9basic_iosIcSt11char_traitsIcEE*, align 8
	%..inline.addr.5040 = alloca i32, align 4
	%..inline.addr.5050 = alloca i64, align 8
	%.Q0167.addr = alloca %struct._ZSo*, align 8
	%.Q0168.addr = alloca %struct._ZSo*, align 8
	%..inline.addr.5080 = alloca %struct._ZSt9basic_iosIcSt11char_traitsIcEE*, align 8
	%..inline.addr.5090 = alloca %struct._ZSt9basic_iosIcSt11char_traitsIcEE*, align 8
	%..inline.addr.5100 = alloca i32, align 4
	%..inline.addr.5110 = alloca i64, align 8
	%.Q0169.addr = alloca %struct._ZSo*, align 8
	%.Q0170.addr = alloca %struct._ZSo*, align 8
	%..inline.addr.5140 = alloca %struct._ZSt9basic_iosIcSt11char_traitsIcEE*, align 8
	%..inline.addr.5150 = alloca %struct._ZSt9basic_iosIcSt11char_traitsIcEE*, align 8
	%..inline.addr.5160 = alloca i32, align 4
	%..inline.addr.5170 = alloca i64, align 8
	%.Q0171.addr = alloca %struct._ZSo*, align 8
	%.Q0172.addr = alloca %struct._ZSo*, align 8
	%..inline.addr.5200 = alloca %struct._ZSt9basic_iosIcSt11char_traitsIcEE*, align 8
	%..inline.addr.5210 = alloca %struct._ZSt9basic_iosIcSt11char_traitsIcEE*, align 8
	%..inline.addr.5220 = alloca i32, align 4
	%..inline.addr.5230 = alloca i64, align 8
	%.Q0173.addr = alloca %struct._ZSo*, align 8
	%.Q0174.addr = alloca %struct._ZSo*, align 8
	%..inline.addr.5260 = alloca %struct._ZSt9basic_iosIcSt11char_traitsIcEE*, align 8
	%..inline.addr.5270 = alloca %struct._ZSt9basic_iosIcSt11char_traitsIcEE*, align 8
	%..inline.addr.5280 = alloca i32, align 4
	%..inline.addr.5290 = alloca i64, align 8
	%.Q0175.addr = alloca %struct._ZSo*, align 8
	%.Q0176.addr = alloca %struct._ZSo*, align 8
	%..inline.addr.5320 = alloca %struct._ZSt9basic_iosIcSt11char_traitsIcEE*, align 8
	%..inline.addr.5330 = alloca %struct._ZSt9basic_iosIcSt11char_traitsIcEE*, align 8
	%..inline.addr.5340 = alloca i32, align 4
	%..inline.addr.5350 = alloca i64, align 8
	%.Q0177.addr = alloca %struct._ZSo*, align 8
	%.Q0178.addr = alloca %struct._ZSo*, align 8
	%..inline.addr.5380 = alloca %struct._ZSt9basic_iosIcSt11char_traitsIcEE*, align 8
	%..inline.addr.5390 = alloca %struct._ZSt9basic_iosIcSt11char_traitsIcEE*, align 8
	%..inline.addr.5400 = alloca i32, align 4
	%..inline.addr.5410 = alloca i64, align 8
	%.Q0179.addr = alloca %struct._ZSo*, align 8
	%.Q0180.addr = alloca %struct._ZSo*, align 8
	%..inline.addr.5440 = alloca %struct._ZSt9basic_iosIcSt11char_traitsIcEE*, align 8
	%..inline.addr.5450 = alloca %struct._ZSt9basic_iosIcSt11char_traitsIcEE*, align 8
	%..inline.addr.5460 = alloca i32, align 4
	%..inline.addr.5470 = alloca i64, align 8
	%.Q0181.addr = alloca %struct._ZSo*, align 8
	%.Q0182.addr = alloca %struct._ZSo*, align 8
	%..inline.addr.5500 = alloca %struct._ZSt9basic_iosIcSt11char_traitsIcEE*, align 8
	%..inline.addr.5510 = alloca %struct._ZSt9basic_iosIcSt11char_traitsIcEE*, align 8
	%..inline.addr.5520 = alloca i32, align 4
	%..inline.addr.5530 = alloca i64, align 8
	%.Q0183.addr = alloca %struct._ZSo*, align 8
	%.Q0184.addr = alloca %struct._ZSo*, align 8
	%..inline.addr.5560 = alloca %struct._ZSt9basic_iosIcSt11char_traitsIcEE*, align 8
	%..inline.addr.5570 = alloca %struct._ZSt9basic_iosIcSt11char_traitsIcEE*, align 8
	%..inline.addr.5580 = alloca i32, align 4
	%..inline.addr.5590 = alloca i64, align 8
	%.Q0185.addr = alloca %struct._ZSo*, align 8
	%.Q0186.addr = alloca %struct._ZSo*, align 8
	%..inline.addr.5620 = alloca %struct._ZSt9basic_iosIcSt11char_traitsIcEE*, align 8
	%..inline.addr.5630 = alloca %struct._ZSt9basic_iosIcSt11char_traitsIcEE*, align 8
	%..inline.addr.5640 = alloca i32, align 4
	%..inline.addr.5650 = alloca i64, align 8
	%.Q0187.addr = alloca %struct._ZSo*, align 8
	%.Q0188.addr = alloca %struct._ZSo*, align 8
	%..inline.addr.5680 = alloca %struct._ZSt9basic_iosIcSt11char_traitsIcEE*, align 8
	%..inline.addr.5690 = alloca %struct._ZSt9basic_iosIcSt11char_traitsIcEE*, align 8
	%..inline.addr.5700 = alloca i32, align 4
	%..inline.addr.5710 = alloca i64, align 8
	%.Q0189.addr = alloca %struct._ZSo*, align 8
	%.Q0190.addr = alloca %struct._ZSo*, align 8
	%..inline.addr.5740 = alloca %struct._ZSt9basic_iosIcSt11char_traitsIcEE*, align 8
	%..inline.addr.5750 = alloca %struct._ZSt9basic_iosIcSt11char_traitsIcEE*, align 8
	%..inline.addr.5760 = alloca i32, align 4
	%..inline.addr.5770 = alloca i64, align 8
	%.Q0191.addr = alloca %struct._ZSo*, align 8
	%.Q0192.addr = alloca %struct._ZSo*, align 8
	%..inline.addr.5800 = alloca %struct._ZSt9basic_iosIcSt11char_traitsIcEE*, align 8
	%..inline.addr.5810 = alloca %struct._ZSt9basic_iosIcSt11char_traitsIcEE*, align 8
	%..inline.addr.5820 = alloca i32, align 4
	%..inline.addr.5830 = alloca i64, align 8
	%.Q0193.addr = alloca %struct._ZSo*, align 8
	%.Q0194.addr = alloca %struct._ZSo*, align 8
	%..inline.addr.5860 = alloca %struct._ZSt9basic_iosIcSt11char_traitsIcEE*, align 8
	%..inline.addr.5870 = alloca %struct._ZSt9basic_iosIcSt11char_traitsIcEE*, align 8
	%..inline.addr.5880 = alloca i32, align 4
	%..inline.addr.5890 = alloca i64, align 8
	%.Q0195.addr = alloca %struct._ZSo*, align 8
	%.Q0196.addr = alloca %struct._ZSo*, align 8
	%..inline.addr.5920 = alloca %struct._ZSt9basic_iosIcSt11char_traitsIcEE*, align 8
	%..inline.addr.5930 = alloca %struct._ZSt9basic_iosIcSt11char_traitsIcEE*, align 8
	%..inline.addr.5940 = alloca i32, align 4
	%..inline.addr.5950 = alloca i64, align 8
	%.Q0197.addr = alloca %struct._ZSo*, align 8
	%.Q0198.addr = alloca %struct._ZSo*, align 8
	%..inline.addr.5980 = alloca %struct._ZSt9basic_iosIcSt11char_traitsIcEE*, align 8
	%..inline.addr.5990 = alloca %struct._ZSt9basic_iosIcSt11char_traitsIcEE*, align 8
	%..inline.addr.6000 = alloca i32, align 4
	%..inline.addr.6010 = alloca i64, align 8
	%.Q0199.addr = alloca %struct._ZSo*, align 8
	%.Q0200.addr = alloca %struct._ZSo*, align 8
	%..inline.addr.6040 = alloca %struct._ZSt9basic_iosIcSt11char_traitsIcEE*, align 8
	%..inline.addr.6050 = alloca %struct._ZSt9basic_iosIcSt11char_traitsIcEE*, align 8
	%..inline.addr.6060 = alloca i32, align 4
	%..inline.addr.6070 = alloca i64, align 8
	%.Q0201.addr = alloca %struct._ZSo*, align 8
	%.Q0202.addr = alloca %struct._ZSo*, align 8
	%..inline.addr.6100 = alloca %struct._ZSt9basic_iosIcSt11char_traitsIcEE*, align 8
	%..inline.addr.6110 = alloca %struct._ZSt9basic_iosIcSt11char_traitsIcEE*, align 8
	%..inline.addr.6120 = alloca i32, align 4
	%..inline.addr.6130 = alloca i64, align 8
	%.Q0203.addr = alloca %struct._ZSo*, align 8
	%.Q0204.addr = alloca %struct._ZSo*, align 8
	%..inline.addr.6160 = alloca %struct._ZSt9basic_iosIcSt11char_traitsIcEE*, align 8
	%..inline.addr.6170 = alloca %struct._ZSt9basic_iosIcSt11char_traitsIcEE*, align 8
	%..inline.addr.6180 = alloca i32, align 4
	%..inline.addr.6190 = alloca i64, align 8
	%.Q0205.addr = alloca %struct._ZSo*, align 8
	%.Q0206.addr = alloca %struct._ZSo*, align 8
	%..inline.addr.6220 = alloca %struct._ZSt9basic_iosIcSt11char_traitsIcEE*, align 8
	%..inline.addr.6230 = alloca %struct._ZSt9basic_iosIcSt11char_traitsIcEE*, align 8
	%..inline.addr.6240 = alloca i32, align 4
	%..inline.addr.6250 = alloca i64, align 8
	%.Q0207.addr = alloca %struct._ZSo*, align 8
	%.Q0208.addr = alloca %struct._ZSo*, align 8
	%..inline.addr.6280 = alloca %struct._ZSt9basic_iosIcSt11char_traitsIcEE*, align 8
	%..inline.addr.6290 = alloca %struct._ZSt9basic_iosIcSt11char_traitsIcEE*, align 8
	%..inline.addr.6300 = alloca i32, align 4
	%..inline.addr.6310 = alloca i64, align 8
	%.Q0209.addr = alloca %struct._ZSo*, align 8
	%.Q0210.addr = alloca %struct._ZSo*, align 8
	%..inline.addr.6340 = alloca %struct._ZSt9basic_iosIcSt11char_traitsIcEE*, align 8
	%..inline.addr.6350 = alloca %struct._ZSt9basic_iosIcSt11char_traitsIcEE*, align 8
	%..inline.addr.6360 = alloca i32, align 4
	%..inline.addr.6370 = alloca i64, align 8
	%.Q0211.addr = alloca %struct._ZSo*, align 8
	%.Q0212.addr = alloca %struct._ZSo*, align 8
	%..inline.addr.6400 = alloca %struct._ZSt9basic_iosIcSt11char_traitsIcEE*, align 8
	%..inline.addr.6410 = alloca %struct._ZSt9basic_iosIcSt11char_traitsIcEE*, align 8
	%..inline.addr.6420 = alloca i32, align 4
	%..inline.addr.6430 = alloca i64, align 8
	%.Q0213.addr = alloca %struct._ZSo*, align 8
	%.Q0214.addr = alloca %struct._ZSo*, align 8
	%..inline.addr.6460 = alloca %struct._ZSt9basic_iosIcSt11char_traitsIcEE*, align 8
	%..inline.addr.6470 = alloca %struct._ZSt9basic_iosIcSt11char_traitsIcEE*, align 8
	%..inline.addr.6480 = alloca i32, align 4
	%..inline.addr.6490 = alloca i64, align 8
	%.Q0215.addr = alloca %struct._ZSo*, align 8
	%.Q0216.addr = alloca %struct._ZSo*, align 8
	%..inline.addr.6520 = alloca %struct._ZSt9basic_iosIcSt11char_traitsIcEE*, align 8
	%..inline.addr.6530 = alloca %struct._ZSt9basic_iosIcSt11char_traitsIcEE*, align 8
	%..inline.addr.6540 = alloca i32, align 4
	%..inline.addr.6550 = alloca i64, align 8
	%.Q0217.addr = alloca %struct._ZSo*, align 8
	%.Q0218.addr = alloca %struct._ZSo*, align 8
	%..inline.addr.6580 = alloca %struct._ZSt9basic_iosIcSt11char_traitsIcEE*, align 8
	%..inline.addr.6590 = alloca %struct._ZSt9basic_iosIcSt11char_traitsIcEE*, align 8
	%..inline.addr.6600 = alloca i32, align 4
	%..inline.addr.6610 = alloca i64, align 8
	%.Q0219.addr = alloca %struct._ZSo*, align 8
	%.Q0220.addr = alloca %struct._ZSo*, align 8
	%..inline.addr.6640 = alloca %struct._ZSt9basic_iosIcSt11char_traitsIcEE*, align 8
	%..inline.addr.6650 = alloca %struct._ZSt9basic_iosIcSt11char_traitsIcEE*, align 8
	%..inline.addr.6660 = alloca i32, align 4
	%..inline.addr.6670 = alloca i64, align 8
	%.Q0221.addr = alloca %struct._ZSo*, align 8
	%.Q0222.addr = alloca %struct._ZSo*, align 8
	%..inline.addr.6700 = alloca %struct._ZSt9basic_iosIcSt11char_traitsIcEE*, align 8
	%..inline.addr.6710 = alloca %struct._ZSt9basic_iosIcSt11char_traitsIcEE*, align 8
	%..inline.addr.6720 = alloca i32, align 4
	%..inline.addr.6730 = alloca i64, align 8
	%.Q0223.addr = alloca %struct._ZSo*, align 8
	%.Q0224.addr = alloca %struct._ZSo*, align 8
	%..inline.addr.6760 = alloca %struct._ZSt9basic_iosIcSt11char_traitsIcEE*, align 8
	%..inline.addr.6770 = alloca %struct._ZSt9basic_iosIcSt11char_traitsIcEE*, align 8
	%..inline.addr.6780 = alloca i32, align 4
	%..inline.addr.6790 = alloca i64, align 8
	%.Q0225.addr = alloca %struct._ZSo*, align 8
	%.Q0226.addr = alloca %struct._ZSo*, align 8
	%..inline.addr.6820 = alloca %struct._ZSt9basic_iosIcSt11char_traitsIcEE*, align 8
	%..inline.addr.6830 = alloca %struct._ZSt9basic_iosIcSt11char_traitsIcEE*, align 8
	%..inline.addr.6840 = alloca i32, align 4
	%..inline.addr.6850 = alloca i64, align 8
	%.Q0227.addr = alloca %struct._ZSo*, align 8
	%.Q0228.addr = alloca %struct._ZSo*, align 8
	%..inline.addr.6880 = alloca %struct._ZSt9basic_iosIcSt11char_traitsIcEE*, align 8
	%..inline.addr.6890 = alloca %struct._ZSt9basic_iosIcSt11char_traitsIcEE*, align 8
	%..inline.addr.6900 = alloca i32, align 4
	%..inline.addr.6910 = alloca i64, align 8
	%.Q0229.addr = alloca %struct._ZSo*, align 8
	%.Q0230.addr = alloca %struct._ZSo*, align 8
	%..inline.addr.6940 = alloca %struct._ZSt9basic_iosIcSt11char_traitsIcEE*, align 8
	%..inline.addr.6950 = alloca %struct._ZSt9basic_iosIcSt11char_traitsIcEE*, align 8
	%..inline.addr.6960 = alloca i32, align 4
	%..inline.addr.6970 = alloca i64, align 8
	%.Q0231.addr = alloca %struct._ZSo*, align 8
	%.Q0232.addr = alloca %struct._ZSo*, align 8
	%..inline.addr.7000 = alloca %struct._ZSt9basic_iosIcSt11char_traitsIcEE*, align 8
	%..inline.addr.7010 = alloca %struct._ZSt9basic_iosIcSt11char_traitsIcEE*, align 8
	%..inline.addr.7020 = alloca i32, align 4
	%..inline.addr.7030 = alloca i64, align 8
	%.Q0233.addr = alloca %struct._ZSo*, align 8
	%.Q0234.addr = alloca %struct._ZSo*, align 8
	%..inline.addr.7060 = alloca %struct._ZSt9basic_iosIcSt11char_traitsIcEE*, align 8
	%..inline.addr.7070 = alloca %struct._ZSt9basic_iosIcSt11char_traitsIcEE*, align 8
	%..inline.addr.7080 = alloca i32, align 4
	%..inline.addr.7090 = alloca i64, align 8
	%.Q0235.addr = alloca %struct._ZSo*, align 8
	%.Q0236.addr = alloca %struct._ZSo*, align 8
	%..inline.addr.7120 = alloca %struct._ZSt9basic_iosIcSt11char_traitsIcEE*, align 8
	%..inline.addr.7130 = alloca %struct._ZSt9basic_iosIcSt11char_traitsIcEE*, align 8
	%..inline.addr.7140 = alloca i32, align 4
	%..inline.addr.7150 = alloca i64, align 8
	%.Q0237.addr = alloca %struct._ZSo*, align 8
	%.Q0238.addr = alloca %struct._ZSo*, align 8
	%..inline.addr.7180 = alloca %struct._ZSt9basic_iosIcSt11char_traitsIcEE*, align 8
	%..inline.addr.7190 = alloca %struct._ZSt9basic_iosIcSt11char_traitsIcEE*, align 8
	%..inline.addr.7200 = alloca i32, align 4
	%..inline.addr.7210 = alloca i64, align 8
	%.Q0239.addr = alloca %struct._ZSo*, align 8
	%.Q0240.addr = alloca %struct._ZSo*, align 8
	%..inline.addr.7240 = alloca %struct._ZSt9basic_iosIcSt11char_traitsIcEE*, align 8
	%..inline.addr.7250 = alloca %struct._ZSt9basic_iosIcSt11char_traitsIcEE*, align 8
	%..inline.addr.7260 = alloca i32, align 4
	%..inline.addr.7270 = alloca i64, align 8
	%.Q0241.addr = alloca %struct._ZSo*, align 8
	%.Q0242.addr = alloca %struct._ZSo*, align 8
	%..inline.addr.7300 = alloca %struct._ZSt9basic_iosIcSt11char_traitsIcEE*, align 8
	%..inline.addr.7310 = alloca %struct._ZSt9basic_iosIcSt11char_traitsIcEE*, align 8
	%..inline.addr.7320 = alloca i32, align 4
	%..inline.addr.7330 = alloca i64, align 8
	%.Q0243.addr = alloca %struct._ZSo*, align 8
	%.Q0244.addr = alloca %struct._ZSo*, align 8
	%..inline.addr.7360 = alloca %struct._ZSt9basic_iosIcSt11char_traitsIcEE*, align 8
	%..inline.addr.7370 = alloca %struct._ZSt9basic_iosIcSt11char_traitsIcEE*, align 8
	%..inline.addr.7380 = alloca i32, align 4
	%..inline.addr.7390 = alloca i64, align 8
	%.Q0245.addr = alloca %struct._ZSo*, align 8
	%.Q0246.addr = alloca %struct._ZSo*, align 8
	%..inline.addr.7420 = alloca %struct._ZSt9basic_iosIcSt11char_traitsIcEE*, align 8
	%..inline.addr.7430 = alloca %struct._ZSt9basic_iosIcSt11char_traitsIcEE*, align 8
	%..inline.addr.7440 = alloca i32, align 4
	%..inline.addr.7450 = alloca i64, align 8
	%.Q0247.addr = alloca %struct._ZSo*, align 8
	%.Q0248.addr = alloca %struct._ZSo*, align 8
	%..inline.addr.7480 = alloca %struct._ZSt9basic_iosIcSt11char_traitsIcEE*, align 8
	%..inline.addr.7490 = alloca %struct._ZSt9basic_iosIcSt11char_traitsIcEE*, align 8
	%..inline.addr.7500 = alloca i32, align 4
	%..inline.addr.7510 = alloca i64, align 8
	%.Q0249.addr = alloca %struct._ZSo*, align 8
	%.Q0250.addr = alloca %struct._ZSo*, align 8
	%..inline.addr.7540 = alloca %struct._ZSt9basic_iosIcSt11char_traitsIcEE*, align 8
	%..inline.addr.7550 = alloca %struct._ZSt9basic_iosIcSt11char_traitsIcEE*, align 8
	%..inline.addr.7560 = alloca i32, align 4
	%..inline.addr.7570 = alloca i64, align 8
	%.Q0251.addr = alloca %struct._ZSo*, align 8
	%.Q0252.addr = alloca %struct._ZSo*, align 8
	%..inline.addr.7600 = alloca %struct._ZSt9basic_iosIcSt11char_traitsIcEE*, align 8
	%..inline.addr.7610 = alloca %struct._ZSt9basic_iosIcSt11char_traitsIcEE*, align 8
	%..inline.addr.7620 = alloca i32, align 4
	%..inline.addr.7630 = alloca i64, align 8
	%.Q0253.addr = alloca %struct._ZSo*, align 8
	%.Q0254.addr = alloca %struct._ZSo*, align 8
	%..inline.addr.7660 = alloca %struct._ZSt9basic_iosIcSt11char_traitsIcEE*, align 8
	%..inline.addr.7670 = alloca %struct._ZSt9basic_iosIcSt11char_traitsIcEE*, align 8
	%..inline.addr.7680 = alloca i32, align 4
	%..inline.addr.7690 = alloca i64, align 8
	%.Q0255.addr = alloca %struct._ZSo*, align 8
	%.Q0256.addr = alloca %struct._ZSo*, align 8
	%..inline.addr.7720 = alloca %struct._ZSt9basic_iosIcSt11char_traitsIcEE*, align 8
	%..inline.addr.7730 = alloca %struct._ZSt9basic_iosIcSt11char_traitsIcEE*, align 8
	%..inline.addr.7740 = alloca i32, align 4
	%..inline.addr.7750 = alloca i64, align 8
	%.Q0257.addr = alloca %struct._ZSo*, align 8
	%.Q0258.addr = alloca %struct._ZSo*, align 8
	%..inline.addr.7780 = alloca %struct._ZSt9basic_iosIcSt11char_traitsIcEE*, align 8
	%..inline.addr.7790 = alloca %struct._ZSt9basic_iosIcSt11char_traitsIcEE*, align 8
	%..inline.addr.7800 = alloca i32, align 4
	%..inline.addr.7810 = alloca i64, align 8
	%.Q0259.addr = alloca %struct._ZSo*, align 8
	%.Q0260.addr = alloca %struct._ZSo*, align 8
	%..inline.addr.7840 = alloca %struct._ZSt9basic_iosIcSt11char_traitsIcEE*, align 8
	%..inline.addr.7850 = alloca %struct._ZSt9basic_iosIcSt11char_traitsIcEE*, align 8
	%..inline.addr.7860 = alloca i32, align 4
	%..inline.addr.7870 = alloca i64, align 8
	%.Q0261.addr = alloca %struct._ZSo*, align 8
	%.Q0262.addr = alloca %struct._ZSo*, align 8
	%..inline.addr.7900 = alloca %struct._ZSt9basic_iosIcSt11char_traitsIcEE*, align 8
	%..inline.addr.7910 = alloca %struct._ZSt9basic_iosIcSt11char_traitsIcEE*, align 8
	%..inline.addr.7920 = alloca i32, align 4
	%..inline.addr.7930 = alloca i64, align 8
	%.Q0263.addr = alloca %struct._ZSo*, align 8
	%.Q0264.addr = alloca %struct._ZSo*, align 8
	%..inline.addr.7960 = alloca %struct._ZSt9basic_iosIcSt11char_traitsIcEE*, align 8
	%..inline.addr.7970 = alloca %struct._ZSt9basic_iosIcSt11char_traitsIcEE*, align 8
	%..inline.addr.7980 = alloca i32, align 4
	%..inline.addr.7990 = alloca i64, align 8
	%.Q0265.addr = alloca %struct._ZSo*, align 8
	%.Q0266.addr = alloca %struct._ZSo*, align 8
	%..inline.addr.8020 = alloca %struct._ZSt9basic_iosIcSt11char_traitsIcEE*, align 8
	%..inline.addr.8030 = alloca %struct._ZSt9basic_iosIcSt11char_traitsIcEE*, align 8
	%..inline.addr.8040 = alloca i32, align 4
	%..inline.addr.8050 = alloca i64, align 8
	%.Q0267.addr = alloca %struct._ZSo*, align 8
	%.Q0268.addr = alloca %struct._ZSo*, align 8
	%..inline.addr.8080 = alloca %struct._ZSt9basic_iosIcSt11char_traitsIcEE*, align 8
	%..inline.addr.8090 = alloca %struct._ZSt9basic_iosIcSt11char_traitsIcEE*, align 8
	%..inline.addr.8100 = alloca i32, align 4
	%..inline.addr.8110 = alloca i64, align 8
	%.Q0269.addr = alloca %struct._ZSo*, align 8
	%.Q0270.addr = alloca %struct._ZSo*, align 8
	%..inline.addr.8140 = alloca %struct._ZSt9basic_iosIcSt11char_traitsIcEE*, align 8
	%..inline.addr.8150 = alloca %struct._ZSt9basic_iosIcSt11char_traitsIcEE*, align 8
	%..inline.addr.8160 = alloca i32, align 4
	%..inline.addr.8170 = alloca i64, align 8
	%.Q0271.addr = alloca %struct._ZSo*, align 8
	%.Q0272.addr = alloca %struct._ZSo*, align 8
	%..inline.addr.8200 = alloca %struct._ZSt9basic_iosIcSt11char_traitsIcEE*, align 8
	%..inline.addr.8210 = alloca %struct._ZSt9basic_iosIcSt11char_traitsIcEE*, align 8
	%..inline.addr.8220 = alloca i32, align 4
	%..inline.addr.8230 = alloca i64, align 8
	%.Q0273.addr = alloca %struct._ZSo*, align 8
	%.Q0274.addr = alloca %struct._ZSo*, align 8
	%..inline.addr.8260 = alloca %struct._ZSt9basic_iosIcSt11char_traitsIcEE*, align 8
	%..inline.addr.8270 = alloca %struct._ZSt9basic_iosIcSt11char_traitsIcEE*, align 8
	%..inline.addr.8280 = alloca i32, align 4
	%..inline.addr.8290 = alloca i64, align 8
	%.Q0275.addr = alloca %struct._ZSo*, align 8
	%.Q0276.addr = alloca %struct._ZSo*, align 8
	%..inline.addr.8320 = alloca %struct._ZSt9basic_iosIcSt11char_traitsIcEE*, align 8
	%..inline.addr.8330 = alloca %struct._ZSt9basic_iosIcSt11char_traitsIcEE*, align 8
	%..inline.addr.8340 = alloca i32, align 4
	%..inline.addr.8350 = alloca i64, align 8
	%.Q0277.addr = alloca %struct._ZSo*, align 8
	%.Q0278.addr = alloca %struct._ZSo*, align 8
	%..inline.addr.8380 = alloca %struct._ZSt9basic_iosIcSt11char_traitsIcEE*, align 8
	%..inline.addr.8390 = alloca %struct._ZSt9basic_iosIcSt11char_traitsIcEE*, align 8
	%..inline.addr.8400 = alloca i32, align 4
	%..inline.addr.8410 = alloca i64, align 8
	%.Q0279.addr = alloca %struct._ZSo*, align 8
	%.Q0280.addr = alloca %struct._ZSo*, align 8
	%..inline.addr.8440 = alloca %struct._ZSt9basic_iosIcSt11char_traitsIcEE*, align 8
	%..inline.addr.8450 = alloca %struct._ZSt9basic_iosIcSt11char_traitsIcEE*, align 8
	%..inline.addr.8460 = alloca i32, align 4
	%..inline.addr.8470 = alloca i64, align 8
	%.Q0281.addr = alloca %struct._ZSo*, align 8
	%.Q0282.addr = alloca %struct._ZSo*, align 8
	%..inline.addr.8500 = alloca %struct._ZSt9basic_iosIcSt11char_traitsIcEE*, align 8
	%..inline.addr.8510 = alloca %struct._ZSt9basic_iosIcSt11char_traitsIcEE*, align 8
	%..inline.addr.8520 = alloca i32, align 4
	%..inline.addr.8530 = alloca i64, align 8
	%.Q0283.addr = alloca %struct._ZSo*, align 8
	%.Q0284.addr = alloca %struct._ZSo*, align 8
	%..inline.addr.8560 = alloca %struct._ZSt9basic_iosIcSt11char_traitsIcEE*, align 8
	%..inline.addr.8570 = alloca %struct._ZSt9basic_iosIcSt11char_traitsIcEE*, align 8
	%..inline.addr.8580 = alloca i32, align 4
	%..inline.addr.8590 = alloca i64, align 8
	%.Q0285.addr = alloca %struct._ZSo*, align 8
	%.Q0286.addr = alloca %struct._ZSo*, align 8
	%..inline.addr.8620 = alloca %struct._ZSt9basic_iosIcSt11char_traitsIcEE*, align 8
	%..inline.addr.8630 = alloca %struct._ZSt9basic_iosIcSt11char_traitsIcEE*, align 8
	%..inline.addr.8640 = alloca i32, align 4
	%..inline.addr.8650 = alloca i64, align 8
	%.Q0287.addr = alloca %struct._ZSo*, align 8
	%.Q0288.addr = alloca %struct._ZSo*, align 8
	%..inline.addr.8680 = alloca %struct._ZSt9basic_iosIcSt11char_traitsIcEE*, align 8
	%..inline.addr.8690 = alloca %struct._ZSt9basic_iosIcSt11char_traitsIcEE*, align 8
	%..inline.addr.8700 = alloca i32, align 4
	%..inline.addr.8710 = alloca i64, align 8
	%.Q0289.addr = alloca %struct._ZSo*, align 8
	%.Q0290.addr = alloca %struct._ZSo*, align 8
	%..inline.addr.8740 = alloca %struct._ZSt9basic_iosIcSt11char_traitsIcEE*, align 8
	%..inline.addr.8750 = alloca %struct._ZSt9basic_iosIcSt11char_traitsIcEE*, align 8
	%..inline.addr.8760 = alloca i32, align 4
	%..inline.addr.8770 = alloca i64, align 8
	%.Q0291.addr = alloca %struct._ZSo*, align 8
	%.Q0292.addr = alloca %struct._ZSo*, align 8
	%..inline.addr.8800 = alloca %struct._ZSt9basic_iosIcSt11char_traitsIcEE*, align 8
	%..inline.addr.8810 = alloca %struct._ZSt9basic_iosIcSt11char_traitsIcEE*, align 8
	%..inline.addr.8820 = alloca i32, align 4
	%..inline.addr.8830 = alloca i64, align 8
	%.Q0293.addr = alloca %struct._ZSo*, align 8
	%.Q0294.addr = alloca %struct._ZSo*, align 8
	%..inline.addr.8860 = alloca %struct._ZSt9basic_iosIcSt11char_traitsIcEE*, align 8
	%..inline.addr.8870 = alloca %struct._ZSt9basic_iosIcSt11char_traitsIcEE*, align 8
	%..inline.addr.8880 = alloca i32, align 4
	%..inline.addr.8890 = alloca i64, align 8
	%.Q0295.addr = alloca %struct._ZSo*, align 8
	%.Q0296.addr = alloca %struct._ZSo*, align 8
	%..inline.addr.8920 = alloca %struct._ZSt9basic_iosIcSt11char_traitsIcEE*, align 8
	%..inline.addr.8930 = alloca %struct._ZSt9basic_iosIcSt11char_traitsIcEE*, align 8
	%..inline.addr.8940 = alloca i32, align 4
	%..inline.addr.8950 = alloca i64, align 8
	%.Q0297.addr = alloca %struct._ZSo*, align 8
	%.Q0298.addr = alloca %struct._ZSo*, align 8
	%..inline.addr.8980 = alloca %struct._ZSt9basic_iosIcSt11char_traitsIcEE*, align 8
	%..inline.addr.8990 = alloca %struct._ZSt9basic_iosIcSt11char_traitsIcEE*, align 8
	%..inline.addr.9000 = alloca i32, align 4
	%..inline.addr.9010 = alloca i64, align 8
	%.Q0299.addr = alloca %struct._ZSo*, align 8
	%.Q0300.addr = alloca %struct._ZSo*, align 8
	%..inline.addr.9040 = alloca %struct._ZSt9basic_iosIcSt11char_traitsIcEE*, align 8
	%..inline.addr.9050 = alloca %struct._ZSt9basic_iosIcSt11char_traitsIcEE*, align 8
	%..inline.addr.9060 = alloca i32, align 4
	%..inline.addr.9070 = alloca i64, align 8
	%.Q0301.addr = alloca %struct._ZSo*, align 8
	%.Q0302.addr = alloca %struct._ZSo*, align 8
	%..inline.addr.9100 = alloca %struct._ZSt9basic_iosIcSt11char_traitsIcEE*, align 8
	%..inline.addr.9110 = alloca %struct._ZSt9basic_iosIcSt11char_traitsIcEE*, align 8
	%..inline.addr.9120 = alloca i32, align 4
	%..inline.addr.9130 = alloca i64, align 8
	%.Q0303.addr = alloca %struct._ZSo*, align 8
	%.Q0304.addr = alloca %struct._ZSo*, align 8
	%..inline.addr.9160 = alloca %struct._ZSt9basic_iosIcSt11char_traitsIcEE*, align 8
	%..inline.addr.9170 = alloca %struct._ZSt9basic_iosIcSt11char_traitsIcEE*, align 8
	%..inline.addr.9180 = alloca i32, align 4
	%..inline.addr.9190 = alloca i64, align 8
	%.Q0305.addr = alloca %struct._ZSo*, align 8
	%.Q0306.addr = alloca %struct._ZSo*, align 8
	%..inline.addr.9220 = alloca %struct._ZSt9basic_iosIcSt11char_traitsIcEE*, align 8
	%..inline.addr.9230 = alloca %struct._ZSt9basic_iosIcSt11char_traitsIcEE*, align 8
	%..inline.addr.9240 = alloca i32, align 4
	%..inline.addr.9250 = alloca i64, align 8
	%.Q0307.addr = alloca %struct._ZSo*, align 8
	%.Q0308.addr = alloca %struct._ZSo*, align 8
	%..inline.addr.9280 = alloca %struct._ZSt9basic_iosIcSt11char_traitsIcEE*, align 8
	%..inline.addr.9290 = alloca %struct._ZSt9basic_iosIcSt11char_traitsIcEE*, align 8
	%..inline.addr.9300 = alloca i32, align 4
	%..inline.addr.9310 = alloca i64, align 8
	%.Q0309.addr = alloca %struct._ZSo*, align 8
	%.Q0310.addr = alloca %struct._ZSo*, align 8
	%..inline.addr.9340 = alloca %struct._ZSt9basic_iosIcSt11char_traitsIcEE*, align 8
	%..inline.addr.9350 = alloca %struct._ZSt9basic_iosIcSt11char_traitsIcEE*, align 8
	%..inline.addr.9360 = alloca i32, align 4
	%..inline.addr.9370 = alloca i64, align 8
	%.Q0311.addr = alloca %struct._ZSo*, align 8
	%.Q0312.addr = alloca %struct._ZSo*, align 8
	%..inline.addr.9400 = alloca %struct._ZSt9basic_iosIcSt11char_traitsIcEE*, align 8
	%..inline.addr.9410 = alloca %struct._ZSt9basic_iosIcSt11char_traitsIcEE*, align 8
	%..inline.addr.9420 = alloca i32, align 4
	%..inline.addr.9430 = alloca i64, align 8
	%.Q0313.addr = alloca %struct._ZSo*, align 8
	%.Q0314.addr = alloca %struct._ZSo*, align 8
	%..inline.addr.9460 = alloca %struct._ZSt9basic_iosIcSt11char_traitsIcEE*, align 8
	%..inline.addr.9470 = alloca %struct._ZSt9basic_iosIcSt11char_traitsIcEE*, align 8
	%..inline.addr.9480 = alloca i32, align 4
	%..inline.addr.9490 = alloca i64, align 8
	%.Q0315.addr = alloca %struct._ZSo*, align 8
	%.Q0316.addr = alloca %struct._ZSo*, align 8
	%.Q0317.addr = alloca %struct._ZSo*, align 8
	%.Q0318.addr = alloca %struct._ZSo*, align 8
	%.Q0319.addr = alloca %struct._ZSo*, align 8
	%.Q0320.addr = alloca %struct._ZSo*, align 8
	%.Q0321.addr = alloca %struct._ZSo*, align 8
	%.Q0322.addr = alloca %struct._ZSo*, align 8
	%.Q0323.addr = alloca %struct._ZSo*, align 8
	%.Q0324.addr = alloca %struct._ZSo*, align 8
	%.Q0325.addr = alloca %struct._ZSo*, align 8
	%.Q0326.addr = alloca %struct._ZSo*, align 8
	%.Q0327.addr = alloca %struct._ZSo*, align 8
	%.Q0328.addr = alloca %struct._ZSo*, align 8
	%.Q0329.addr = alloca %struct._ZSo*, align 8
	%.Q0330.addr = alloca %struct._ZSo*, align 8
	%.Q0331.addr = alloca %struct._ZSo*, align 8
	%.Q0332.addr = alloca %struct._ZSo*, align 8
	%.Q0333.addr = alloca %struct._ZSo*, align 8
	%.Q0334.addr = alloca %struct._ZSo*, align 8
	%.Q0335.addr = alloca %struct._ZSo*, align 8
	%.Q0336.addr = alloca %struct._ZSo*, align 8
	%.Q0337.addr = alloca %struct._ZSo*, align 8
	%.Q0338.addr = alloca %struct._ZSo*, align 8
	%.Q0339.addr = alloca %struct._ZSo*, align 8
	%.Q0340.addr = alloca %struct._ZSo*, align 8
	%.Q0341.addr = alloca %struct._ZSo*, align 8
	%.Q0342.addr = alloca %struct._ZSo*, align 8
	%.Q0343.addr = alloca %struct._ZSo*, align 8
	%.Q0344.addr = alloca %struct._ZSo*, align 8
	%.Q0345.addr = alloca %struct._ZSo*, align 8
	%.Q0346.addr = alloca %struct._ZSo*, align 8
	%.Q0347.addr = alloca %struct._ZSo*, align 8
	%.Q0348.addr = alloca %struct._ZSo*, align 8
	%.Q0349.addr = alloca %struct._ZSo*, align 8
	%.Q0350.addr = alloca %struct._ZSo*, align 8
	%.Q0351.addr = alloca %struct._ZSo*, align 8
	%.Q0352.addr = alloca %struct._ZSo*, align 8
	%.Q0353.addr = alloca %struct._ZSo*, align 8
	%.Q0354.addr = alloca %struct._ZSo*, align 8
	%.Q0355.addr = alloca %struct._ZSo*, align 8
	%.Q0356.addr = alloca %struct._ZSo*, align 8
	%.Q0357.addr = alloca %struct._ZSo*, align 8
	%.Q0358.addr = alloca %struct._ZSo*, align 8
	%.Q0359.addr = alloca %struct._ZSo*, align 8
	%.Q0360.addr = alloca %struct._ZSo*, align 8
	%.Q0361.addr = alloca %struct._ZSo*, align 8
	%.Q0362.addr = alloca %struct._ZSo*, align 8
	%.Q0363.addr = alloca %struct._ZSo*, align 8
	%.Q0364.addr = alloca %struct._ZSo*, align 8
	%.Q0365.addr = alloca %struct._ZSo*, align 8
	%.Q0366.addr = alloca %struct._ZSo*, align 8
	%.Q0367.addr = alloca %struct._ZSo*, align 8
	%.Q0368.addr = alloca %struct._ZSo*, align 8
	%.Q0369.addr = alloca %struct._ZSo*, align 8
	%.Q0370.addr = alloca %struct._ZSo*, align 8
	%.Q0371.addr = alloca %struct._ZSo*, align 8
	%.Q0372.addr = alloca %struct._ZSo*, align 8
	%.Q0373.addr = alloca %struct._ZSo*, align 8
	%.Q0374.addr = alloca %struct._ZSo*, align 8
	%.Q0375.addr = alloca %struct._ZSo*, align 8
	%.Q0376.addr = alloca %struct._ZSo*, align 8
	%.Q0377.addr = alloca %struct._ZSo*, align 8
	%.Q0378.addr = alloca %struct._ZSo*, align 8
	%.Q0379.addr = alloca %struct._ZSo*, align 8
	%.Q0380.addr = alloca %struct._ZSo*, align 8
	%.Q0381.addr = alloca %struct._ZSo*, align 8
	%.Q0382.addr = alloca %struct._ZSo*, align 8
	%.Q0383.addr = alloca %struct._ZSo*, align 8
	%.Q0384.addr = alloca %struct._ZSo*, align 8
	%.Q0385.addr = alloca %struct._ZSo*, align 8
	%.Q0386.addr = alloca %struct._ZSo*, align 8
	%.Q0387.addr = alloca %struct._ZSo*, align 8
	%.Q0388.addr = alloca %struct._ZSo*, align 8
	%.Q0389.addr = alloca %struct._ZSo*, align 8
	%.Q0390.addr = alloca %struct._ZSo*, align 8
	%.Q0391.addr = alloca %struct._ZSo*, align 8
	%.Q0392.addr = alloca %struct._ZSo*, align 8
	%.Q0393.addr = alloca %struct._ZSo*, align 8
	%.Q0394.addr = alloca %struct._ZSo*, align 8
	%.Q0395.addr = alloca %struct._ZSo*, align 8
	%.Q0396.addr = alloca %struct._ZSo*, align 8
	%.Q0397.addr = alloca %struct._ZSo*, align 8
	%.Q0398.addr = alloca %struct._ZSo*, align 8
	%.Q0399.addr = alloca %struct._ZSo*, align 8
	%.Q0400.addr = alloca %struct._ZSo*, align 8
	%.Q0401.addr = alloca %struct._ZSo*, align 8
	%.Q0402.addr = alloca %struct._ZSo*, align 8
	%.Q0403.addr = alloca %struct._ZSo*, align 8
	%.Q0404.addr = alloca %struct._ZSo*, align 8
	%.Q0405.addr = alloca %struct._ZSo*, align 8
	%.Q0406.addr = alloca %struct._ZSo*, align 8
	%.Q0407.addr = alloca %struct._ZSo*, align 8
	%.Q0408.addr = alloca %struct._ZSo*, align 8
	%.Q0409.addr = alloca %struct._ZSo*, align 8
	%.Q0410.addr = alloca %struct._ZSo*, align 8
	%.Q0411.addr = alloca %struct._ZSo*, align 8
	%.Q0412.addr = alloca %struct._ZSo*, align 8
	%.Q0413.addr = alloca %struct._ZSo*, align 8
	%.Q0414.addr = alloca %struct._ZSo*, align 8
	%.Q0415.addr = alloca %struct._ZSo*, align 8
	%diff_data.addr = alloca [4645 x i8], align 1
	%.Q0416.addr = alloca %struct._ZSo*, align 8
	%.Q0417.addr = alloca %struct._ZSo*, align 8

	%0 = bitcast %struct.ompi_predefined_communicator_t* @ompi_mpi_comm_world to %struct.ompi_communicator_t*, !dbg !5619
	call void @llvm.dbg.declare (metadata i32* %rank.addr, metadata !5623, metadata !5621), !dbg !1850
	%1 = call i32  @MPI_Comm_rank (%struct.ompi_communicator_t*  %0, i32* %rank.addr) nounwind, !dbg !5619
	%2 = load i32, i32* %rank.addr, align 4, !tbaa !5846, !dbg !5624
	%3 = icmp ne i32  %2, 0, !dbg !5624
	br i1  %3, label %L.B0000, label %L.B1727, !dbg !5624
L.B1727:
	%4 = call %struct._ZSo*  @_ZSt4endlIcSt11char_traitsIcEERSt13basic_ostreamIT_T0_ES6_ (%struct._ZSo* @_ZSt4cout), !dbg !5625
	%5 = bitcast %struct._ZSo*  %4 to i8*, !dbg !5625
	%6 = bitcast %struct._ZSo** %.Q0000.addr to i8**, !dbg !5625
	store i8*  %5, i8**  %6, align 8, !tbaa !5847, !dbg !5625
	%7 = load %struct._ZSo*, %struct._ZSo** %.Q0000.addr, align 8, !tbaa !5847, !dbg !5625
	%8 = bitcast %struct._ZSo*  %7 to i8*, !dbg !5625
	%9 = bitcast %struct._ZSo** %..inline.addr to i8**, !dbg !5625
	store i8*  %8, i8**  %9, align 8, !tbaa !5847, !dbg !5625
	%10 = bitcast [35 x i8]* @.S09936 to i8*, !dbg !5628
	%11 = icmp ne i8*  %10,  null, !dbg !5628
	br i1  %11, label %L..inline.26086, label %L.B1728, !dbg !5628
L.B1728:
	%12 = load %struct._ZSo*, %struct._ZSo** %..inline.addr, align 8, !tbaa !5847, !dbg !5629
	%13 = bitcast %struct._ZSo*  %12 to i8*, !dbg !5629
	%14 = bitcast %struct._ZSo*  %12 to i8**, !dbg !5629
	%15 = load i8*, i8**  %14, align 8, !tbaa !5847, !dbg !5629
	%16 = getelementptr i8, i8*  %15, i64 18446744073709551592, !dbg !5629
	%17 = bitcast i8*  %16 to i64*, !dbg !5629
	%18 = load i64, i64*  %17, align 8, !tbaa !5848, !dbg !5629
	%19 = getelementptr i8, i8*  %13, i64  %18, !dbg !5629
	%20 = bitcast %struct._ZSt9basic_iosIcSt11char_traitsIcEE** %..inline.addr.1 to i8**, !dbg !5629
	store i8*  %19, i8**  %20, align 8, !tbaa !5847, !dbg !5629
	%21 = load %struct._ZSt9basic_iosIcSt11char_traitsIcEE*, %struct._ZSt9basic_iosIcSt11char_traitsIcEE** %..inline.addr.1, align 8, !tbaa !5847, !dbg !5629
	%22 = bitcast %struct._ZSt9basic_iosIcSt11char_traitsIcEE*  %21 to i8*, !dbg !5629
	%23 = bitcast %struct._ZSt9basic_iosIcSt11char_traitsIcEE** %..inline.addr.2 to i8**, !dbg !5629
	store i8*  %22, i8**  %23, align 8, !tbaa !5847, !dbg !5629
	%24 = load %struct._ZSt9basic_iosIcSt11char_traitsIcEE*, %struct._ZSt9basic_iosIcSt11char_traitsIcEE** %..inline.addr.2, align 8, !tbaa !5847, !dbg !5629
	%25 = bitcast %struct._ZSt9basic_iosIcSt11char_traitsIcEE*  %24 to i8*, !dbg !5629
	%26 = getelementptr i8, i8*  %25, i64 32, !dbg !5629
	%27 = bitcast i8*  %26 to i32*, !dbg !5629
	%28 = load i32, i32*  %27, align 4, !tbaa !5848, !dbg !5629
	%29 = or i32  %28, 1, !dbg !5629
	call void  @_ZNSt9basic_iosIcSt11char_traitsIcEE5clearESt12_Ios_Iostate (%struct._ZSt9basic_iosIcSt11char_traitsIcEE*  %21, i32  %29), !dbg !5629
	br label %L..inline.26107, !dbg !5629
L..inline.26086:
	%30 = bitcast [35 x i8]* @.S09936 to i8*, !dbg !5630
	%31 = call i64  @strlen (i8*  %30) nounwind, !dbg !5630
	%32 = load %struct._ZSo*, %struct._ZSo** %..inline.addr, align 8, !tbaa !5847, !dbg !5630
	%33 = call %struct._ZSo*  @_ZSt16__ostream_insertIcSt11char_traitsIcEERSt13basic_ostreamIT_T0_ES6_PKS3_l (%struct._ZSo*  %32, i8*  %30, i64  %31), !dbg !5630
	%34 = bitcast %struct._ZSo*  %33 to i8*, !dbg !5630
	%35 = bitcast %struct._ZSo** %.Q0001.addr to i8**, !dbg !5630
	store i8*  %34, i8**  %35, align 8, !tbaa !5847, !dbg !5630
	br label %L..inline.26107
L..inline.26107:
	%36 = load %struct._ZSo*, %struct._ZSo** %..inline.addr, align 8, !tbaa !5847, !dbg !5631
	%37 = bitcast %struct._ZSo*  %36 to i8*, !dbg !5631
	%38 = bitcast %struct._ZSo** %..inline.addr.5 to i8**, !dbg !5631
	store i8*  %37, i8**  %38, align 8, !tbaa !5847, !dbg !5631
	%39 = load %struct._ZSo*, %struct._ZSo** %..inline.addr.5, align 8, !tbaa !5847, !dbg !5625
	%40 = call %struct._ZSo*  @_ZSt4endlIcSt11char_traitsIcEERSt13basic_ostreamIT_T0_ES6_ (%struct._ZSo*  %39), !dbg !5625
	%41 = bitcast %struct._ZSo*  %40 to i8*, !dbg !5625
	%42 = bitcast %struct._ZSo** %.Q0002.addr to i8**, !dbg !5625
	store i8*  %41, i8**  %42, align 8, !tbaa !5847, !dbg !5625
	%43 = bitcast [46 x i8]* @.S09939 to i8*, !dbg !5632
	%44 = icmp ne i8*  %43,  null, !dbg !5632
	br i1  %44, label %L..inline.26128, label %L.B1729, !dbg !5632
L.B1729:
	%45 = bitcast %struct._ZSo* @_ZSt4cout to i8*, !dbg !5629
	%46 = bitcast %struct._ZSo* @_ZSt4cout to i8**, !dbg !5629
	%47 = load i8*, i8**  %46, align 8, !tbaa !5847, !dbg !5629
	%48 = getelementptr i8, i8*  %47, i64 18446744073709551592, !dbg !5629
	%49 = bitcast i8*  %48 to i64*, !dbg !5629
	%50 = load i64, i64*  %49, align 8, !tbaa !5848, !dbg !5629
	%51 = getelementptr i8, i8*  %45, i64  %50, !dbg !5629
	%52 = bitcast %struct._ZSt9basic_iosIcSt11char_traitsIcEE** %..inline.addr.6 to i8**, !dbg !5629
	store i8*  %51, i8**  %52, align 8, !tbaa !5847, !dbg !5629
	%53 = bitcast %struct._ZSt9basic_iosIcSt11char_traitsIcEE** %..inline.addr.7 to i8**, !dbg !5629
	store i8*  %51, i8**  %53, align 8, !tbaa !5847, !dbg !5629
	%54 = load %struct._ZSt9basic_iosIcSt11char_traitsIcEE*, %struct._ZSt9basic_iosIcSt11char_traitsIcEE** %..inline.addr.7, align 8, !tbaa !5847, !dbg !5629
	%55 = bitcast %struct._ZSt9basic_iosIcSt11char_traitsIcEE*  %54 to i8*, !dbg !5629
	%56 = getelementptr i8, i8*  %55, i64 32, !dbg !5629
	%57 = bitcast i8*  %56 to i32*, !dbg !5629
	%58 = load i32, i32*  %57, align 4, !tbaa !5848, !dbg !5629
	%59 = or i32  %58, 1, !dbg !5629
	%60 = load %struct._ZSt9basic_iosIcSt11char_traitsIcEE*, %struct._ZSt9basic_iosIcSt11char_traitsIcEE** %..inline.addr.6, align 8, !tbaa !5847, !dbg !5629
	call void  @_ZNSt9basic_iosIcSt11char_traitsIcEE5clearESt12_Ios_Iostate (%struct._ZSt9basic_iosIcSt11char_traitsIcEE*  %60, i32  %59), !dbg !5629
	br label %L..inline.26149, !dbg !5629
L..inline.26128:
	%61 = bitcast [46 x i8]* @.S09939 to i8*, !dbg !5630
	%62 = call i64  @strlen (i8*  %61) nounwind, !dbg !5630
	%63 = call %struct._ZSo*  @_ZSt16__ostream_insertIcSt11char_traitsIcEERSt13basic_ostreamIT_T0_ES6_PKS3_l (%struct._ZSo* @_ZSt4cout, i8*  %61, i64  %62), !dbg !5630
	%64 = bitcast %struct._ZSo*  %63 to i8*, !dbg !5630
	%65 = bitcast %struct._ZSo** %.Q0003.addr to i8**, !dbg !5630
	store i8*  %64, i8**  %65, align 8, !tbaa !5847, !dbg !5630
	br label %L..inline.26149
L..inline.26149:
	%66 = call %struct._ZSo*  @_ZSt4endlIcSt11char_traitsIcEERSt13basic_ostreamIT_T0_ES6_ (%struct._ZSo* @_ZSt4cout), !dbg !5625
	%67 = bitcast %struct._ZSo*  %66 to i8*, !dbg !5625
	%68 = bitcast %struct._ZSo** %.Q0004.addr to i8**, !dbg !5625
	store i8*  %67, i8**  %68, align 8, !tbaa !5847, !dbg !5625
	%69 = bitcast [36 x i8]* @.S09942 to i8*, !dbg !5633
	%70 = icmp ne i8*  %69,  null, !dbg !5633
	br i1  %70, label %L..inline.26169, label %L.B1730, !dbg !5633
L.B1730:
	%71 = bitcast %struct._ZSo* @_ZSt4cout to i8*, !dbg !5629
	%72 = bitcast %struct._ZSo* @_ZSt4cout to i8**, !dbg !5629
	%73 = load i8*, i8**  %72, align 8, !tbaa !5847, !dbg !5629
	%74 = getelementptr i8, i8*  %73, i64 18446744073709551592, !dbg !5629
	%75 = bitcast i8*  %74 to i64*, !dbg !5629
	%76 = load i64, i64*  %75, align 8, !tbaa !5848, !dbg !5629
	%77 = getelementptr i8, i8*  %71, i64  %76, !dbg !5629
	%78 = bitcast %struct._ZSt9basic_iosIcSt11char_traitsIcEE** %..inline.addr.160 to i8**, !dbg !5629
	store i8*  %77, i8**  %78, align 8, !tbaa !5847, !dbg !5629
	%79 = bitcast %struct._ZSt9basic_iosIcSt11char_traitsIcEE** %..inline.addr.170 to i8**, !dbg !5629
	store i8*  %77, i8**  %79, align 8, !tbaa !5847, !dbg !5629
	%80 = load %struct._ZSt9basic_iosIcSt11char_traitsIcEE*, %struct._ZSt9basic_iosIcSt11char_traitsIcEE** %..inline.addr.170, align 8, !tbaa !5847, !dbg !5629
	%81 = bitcast %struct._ZSt9basic_iosIcSt11char_traitsIcEE*  %80 to i8*, !dbg !5629
	%82 = getelementptr i8, i8*  %81, i64 32, !dbg !5629
	%83 = bitcast i8*  %82 to i32*, !dbg !5629
	%84 = load i32, i32*  %83, align 4, !tbaa !5848, !dbg !5629
	%85 = or i32  %84, 1, !dbg !5629
	%86 = load %struct._ZSt9basic_iosIcSt11char_traitsIcEE*, %struct._ZSt9basic_iosIcSt11char_traitsIcEE** %..inline.addr.160, align 8, !tbaa !5847, !dbg !5629
	call void  @_ZNSt9basic_iosIcSt11char_traitsIcEE5clearESt12_Ios_Iostate (%struct._ZSt9basic_iosIcSt11char_traitsIcEE*  %86, i32  %85), !dbg !5629
	br label %L..inline.26190, !dbg !5629
L..inline.26169:
	%87 = bitcast [36 x i8]* @.S09942 to i8*, !dbg !5630
	%88 = call i64  @strlen (i8*  %87) nounwind, !dbg !5630
	%89 = call %struct._ZSo*  @_ZSt16__ostream_insertIcSt11char_traitsIcEERSt13basic_ostreamIT_T0_ES6_PKS3_l (%struct._ZSo* @_ZSt4cout, i8*  %87, i64  %88), !dbg !5630
	%90 = bitcast %struct._ZSo*  %89 to i8*, !dbg !5630
	%91 = bitcast %struct._ZSo** %.Q0005.addr to i8**, !dbg !5630
	store i8*  %90, i8**  %91, align 8, !tbaa !5847, !dbg !5630
	br label %L..inline.26190
L..inline.26190:
	%92 = call %struct._ZSo*  @_ZSt4endlIcSt11char_traitsIcEERSt13basic_ostreamIT_T0_ES6_ (%struct._ZSo* @_ZSt4cout), !dbg !5625
	%93 = bitcast %struct._ZSo*  %92 to i8*, !dbg !5625
	%94 = bitcast %struct._ZSo** %.Q0006.addr to i8**, !dbg !5625
	store i8*  %93, i8**  %94, align 8, !tbaa !5847, !dbg !5625
	%95 = bitcast [20 x i8]* @.S09944 to i8*, !dbg !5634
	%96 = icmp ne i8*  %95,  null, !dbg !5634
	br i1  %96, label %L..inline.26210, label %L.B1731, !dbg !5634
L.B1731:
	%97 = bitcast %struct._ZSo* @_ZSt4cout to i8*, !dbg !5629
	%98 = bitcast %struct._ZSo* @_ZSt4cout to i8**, !dbg !5629
	%99 = load i8*, i8**  %98, align 8, !tbaa !5847, !dbg !5629
	%100 = getelementptr i8, i8*  %99, i64 18446744073709551592, !dbg !5629
	%101 = bitcast i8*  %100 to i64*, !dbg !5629
	%102 = load i64, i64*  %101, align 8, !tbaa !5848, !dbg !5629
	%103 = getelementptr i8, i8*  %97, i64  %102, !dbg !5629
	%104 = bitcast %struct._ZSt9basic_iosIcSt11char_traitsIcEE** %..inline.addr.220 to i8**, !dbg !5629
	store i8*  %103, i8**  %104, align 8, !tbaa !5847, !dbg !5629
	%105 = bitcast %struct._ZSt9basic_iosIcSt11char_traitsIcEE** %..inline.addr.230 to i8**, !dbg !5629
	store i8*  %103, i8**  %105, align 8, !tbaa !5847, !dbg !5629
	%106 = load %struct._ZSt9basic_iosIcSt11char_traitsIcEE*, %struct._ZSt9basic_iosIcSt11char_traitsIcEE** %..inline.addr.230, align 8, !tbaa !5847, !dbg !5629
	%107 = bitcast %struct._ZSt9basic_iosIcSt11char_traitsIcEE*  %106 to i8*, !dbg !5629
	%108 = getelementptr i8, i8*  %107, i64 32, !dbg !5629
	%109 = bitcast i8*  %108 to i32*, !dbg !5629
	%110 = load i32, i32*  %109, align 4, !tbaa !5848, !dbg !5629
	%111 = or i32  %110, 1, !dbg !5629
	%112 = load %struct._ZSt9basic_iosIcSt11char_traitsIcEE*, %struct._ZSt9basic_iosIcSt11char_traitsIcEE** %..inline.addr.220, align 8, !tbaa !5847, !dbg !5629
	call void  @_ZNSt9basic_iosIcSt11char_traitsIcEE5clearESt12_Ios_Iostate (%struct._ZSt9basic_iosIcSt11char_traitsIcEE*  %112, i32  %111), !dbg !5629
	br label %L..inline.26231, !dbg !5629
L..inline.26210:
	%113 = bitcast [20 x i8]* @.S09944 to i8*, !dbg !5630
	%114 = call i64  @strlen (i8*  %113) nounwind, !dbg !5630
	%115 = call %struct._ZSo*  @_ZSt16__ostream_insertIcSt11char_traitsIcEERSt13basic_ostreamIT_T0_ES6_PKS3_l (%struct._ZSo* @_ZSt4cout, i8*  %113, i64  %114), !dbg !5630
	%116 = bitcast %struct._ZSo*  %115 to i8*, !dbg !5630
	%117 = bitcast %struct._ZSo** %.Q0007.addr to i8**, !dbg !5630
	store i8*  %116, i8**  %117, align 8, !tbaa !5847, !dbg !5630
	br label %L..inline.26231
L..inline.26231:
	%118 = call %struct._ZSo*  @_ZSt4endlIcSt11char_traitsIcEERSt13basic_ostreamIT_T0_ES6_ (%struct._ZSo* @_ZSt4cout), !dbg !5625
	%119 = bitcast %struct._ZSo*  %118 to i8*, !dbg !5625
	%120 = bitcast %struct._ZSo** %.Q0008.addr to i8**, !dbg !5625
	store i8*  %119, i8**  %120, align 8, !tbaa !5847, !dbg !5625
	%121 = bitcast [280 x i8]* @.S09947 to i8*, !dbg !5635
	%122 = icmp ne i8*  %121,  null, !dbg !5635
	br i1  %122, label %L..inline.26251, label %L.B1732, !dbg !5635
L.B1732:
	%123 = bitcast %struct._ZSo* @_ZSt4cout to i8*, !dbg !5629
	%124 = bitcast %struct._ZSo* @_ZSt4cout to i8**, !dbg !5629
	%125 = load i8*, i8**  %124, align 8, !tbaa !5847, !dbg !5629
	%126 = getelementptr i8, i8*  %125, i64 18446744073709551592, !dbg !5629
	%127 = bitcast i8*  %126 to i64*, !dbg !5629
	%128 = load i64, i64*  %127, align 8, !tbaa !5848, !dbg !5629
	%129 = getelementptr i8, i8*  %123, i64  %128, !dbg !5629
	%130 = bitcast %struct._ZSt9basic_iosIcSt11char_traitsIcEE** %..inline.addr.280 to i8**, !dbg !5629
	store i8*  %129, i8**  %130, align 8, !tbaa !5847, !dbg !5629
	%131 = bitcast %struct._ZSt9basic_iosIcSt11char_traitsIcEE** %..inline.addr.290 to i8**, !dbg !5629
	store i8*  %129, i8**  %131, align 8, !tbaa !5847, !dbg !5629
	%132 = load %struct._ZSt9basic_iosIcSt11char_traitsIcEE*, %struct._ZSt9basic_iosIcSt11char_traitsIcEE** %..inline.addr.290, align 8, !tbaa !5847, !dbg !5629
	%133 = bitcast %struct._ZSt9basic_iosIcSt11char_traitsIcEE*  %132 to i8*, !dbg !5629
	%134 = getelementptr i8, i8*  %133, i64 32, !dbg !5629
	%135 = bitcast i8*  %134 to i32*, !dbg !5629
	%136 = load i32, i32*  %135, align 4, !tbaa !5848, !dbg !5629
	%137 = or i32  %136, 1, !dbg !5629
	%138 = load %struct._ZSt9basic_iosIcSt11char_traitsIcEE*, %struct._ZSt9basic_iosIcSt11char_traitsIcEE** %..inline.addr.280, align 8, !tbaa !5847, !dbg !5629
	call void  @_ZNSt9basic_iosIcSt11char_traitsIcEE5clearESt12_Ios_Iostate (%struct._ZSt9basic_iosIcSt11char_traitsIcEE*  %138, i32  %137), !dbg !5629
	br label %L..inline.26272, !dbg !5629
L..inline.26251:
	%139 = bitcast [280 x i8]* @.S09947 to i8*, !dbg !5630
	%140 = call i64  @strlen (i8*  %139) nounwind, !dbg !5630
	%141 = call %struct._ZSo*  @_ZSt16__ostream_insertIcSt11char_traitsIcEERSt13basic_ostreamIT_T0_ES6_PKS3_l (%struct._ZSo* @_ZSt4cout, i8*  %139, i64  %140), !dbg !5630
	%142 = bitcast %struct._ZSo*  %141 to i8*, !dbg !5630
	%143 = bitcast %struct._ZSo** %.Q0009.addr to i8**, !dbg !5630
	store i8*  %142, i8**  %143, align 8, !tbaa !5847, !dbg !5630
	br label %L..inline.26272
L..inline.26272:
	%144 = call %struct._ZSo*  @_ZSt4endlIcSt11char_traitsIcEERSt13basic_ostreamIT_T0_ES6_ (%struct._ZSo* @_ZSt4cout), !dbg !5625
	%145 = bitcast %struct._ZSo*  %144 to i8*, !dbg !5625
	%146 = bitcast %struct._ZSo** %.Q0010.addr to i8**, !dbg !5625
	store i8*  %145, i8**  %146, align 8, !tbaa !5847, !dbg !5625
	%147 = bitcast [14 x i8]* @.S09949 to i8*, !dbg !5636
	%148 = icmp ne i8*  %147,  null, !dbg !5636
	br i1  %148, label %L..inline.26292, label %L.B1733, !dbg !5636
L.B1733:
	%149 = bitcast %struct._ZSo* @_ZSt4cout to i8*, !dbg !5629
	%150 = bitcast %struct._ZSo* @_ZSt4cout to i8**, !dbg !5629
	%151 = load i8*, i8**  %150, align 8, !tbaa !5847, !dbg !5629
	%152 = getelementptr i8, i8*  %151, i64 18446744073709551592, !dbg !5629
	%153 = bitcast i8*  %152 to i64*, !dbg !5629
	%154 = load i64, i64*  %153, align 8, !tbaa !5848, !dbg !5629
	%155 = getelementptr i8, i8*  %149, i64  %154, !dbg !5629
	%156 = bitcast %struct._ZSt9basic_iosIcSt11char_traitsIcEE** %..inline.addr.340 to i8**, !dbg !5629
	store i8*  %155, i8**  %156, align 8, !tbaa !5847, !dbg !5629
	%157 = bitcast %struct._ZSt9basic_iosIcSt11char_traitsIcEE** %..inline.addr.350 to i8**, !dbg !5629
	store i8*  %155, i8**  %157, align 8, !tbaa !5847, !dbg !5629
	%158 = load %struct._ZSt9basic_iosIcSt11char_traitsIcEE*, %struct._ZSt9basic_iosIcSt11char_traitsIcEE** %..inline.addr.350, align 8, !tbaa !5847, !dbg !5629
	%159 = bitcast %struct._ZSt9basic_iosIcSt11char_traitsIcEE*  %158 to i8*, !dbg !5629
	%160 = getelementptr i8, i8*  %159, i64 32, !dbg !5629
	%161 = bitcast i8*  %160 to i32*, !dbg !5629
	%162 = load i32, i32*  %161, align 4, !tbaa !5848, !dbg !5629
	%163 = or i32  %162, 1, !dbg !5629
	%164 = load %struct._ZSt9basic_iosIcSt11char_traitsIcEE*, %struct._ZSt9basic_iosIcSt11char_traitsIcEE** %..inline.addr.340, align 8, !tbaa !5847, !dbg !5629
	call void  @_ZNSt9basic_iosIcSt11char_traitsIcEE5clearESt12_Ios_Iostate (%struct._ZSt9basic_iosIcSt11char_traitsIcEE*  %164, i32  %163), !dbg !5629
	br label %L..inline.26313, !dbg !5629
L..inline.26292:
	%165 = bitcast [14 x i8]* @.S09949 to i8*, !dbg !5630
	%166 = call i64  @strlen (i8*  %165) nounwind, !dbg !5630
	%167 = call %struct._ZSo*  @_ZSt16__ostream_insertIcSt11char_traitsIcEERSt13basic_ostreamIT_T0_ES6_PKS3_l (%struct._ZSo* @_ZSt4cout, i8*  %165, i64  %166), !dbg !5630
	%168 = bitcast %struct._ZSo*  %167 to i8*, !dbg !5630
	%169 = bitcast %struct._ZSo** %.Q0011.addr to i8**, !dbg !5630
	store i8*  %168, i8**  %169, align 8, !tbaa !5847, !dbg !5630
	br label %L..inline.26313
L..inline.26313:
	%170 = call %struct._ZSo*  @_ZSt4endlIcSt11char_traitsIcEERSt13basic_ostreamIT_T0_ES6_ (%struct._ZSo* @_ZSt4cout), !dbg !5625
	%171 = bitcast %struct._ZSo*  %170 to i8*, !dbg !5625
	%172 = bitcast %struct._ZSo** %.Q0012.addr to i8**, !dbg !5625
	store i8*  %171, i8**  %172, align 8, !tbaa !5847, !dbg !5625
	%173 = bitcast [14 x i8]* @.S09951 to i8*, !dbg !5637
	%174 = icmp ne i8*  %173,  null, !dbg !5637
	br i1  %174, label %L..inline.26333, label %L.B1734, !dbg !5637
L.B1734:
	%175 = bitcast %struct._ZSo* @_ZSt4cout to i8*, !dbg !5629
	%176 = bitcast %struct._ZSo* @_ZSt4cout to i8**, !dbg !5629
	%177 = load i8*, i8**  %176, align 8, !tbaa !5847, !dbg !5629
	%178 = getelementptr i8, i8*  %177, i64 18446744073709551592, !dbg !5629
	%179 = bitcast i8*  %178 to i64*, !dbg !5629
	%180 = load i64, i64*  %179, align 8, !tbaa !5848, !dbg !5629
	%181 = getelementptr i8, i8*  %175, i64  %180, !dbg !5629
	%182 = bitcast %struct._ZSt9basic_iosIcSt11char_traitsIcEE** %..inline.addr.400 to i8**, !dbg !5629
	store i8*  %181, i8**  %182, align 8, !tbaa !5847, !dbg !5629
	%183 = bitcast %struct._ZSt9basic_iosIcSt11char_traitsIcEE** %..inline.addr.410 to i8**, !dbg !5629
	store i8*  %181, i8**  %183, align 8, !tbaa !5847, !dbg !5629
	%184 = load %struct._ZSt9basic_iosIcSt11char_traitsIcEE*, %struct._ZSt9basic_iosIcSt11char_traitsIcEE** %..inline.addr.410, align 8, !tbaa !5847, !dbg !5629
	%185 = bitcast %struct._ZSt9basic_iosIcSt11char_traitsIcEE*  %184 to i8*, !dbg !5629
	%186 = getelementptr i8, i8*  %185, i64 32, !dbg !5629
	%187 = bitcast i8*  %186 to i32*, !dbg !5629
	%188 = load i32, i32*  %187, align 4, !tbaa !5848, !dbg !5629
	%189 = or i32  %188, 1, !dbg !5629
	%190 = load %struct._ZSt9basic_iosIcSt11char_traitsIcEE*, %struct._ZSt9basic_iosIcSt11char_traitsIcEE** %..inline.addr.400, align 8, !tbaa !5847, !dbg !5629
	call void  @_ZNSt9basic_iosIcSt11char_traitsIcEE5clearESt12_Ios_Iostate (%struct._ZSt9basic_iosIcSt11char_traitsIcEE*  %190, i32  %189), !dbg !5629
	br label %L..inline.26354, !dbg !5629
L..inline.26333:
	%191 = bitcast [14 x i8]* @.S09951 to i8*, !dbg !5630
	%192 = call i64  @strlen (i8*  %191) nounwind, !dbg !5630
	%193 = call %struct._ZSo*  @_ZSt16__ostream_insertIcSt11char_traitsIcEERSt13basic_ostreamIT_T0_ES6_PKS3_l (%struct._ZSo* @_ZSt4cout, i8*  %191, i64  %192), !dbg !5630
	%194 = bitcast %struct._ZSo*  %193 to i8*, !dbg !5630
	%195 = bitcast %struct._ZSo** %.Q0013.addr to i8**, !dbg !5630
	store i8*  %194, i8**  %195, align 8, !tbaa !5847, !dbg !5630
	br label %L..inline.26354
L..inline.26354:
	%196 = call %struct._ZSo*  @_ZSt4endlIcSt11char_traitsIcEERSt13basic_ostreamIT_T0_ES6_ (%struct._ZSo* @_ZSt4cout), !dbg !5625
	%197 = bitcast %struct._ZSo*  %196 to i8*, !dbg !5625
	%198 = bitcast %struct._ZSo** %.Q0014.addr to i8**, !dbg !5625
	store i8*  %197, i8**  %198, align 8, !tbaa !5847, !dbg !5625
	%199 = bitcast [39 x i8]* @.S09954 to i8*, !dbg !5638
	%200 = icmp ne i8*  %199,  null, !dbg !5638
	br i1  %200, label %L..inline.26374, label %L.B1735, !dbg !5638
L.B1735:
	%201 = bitcast %struct._ZSo* @_ZSt4cout to i8*, !dbg !5629
	%202 = bitcast %struct._ZSo* @_ZSt4cout to i8**, !dbg !5629
	%203 = load i8*, i8**  %202, align 8, !tbaa !5847, !dbg !5629
	%204 = getelementptr i8, i8*  %203, i64 18446744073709551592, !dbg !5629
	%205 = bitcast i8*  %204 to i64*, !dbg !5629
	%206 = load i64, i64*  %205, align 8, !tbaa !5848, !dbg !5629
	%207 = getelementptr i8, i8*  %201, i64  %206, !dbg !5629
	%208 = bitcast %struct._ZSt9basic_iosIcSt11char_traitsIcEE** %..inline.addr.460 to i8**, !dbg !5629
	store i8*  %207, i8**  %208, align 8, !tbaa !5847, !dbg !5629
	%209 = bitcast %struct._ZSt9basic_iosIcSt11char_traitsIcEE** %..inline.addr.470 to i8**, !dbg !5629
	store i8*  %207, i8**  %209, align 8, !tbaa !5847, !dbg !5629
	%210 = load %struct._ZSt9basic_iosIcSt11char_traitsIcEE*, %struct._ZSt9basic_iosIcSt11char_traitsIcEE** %..inline.addr.470, align 8, !tbaa !5847, !dbg !5629
	%211 = bitcast %struct._ZSt9basic_iosIcSt11char_traitsIcEE*  %210 to i8*, !dbg !5629
	%212 = getelementptr i8, i8*  %211, i64 32, !dbg !5629
	%213 = bitcast i8*  %212 to i32*, !dbg !5629
	%214 = load i32, i32*  %213, align 4, !tbaa !5848, !dbg !5629
	%215 = or i32  %214, 1, !dbg !5629
	%216 = load %struct._ZSt9basic_iosIcSt11char_traitsIcEE*, %struct._ZSt9basic_iosIcSt11char_traitsIcEE** %..inline.addr.460, align 8, !tbaa !5847, !dbg !5629
	call void  @_ZNSt9basic_iosIcSt11char_traitsIcEE5clearESt12_Ios_Iostate (%struct._ZSt9basic_iosIcSt11char_traitsIcEE*  %216, i32  %215), !dbg !5629
	br label %L..inline.26395, !dbg !5629
L..inline.26374:
	%217 = bitcast [39 x i8]* @.S09954 to i8*, !dbg !5630
	%218 = call i64  @strlen (i8*  %217) nounwind, !dbg !5630
	%219 = call %struct._ZSo*  @_ZSt16__ostream_insertIcSt11char_traitsIcEERSt13basic_ostreamIT_T0_ES6_PKS3_l (%struct._ZSo* @_ZSt4cout, i8*  %217, i64  %218), !dbg !5630
	%220 = bitcast %struct._ZSo*  %219 to i8*, !dbg !5630
	%221 = bitcast %struct._ZSo** %.Q0015.addr to i8**, !dbg !5630
	store i8*  %220, i8**  %221, align 8, !tbaa !5847, !dbg !5630
	br label %L..inline.26395
L..inline.26395:
	%222 = call %struct._ZSo*  @_ZSt4endlIcSt11char_traitsIcEERSt13basic_ostreamIT_T0_ES6_ (%struct._ZSo* @_ZSt4cout), !dbg !5625
	%223 = bitcast %struct._ZSo*  %222 to i8*, !dbg !5625
	%224 = bitcast %struct._ZSo** %.Q0016.addr to i8**, !dbg !5625
	store i8*  %223, i8**  %224, align 8, !tbaa !5847, !dbg !5625
	%225 = bitcast [40 x i8]* @.S09956 to i8*, !dbg !5639
	%226 = icmp ne i8*  %225,  null, !dbg !5639
	br i1  %226, label %L..inline.26415, label %L.B1736, !dbg !5639
L.B1736:
	%227 = bitcast %struct._ZSo* @_ZSt4cout to i8*, !dbg !5629
	%228 = bitcast %struct._ZSo* @_ZSt4cout to i8**, !dbg !5629
	%229 = load i8*, i8**  %228, align 8, !tbaa !5847, !dbg !5629
	%230 = getelementptr i8, i8*  %229, i64 18446744073709551592, !dbg !5629
	%231 = bitcast i8*  %230 to i64*, !dbg !5629
	%232 = load i64, i64*  %231, align 8, !tbaa !5848, !dbg !5629
	%233 = getelementptr i8, i8*  %227, i64  %232, !dbg !5629
	%234 = bitcast %struct._ZSt9basic_iosIcSt11char_traitsIcEE** %..inline.addr.520 to i8**, !dbg !5629
	store i8*  %233, i8**  %234, align 8, !tbaa !5847, !dbg !5629
	%235 = bitcast %struct._ZSt9basic_iosIcSt11char_traitsIcEE** %..inline.addr.530 to i8**, !dbg !5629
	store i8*  %233, i8**  %235, align 8, !tbaa !5847, !dbg !5629
	%236 = load %struct._ZSt9basic_iosIcSt11char_traitsIcEE*, %struct._ZSt9basic_iosIcSt11char_traitsIcEE** %..inline.addr.530, align 8, !tbaa !5847, !dbg !5629
	%237 = bitcast %struct._ZSt9basic_iosIcSt11char_traitsIcEE*  %236 to i8*, !dbg !5629
	%238 = getelementptr i8, i8*  %237, i64 32, !dbg !5629
	%239 = bitcast i8*  %238 to i32*, !dbg !5629
	%240 = load i32, i32*  %239, align 4, !tbaa !5848, !dbg !5629
	%241 = or i32  %240, 1, !dbg !5629
	%242 = load %struct._ZSt9basic_iosIcSt11char_traitsIcEE*, %struct._ZSt9basic_iosIcSt11char_traitsIcEE** %..inline.addr.520, align 8, !tbaa !5847, !dbg !5629
	call void  @_ZNSt9basic_iosIcSt11char_traitsIcEE5clearESt12_Ios_Iostate (%struct._ZSt9basic_iosIcSt11char_traitsIcEE*  %242, i32  %241), !dbg !5629
	br label %L..inline.26436, !dbg !5629
L..inline.26415:
	%243 = bitcast [40 x i8]* @.S09956 to i8*, !dbg !5630
	%244 = call i64  @strlen (i8*  %243) nounwind, !dbg !5630
	%245 = call %struct._ZSo*  @_ZSt16__ostream_insertIcSt11char_traitsIcEERSt13basic_ostreamIT_T0_ES6_PKS3_l (%struct._ZSo* @_ZSt4cout, i8*  %243, i64  %244), !dbg !5630
	%246 = bitcast %struct._ZSo*  %245 to i8*, !dbg !5630
	%247 = bitcast %struct._ZSo** %.Q0017.addr to i8**, !dbg !5630
	store i8*  %246, i8**  %247, align 8, !tbaa !5847, !dbg !5630
	br label %L..inline.26436
L..inline.26436:
	%248 = call %struct._ZSo*  @_ZSt4endlIcSt11char_traitsIcEERSt13basic_ostreamIT_T0_ES6_ (%struct._ZSo* @_ZSt4cout), !dbg !5625
	%249 = bitcast %struct._ZSo*  %248 to i8*, !dbg !5625
	%250 = bitcast %struct._ZSo** %.Q0018.addr to i8**, !dbg !5625
	store i8*  %249, i8**  %250, align 8, !tbaa !5847, !dbg !5625
	%251 = bitcast [42 x i8]* @.S09959 to i8*, !dbg !5640
	%252 = icmp ne i8*  %251,  null, !dbg !5640
	br i1  %252, label %L..inline.26456, label %L.B1737, !dbg !5640
L.B1737:
	%253 = bitcast %struct._ZSo* @_ZSt4cout to i8*, !dbg !5629
	%254 = bitcast %struct._ZSo* @_ZSt4cout to i8**, !dbg !5629
	%255 = load i8*, i8**  %254, align 8, !tbaa !5847, !dbg !5629
	%256 = getelementptr i8, i8*  %255, i64 18446744073709551592, !dbg !5629
	%257 = bitcast i8*  %256 to i64*, !dbg !5629
	%258 = load i64, i64*  %257, align 8, !tbaa !5848, !dbg !5629
	%259 = getelementptr i8, i8*  %253, i64  %258, !dbg !5629
	%260 = bitcast %struct._ZSt9basic_iosIcSt11char_traitsIcEE** %..inline.addr.580 to i8**, !dbg !5629
	store i8*  %259, i8**  %260, align 8, !tbaa !5847, !dbg !5629
	%261 = bitcast %struct._ZSt9basic_iosIcSt11char_traitsIcEE** %..inline.addr.590 to i8**, !dbg !5629
	store i8*  %259, i8**  %261, align 8, !tbaa !5847, !dbg !5629
	%262 = load %struct._ZSt9basic_iosIcSt11char_traitsIcEE*, %struct._ZSt9basic_iosIcSt11char_traitsIcEE** %..inline.addr.590, align 8, !tbaa !5847, !dbg !5629
	%263 = bitcast %struct._ZSt9basic_iosIcSt11char_traitsIcEE*  %262 to i8*, !dbg !5629
	%264 = getelementptr i8, i8*  %263, i64 32, !dbg !5629
	%265 = bitcast i8*  %264 to i32*, !dbg !5629
	%266 = load i32, i32*  %265, align 4, !tbaa !5848, !dbg !5629
	%267 = or i32  %266, 1, !dbg !5629
	%268 = load %struct._ZSt9basic_iosIcSt11char_traitsIcEE*, %struct._ZSt9basic_iosIcSt11char_traitsIcEE** %..inline.addr.580, align 8, !tbaa !5847, !dbg !5629
	call void  @_ZNSt9basic_iosIcSt11char_traitsIcEE5clearESt12_Ios_Iostate (%struct._ZSt9basic_iosIcSt11char_traitsIcEE*  %268, i32  %267), !dbg !5629
	br label %L..inline.26477, !dbg !5629
L..inline.26456:
	%269 = bitcast [42 x i8]* @.S09959 to i8*, !dbg !5630
	%270 = call i64  @strlen (i8*  %269) nounwind, !dbg !5630
	%271 = call %struct._ZSo*  @_ZSt16__ostream_insertIcSt11char_traitsIcEERSt13basic_ostreamIT_T0_ES6_PKS3_l (%struct._ZSo* @_ZSt4cout, i8*  %269, i64  %270), !dbg !5630
	%272 = bitcast %struct._ZSo*  %271 to i8*, !dbg !5630
	%273 = bitcast %struct._ZSo** %.Q0019.addr to i8**, !dbg !5630
	store i8*  %272, i8**  %273, align 8, !tbaa !5847, !dbg !5630
	br label %L..inline.26477
L..inline.26477:
	%274 = call %struct._ZSo*  @_ZSt4endlIcSt11char_traitsIcEERSt13basic_ostreamIT_T0_ES6_ (%struct._ZSo* @_ZSt4cout), !dbg !5625
	%275 = bitcast %struct._ZSo*  %274 to i8*, !dbg !5625
	%276 = bitcast %struct._ZSo** %.Q0020.addr to i8**, !dbg !5625
	store i8*  %275, i8**  %276, align 8, !tbaa !5847, !dbg !5625
	%277 = call %struct._ZSo*  @_ZSt4endlIcSt11char_traitsIcEERSt13basic_ostreamIT_T0_ES6_ (%struct._ZSo* @_ZSt4cout), !dbg !5625
	%278 = bitcast %struct._ZSo*  %277 to i8*, !dbg !5625
	%279 = bitcast %struct._ZSo** %.Q0021.addr to i8**, !dbg !5625
	store i8*  %278, i8**  %279, align 8, !tbaa !5847, !dbg !5625
	%280 = load %struct._ZSo*, %struct._ZSo** %.Q0021.addr, align 8, !tbaa !5847, !dbg !5625
	%281 = bitcast %struct._ZSo*  %280 to i8*, !dbg !5625
	%282 = bitcast %struct._ZSo** %..inline.addr.650 to i8**, !dbg !5625
	store i8*  %281, i8**  %282, align 8, !tbaa !5847, !dbg !5625
	%283 = bitcast [34 x i8]* @.S09962 to i8*, !dbg !5641
	%284 = icmp ne i8*  %283,  null, !dbg !5641
	br i1  %284, label %L..inline.26503, label %L.B1738, !dbg !5641
L.B1738:
	%285 = load %struct._ZSo*, %struct._ZSo** %..inline.addr.650, align 8, !tbaa !5847, !dbg !5629
	%286 = bitcast %struct._ZSo*  %285 to i8*, !dbg !5629
	%287 = bitcast %struct._ZSo*  %285 to i8**, !dbg !5629
	%288 = load i8*, i8**  %287, align 8, !tbaa !5847, !dbg !5629
	%289 = getelementptr i8, i8*  %288, i64 18446744073709551592, !dbg !5629
	%290 = bitcast i8*  %289 to i64*, !dbg !5629
	%291 = load i64, i64*  %290, align 8, !tbaa !5848, !dbg !5629
	%292 = getelementptr i8, i8*  %286, i64  %291, !dbg !5629
	%293 = bitcast %struct._ZSt9basic_iosIcSt11char_traitsIcEE** %..inline.addr.660 to i8**, !dbg !5629
	store i8*  %292, i8**  %293, align 8, !tbaa !5847, !dbg !5629
	%294 = bitcast %struct._ZSt9basic_iosIcSt11char_traitsIcEE** %..inline.addr.670 to i8**, !dbg !5629
	store i8*  %292, i8**  %294, align 8, !tbaa !5847, !dbg !5629
	%295 = load %struct._ZSt9basic_iosIcSt11char_traitsIcEE*, %struct._ZSt9basic_iosIcSt11char_traitsIcEE** %..inline.addr.670, align 8, !tbaa !5847, !dbg !5629
	%296 = bitcast %struct._ZSt9basic_iosIcSt11char_traitsIcEE*  %295 to i8*, !dbg !5629
	%297 = getelementptr i8, i8*  %296, i64 32, !dbg !5629
	%298 = bitcast i8*  %297 to i32*, !dbg !5629
	%299 = load i32, i32*  %298, align 4, !tbaa !5848, !dbg !5629
	%300 = or i32  %299, 1, !dbg !5629
	%301 = load %struct._ZSt9basic_iosIcSt11char_traitsIcEE*, %struct._ZSt9basic_iosIcSt11char_traitsIcEE** %..inline.addr.660, align 8, !tbaa !5847, !dbg !5629
	call void  @_ZNSt9basic_iosIcSt11char_traitsIcEE5clearESt12_Ios_Iostate (%struct._ZSt9basic_iosIcSt11char_traitsIcEE*  %301, i32  %300), !dbg !5629
	br label %L..inline.26524, !dbg !5629
L..inline.26503:
	%302 = bitcast [34 x i8]* @.S09962 to i8*, !dbg !5630
	%303 = call i64  @strlen (i8*  %302) nounwind, !dbg !5630
	%304 = load %struct._ZSo*, %struct._ZSo** %..inline.addr.650, align 8, !tbaa !5847, !dbg !5630
	%305 = call %struct._ZSo*  @_ZSt16__ostream_insertIcSt11char_traitsIcEERSt13basic_ostreamIT_T0_ES6_PKS3_l (%struct._ZSo*  %304, i8*  %302, i64  %303), !dbg !5630
	%306 = bitcast %struct._ZSo*  %305 to i8*, !dbg !5630
	%307 = bitcast %struct._ZSo** %.Q0022.addr to i8**, !dbg !5630
	store i8*  %306, i8**  %307, align 8, !tbaa !5847, !dbg !5630
	br label %L..inline.26524
L..inline.26524:
	%308 = load %struct._ZSo*, %struct._ZSo** %..inline.addr.650, align 8, !tbaa !5847, !dbg !5631
	%309 = bitcast %struct._ZSo*  %308 to i8*, !dbg !5631
	%310 = bitcast %struct._ZSo** %..inline.addr.710 to i8**, !dbg !5631
	store i8*  %309, i8**  %310, align 8, !tbaa !5847, !dbg !5631
	%311 = load %struct._ZSo*, %struct._ZSo** %..inline.addr.710, align 8, !tbaa !5847, !dbg !5625
	%312 = call %struct._ZSo*  @_ZSt4endlIcSt11char_traitsIcEERSt13basic_ostreamIT_T0_ES6_ (%struct._ZSo*  %311), !dbg !5625
	%313 = bitcast %struct._ZSo*  %312 to i8*, !dbg !5625
	%314 = bitcast %struct._ZSo** %.Q0023.addr to i8**, !dbg !5625
	store i8*  %313, i8**  %314, align 8, !tbaa !5847, !dbg !5625
	%315 = bitcast [11 x i8]* @.S09964 to i8*, !dbg !5642
	%316 = icmp ne i8*  %315,  null, !dbg !5642
	br i1  %316, label %L..inline.26545, label %L.B1739, !dbg !5642
L.B1739:
	%317 = bitcast %struct._ZSo* @_ZSt4cout to i8*, !dbg !5629
	%318 = bitcast %struct._ZSo* @_ZSt4cout to i8**, !dbg !5629
	%319 = load i8*, i8**  %318, align 8, !tbaa !5847, !dbg !5629
	%320 = getelementptr i8, i8*  %319, i64 18446744073709551592, !dbg !5629
	%321 = bitcast i8*  %320 to i64*, !dbg !5629
	%322 = load i64, i64*  %321, align 8, !tbaa !5848, !dbg !5629
	%323 = getelementptr i8, i8*  %317, i64  %322, !dbg !5629
	%324 = bitcast %struct._ZSt9basic_iosIcSt11char_traitsIcEE** %..inline.addr.730 to i8**, !dbg !5629
	store i8*  %323, i8**  %324, align 8, !tbaa !5847, !dbg !5629
	%325 = bitcast %struct._ZSt9basic_iosIcSt11char_traitsIcEE** %..inline.addr.740 to i8**, !dbg !5629
	store i8*  %323, i8**  %325, align 8, !tbaa !5847, !dbg !5629
	%326 = load %struct._ZSt9basic_iosIcSt11char_traitsIcEE*, %struct._ZSt9basic_iosIcSt11char_traitsIcEE** %..inline.addr.740, align 8, !tbaa !5847, !dbg !5629
	%327 = bitcast %struct._ZSt9basic_iosIcSt11char_traitsIcEE*  %326 to i8*, !dbg !5629
	%328 = getelementptr i8, i8*  %327, i64 32, !dbg !5629
	%329 = bitcast i8*  %328 to i32*, !dbg !5629
	%330 = load i32, i32*  %329, align 4, !tbaa !5848, !dbg !5629
	%331 = or i32  %330, 1, !dbg !5629
	%332 = load %struct._ZSt9basic_iosIcSt11char_traitsIcEE*, %struct._ZSt9basic_iosIcSt11char_traitsIcEE** %..inline.addr.730, align 8, !tbaa !5847, !dbg !5629
	call void  @_ZNSt9basic_iosIcSt11char_traitsIcEE5clearESt12_Ios_Iostate (%struct._ZSt9basic_iosIcSt11char_traitsIcEE*  %332, i32  %331), !dbg !5629
	br label %L..inline.26566, !dbg !5629
L..inline.26545:
	%333 = bitcast [11 x i8]* @.S09964 to i8*, !dbg !5630
	%334 = call i64  @strlen (i8*  %333) nounwind, !dbg !5630
	%335 = call %struct._ZSo*  @_ZSt16__ostream_insertIcSt11char_traitsIcEERSt13basic_ostreamIT_T0_ES6_PKS3_l (%struct._ZSo* @_ZSt4cout, i8*  %333, i64  %334), !dbg !5630
	%336 = bitcast %struct._ZSo*  %335 to i8*, !dbg !5630
	%337 = bitcast %struct._ZSo** %.Q0024.addr to i8**, !dbg !5630
	store i8*  %336, i8**  %337, align 8, !tbaa !5847, !dbg !5630
	br label %L..inline.26566
L..inline.26566:
	%338 = call %struct._ZSo*  @_ZSt4endlIcSt11char_traitsIcEERSt13basic_ostreamIT_T0_ES6_ (%struct._ZSo* @_ZSt4cout), !dbg !5625
	%339 = bitcast %struct._ZSo*  %338 to i8*, !dbg !5625
	%340 = bitcast %struct._ZSo** %.Q0025.addr to i8**, !dbg !5625
	store i8*  %339, i8**  %340, align 8, !tbaa !5847, !dbg !5625
	%341 = call %struct._ZSo*  @_ZSt4endlIcSt11char_traitsIcEERSt13basic_ostreamIT_T0_ES6_ (%struct._ZSo* @_ZSt4cout), !dbg !5625
	%342 = bitcast %struct._ZSo*  %341 to i8*, !dbg !5625
	%343 = bitcast %struct._ZSo** %.Q0026.addr to i8**, !dbg !5625
	store i8*  %342, i8**  %343, align 8, !tbaa !5847, !dbg !5625
	%344 = load %struct._ZSo*, %struct._ZSo** %.Q0026.addr, align 8, !tbaa !5847, !dbg !5625
	%345 = bitcast %struct._ZSo*  %344 to i8*, !dbg !5625
	%346 = bitcast %struct._ZSo** %..inline.addr.800 to i8**, !dbg !5625
	store i8*  %345, i8**  %346, align 8, !tbaa !5847, !dbg !5625
	%347 = bitcast [49 x i8]* @.S09967 to i8*, !dbg !5643
	%348 = icmp ne i8*  %347,  null, !dbg !5643
	br i1  %348, label %L..inline.26592, label %L.B1740, !dbg !5643
L.B1740:
	%349 = load %struct._ZSo*, %struct._ZSo** %..inline.addr.800, align 8, !tbaa !5847, !dbg !5629
	%350 = bitcast %struct._ZSo*  %349 to i8*, !dbg !5629
	%351 = bitcast %struct._ZSo*  %349 to i8**, !dbg !5629
	%352 = load i8*, i8**  %351, align 8, !tbaa !5847, !dbg !5629
	%353 = getelementptr i8, i8*  %352, i64 18446744073709551592, !dbg !5629
	%354 = bitcast i8*  %353 to i64*, !dbg !5629
	%355 = load i64, i64*  %354, align 8, !tbaa !5848, !dbg !5629
	%356 = getelementptr i8, i8*  %350, i64  %355, !dbg !5629
	%357 = bitcast %struct._ZSt9basic_iosIcSt11char_traitsIcEE** %..inline.addr.810 to i8**, !dbg !5629
	store i8*  %356, i8**  %357, align 8, !tbaa !5847, !dbg !5629
	%358 = bitcast %struct._ZSt9basic_iosIcSt11char_traitsIcEE** %..inline.addr.820 to i8**, !dbg !5629
	store i8*  %356, i8**  %358, align 8, !tbaa !5847, !dbg !5629
	%359 = load %struct._ZSt9basic_iosIcSt11char_traitsIcEE*, %struct._ZSt9basic_iosIcSt11char_traitsIcEE** %..inline.addr.820, align 8, !tbaa !5847, !dbg !5629
	%360 = bitcast %struct._ZSt9basic_iosIcSt11char_traitsIcEE*  %359 to i8*, !dbg !5629
	%361 = getelementptr i8, i8*  %360, i64 32, !dbg !5629
	%362 = bitcast i8*  %361 to i32*, !dbg !5629
	%363 = load i32, i32*  %362, align 4, !tbaa !5848, !dbg !5629
	%364 = or i32  %363, 1, !dbg !5629
	%365 = load %struct._ZSt9basic_iosIcSt11char_traitsIcEE*, %struct._ZSt9basic_iosIcSt11char_traitsIcEE** %..inline.addr.810, align 8, !tbaa !5847, !dbg !5629
	call void  @_ZNSt9basic_iosIcSt11char_traitsIcEE5clearESt12_Ios_Iostate (%struct._ZSt9basic_iosIcSt11char_traitsIcEE*  %365, i32  %364), !dbg !5629
	br label %L..inline.26613, !dbg !5629
L..inline.26592:
	%366 = bitcast [49 x i8]* @.S09967 to i8*, !dbg !5630
	%367 = call i64  @strlen (i8*  %366) nounwind, !dbg !5630
	%368 = load %struct._ZSo*, %struct._ZSo** %..inline.addr.800, align 8, !tbaa !5847, !dbg !5630
	%369 = call %struct._ZSo*  @_ZSt16__ostream_insertIcSt11char_traitsIcEERSt13basic_ostreamIT_T0_ES6_PKS3_l (%struct._ZSo*  %368, i8*  %366, i64  %367), !dbg !5630
	%370 = bitcast %struct._ZSo*  %369 to i8*, !dbg !5630
	%371 = bitcast %struct._ZSo** %.Q0027.addr to i8**, !dbg !5630
	store i8*  %370, i8**  %371, align 8, !tbaa !5847, !dbg !5630
	br label %L..inline.26613
L..inline.26613:
	%372 = load %struct._ZSo*, %struct._ZSo** %..inline.addr.800, align 8, !tbaa !5847, !dbg !5631
	%373 = bitcast %struct._ZSo*  %372 to i8*, !dbg !5631
	%374 = bitcast %struct._ZSo** %..inline.addr.860 to i8**, !dbg !5631
	store i8*  %373, i8**  %374, align 8, !tbaa !5847, !dbg !5631
	%375 = load %struct._ZSo*, %struct._ZSo** %..inline.addr.860, align 8, !tbaa !5847, !dbg !5625
	%376 = call %struct._ZSo*  @_ZSt4endlIcSt11char_traitsIcEERSt13basic_ostreamIT_T0_ES6_ (%struct._ZSo*  %375), !dbg !5625
	%377 = bitcast %struct._ZSo*  %376 to i8*, !dbg !5625
	%378 = bitcast %struct._ZSo** %.Q0028.addr to i8**, !dbg !5625
	store i8*  %377, i8**  %378, align 8, !tbaa !5847, !dbg !5625
	%379 = bitcast [86 x i8]* @.S09970 to i8*, !dbg !5644
	%380 = icmp ne i8*  %379,  null, !dbg !5644
	br i1  %380, label %L..inline.26634, label %L.B1741, !dbg !5644
L.B1741:
	%381 = bitcast %struct._ZSo* @_ZSt4cout to i8*, !dbg !5629
	%382 = bitcast %struct._ZSo* @_ZSt4cout to i8**, !dbg !5629
	%383 = load i8*, i8**  %382, align 8, !tbaa !5847, !dbg !5629
	%384 = getelementptr i8, i8*  %383, i64 18446744073709551592, !dbg !5629
	%385 = bitcast i8*  %384 to i64*, !dbg !5629
	%386 = load i64, i64*  %385, align 8, !tbaa !5848, !dbg !5629
	%387 = getelementptr i8, i8*  %381, i64  %386, !dbg !5629
	%388 = bitcast %struct._ZSt9basic_iosIcSt11char_traitsIcEE** %..inline.addr.880 to i8**, !dbg !5629
	store i8*  %387, i8**  %388, align 8, !tbaa !5847, !dbg !5629
	%389 = bitcast %struct._ZSt9basic_iosIcSt11char_traitsIcEE** %..inline.addr.890 to i8**, !dbg !5629
	store i8*  %387, i8**  %389, align 8, !tbaa !5847, !dbg !5629
	%390 = load %struct._ZSt9basic_iosIcSt11char_traitsIcEE*, %struct._ZSt9basic_iosIcSt11char_traitsIcEE** %..inline.addr.890, align 8, !tbaa !5847, !dbg !5629
	%391 = bitcast %struct._ZSt9basic_iosIcSt11char_traitsIcEE*  %390 to i8*, !dbg !5629
	%392 = getelementptr i8, i8*  %391, i64 32, !dbg !5629
	%393 = bitcast i8*  %392 to i32*, !dbg !5629
	%394 = load i32, i32*  %393, align 4, !tbaa !5848, !dbg !5629
	%395 = or i32  %394, 1, !dbg !5629
	%396 = load %struct._ZSt9basic_iosIcSt11char_traitsIcEE*, %struct._ZSt9basic_iosIcSt11char_traitsIcEE** %..inline.addr.880, align 8, !tbaa !5847, !dbg !5629
	call void  @_ZNSt9basic_iosIcSt11char_traitsIcEE5clearESt12_Ios_Iostate (%struct._ZSt9basic_iosIcSt11char_traitsIcEE*  %396, i32  %395), !dbg !5629
	br label %L..inline.26655, !dbg !5629
L..inline.26634:
	%397 = bitcast [86 x i8]* @.S09970 to i8*, !dbg !5630
	%398 = call i64  @strlen (i8*  %397) nounwind, !dbg !5630
	%399 = call %struct._ZSo*  @_ZSt16__ostream_insertIcSt11char_traitsIcEERSt13basic_ostreamIT_T0_ES6_PKS3_l (%struct._ZSo* @_ZSt4cout, i8*  %397, i64  %398), !dbg !5630
	%400 = bitcast %struct._ZSo*  %399 to i8*, !dbg !5630
	%401 = bitcast %struct._ZSo** %.Q0029.addr to i8**, !dbg !5630
	store i8*  %400, i8**  %401, align 8, !tbaa !5847, !dbg !5630
	br label %L..inline.26655
L..inline.26655:
	%402 = call %struct._ZSo*  @_ZSt4endlIcSt11char_traitsIcEERSt13basic_ostreamIT_T0_ES6_ (%struct._ZSo* @_ZSt4cout), !dbg !5625
	%403 = bitcast %struct._ZSo*  %402 to i8*, !dbg !5625
	%404 = bitcast %struct._ZSo** %.Q0030.addr to i8**, !dbg !5625
	store i8*  %403, i8**  %404, align 8, !tbaa !5847, !dbg !5625
	%405 = bitcast [57 x i8]* @.S09973 to i8*, !dbg !5645
	%406 = icmp ne i8*  %405,  null, !dbg !5645
	br i1  %406, label %L..inline.26675, label %L.B1742, !dbg !5645
L.B1742:
	%407 = bitcast %struct._ZSo* @_ZSt4cout to i8*, !dbg !5629
	%408 = bitcast %struct._ZSo* @_ZSt4cout to i8**, !dbg !5629
	%409 = load i8*, i8**  %408, align 8, !tbaa !5847, !dbg !5629
	%410 = getelementptr i8, i8*  %409, i64 18446744073709551592, !dbg !5629
	%411 = bitcast i8*  %410 to i64*, !dbg !5629
	%412 = load i64, i64*  %411, align 8, !tbaa !5848, !dbg !5629
	%413 = getelementptr i8, i8*  %407, i64  %412, !dbg !5629
	%414 = bitcast %struct._ZSt9basic_iosIcSt11char_traitsIcEE** %..inline.addr.940 to i8**, !dbg !5629
	store i8*  %413, i8**  %414, align 8, !tbaa !5847, !dbg !5629
	%415 = bitcast %struct._ZSt9basic_iosIcSt11char_traitsIcEE** %..inline.addr.950 to i8**, !dbg !5629
	store i8*  %413, i8**  %415, align 8, !tbaa !5847, !dbg !5629
	%416 = load %struct._ZSt9basic_iosIcSt11char_traitsIcEE*, %struct._ZSt9basic_iosIcSt11char_traitsIcEE** %..inline.addr.950, align 8, !tbaa !5847, !dbg !5629
	%417 = bitcast %struct._ZSt9basic_iosIcSt11char_traitsIcEE*  %416 to i8*, !dbg !5629
	%418 = getelementptr i8, i8*  %417, i64 32, !dbg !5629
	%419 = bitcast i8*  %418 to i32*, !dbg !5629
	%420 = load i32, i32*  %419, align 4, !tbaa !5848, !dbg !5629
	%421 = or i32  %420, 1, !dbg !5629
	%422 = load %struct._ZSt9basic_iosIcSt11char_traitsIcEE*, %struct._ZSt9basic_iosIcSt11char_traitsIcEE** %..inline.addr.940, align 8, !tbaa !5847, !dbg !5629
	call void  @_ZNSt9basic_iosIcSt11char_traitsIcEE5clearESt12_Ios_Iostate (%struct._ZSt9basic_iosIcSt11char_traitsIcEE*  %422, i32  %421), !dbg !5629
	br label %L..inline.26696, !dbg !5629
L..inline.26675:
	%423 = bitcast [57 x i8]* @.S09973 to i8*, !dbg !5630
	%424 = call i64  @strlen (i8*  %423) nounwind, !dbg !5630
	%425 = call %struct._ZSo*  @_ZSt16__ostream_insertIcSt11char_traitsIcEERSt13basic_ostreamIT_T0_ES6_PKS3_l (%struct._ZSo* @_ZSt4cout, i8*  %423, i64  %424), !dbg !5630
	%426 = bitcast %struct._ZSo*  %425 to i8*, !dbg !5630
	%427 = bitcast %struct._ZSo** %.Q0031.addr to i8**, !dbg !5630
	store i8*  %426, i8**  %427, align 8, !tbaa !5847, !dbg !5630
	br label %L..inline.26696
L..inline.26696:
	%428 = call %struct._ZSo*  @_ZSt4endlIcSt11char_traitsIcEERSt13basic_ostreamIT_T0_ES6_ (%struct._ZSo* @_ZSt4cout), !dbg !5625
	%429 = bitcast %struct._ZSo*  %428 to i8*, !dbg !5625
	%430 = bitcast %struct._ZSo** %.Q0032.addr to i8**, !dbg !5625
	store i8*  %429, i8**  %430, align 8, !tbaa !5847, !dbg !5625
	%431 = bitcast [99 x i8]* @.S09976 to i8*, !dbg !5646
	%432 = icmp ne i8*  %431,  null, !dbg !5646
	br i1  %432, label %L..inline.26716, label %L.B1743, !dbg !5646
L.B1743:
	%433 = bitcast %struct._ZSo* @_ZSt4cout to i8*, !dbg !5629
	%434 = bitcast %struct._ZSo* @_ZSt4cout to i8**, !dbg !5629
	%435 = load i8*, i8**  %434, align 8, !tbaa !5847, !dbg !5629
	%436 = getelementptr i8, i8*  %435, i64 18446744073709551592, !dbg !5629
	%437 = bitcast i8*  %436 to i64*, !dbg !5629
	%438 = load i64, i64*  %437, align 8, !tbaa !5848, !dbg !5629
	%439 = getelementptr i8, i8*  %433, i64  %438, !dbg !5629
	%440 = bitcast %struct._ZSt9basic_iosIcSt11char_traitsIcEE** %..inline.addr.1000 to i8**, !dbg !5629
	store i8*  %439, i8**  %440, align 8, !tbaa !5847, !dbg !5629
	%441 = bitcast %struct._ZSt9basic_iosIcSt11char_traitsIcEE** %..inline.addr.1010 to i8**, !dbg !5629
	store i8*  %439, i8**  %441, align 8, !tbaa !5847, !dbg !5629
	%442 = load %struct._ZSt9basic_iosIcSt11char_traitsIcEE*, %struct._ZSt9basic_iosIcSt11char_traitsIcEE** %..inline.addr.1010, align 8, !tbaa !5847, !dbg !5629
	%443 = bitcast %struct._ZSt9basic_iosIcSt11char_traitsIcEE*  %442 to i8*, !dbg !5629
	%444 = getelementptr i8, i8*  %443, i64 32, !dbg !5629
	%445 = bitcast i8*  %444 to i32*, !dbg !5629
	%446 = load i32, i32*  %445, align 4, !tbaa !5848, !dbg !5629
	%447 = or i32  %446, 1, !dbg !5629
	%448 = load %struct._ZSt9basic_iosIcSt11char_traitsIcEE*, %struct._ZSt9basic_iosIcSt11char_traitsIcEE** %..inline.addr.1000, align 8, !tbaa !5847, !dbg !5629
	call void  @_ZNSt9basic_iosIcSt11char_traitsIcEE5clearESt12_Ios_Iostate (%struct._ZSt9basic_iosIcSt11char_traitsIcEE*  %448, i32  %447), !dbg !5629
	br label %L..inline.26737, !dbg !5629
L..inline.26716:
	%449 = bitcast [99 x i8]* @.S09976 to i8*, !dbg !5630
	%450 = call i64  @strlen (i8*  %449) nounwind, !dbg !5630
	%451 = call %struct._ZSo*  @_ZSt16__ostream_insertIcSt11char_traitsIcEERSt13basic_ostreamIT_T0_ES6_PKS3_l (%struct._ZSo* @_ZSt4cout, i8*  %449, i64  %450), !dbg !5630
	%452 = bitcast %struct._ZSo*  %451 to i8*, !dbg !5630
	%453 = bitcast %struct._ZSo** %.Q0033.addr to i8**, !dbg !5630
	store i8*  %452, i8**  %453, align 8, !tbaa !5847, !dbg !5630
	br label %L..inline.26737
L..inline.26737:
	%454 = call %struct._ZSo*  @_ZSt4endlIcSt11char_traitsIcEERSt13basic_ostreamIT_T0_ES6_ (%struct._ZSo* @_ZSt4cout), !dbg !5625
	%455 = bitcast %struct._ZSo*  %454 to i8*, !dbg !5625
	%456 = bitcast %struct._ZSo** %.Q0034.addr to i8**, !dbg !5625
	store i8*  %455, i8**  %456, align 8, !tbaa !5847, !dbg !5625
	%457 = bitcast [84 x i8]* @.S09979 to i8*, !dbg !5647
	%458 = icmp ne i8*  %457,  null, !dbg !5647
	br i1  %458, label %L..inline.26757, label %L.B1744, !dbg !5647
L.B1744:
	%459 = bitcast %struct._ZSo* @_ZSt4cout to i8*, !dbg !5629
	%460 = bitcast %struct._ZSo* @_ZSt4cout to i8**, !dbg !5629
	%461 = load i8*, i8**  %460, align 8, !tbaa !5847, !dbg !5629
	%462 = getelementptr i8, i8*  %461, i64 18446744073709551592, !dbg !5629
	%463 = bitcast i8*  %462 to i64*, !dbg !5629
	%464 = load i64, i64*  %463, align 8, !tbaa !5848, !dbg !5629
	%465 = getelementptr i8, i8*  %459, i64  %464, !dbg !5629
	%466 = bitcast %struct._ZSt9basic_iosIcSt11char_traitsIcEE** %..inline.addr.1060 to i8**, !dbg !5629
	store i8*  %465, i8**  %466, align 8, !tbaa !5847, !dbg !5629
	%467 = bitcast %struct._ZSt9basic_iosIcSt11char_traitsIcEE** %..inline.addr.1070 to i8**, !dbg !5629
	store i8*  %465, i8**  %467, align 8, !tbaa !5847, !dbg !5629
	%468 = load %struct._ZSt9basic_iosIcSt11char_traitsIcEE*, %struct._ZSt9basic_iosIcSt11char_traitsIcEE** %..inline.addr.1070, align 8, !tbaa !5847, !dbg !5629
	%469 = bitcast %struct._ZSt9basic_iosIcSt11char_traitsIcEE*  %468 to i8*, !dbg !5629
	%470 = getelementptr i8, i8*  %469, i64 32, !dbg !5629
	%471 = bitcast i8*  %470 to i32*, !dbg !5629
	%472 = load i32, i32*  %471, align 4, !tbaa !5848, !dbg !5629
	%473 = or i32  %472, 1, !dbg !5629
	%474 = load %struct._ZSt9basic_iosIcSt11char_traitsIcEE*, %struct._ZSt9basic_iosIcSt11char_traitsIcEE** %..inline.addr.1060, align 8, !tbaa !5847, !dbg !5629
	call void  @_ZNSt9basic_iosIcSt11char_traitsIcEE5clearESt12_Ios_Iostate (%struct._ZSt9basic_iosIcSt11char_traitsIcEE*  %474, i32  %473), !dbg !5629
	br label %L..inline.26778, !dbg !5629
L..inline.26757:
	%475 = bitcast [84 x i8]* @.S09979 to i8*, !dbg !5630
	%476 = call i64  @strlen (i8*  %475) nounwind, !dbg !5630
	%477 = call %struct._ZSo*  @_ZSt16__ostream_insertIcSt11char_traitsIcEERSt13basic_ostreamIT_T0_ES6_PKS3_l (%struct._ZSo* @_ZSt4cout, i8*  %475, i64  %476), !dbg !5630
	%478 = bitcast %struct._ZSo*  %477 to i8*, !dbg !5630
	%479 = bitcast %struct._ZSo** %.Q0035.addr to i8**, !dbg !5630
	store i8*  %478, i8**  %479, align 8, !tbaa !5847, !dbg !5630
	br label %L..inline.26778
L..inline.26778:
	%480 = call %struct._ZSo*  @_ZSt4endlIcSt11char_traitsIcEERSt13basic_ostreamIT_T0_ES6_ (%struct._ZSo* @_ZSt4cout), !dbg !5625
	%481 = bitcast %struct._ZSo*  %480 to i8*, !dbg !5625
	%482 = bitcast %struct._ZSo** %.Q0036.addr to i8**, !dbg !5625
	store i8*  %481, i8**  %482, align 8, !tbaa !5847, !dbg !5625
	%483 = bitcast [99 x i8]* @.S09981 to i8*, !dbg !5648
	%484 = icmp ne i8*  %483,  null, !dbg !5648
	br i1  %484, label %L..inline.26798, label %L.B1745, !dbg !5648
L.B1745:
	%485 = bitcast %struct._ZSo* @_ZSt4cout to i8*, !dbg !5629
	%486 = bitcast %struct._ZSo* @_ZSt4cout to i8**, !dbg !5629
	%487 = load i8*, i8**  %486, align 8, !tbaa !5847, !dbg !5629
	%488 = getelementptr i8, i8*  %487, i64 18446744073709551592, !dbg !5629
	%489 = bitcast i8*  %488 to i64*, !dbg !5629
	%490 = load i64, i64*  %489, align 8, !tbaa !5848, !dbg !5629
	%491 = getelementptr i8, i8*  %485, i64  %490, !dbg !5629
	%492 = bitcast %struct._ZSt9basic_iosIcSt11char_traitsIcEE** %..inline.addr.1120 to i8**, !dbg !5629
	store i8*  %491, i8**  %492, align 8, !tbaa !5847, !dbg !5629
	%493 = bitcast %struct._ZSt9basic_iosIcSt11char_traitsIcEE** %..inline.addr.1130 to i8**, !dbg !5629
	store i8*  %491, i8**  %493, align 8, !tbaa !5847, !dbg !5629
	%494 = load %struct._ZSt9basic_iosIcSt11char_traitsIcEE*, %struct._ZSt9basic_iosIcSt11char_traitsIcEE** %..inline.addr.1130, align 8, !tbaa !5847, !dbg !5629
	%495 = bitcast %struct._ZSt9basic_iosIcSt11char_traitsIcEE*  %494 to i8*, !dbg !5629
	%496 = getelementptr i8, i8*  %495, i64 32, !dbg !5629
	%497 = bitcast i8*  %496 to i32*, !dbg !5629
	%498 = load i32, i32*  %497, align 4, !tbaa !5848, !dbg !5629
	%499 = or i32  %498, 1, !dbg !5629
	%500 = load %struct._ZSt9basic_iosIcSt11char_traitsIcEE*, %struct._ZSt9basic_iosIcSt11char_traitsIcEE** %..inline.addr.1120, align 8, !tbaa !5847, !dbg !5629
	call void  @_ZNSt9basic_iosIcSt11char_traitsIcEE5clearESt12_Ios_Iostate (%struct._ZSt9basic_iosIcSt11char_traitsIcEE*  %500, i32  %499), !dbg !5629
	br label %L..inline.26819, !dbg !5629
L..inline.26798:
	%501 = bitcast [99 x i8]* @.S09981 to i8*, !dbg !5630
	%502 = call i64  @strlen (i8*  %501) nounwind, !dbg !5630
	%503 = call %struct._ZSo*  @_ZSt16__ostream_insertIcSt11char_traitsIcEERSt13basic_ostreamIT_T0_ES6_PKS3_l (%struct._ZSo* @_ZSt4cout, i8*  %501, i64  %502), !dbg !5630
	%504 = bitcast %struct._ZSo*  %503 to i8*, !dbg !5630
	%505 = bitcast %struct._ZSo** %.Q0037.addr to i8**, !dbg !5630
	store i8*  %504, i8**  %505, align 8, !tbaa !5847, !dbg !5630
	br label %L..inline.26819
L..inline.26819:
	%506 = call %struct._ZSo*  @_ZSt4endlIcSt11char_traitsIcEERSt13basic_ostreamIT_T0_ES6_ (%struct._ZSo* @_ZSt4cout), !dbg !5625
	%507 = bitcast %struct._ZSo*  %506 to i8*, !dbg !5625
	%508 = bitcast %struct._ZSo** %.Q0038.addr to i8**, !dbg !5625
	store i8*  %507, i8**  %508, align 8, !tbaa !5847, !dbg !5625
	%509 = bitcast [115 x i8]* @.S09984 to i8*, !dbg !5649
	%510 = icmp ne i8*  %509,  null, !dbg !5649
	br i1  %510, label %L..inline.26839, label %L.B1746, !dbg !5649
L.B1746:
	%511 = bitcast %struct._ZSo* @_ZSt4cout to i8*, !dbg !5629
	%512 = bitcast %struct._ZSo* @_ZSt4cout to i8**, !dbg !5629
	%513 = load i8*, i8**  %512, align 8, !tbaa !5847, !dbg !5629
	%514 = getelementptr i8, i8*  %513, i64 18446744073709551592, !dbg !5629
	%515 = bitcast i8*  %514 to i64*, !dbg !5629
	%516 = load i64, i64*  %515, align 8, !tbaa !5848, !dbg !5629
	%517 = getelementptr i8, i8*  %511, i64  %516, !dbg !5629
	%518 = bitcast %struct._ZSt9basic_iosIcSt11char_traitsIcEE** %..inline.addr.1180 to i8**, !dbg !5629
	store i8*  %517, i8**  %518, align 8, !tbaa !5847, !dbg !5629
	%519 = bitcast %struct._ZSt9basic_iosIcSt11char_traitsIcEE** %..inline.addr.1190 to i8**, !dbg !5629
	store i8*  %517, i8**  %519, align 8, !tbaa !5847, !dbg !5629
	%520 = load %struct._ZSt9basic_iosIcSt11char_traitsIcEE*, %struct._ZSt9basic_iosIcSt11char_traitsIcEE** %..inline.addr.1190, align 8, !tbaa !5847, !dbg !5629
	%521 = bitcast %struct._ZSt9basic_iosIcSt11char_traitsIcEE*  %520 to i8*, !dbg !5629
	%522 = getelementptr i8, i8*  %521, i64 32, !dbg !5629
	%523 = bitcast i8*  %522 to i32*, !dbg !5629
	%524 = load i32, i32*  %523, align 4, !tbaa !5848, !dbg !5629
	%525 = or i32  %524, 1, !dbg !5629
	%526 = load %struct._ZSt9basic_iosIcSt11char_traitsIcEE*, %struct._ZSt9basic_iosIcSt11char_traitsIcEE** %..inline.addr.1180, align 8, !tbaa !5847, !dbg !5629
	call void  @_ZNSt9basic_iosIcSt11char_traitsIcEE5clearESt12_Ios_Iostate (%struct._ZSt9basic_iosIcSt11char_traitsIcEE*  %526, i32  %525), !dbg !5629
	br label %L..inline.26860, !dbg !5629
L..inline.26839:
	%527 = bitcast [115 x i8]* @.S09984 to i8*, !dbg !5630
	%528 = call i64  @strlen (i8*  %527) nounwind, !dbg !5630
	%529 = call %struct._ZSo*  @_ZSt16__ostream_insertIcSt11char_traitsIcEERSt13basic_ostreamIT_T0_ES6_PKS3_l (%struct._ZSo* @_ZSt4cout, i8*  %527, i64  %528), !dbg !5630
	%530 = bitcast %struct._ZSo*  %529 to i8*, !dbg !5630
	%531 = bitcast %struct._ZSo** %.Q0039.addr to i8**, !dbg !5630
	store i8*  %530, i8**  %531, align 8, !tbaa !5847, !dbg !5630
	br label %L..inline.26860
L..inline.26860:
	%532 = call %struct._ZSo*  @_ZSt4endlIcSt11char_traitsIcEERSt13basic_ostreamIT_T0_ES6_ (%struct._ZSo* @_ZSt4cout), !dbg !5625
	%533 = bitcast %struct._ZSo*  %532 to i8*, !dbg !5625
	%534 = bitcast %struct._ZSo** %.Q0040.addr to i8**, !dbg !5625
	store i8*  %533, i8**  %534, align 8, !tbaa !5847, !dbg !5625
	%535 = bitcast [134 x i8]* @.S09987 to i8*, !dbg !5650
	%536 = icmp ne i8*  %535,  null, !dbg !5650
	br i1  %536, label %L..inline.26880, label %L.B1747, !dbg !5650
L.B1747:
	%537 = bitcast %struct._ZSo* @_ZSt4cout to i8*, !dbg !5629
	%538 = bitcast %struct._ZSo* @_ZSt4cout to i8**, !dbg !5629
	%539 = load i8*, i8**  %538, align 8, !tbaa !5847, !dbg !5629
	%540 = getelementptr i8, i8*  %539, i64 18446744073709551592, !dbg !5629
	%541 = bitcast i8*  %540 to i64*, !dbg !5629
	%542 = load i64, i64*  %541, align 8, !tbaa !5848, !dbg !5629
	%543 = getelementptr i8, i8*  %537, i64  %542, !dbg !5629
	%544 = bitcast %struct._ZSt9basic_iosIcSt11char_traitsIcEE** %..inline.addr.1240 to i8**, !dbg !5629
	store i8*  %543, i8**  %544, align 8, !tbaa !5847, !dbg !5629
	%545 = bitcast %struct._ZSt9basic_iosIcSt11char_traitsIcEE** %..inline.addr.1250 to i8**, !dbg !5629
	store i8*  %543, i8**  %545, align 8, !tbaa !5847, !dbg !5629
	%546 = load %struct._ZSt9basic_iosIcSt11char_traitsIcEE*, %struct._ZSt9basic_iosIcSt11char_traitsIcEE** %..inline.addr.1250, align 8, !tbaa !5847, !dbg !5629
	%547 = bitcast %struct._ZSt9basic_iosIcSt11char_traitsIcEE*  %546 to i8*, !dbg !5629
	%548 = getelementptr i8, i8*  %547, i64 32, !dbg !5629
	%549 = bitcast i8*  %548 to i32*, !dbg !5629
	%550 = load i32, i32*  %549, align 4, !tbaa !5848, !dbg !5629
	%551 = or i32  %550, 1, !dbg !5629
	%552 = load %struct._ZSt9basic_iosIcSt11char_traitsIcEE*, %struct._ZSt9basic_iosIcSt11char_traitsIcEE** %..inline.addr.1240, align 8, !tbaa !5847, !dbg !5629
	call void  @_ZNSt9basic_iosIcSt11char_traitsIcEE5clearESt12_Ios_Iostate (%struct._ZSt9basic_iosIcSt11char_traitsIcEE*  %552, i32  %551), !dbg !5629
	br label %L..inline.26901, !dbg !5629
L..inline.26880:
	%553 = bitcast [134 x i8]* @.S09987 to i8*, !dbg !5630
	%554 = call i64  @strlen (i8*  %553) nounwind, !dbg !5630
	%555 = call %struct._ZSo*  @_ZSt16__ostream_insertIcSt11char_traitsIcEERSt13basic_ostreamIT_T0_ES6_PKS3_l (%struct._ZSo* @_ZSt4cout, i8*  %553, i64  %554), !dbg !5630
	%556 = bitcast %struct._ZSo*  %555 to i8*, !dbg !5630
	%557 = bitcast %struct._ZSo** %.Q0041.addr to i8**, !dbg !5630
	store i8*  %556, i8**  %557, align 8, !tbaa !5847, !dbg !5630
	br label %L..inline.26901
L..inline.26901:
	%558 = call %struct._ZSo*  @_ZSt4endlIcSt11char_traitsIcEERSt13basic_ostreamIT_T0_ES6_ (%struct._ZSo* @_ZSt4cout), !dbg !5625
	%559 = bitcast %struct._ZSo*  %558 to i8*, !dbg !5625
	%560 = bitcast %struct._ZSo** %.Q0042.addr to i8**, !dbg !5625
	store i8*  %559, i8**  %560, align 8, !tbaa !5847, !dbg !5625
	%561 = bitcast [88 x i8]* @.S09990 to i8*, !dbg !5651
	%562 = icmp ne i8*  %561,  null, !dbg !5651
	br i1  %562, label %L..inline.26921, label %L.B1748, !dbg !5651
L.B1748:
	%563 = bitcast %struct._ZSo* @_ZSt4cout to i8*, !dbg !5629
	%564 = bitcast %struct._ZSo* @_ZSt4cout to i8**, !dbg !5629
	%565 = load i8*, i8**  %564, align 8, !tbaa !5847, !dbg !5629
	%566 = getelementptr i8, i8*  %565, i64 18446744073709551592, !dbg !5629
	%567 = bitcast i8*  %566 to i64*, !dbg !5629
	%568 = load i64, i64*  %567, align 8, !tbaa !5848, !dbg !5629
	%569 = getelementptr i8, i8*  %563, i64  %568, !dbg !5629
	%570 = bitcast %struct._ZSt9basic_iosIcSt11char_traitsIcEE** %..inline.addr.1300 to i8**, !dbg !5629
	store i8*  %569, i8**  %570, align 8, !tbaa !5847, !dbg !5629
	%571 = bitcast %struct._ZSt9basic_iosIcSt11char_traitsIcEE** %..inline.addr.1310 to i8**, !dbg !5629
	store i8*  %569, i8**  %571, align 8, !tbaa !5847, !dbg !5629
	%572 = load %struct._ZSt9basic_iosIcSt11char_traitsIcEE*, %struct._ZSt9basic_iosIcSt11char_traitsIcEE** %..inline.addr.1310, align 8, !tbaa !5847, !dbg !5629
	%573 = bitcast %struct._ZSt9basic_iosIcSt11char_traitsIcEE*  %572 to i8*, !dbg !5629
	%574 = getelementptr i8, i8*  %573, i64 32, !dbg !5629
	%575 = bitcast i8*  %574 to i32*, !dbg !5629
	%576 = load i32, i32*  %575, align 4, !tbaa !5848, !dbg !5629
	%577 = or i32  %576, 1, !dbg !5629
	%578 = load %struct._ZSt9basic_iosIcSt11char_traitsIcEE*, %struct._ZSt9basic_iosIcSt11char_traitsIcEE** %..inline.addr.1300, align 8, !tbaa !5847, !dbg !5629
	call void  @_ZNSt9basic_iosIcSt11char_traitsIcEE5clearESt12_Ios_Iostate (%struct._ZSt9basic_iosIcSt11char_traitsIcEE*  %578, i32  %577), !dbg !5629
	br label %L..inline.26942, !dbg !5629
L..inline.26921:
	%579 = bitcast [88 x i8]* @.S09990 to i8*, !dbg !5630
	%580 = call i64  @strlen (i8*  %579) nounwind, !dbg !5630
	%581 = call %struct._ZSo*  @_ZSt16__ostream_insertIcSt11char_traitsIcEERSt13basic_ostreamIT_T0_ES6_PKS3_l (%struct._ZSo* @_ZSt4cout, i8*  %579, i64  %580), !dbg !5630
	%582 = bitcast %struct._ZSo*  %581 to i8*, !dbg !5630
	%583 = bitcast %struct._ZSo** %.Q0043.addr to i8**, !dbg !5630
	store i8*  %582, i8**  %583, align 8, !tbaa !5847, !dbg !5630
	br label %L..inline.26942
L..inline.26942:
	%584 = call %struct._ZSo*  @_ZSt4endlIcSt11char_traitsIcEERSt13basic_ostreamIT_T0_ES6_ (%struct._ZSo* @_ZSt4cout), !dbg !5625
	%585 = bitcast %struct._ZSo*  %584 to i8*, !dbg !5625
	%586 = bitcast %struct._ZSo** %.Q0044.addr to i8**, !dbg !5625
	store i8*  %585, i8**  %586, align 8, !tbaa !5847, !dbg !5625
	%587 = bitcast [88 x i8]* @.S09992 to i8*, !dbg !5652
	%588 = icmp ne i8*  %587,  null, !dbg !5652
	br i1  %588, label %L..inline.26962, label %L.B1749, !dbg !5652
L.B1749:
	%589 = bitcast %struct._ZSo* @_ZSt4cout to i8*, !dbg !5629
	%590 = bitcast %struct._ZSo* @_ZSt4cout to i8**, !dbg !5629
	%591 = load i8*, i8**  %590, align 8, !tbaa !5847, !dbg !5629
	%592 = getelementptr i8, i8*  %591, i64 18446744073709551592, !dbg !5629
	%593 = bitcast i8*  %592 to i64*, !dbg !5629
	%594 = load i64, i64*  %593, align 8, !tbaa !5848, !dbg !5629
	%595 = getelementptr i8, i8*  %589, i64  %594, !dbg !5629
	%596 = bitcast %struct._ZSt9basic_iosIcSt11char_traitsIcEE** %..inline.addr.1360 to i8**, !dbg !5629
	store i8*  %595, i8**  %596, align 8, !tbaa !5847, !dbg !5629
	%597 = bitcast %struct._ZSt9basic_iosIcSt11char_traitsIcEE** %..inline.addr.1370 to i8**, !dbg !5629
	store i8*  %595, i8**  %597, align 8, !tbaa !5847, !dbg !5629
	%598 = load %struct._ZSt9basic_iosIcSt11char_traitsIcEE*, %struct._ZSt9basic_iosIcSt11char_traitsIcEE** %..inline.addr.1370, align 8, !tbaa !5847, !dbg !5629
	%599 = bitcast %struct._ZSt9basic_iosIcSt11char_traitsIcEE*  %598 to i8*, !dbg !5629
	%600 = getelementptr i8, i8*  %599, i64 32, !dbg !5629
	%601 = bitcast i8*  %600 to i32*, !dbg !5629
	%602 = load i32, i32*  %601, align 4, !tbaa !5848, !dbg !5629
	%603 = or i32  %602, 1, !dbg !5629
	%604 = load %struct._ZSt9basic_iosIcSt11char_traitsIcEE*, %struct._ZSt9basic_iosIcSt11char_traitsIcEE** %..inline.addr.1360, align 8, !tbaa !5847, !dbg !5629
	call void  @_ZNSt9basic_iosIcSt11char_traitsIcEE5clearESt12_Ios_Iostate (%struct._ZSt9basic_iosIcSt11char_traitsIcEE*  %604, i32  %603), !dbg !5629
	br label %L..inline.26983, !dbg !5629
L..inline.26962:
	%605 = bitcast [88 x i8]* @.S09992 to i8*, !dbg !5630
	%606 = call i64  @strlen (i8*  %605) nounwind, !dbg !5630
	%607 = call %struct._ZSo*  @_ZSt16__ostream_insertIcSt11char_traitsIcEERSt13basic_ostreamIT_T0_ES6_PKS3_l (%struct._ZSo* @_ZSt4cout, i8*  %605, i64  %606), !dbg !5630
	%608 = bitcast %struct._ZSo*  %607 to i8*, !dbg !5630
	%609 = bitcast %struct._ZSo** %.Q0045.addr to i8**, !dbg !5630
	store i8*  %608, i8**  %609, align 8, !tbaa !5847, !dbg !5630
	br label %L..inline.26983
L..inline.26983:
	%610 = call %struct._ZSo*  @_ZSt4endlIcSt11char_traitsIcEERSt13basic_ostreamIT_T0_ES6_ (%struct._ZSo* @_ZSt4cout), !dbg !5625
	%611 = bitcast %struct._ZSo*  %610 to i8*, !dbg !5625
	%612 = bitcast %struct._ZSo** %.Q0046.addr to i8**, !dbg !5625
	store i8*  %611, i8**  %612, align 8, !tbaa !5847, !dbg !5625
	%613 = bitcast [89 x i8]* @.S09995 to i8*, !dbg !5653
	%614 = icmp ne i8*  %613,  null, !dbg !5653
	br i1  %614, label %L..inline.27003, label %L.B1750, !dbg !5653
L.B1750:
	%615 = bitcast %struct._ZSo* @_ZSt4cout to i8*, !dbg !5629
	%616 = bitcast %struct._ZSo* @_ZSt4cout to i8**, !dbg !5629
	%617 = load i8*, i8**  %616, align 8, !tbaa !5847, !dbg !5629
	%618 = getelementptr i8, i8*  %617, i64 18446744073709551592, !dbg !5629
	%619 = bitcast i8*  %618 to i64*, !dbg !5629
	%620 = load i64, i64*  %619, align 8, !tbaa !5848, !dbg !5629
	%621 = getelementptr i8, i8*  %615, i64  %620, !dbg !5629
	%622 = bitcast %struct._ZSt9basic_iosIcSt11char_traitsIcEE** %..inline.addr.1420 to i8**, !dbg !5629
	store i8*  %621, i8**  %622, align 8, !tbaa !5847, !dbg !5629
	%623 = bitcast %struct._ZSt9basic_iosIcSt11char_traitsIcEE** %..inline.addr.1430 to i8**, !dbg !5629
	store i8*  %621, i8**  %623, align 8, !tbaa !5847, !dbg !5629
	%624 = load %struct._ZSt9basic_iosIcSt11char_traitsIcEE*, %struct._ZSt9basic_iosIcSt11char_traitsIcEE** %..inline.addr.1430, align 8, !tbaa !5847, !dbg !5629
	%625 = bitcast %struct._ZSt9basic_iosIcSt11char_traitsIcEE*  %624 to i8*, !dbg !5629
	%626 = getelementptr i8, i8*  %625, i64 32, !dbg !5629
	%627 = bitcast i8*  %626 to i32*, !dbg !5629
	%628 = load i32, i32*  %627, align 4, !tbaa !5848, !dbg !5629
	%629 = or i32  %628, 1, !dbg !5629
	%630 = load %struct._ZSt9basic_iosIcSt11char_traitsIcEE*, %struct._ZSt9basic_iosIcSt11char_traitsIcEE** %..inline.addr.1420, align 8, !tbaa !5847, !dbg !5629
	call void  @_ZNSt9basic_iosIcSt11char_traitsIcEE5clearESt12_Ios_Iostate (%struct._ZSt9basic_iosIcSt11char_traitsIcEE*  %630, i32  %629), !dbg !5629
	br label %L..inline.27024, !dbg !5629
L..inline.27003:
	%631 = bitcast [89 x i8]* @.S09995 to i8*, !dbg !5630
	%632 = call i64  @strlen (i8*  %631) nounwind, !dbg !5630
	%633 = call %struct._ZSo*  @_ZSt16__ostream_insertIcSt11char_traitsIcEERSt13basic_ostreamIT_T0_ES6_PKS3_l (%struct._ZSo* @_ZSt4cout, i8*  %631, i64  %632), !dbg !5630
	%634 = bitcast %struct._ZSo*  %633 to i8*, !dbg !5630
	%635 = bitcast %struct._ZSo** %.Q0047.addr to i8**, !dbg !5630
	store i8*  %634, i8**  %635, align 8, !tbaa !5847, !dbg !5630
	br label %L..inline.27024
L..inline.27024:
	%636 = call %struct._ZSo*  @_ZSt4endlIcSt11char_traitsIcEERSt13basic_ostreamIT_T0_ES6_ (%struct._ZSo* @_ZSt4cout), !dbg !5625
	%637 = bitcast %struct._ZSo*  %636 to i8*, !dbg !5625
	%638 = bitcast %struct._ZSo** %.Q0048.addr to i8**, !dbg !5625
	store i8*  %637, i8**  %638, align 8, !tbaa !5847, !dbg !5625
	%639 = call %struct._ZSo*  @_ZSt4endlIcSt11char_traitsIcEERSt13basic_ostreamIT_T0_ES6_ (%struct._ZSo* @_ZSt4cout), !dbg !5625
	%640 = bitcast %struct._ZSo*  %639 to i8*, !dbg !5625
	%641 = bitcast %struct._ZSo** %.Q0049.addr to i8**, !dbg !5625
	store i8*  %640, i8**  %641, align 8, !tbaa !5847, !dbg !5625
	%642 = load %struct._ZSo*, %struct._ZSo** %.Q0049.addr, align 8, !tbaa !5847, !dbg !5625
	%643 = bitcast %struct._ZSo*  %642 to i8*, !dbg !5625
	%644 = bitcast %struct._ZSo** %..inline.addr.1490 to i8**, !dbg !5625
	store i8*  %643, i8**  %644, align 8, !tbaa !5847, !dbg !5625
	%645 = bitcast [35 x i8]* @.S09997 to i8*, !dbg !5654
	%646 = icmp ne i8*  %645,  null, !dbg !5654
	br i1  %646, label %L..inline.27050, label %L.B1751, !dbg !5654
L.B1751:
	%647 = load %struct._ZSo*, %struct._ZSo** %..inline.addr.1490, align 8, !tbaa !5847, !dbg !5629
	%648 = bitcast %struct._ZSo*  %647 to i8*, !dbg !5629
	%649 = bitcast %struct._ZSo*  %647 to i8**, !dbg !5629
	%650 = load i8*, i8**  %649, align 8, !tbaa !5847, !dbg !5629
	%651 = getelementptr i8, i8*  %650, i64 18446744073709551592, !dbg !5629
	%652 = bitcast i8*  %651 to i64*, !dbg !5629
	%653 = load i64, i64*  %652, align 8, !tbaa !5848, !dbg !5629
	%654 = getelementptr i8, i8*  %648, i64  %653, !dbg !5629
	%655 = bitcast %struct._ZSt9basic_iosIcSt11char_traitsIcEE** %..inline.addr.1500 to i8**, !dbg !5629
	store i8*  %654, i8**  %655, align 8, !tbaa !5847, !dbg !5629
	%656 = bitcast %struct._ZSt9basic_iosIcSt11char_traitsIcEE** %..inline.addr.1510 to i8**, !dbg !5629
	store i8*  %654, i8**  %656, align 8, !tbaa !5847, !dbg !5629
	%657 = load %struct._ZSt9basic_iosIcSt11char_traitsIcEE*, %struct._ZSt9basic_iosIcSt11char_traitsIcEE** %..inline.addr.1510, align 8, !tbaa !5847, !dbg !5629
	%658 = bitcast %struct._ZSt9basic_iosIcSt11char_traitsIcEE*  %657 to i8*, !dbg !5629
	%659 = getelementptr i8, i8*  %658, i64 32, !dbg !5629
	%660 = bitcast i8*  %659 to i32*, !dbg !5629
	%661 = load i32, i32*  %660, align 4, !tbaa !5848, !dbg !5629
	%662 = or i32  %661, 1, !dbg !5629
	%663 = load %struct._ZSt9basic_iosIcSt11char_traitsIcEE*, %struct._ZSt9basic_iosIcSt11char_traitsIcEE** %..inline.addr.1500, align 8, !tbaa !5847, !dbg !5629
	call void  @_ZNSt9basic_iosIcSt11char_traitsIcEE5clearESt12_Ios_Iostate (%struct._ZSt9basic_iosIcSt11char_traitsIcEE*  %663, i32  %662), !dbg !5629
	br label %L..inline.27071, !dbg !5629
L..inline.27050:
	%664 = bitcast [35 x i8]* @.S09997 to i8*, !dbg !5630
	%665 = call i64  @strlen (i8*  %664) nounwind, !dbg !5630
	%666 = load %struct._ZSo*, %struct._ZSo** %..inline.addr.1490, align 8, !tbaa !5847, !dbg !5630
	%667 = call %struct._ZSo*  @_ZSt16__ostream_insertIcSt11char_traitsIcEERSt13basic_ostreamIT_T0_ES6_PKS3_l (%struct._ZSo*  %666, i8*  %664, i64  %665), !dbg !5630
	%668 = bitcast %struct._ZSo*  %667 to i8*, !dbg !5630
	%669 = bitcast %struct._ZSo** %.Q0050.addr to i8**, !dbg !5630
	store i8*  %668, i8**  %669, align 8, !tbaa !5847, !dbg !5630
	br label %L..inline.27071
L..inline.27071:
	%670 = load %struct._ZSo*, %struct._ZSo** %..inline.addr.1490, align 8, !tbaa !5847, !dbg !5631
	%671 = bitcast %struct._ZSo*  %670 to i8*, !dbg !5631
	%672 = bitcast %struct._ZSo** %..inline.addr.1550 to i8**, !dbg !5631
	store i8*  %671, i8**  %672, align 8, !tbaa !5847, !dbg !5631
	%673 = load %struct._ZSo*, %struct._ZSo** %..inline.addr.1550, align 8, !tbaa !5847, !dbg !5625
	%674 = call %struct._ZSo*  @_ZSt4endlIcSt11char_traitsIcEERSt13basic_ostreamIT_T0_ES6_ (%struct._ZSo*  %673), !dbg !5625
	%675 = bitcast %struct._ZSo*  %674 to i8*, !dbg !5625
	%676 = bitcast %struct._ZSo** %.Q0051.addr to i8**, !dbg !5625
	store i8*  %675, i8**  %676, align 8, !tbaa !5847, !dbg !5625
	%677 = bitcast [58 x i8]* @.S09999 to i8*, !dbg !5655
	%678 = icmp ne i8*  %677,  null, !dbg !5655
	br i1  %678, label %L..inline.27092, label %L.B1752, !dbg !5655
L.B1752:
	%679 = bitcast %struct._ZSo* @_ZSt4cout to i8*, !dbg !5629
	%680 = bitcast %struct._ZSo* @_ZSt4cout to i8**, !dbg !5629
	%681 = load i8*, i8**  %680, align 8, !tbaa !5847, !dbg !5629
	%682 = getelementptr i8, i8*  %681, i64 18446744073709551592, !dbg !5629
	%683 = bitcast i8*  %682 to i64*, !dbg !5629
	%684 = load i64, i64*  %683, align 8, !tbaa !5848, !dbg !5629
	%685 = getelementptr i8, i8*  %679, i64  %684, !dbg !5629
	%686 = bitcast %struct._ZSt9basic_iosIcSt11char_traitsIcEE** %..inline.addr.1570 to i8**, !dbg !5629
	store i8*  %685, i8**  %686, align 8, !tbaa !5847, !dbg !5629
	%687 = bitcast %struct._ZSt9basic_iosIcSt11char_traitsIcEE** %..inline.addr.1580 to i8**, !dbg !5629
	store i8*  %685, i8**  %687, align 8, !tbaa !5847, !dbg !5629
	%688 = load %struct._ZSt9basic_iosIcSt11char_traitsIcEE*, %struct._ZSt9basic_iosIcSt11char_traitsIcEE** %..inline.addr.1580, align 8, !tbaa !5847, !dbg !5629
	%689 = bitcast %struct._ZSt9basic_iosIcSt11char_traitsIcEE*  %688 to i8*, !dbg !5629
	%690 = getelementptr i8, i8*  %689, i64 32, !dbg !5629
	%691 = bitcast i8*  %690 to i32*, !dbg !5629
	%692 = load i32, i32*  %691, align 4, !tbaa !5848, !dbg !5629
	%693 = or i32  %692, 1, !dbg !5629
	%694 = load %struct._ZSt9basic_iosIcSt11char_traitsIcEE*, %struct._ZSt9basic_iosIcSt11char_traitsIcEE** %..inline.addr.1570, align 8, !tbaa !5847, !dbg !5629
	call void  @_ZNSt9basic_iosIcSt11char_traitsIcEE5clearESt12_Ios_Iostate (%struct._ZSt9basic_iosIcSt11char_traitsIcEE*  %694, i32  %693), !dbg !5629
	br label %L..inline.27113, !dbg !5629
L..inline.27092:
	%695 = bitcast [58 x i8]* @.S09999 to i8*, !dbg !5630
	%696 = call i64  @strlen (i8*  %695) nounwind, !dbg !5630
	%697 = call %struct._ZSo*  @_ZSt16__ostream_insertIcSt11char_traitsIcEERSt13basic_ostreamIT_T0_ES6_PKS3_l (%struct._ZSo* @_ZSt4cout, i8*  %695, i64  %696), !dbg !5630
	%698 = bitcast %struct._ZSo*  %697 to i8*, !dbg !5630
	%699 = bitcast %struct._ZSo** %.Q0052.addr to i8**, !dbg !5630
	store i8*  %698, i8**  %699, align 8, !tbaa !5847, !dbg !5630
	br label %L..inline.27113
L..inline.27113:
	%700 = call %struct._ZSo*  @_ZSt4endlIcSt11char_traitsIcEERSt13basic_ostreamIT_T0_ES6_ (%struct._ZSo* @_ZSt4cout), !dbg !5625
	%701 = bitcast %struct._ZSo*  %700 to i8*, !dbg !5625
	%702 = bitcast %struct._ZSo** %.Q0053.addr to i8**, !dbg !5625
	store i8*  %701, i8**  %702, align 8, !tbaa !5847, !dbg !5625
	%703 = call %struct._ZSo*  @_ZSt4endlIcSt11char_traitsIcEERSt13basic_ostreamIT_T0_ES6_ (%struct._ZSo* @_ZSt4cout), !dbg !5625
	%704 = bitcast %struct._ZSo*  %703 to i8*, !dbg !5625
	%705 = bitcast %struct._ZSo** %.Q0054.addr to i8**, !dbg !5625
	store i8*  %704, i8**  %705, align 8, !tbaa !5847, !dbg !5625
	%706 = load %struct._ZSo*, %struct._ZSo** %.Q0054.addr, align 8, !tbaa !5847, !dbg !5625
	%707 = bitcast %struct._ZSo*  %706 to i8*, !dbg !5625
	%708 = bitcast %struct._ZSo** %..inline.addr.1640 to i8**, !dbg !5625
	store i8*  %707, i8**  %708, align 8, !tbaa !5847, !dbg !5625
	%709 = bitcast [34 x i8]* @.S10001 to i8*, !dbg !5656
	%710 = icmp ne i8*  %709,  null, !dbg !5656
	br i1  %710, label %L..inline.27139, label %L.B1753, !dbg !5656
L.B1753:
	%711 = load %struct._ZSo*, %struct._ZSo** %..inline.addr.1640, align 8, !tbaa !5847, !dbg !5629
	%712 = bitcast %struct._ZSo*  %711 to i8*, !dbg !5629
	%713 = bitcast %struct._ZSo*  %711 to i8**, !dbg !5629
	%714 = load i8*, i8**  %713, align 8, !tbaa !5847, !dbg !5629
	%715 = getelementptr i8, i8*  %714, i64 18446744073709551592, !dbg !5629
	%716 = bitcast i8*  %715 to i64*, !dbg !5629
	%717 = load i64, i64*  %716, align 8, !tbaa !5848, !dbg !5629
	%718 = getelementptr i8, i8*  %712, i64  %717, !dbg !5629
	%719 = bitcast %struct._ZSt9basic_iosIcSt11char_traitsIcEE** %..inline.addr.1650 to i8**, !dbg !5629
	store i8*  %718, i8**  %719, align 8, !tbaa !5847, !dbg !5629
	%720 = bitcast %struct._ZSt9basic_iosIcSt11char_traitsIcEE** %..inline.addr.1660 to i8**, !dbg !5629
	store i8*  %718, i8**  %720, align 8, !tbaa !5847, !dbg !5629
	%721 = load %struct._ZSt9basic_iosIcSt11char_traitsIcEE*, %struct._ZSt9basic_iosIcSt11char_traitsIcEE** %..inline.addr.1660, align 8, !tbaa !5847, !dbg !5629
	%722 = bitcast %struct._ZSt9basic_iosIcSt11char_traitsIcEE*  %721 to i8*, !dbg !5629
	%723 = getelementptr i8, i8*  %722, i64 32, !dbg !5629
	%724 = bitcast i8*  %723 to i32*, !dbg !5629
	%725 = load i32, i32*  %724, align 4, !tbaa !5848, !dbg !5629
	%726 = or i32  %725, 1, !dbg !5629
	%727 = load %struct._ZSt9basic_iosIcSt11char_traitsIcEE*, %struct._ZSt9basic_iosIcSt11char_traitsIcEE** %..inline.addr.1650, align 8, !tbaa !5847, !dbg !5629
	call void  @_ZNSt9basic_iosIcSt11char_traitsIcEE5clearESt12_Ios_Iostate (%struct._ZSt9basic_iosIcSt11char_traitsIcEE*  %727, i32  %726), !dbg !5629
	br label %L..inline.27160, !dbg !5629
L..inline.27139:
	%728 = bitcast [34 x i8]* @.S10001 to i8*, !dbg !5630
	%729 = call i64  @strlen (i8*  %728) nounwind, !dbg !5630
	%730 = load %struct._ZSo*, %struct._ZSo** %..inline.addr.1640, align 8, !tbaa !5847, !dbg !5630
	%731 = call %struct._ZSo*  @_ZSt16__ostream_insertIcSt11char_traitsIcEERSt13basic_ostreamIT_T0_ES6_PKS3_l (%struct._ZSo*  %730, i8*  %728, i64  %729), !dbg !5630
	%732 = bitcast %struct._ZSo*  %731 to i8*, !dbg !5630
	%733 = bitcast %struct._ZSo** %.Q0055.addr to i8**, !dbg !5630
	store i8*  %732, i8**  %733, align 8, !tbaa !5847, !dbg !5630
	br label %L..inline.27160
L..inline.27160:
	%734 = load %struct._ZSo*, %struct._ZSo** %..inline.addr.1640, align 8, !tbaa !5847, !dbg !5631
	%735 = bitcast %struct._ZSo*  %734 to i8*, !dbg !5631
	%736 = bitcast %struct._ZSo** %..inline.addr.1700 to i8**, !dbg !5631
	store i8*  %735, i8**  %736, align 8, !tbaa !5847, !dbg !5631
	%737 = load %struct._ZSo*, %struct._ZSo** %..inline.addr.1700, align 8, !tbaa !5847, !dbg !5625
	%738 = call %struct._ZSo*  @_ZSt4endlIcSt11char_traitsIcEERSt13basic_ostreamIT_T0_ES6_ (%struct._ZSo*  %737), !dbg !5625
	%739 = bitcast %struct._ZSo*  %738 to i8*, !dbg !5625
	%740 = bitcast %struct._ZSo** %.Q0056.addr to i8**, !dbg !5625
	store i8*  %739, i8**  %740, align 8, !tbaa !5847, !dbg !5625
	%741 = bitcast [19 x i8]* @.S10003 to i8*, !dbg !5657
	%742 = icmp ne i8*  %741,  null, !dbg !5657
	br i1  %742, label %L..inline.27181, label %L.B1754, !dbg !5657
L.B1754:
	%743 = bitcast %struct._ZSo* @_ZSt4cout to i8*, !dbg !5629
	%744 = bitcast %struct._ZSo* @_ZSt4cout to i8**, !dbg !5629
	%745 = load i8*, i8**  %744, align 8, !tbaa !5847, !dbg !5629
	%746 = getelementptr i8, i8*  %745, i64 18446744073709551592, !dbg !5629
	%747 = bitcast i8*  %746 to i64*, !dbg !5629
	%748 = load i64, i64*  %747, align 8, !tbaa !5848, !dbg !5629
	%749 = getelementptr i8, i8*  %743, i64  %748, !dbg !5629
	%750 = bitcast %struct._ZSt9basic_iosIcSt11char_traitsIcEE** %..inline.addr.1720 to i8**, !dbg !5629
	store i8*  %749, i8**  %750, align 8, !tbaa !5847, !dbg !5629
	%751 = bitcast %struct._ZSt9basic_iosIcSt11char_traitsIcEE** %..inline.addr.1730 to i8**, !dbg !5629
	store i8*  %749, i8**  %751, align 8, !tbaa !5847, !dbg !5629
	%752 = load %struct._ZSt9basic_iosIcSt11char_traitsIcEE*, %struct._ZSt9basic_iosIcSt11char_traitsIcEE** %..inline.addr.1730, align 8, !tbaa !5847, !dbg !5629
	%753 = bitcast %struct._ZSt9basic_iosIcSt11char_traitsIcEE*  %752 to i8*, !dbg !5629
	%754 = getelementptr i8, i8*  %753, i64 32, !dbg !5629
	%755 = bitcast i8*  %754 to i32*, !dbg !5629
	%756 = load i32, i32*  %755, align 4, !tbaa !5848, !dbg !5629
	%757 = or i32  %756, 1, !dbg !5629
	%758 = load %struct._ZSt9basic_iosIcSt11char_traitsIcEE*, %struct._ZSt9basic_iosIcSt11char_traitsIcEE** %..inline.addr.1720, align 8, !tbaa !5847, !dbg !5629
	call void  @_ZNSt9basic_iosIcSt11char_traitsIcEE5clearESt12_Ios_Iostate (%struct._ZSt9basic_iosIcSt11char_traitsIcEE*  %758, i32  %757), !dbg !5629
	br label %L..inline.27202, !dbg !5629
L..inline.27181:
	%759 = bitcast [19 x i8]* @.S10003 to i8*, !dbg !5630
	%760 = call i64  @strlen (i8*  %759) nounwind, !dbg !5630
	%761 = call %struct._ZSo*  @_ZSt16__ostream_insertIcSt11char_traitsIcEERSt13basic_ostreamIT_T0_ES6_PKS3_l (%struct._ZSo* @_ZSt4cout, i8*  %759, i64  %760), !dbg !5630
	%762 = bitcast %struct._ZSo*  %761 to i8*, !dbg !5630
	%763 = bitcast %struct._ZSo** %.Q0057.addr to i8**, !dbg !5630
	store i8*  %762, i8**  %763, align 8, !tbaa !5847, !dbg !5630
	br label %L..inline.27202
L..inline.27202:
	%764 = call %struct._ZSo*  @_ZSt4endlIcSt11char_traitsIcEERSt13basic_ostreamIT_T0_ES6_ (%struct._ZSo* @_ZSt4cout), !dbg !5625
	%765 = bitcast %struct._ZSo*  %764 to i8*, !dbg !5625
	%766 = bitcast %struct._ZSo** %.Q0058.addr to i8**, !dbg !5625
	store i8*  %765, i8**  %766, align 8, !tbaa !5847, !dbg !5625
	%767 = bitcast [80 x i8]* @.S10006 to i8*, !dbg !5658
	%768 = icmp ne i8*  %767,  null, !dbg !5658
	br i1  %768, label %L..inline.27222, label %L.B1755, !dbg !5658
L.B1755:
	%769 = bitcast %struct._ZSo* @_ZSt4cout to i8*, !dbg !5629
	%770 = bitcast %struct._ZSo* @_ZSt4cout to i8**, !dbg !5629
	%771 = load i8*, i8**  %770, align 8, !tbaa !5847, !dbg !5629
	%772 = getelementptr i8, i8*  %771, i64 18446744073709551592, !dbg !5629
	%773 = bitcast i8*  %772 to i64*, !dbg !5629
	%774 = load i64, i64*  %773, align 8, !tbaa !5848, !dbg !5629
	%775 = getelementptr i8, i8*  %769, i64  %774, !dbg !5629
	%776 = bitcast %struct._ZSt9basic_iosIcSt11char_traitsIcEE** %..inline.addr.1780 to i8**, !dbg !5629
	store i8*  %775, i8**  %776, align 8, !tbaa !5847, !dbg !5629
	%777 = bitcast %struct._ZSt9basic_iosIcSt11char_traitsIcEE** %..inline.addr.1790 to i8**, !dbg !5629
	store i8*  %775, i8**  %777, align 8, !tbaa !5847, !dbg !5629
	%778 = load %struct._ZSt9basic_iosIcSt11char_traitsIcEE*, %struct._ZSt9basic_iosIcSt11char_traitsIcEE** %..inline.addr.1790, align 8, !tbaa !5847, !dbg !5629
	%779 = bitcast %struct._ZSt9basic_iosIcSt11char_traitsIcEE*  %778 to i8*, !dbg !5629
	%780 = getelementptr i8, i8*  %779, i64 32, !dbg !5629
	%781 = bitcast i8*  %780 to i32*, !dbg !5629
	%782 = load i32, i32*  %781, align 4, !tbaa !5848, !dbg !5629
	%783 = or i32  %782, 1, !dbg !5629
	%784 = load %struct._ZSt9basic_iosIcSt11char_traitsIcEE*, %struct._ZSt9basic_iosIcSt11char_traitsIcEE** %..inline.addr.1780, align 8, !tbaa !5847, !dbg !5629
	call void  @_ZNSt9basic_iosIcSt11char_traitsIcEE5clearESt12_Ios_Iostate (%struct._ZSt9basic_iosIcSt11char_traitsIcEE*  %784, i32  %783), !dbg !5629
	br label %L..inline.27243, !dbg !5629
L..inline.27222:
	%785 = bitcast [80 x i8]* @.S10006 to i8*, !dbg !5630
	%786 = call i64  @strlen (i8*  %785) nounwind, !dbg !5630
	%787 = call %struct._ZSo*  @_ZSt16__ostream_insertIcSt11char_traitsIcEERSt13basic_ostreamIT_T0_ES6_PKS3_l (%struct._ZSo* @_ZSt4cout, i8*  %785, i64  %786), !dbg !5630
	%788 = bitcast %struct._ZSo*  %787 to i8*, !dbg !5630
	%789 = bitcast %struct._ZSo** %.Q0059.addr to i8**, !dbg !5630
	store i8*  %788, i8**  %789, align 8, !tbaa !5847, !dbg !5630
	br label %L..inline.27243
L..inline.27243:
	%790 = call %struct._ZSo*  @_ZSt4endlIcSt11char_traitsIcEERSt13basic_ostreamIT_T0_ES6_ (%struct._ZSo* @_ZSt4cout), !dbg !5625
	%791 = bitcast %struct._ZSo*  %790 to i8*, !dbg !5625
	%792 = bitcast %struct._ZSo** %.Q0060.addr to i8**, !dbg !5625
	store i8*  %791, i8**  %792, align 8, !tbaa !5847, !dbg !5625
	%793 = bitcast [47 x i8]* @.S10009 to i8*, !dbg !5659
	%794 = icmp ne i8*  %793,  null, !dbg !5659
	br i1  %794, label %L..inline.27263, label %L.B1756, !dbg !5659
L.B1756:
	%795 = bitcast %struct._ZSo* @_ZSt4cout to i8*, !dbg !5629
	%796 = bitcast %struct._ZSo* @_ZSt4cout to i8**, !dbg !5629
	%797 = load i8*, i8**  %796, align 8, !tbaa !5847, !dbg !5629
	%798 = getelementptr i8, i8*  %797, i64 18446744073709551592, !dbg !5629
	%799 = bitcast i8*  %798 to i64*, !dbg !5629
	%800 = load i64, i64*  %799, align 8, !tbaa !5848, !dbg !5629
	%801 = getelementptr i8, i8*  %795, i64  %800, !dbg !5629
	%802 = bitcast %struct._ZSt9basic_iosIcSt11char_traitsIcEE** %..inline.addr.1840 to i8**, !dbg !5629
	store i8*  %801, i8**  %802, align 8, !tbaa !5847, !dbg !5629
	%803 = bitcast %struct._ZSt9basic_iosIcSt11char_traitsIcEE** %..inline.addr.1850 to i8**, !dbg !5629
	store i8*  %801, i8**  %803, align 8, !tbaa !5847, !dbg !5629
	%804 = load %struct._ZSt9basic_iosIcSt11char_traitsIcEE*, %struct._ZSt9basic_iosIcSt11char_traitsIcEE** %..inline.addr.1850, align 8, !tbaa !5847, !dbg !5629
	%805 = bitcast %struct._ZSt9basic_iosIcSt11char_traitsIcEE*  %804 to i8*, !dbg !5629
	%806 = getelementptr i8, i8*  %805, i64 32, !dbg !5629
	%807 = bitcast i8*  %806 to i32*, !dbg !5629
	%808 = load i32, i32*  %807, align 4, !tbaa !5848, !dbg !5629
	%809 = or i32  %808, 1, !dbg !5629
	%810 = load %struct._ZSt9basic_iosIcSt11char_traitsIcEE*, %struct._ZSt9basic_iosIcSt11char_traitsIcEE** %..inline.addr.1840, align 8, !tbaa !5847, !dbg !5629
	call void  @_ZNSt9basic_iosIcSt11char_traitsIcEE5clearESt12_Ios_Iostate (%struct._ZSt9basic_iosIcSt11char_traitsIcEE*  %810, i32  %809), !dbg !5629
	br label %L..inline.27284, !dbg !5629
L..inline.27263:
	%811 = bitcast [47 x i8]* @.S10009 to i8*, !dbg !5630
	%812 = call i64  @strlen (i8*  %811) nounwind, !dbg !5630
	%813 = call %struct._ZSo*  @_ZSt16__ostream_insertIcSt11char_traitsIcEERSt13basic_ostreamIT_T0_ES6_PKS3_l (%struct._ZSo* @_ZSt4cout, i8*  %811, i64  %812), !dbg !5630
	%814 = bitcast %struct._ZSo*  %813 to i8*, !dbg !5630
	%815 = bitcast %struct._ZSo** %.Q0061.addr to i8**, !dbg !5630
	store i8*  %814, i8**  %815, align 8, !tbaa !5847, !dbg !5630
	br label %L..inline.27284
L..inline.27284:
	%816 = call %struct._ZSo*  @_ZSt4endlIcSt11char_traitsIcEERSt13basic_ostreamIT_T0_ES6_ (%struct._ZSo* @_ZSt4cout), !dbg !5625
	%817 = bitcast %struct._ZSo*  %816 to i8*, !dbg !5625
	%818 = bitcast %struct._ZSo** %.Q0062.addr to i8**, !dbg !5625
	store i8*  %817, i8**  %818, align 8, !tbaa !5847, !dbg !5625
	%819 = bitcast [1 x i8]* @.S10011 to i8*, !dbg !5660
	%820 = icmp ne i8*  %819,  null, !dbg !5660
	br i1  %820, label %L..inline.27304, label %L.B1757, !dbg !5660
L.B1757:
	%821 = bitcast %struct._ZSo* @_ZSt4cout to i8*, !dbg !5629
	%822 = bitcast %struct._ZSo* @_ZSt4cout to i8**, !dbg !5629
	%823 = load i8*, i8**  %822, align 8, !tbaa !5847, !dbg !5629
	%824 = getelementptr i8, i8*  %823, i64 18446744073709551592, !dbg !5629
	%825 = bitcast i8*  %824 to i64*, !dbg !5629
	%826 = load i64, i64*  %825, align 8, !tbaa !5848, !dbg !5629
	%827 = getelementptr i8, i8*  %821, i64  %826, !dbg !5629
	%828 = bitcast %struct._ZSt9basic_iosIcSt11char_traitsIcEE** %..inline.addr.1900 to i8**, !dbg !5629
	store i8*  %827, i8**  %828, align 8, !tbaa !5847, !dbg !5629
	%829 = bitcast %struct._ZSt9basic_iosIcSt11char_traitsIcEE** %..inline.addr.1910 to i8**, !dbg !5629
	store i8*  %827, i8**  %829, align 8, !tbaa !5847, !dbg !5629
	%830 = load %struct._ZSt9basic_iosIcSt11char_traitsIcEE*, %struct._ZSt9basic_iosIcSt11char_traitsIcEE** %..inline.addr.1910, align 8, !tbaa !5847, !dbg !5629
	%831 = bitcast %struct._ZSt9basic_iosIcSt11char_traitsIcEE*  %830 to i8*, !dbg !5629
	%832 = getelementptr i8, i8*  %831, i64 32, !dbg !5629
	%833 = bitcast i8*  %832 to i32*, !dbg !5629
	%834 = load i32, i32*  %833, align 4, !tbaa !5848, !dbg !5629
	%835 = or i32  %834, 1, !dbg !5629
	%836 = load %struct._ZSt9basic_iosIcSt11char_traitsIcEE*, %struct._ZSt9basic_iosIcSt11char_traitsIcEE** %..inline.addr.1900, align 8, !tbaa !5847, !dbg !5629
	call void  @_ZNSt9basic_iosIcSt11char_traitsIcEE5clearESt12_Ios_Iostate (%struct._ZSt9basic_iosIcSt11char_traitsIcEE*  %836, i32  %835), !dbg !5629
	br label %L..inline.27325, !dbg !5629
L..inline.27304:
	%837 = bitcast [1 x i8]* @.S10011 to i8*, !dbg !5630
	%838 = call i64  @strlen (i8*  %837) nounwind, !dbg !5630
	%839 = call %struct._ZSo*  @_ZSt16__ostream_insertIcSt11char_traitsIcEERSt13basic_ostreamIT_T0_ES6_PKS3_l (%struct._ZSo* @_ZSt4cout, i8*  %837, i64  %838), !dbg !5630
	%840 = bitcast %struct._ZSo*  %839 to i8*, !dbg !5630
	%841 = bitcast %struct._ZSo** %.Q0063.addr to i8**, !dbg !5630
	store i8*  %840, i8**  %841, align 8, !tbaa !5847, !dbg !5630
	br label %L..inline.27325
L..inline.27325:
	%842 = call %struct._ZSo*  @_ZSt4endlIcSt11char_traitsIcEERSt13basic_ostreamIT_T0_ES6_ (%struct._ZSo* @_ZSt4cout), !dbg !5625
	%843 = bitcast %struct._ZSo*  %842 to i8*, !dbg !5625
	%844 = bitcast %struct._ZSo** %.Q0064.addr to i8**, !dbg !5625
	store i8*  %843, i8**  %844, align 8, !tbaa !5847, !dbg !5625
	%845 = bitcast [31 x i8]* @.S10014 to i8*, !dbg !5661
	%846 = icmp ne i8*  %845,  null, !dbg !5661
	br i1  %846, label %L..inline.27345, label %L.B1758, !dbg !5661
L.B1758:
	%847 = bitcast %struct._ZSo* @_ZSt4cout to i8*, !dbg !5629
	%848 = bitcast %struct._ZSo* @_ZSt4cout to i8**, !dbg !5629
	%849 = load i8*, i8**  %848, align 8, !tbaa !5847, !dbg !5629
	%850 = getelementptr i8, i8*  %849, i64 18446744073709551592, !dbg !5629
	%851 = bitcast i8*  %850 to i64*, !dbg !5629
	%852 = load i64, i64*  %851, align 8, !tbaa !5848, !dbg !5629
	%853 = getelementptr i8, i8*  %847, i64  %852, !dbg !5629
	%854 = bitcast %struct._ZSt9basic_iosIcSt11char_traitsIcEE** %..inline.addr.1960 to i8**, !dbg !5629
	store i8*  %853, i8**  %854, align 8, !tbaa !5847, !dbg !5629
	%855 = bitcast %struct._ZSt9basic_iosIcSt11char_traitsIcEE** %..inline.addr.1970 to i8**, !dbg !5629
	store i8*  %853, i8**  %855, align 8, !tbaa !5847, !dbg !5629
	%856 = load %struct._ZSt9basic_iosIcSt11char_traitsIcEE*, %struct._ZSt9basic_iosIcSt11char_traitsIcEE** %..inline.addr.1970, align 8, !tbaa !5847, !dbg !5629
	%857 = bitcast %struct._ZSt9basic_iosIcSt11char_traitsIcEE*  %856 to i8*, !dbg !5629
	%858 = getelementptr i8, i8*  %857, i64 32, !dbg !5629
	%859 = bitcast i8*  %858 to i32*, !dbg !5629
	%860 = load i32, i32*  %859, align 4, !tbaa !5848, !dbg !5629
	%861 = or i32  %860, 1, !dbg !5629
	%862 = load %struct._ZSt9basic_iosIcSt11char_traitsIcEE*, %struct._ZSt9basic_iosIcSt11char_traitsIcEE** %..inline.addr.1960, align 8, !tbaa !5847, !dbg !5629
	call void  @_ZNSt9basic_iosIcSt11char_traitsIcEE5clearESt12_Ios_Iostate (%struct._ZSt9basic_iosIcSt11char_traitsIcEE*  %862, i32  %861), !dbg !5629
	br label %L..inline.27366, !dbg !5629
L..inline.27345:
	%863 = bitcast [31 x i8]* @.S10014 to i8*, !dbg !5630
	%864 = call i64  @strlen (i8*  %863) nounwind, !dbg !5630
	%865 = call %struct._ZSo*  @_ZSt16__ostream_insertIcSt11char_traitsIcEERSt13basic_ostreamIT_T0_ES6_PKS3_l (%struct._ZSo* @_ZSt4cout, i8*  %863, i64  %864), !dbg !5630
	%866 = bitcast %struct._ZSo*  %865 to i8*, !dbg !5630
	%867 = bitcast %struct._ZSo** %.Q0065.addr to i8**, !dbg !5630
	store i8*  %866, i8**  %867, align 8, !tbaa !5847, !dbg !5630
	br label %L..inline.27366
L..inline.27366:
	%868 = call %struct._ZSo*  @_ZSt4endlIcSt11char_traitsIcEERSt13basic_ostreamIT_T0_ES6_ (%struct._ZSo* @_ZSt4cout), !dbg !5625
	%869 = bitcast %struct._ZSo*  %868 to i8*, !dbg !5625
	%870 = bitcast %struct._ZSo** %.Q0066.addr to i8**, !dbg !5625
	store i8*  %869, i8**  %870, align 8, !tbaa !5847, !dbg !5625
	%871 = bitcast [61 x i8]* @.S10017 to i8*, !dbg !5662
	%872 = icmp ne i8*  %871,  null, !dbg !5662
	br i1  %872, label %L..inline.27386, label %L.B1759, !dbg !5662
L.B1759:
	%873 = bitcast %struct._ZSo* @_ZSt4cout to i8*, !dbg !5629
	%874 = bitcast %struct._ZSo* @_ZSt4cout to i8**, !dbg !5629
	%875 = load i8*, i8**  %874, align 8, !tbaa !5847, !dbg !5629
	%876 = getelementptr i8, i8*  %875, i64 18446744073709551592, !dbg !5629
	%877 = bitcast i8*  %876 to i64*, !dbg !5629
	%878 = load i64, i64*  %877, align 8, !tbaa !5848, !dbg !5629
	%879 = getelementptr i8, i8*  %873, i64  %878, !dbg !5629
	%880 = bitcast %struct._ZSt9basic_iosIcSt11char_traitsIcEE** %..inline.addr.2020 to i8**, !dbg !5629
	store i8*  %879, i8**  %880, align 8, !tbaa !5847, !dbg !5629
	%881 = bitcast %struct._ZSt9basic_iosIcSt11char_traitsIcEE** %..inline.addr.2030 to i8**, !dbg !5629
	store i8*  %879, i8**  %881, align 8, !tbaa !5847, !dbg !5629
	%882 = load %struct._ZSt9basic_iosIcSt11char_traitsIcEE*, %struct._ZSt9basic_iosIcSt11char_traitsIcEE** %..inline.addr.2030, align 8, !tbaa !5847, !dbg !5629
	%883 = bitcast %struct._ZSt9basic_iosIcSt11char_traitsIcEE*  %882 to i8*, !dbg !5629
	%884 = getelementptr i8, i8*  %883, i64 32, !dbg !5629
	%885 = bitcast i8*  %884 to i32*, !dbg !5629
	%886 = load i32, i32*  %885, align 4, !tbaa !5848, !dbg !5629
	%887 = or i32  %886, 1, !dbg !5629
	%888 = load %struct._ZSt9basic_iosIcSt11char_traitsIcEE*, %struct._ZSt9basic_iosIcSt11char_traitsIcEE** %..inline.addr.2020, align 8, !tbaa !5847, !dbg !5629
	call void  @_ZNSt9basic_iosIcSt11char_traitsIcEE5clearESt12_Ios_Iostate (%struct._ZSt9basic_iosIcSt11char_traitsIcEE*  %888, i32  %887), !dbg !5629
	br label %L..inline.27407, !dbg !5629
L..inline.27386:
	%889 = bitcast [61 x i8]* @.S10017 to i8*, !dbg !5630
	%890 = call i64  @strlen (i8*  %889) nounwind, !dbg !5630
	%891 = call %struct._ZSo*  @_ZSt16__ostream_insertIcSt11char_traitsIcEERSt13basic_ostreamIT_T0_ES6_PKS3_l (%struct._ZSo* @_ZSt4cout, i8*  %889, i64  %890), !dbg !5630
	%892 = bitcast %struct._ZSo*  %891 to i8*, !dbg !5630
	%893 = bitcast %struct._ZSo** %.Q0067.addr to i8**, !dbg !5630
	store i8*  %892, i8**  %893, align 8, !tbaa !5847, !dbg !5630
	br label %L..inline.27407
L..inline.27407:
	%894 = call %struct._ZSo*  @_ZSt4endlIcSt11char_traitsIcEERSt13basic_ostreamIT_T0_ES6_ (%struct._ZSo* @_ZSt4cout), !dbg !5625
	%895 = bitcast %struct._ZSo*  %894 to i8*, !dbg !5625
	%896 = bitcast %struct._ZSo** %.Q0068.addr to i8**, !dbg !5625
	store i8*  %895, i8**  %896, align 8, !tbaa !5847, !dbg !5625
	%897 = bitcast [72 x i8]* @.S10020 to i8*, !dbg !5663
	%898 = icmp ne i8*  %897,  null, !dbg !5663
	br i1  %898, label %L..inline.27427, label %L.B1760, !dbg !5663
L.B1760:
	%899 = bitcast %struct._ZSo* @_ZSt4cout to i8*, !dbg !5629
	%900 = bitcast %struct._ZSo* @_ZSt4cout to i8**, !dbg !5629
	%901 = load i8*, i8**  %900, align 8, !tbaa !5847, !dbg !5629
	%902 = getelementptr i8, i8*  %901, i64 18446744073709551592, !dbg !5629
	%903 = bitcast i8*  %902 to i64*, !dbg !5629
	%904 = load i64, i64*  %903, align 8, !tbaa !5848, !dbg !5629
	%905 = getelementptr i8, i8*  %899, i64  %904, !dbg !5629
	%906 = bitcast %struct._ZSt9basic_iosIcSt11char_traitsIcEE** %..inline.addr.2080 to i8**, !dbg !5629
	store i8*  %905, i8**  %906, align 8, !tbaa !5847, !dbg !5629
	%907 = bitcast %struct._ZSt9basic_iosIcSt11char_traitsIcEE** %..inline.addr.2090 to i8**, !dbg !5629
	store i8*  %905, i8**  %907, align 8, !tbaa !5847, !dbg !5629
	%908 = load %struct._ZSt9basic_iosIcSt11char_traitsIcEE*, %struct._ZSt9basic_iosIcSt11char_traitsIcEE** %..inline.addr.2090, align 8, !tbaa !5847, !dbg !5629
	%909 = bitcast %struct._ZSt9basic_iosIcSt11char_traitsIcEE*  %908 to i8*, !dbg !5629
	%910 = getelementptr i8, i8*  %909, i64 32, !dbg !5629
	%911 = bitcast i8*  %910 to i32*, !dbg !5629
	%912 = load i32, i32*  %911, align 4, !tbaa !5848, !dbg !5629
	%913 = or i32  %912, 1, !dbg !5629
	%914 = load %struct._ZSt9basic_iosIcSt11char_traitsIcEE*, %struct._ZSt9basic_iosIcSt11char_traitsIcEE** %..inline.addr.2080, align 8, !tbaa !5847, !dbg !5629
	call void  @_ZNSt9basic_iosIcSt11char_traitsIcEE5clearESt12_Ios_Iostate (%struct._ZSt9basic_iosIcSt11char_traitsIcEE*  %914, i32  %913), !dbg !5629
	br label %L..inline.27448, !dbg !5629
L..inline.27427:
	%915 = bitcast [72 x i8]* @.S10020 to i8*, !dbg !5630
	%916 = call i64  @strlen (i8*  %915) nounwind, !dbg !5630
	%917 = call %struct._ZSo*  @_ZSt16__ostream_insertIcSt11char_traitsIcEERSt13basic_ostreamIT_T0_ES6_PKS3_l (%struct._ZSo* @_ZSt4cout, i8*  %915, i64  %916), !dbg !5630
	%918 = bitcast %struct._ZSo*  %917 to i8*, !dbg !5630
	%919 = bitcast %struct._ZSo** %.Q0069.addr to i8**, !dbg !5630
	store i8*  %918, i8**  %919, align 8, !tbaa !5847, !dbg !5630
	br label %L..inline.27448
L..inline.27448:
	%920 = call %struct._ZSo*  @_ZSt4endlIcSt11char_traitsIcEERSt13basic_ostreamIT_T0_ES6_ (%struct._ZSo* @_ZSt4cout), !dbg !5625
	%921 = bitcast %struct._ZSo*  %920 to i8*, !dbg !5625
	%922 = bitcast %struct._ZSo** %.Q0070.addr to i8**, !dbg !5625
	store i8*  %921, i8**  %922, align 8, !tbaa !5847, !dbg !5625
	%923 = bitcast [42 x i8]* @.S10022 to i8*, !dbg !5664
	%924 = icmp ne i8*  %923,  null, !dbg !5664
	br i1  %924, label %L..inline.27468, label %L.B1761, !dbg !5664
L.B1761:
	%925 = bitcast %struct._ZSo* @_ZSt4cout to i8*, !dbg !5629
	%926 = bitcast %struct._ZSo* @_ZSt4cout to i8**, !dbg !5629
	%927 = load i8*, i8**  %926, align 8, !tbaa !5847, !dbg !5629
	%928 = getelementptr i8, i8*  %927, i64 18446744073709551592, !dbg !5629
	%929 = bitcast i8*  %928 to i64*, !dbg !5629
	%930 = load i64, i64*  %929, align 8, !tbaa !5848, !dbg !5629
	%931 = getelementptr i8, i8*  %925, i64  %930, !dbg !5629
	%932 = bitcast %struct._ZSt9basic_iosIcSt11char_traitsIcEE** %..inline.addr.2140 to i8**, !dbg !5629
	store i8*  %931, i8**  %932, align 8, !tbaa !5847, !dbg !5629
	%933 = bitcast %struct._ZSt9basic_iosIcSt11char_traitsIcEE** %..inline.addr.2150 to i8**, !dbg !5629
	store i8*  %931, i8**  %933, align 8, !tbaa !5847, !dbg !5629
	%934 = load %struct._ZSt9basic_iosIcSt11char_traitsIcEE*, %struct._ZSt9basic_iosIcSt11char_traitsIcEE** %..inline.addr.2150, align 8, !tbaa !5847, !dbg !5629
	%935 = bitcast %struct._ZSt9basic_iosIcSt11char_traitsIcEE*  %934 to i8*, !dbg !5629
	%936 = getelementptr i8, i8*  %935, i64 32, !dbg !5629
	%937 = bitcast i8*  %936 to i32*, !dbg !5629
	%938 = load i32, i32*  %937, align 4, !tbaa !5848, !dbg !5629
	%939 = or i32  %938, 1, !dbg !5629
	%940 = load %struct._ZSt9basic_iosIcSt11char_traitsIcEE*, %struct._ZSt9basic_iosIcSt11char_traitsIcEE** %..inline.addr.2140, align 8, !tbaa !5847, !dbg !5629
	call void  @_ZNSt9basic_iosIcSt11char_traitsIcEE5clearESt12_Ios_Iostate (%struct._ZSt9basic_iosIcSt11char_traitsIcEE*  %940, i32  %939), !dbg !5629
	br label %L..inline.27489, !dbg !5629
L..inline.27468:
	%941 = bitcast [42 x i8]* @.S10022 to i8*, !dbg !5630
	%942 = call i64  @strlen (i8*  %941) nounwind, !dbg !5630
	%943 = call %struct._ZSo*  @_ZSt16__ostream_insertIcSt11char_traitsIcEERSt13basic_ostreamIT_T0_ES6_PKS3_l (%struct._ZSo* @_ZSt4cout, i8*  %941, i64  %942), !dbg !5630
	%944 = bitcast %struct._ZSo*  %943 to i8*, !dbg !5630
	%945 = bitcast %struct._ZSo** %.Q0071.addr to i8**, !dbg !5630
	store i8*  %944, i8**  %945, align 8, !tbaa !5847, !dbg !5630
	br label %L..inline.27489
L..inline.27489:
	%946 = call %struct._ZSo*  @_ZSt4endlIcSt11char_traitsIcEERSt13basic_ostreamIT_T0_ES6_ (%struct._ZSo* @_ZSt4cout), !dbg !5625
	%947 = bitcast %struct._ZSo*  %946 to i8*, !dbg !5625
	%948 = bitcast %struct._ZSo** %.Q0072.addr to i8**, !dbg !5625
	store i8*  %947, i8**  %948, align 8, !tbaa !5847, !dbg !5625
	%949 = bitcast [1 x i8]* @.S10011 to i8*, !dbg !5665
	%950 = icmp ne i8*  %949,  null, !dbg !5665
	br i1  %950, label %L..inline.27509, label %L.B1762, !dbg !5665
L.B1762:
	%951 = bitcast %struct._ZSo* @_ZSt4cout to i8*, !dbg !5629
	%952 = bitcast %struct._ZSo* @_ZSt4cout to i8**, !dbg !5629
	%953 = load i8*, i8**  %952, align 8, !tbaa !5847, !dbg !5629
	%954 = getelementptr i8, i8*  %953, i64 18446744073709551592, !dbg !5629
	%955 = bitcast i8*  %954 to i64*, !dbg !5629
	%956 = load i64, i64*  %955, align 8, !tbaa !5848, !dbg !5629
	%957 = getelementptr i8, i8*  %951, i64  %956, !dbg !5629
	%958 = bitcast %struct._ZSt9basic_iosIcSt11char_traitsIcEE** %..inline.addr.2200 to i8**, !dbg !5629
	store i8*  %957, i8**  %958, align 8, !tbaa !5847, !dbg !5629
	%959 = bitcast %struct._ZSt9basic_iosIcSt11char_traitsIcEE** %..inline.addr.2210 to i8**, !dbg !5629
	store i8*  %957, i8**  %959, align 8, !tbaa !5847, !dbg !5629
	%960 = load %struct._ZSt9basic_iosIcSt11char_traitsIcEE*, %struct._ZSt9basic_iosIcSt11char_traitsIcEE** %..inline.addr.2210, align 8, !tbaa !5847, !dbg !5629
	%961 = bitcast %struct._ZSt9basic_iosIcSt11char_traitsIcEE*  %960 to i8*, !dbg !5629
	%962 = getelementptr i8, i8*  %961, i64 32, !dbg !5629
	%963 = bitcast i8*  %962 to i32*, !dbg !5629
	%964 = load i32, i32*  %963, align 4, !tbaa !5848, !dbg !5629
	%965 = or i32  %964, 1, !dbg !5629
	%966 = load %struct._ZSt9basic_iosIcSt11char_traitsIcEE*, %struct._ZSt9basic_iosIcSt11char_traitsIcEE** %..inline.addr.2200, align 8, !tbaa !5847, !dbg !5629
	call void  @_ZNSt9basic_iosIcSt11char_traitsIcEE5clearESt12_Ios_Iostate (%struct._ZSt9basic_iosIcSt11char_traitsIcEE*  %966, i32  %965), !dbg !5629
	br label %L..inline.27530, !dbg !5629
L..inline.27509:
	%967 = bitcast [1 x i8]* @.S10011 to i8*, !dbg !5630
	%968 = call i64  @strlen (i8*  %967) nounwind, !dbg !5630
	%969 = call %struct._ZSo*  @_ZSt16__ostream_insertIcSt11char_traitsIcEERSt13basic_ostreamIT_T0_ES6_PKS3_l (%struct._ZSo* @_ZSt4cout, i8*  %967, i64  %968), !dbg !5630
	%970 = bitcast %struct._ZSo*  %969 to i8*, !dbg !5630
	%971 = bitcast %struct._ZSo** %.Q0073.addr to i8**, !dbg !5630
	store i8*  %970, i8**  %971, align 8, !tbaa !5847, !dbg !5630
	br label %L..inline.27530
L..inline.27530:
	%972 = call %struct._ZSo*  @_ZSt4endlIcSt11char_traitsIcEERSt13basic_ostreamIT_T0_ES6_ (%struct._ZSo* @_ZSt4cout), !dbg !5625
	%973 = bitcast %struct._ZSo*  %972 to i8*, !dbg !5625
	%974 = bitcast %struct._ZSo** %.Q0074.addr to i8**, !dbg !5625
	store i8*  %973, i8**  %974, align 8, !tbaa !5847, !dbg !5625
	%975 = bitcast [17 x i8]* @.S10024 to i8*, !dbg !5666
	%976 = icmp ne i8*  %975,  null, !dbg !5666
	br i1  %976, label %L..inline.27550, label %L.B1763, !dbg !5666
L.B1763:
	%977 = bitcast %struct._ZSo* @_ZSt4cout to i8*, !dbg !5629
	%978 = bitcast %struct._ZSo* @_ZSt4cout to i8**, !dbg !5629
	%979 = load i8*, i8**  %978, align 8, !tbaa !5847, !dbg !5629
	%980 = getelementptr i8, i8*  %979, i64 18446744073709551592, !dbg !5629
	%981 = bitcast i8*  %980 to i64*, !dbg !5629
	%982 = load i64, i64*  %981, align 8, !tbaa !5848, !dbg !5629
	%983 = getelementptr i8, i8*  %977, i64  %982, !dbg !5629
	%984 = bitcast %struct._ZSt9basic_iosIcSt11char_traitsIcEE** %..inline.addr.2260 to i8**, !dbg !5629
	store i8*  %983, i8**  %984, align 8, !tbaa !5847, !dbg !5629
	%985 = bitcast %struct._ZSt9basic_iosIcSt11char_traitsIcEE** %..inline.addr.2270 to i8**, !dbg !5629
	store i8*  %983, i8**  %985, align 8, !tbaa !5847, !dbg !5629
	%986 = load %struct._ZSt9basic_iosIcSt11char_traitsIcEE*, %struct._ZSt9basic_iosIcSt11char_traitsIcEE** %..inline.addr.2270, align 8, !tbaa !5847, !dbg !5629
	%987 = bitcast %struct._ZSt9basic_iosIcSt11char_traitsIcEE*  %986 to i8*, !dbg !5629
	%988 = getelementptr i8, i8*  %987, i64 32, !dbg !5629
	%989 = bitcast i8*  %988 to i32*, !dbg !5629
	%990 = load i32, i32*  %989, align 4, !tbaa !5848, !dbg !5629
	%991 = or i32  %990, 1, !dbg !5629
	%992 = load %struct._ZSt9basic_iosIcSt11char_traitsIcEE*, %struct._ZSt9basic_iosIcSt11char_traitsIcEE** %..inline.addr.2260, align 8, !tbaa !5847, !dbg !5629
	call void  @_ZNSt9basic_iosIcSt11char_traitsIcEE5clearESt12_Ios_Iostate (%struct._ZSt9basic_iosIcSt11char_traitsIcEE*  %992, i32  %991), !dbg !5629
	br label %L..inline.27571, !dbg !5629
L..inline.27550:
	%993 = bitcast [17 x i8]* @.S10024 to i8*, !dbg !5630
	%994 = call i64  @strlen (i8*  %993) nounwind, !dbg !5630
	%995 = call %struct._ZSo*  @_ZSt16__ostream_insertIcSt11char_traitsIcEERSt13basic_ostreamIT_T0_ES6_PKS3_l (%struct._ZSo* @_ZSt4cout, i8*  %993, i64  %994), !dbg !5630
	%996 = bitcast %struct._ZSo*  %995 to i8*, !dbg !5630
	%997 = bitcast %struct._ZSo** %.Q0075.addr to i8**, !dbg !5630
	store i8*  %996, i8**  %997, align 8, !tbaa !5847, !dbg !5630
	br label %L..inline.27571
L..inline.27571:
	%998 = call %struct._ZSo*  @_ZSt4endlIcSt11char_traitsIcEERSt13basic_ostreamIT_T0_ES6_ (%struct._ZSo* @_ZSt4cout), !dbg !5625
	%999 = bitcast %struct._ZSo*  %998 to i8*, !dbg !5625
	%1000 = bitcast %struct._ZSo** %.Q0076.addr to i8**, !dbg !5625
	store i8*  %999, i8**  %1000, align 8, !tbaa !5847, !dbg !5625
	%1001 = bitcast [65 x i8]* @.S10027 to i8*, !dbg !5667
	%1002 = icmp ne i8*  %1001,  null, !dbg !5667
	br i1  %1002, label %L..inline.27591, label %L.B1764, !dbg !5667
L.B1764:
	%1003 = bitcast %struct._ZSo* @_ZSt4cout to i8*, !dbg !5629
	%1004 = bitcast %struct._ZSo* @_ZSt4cout to i8**, !dbg !5629
	%1005 = load i8*, i8**  %1004, align 8, !tbaa !5847, !dbg !5629
	%1006 = getelementptr i8, i8*  %1005, i64 18446744073709551592, !dbg !5629
	%1007 = bitcast i8*  %1006 to i64*, !dbg !5629
	%1008 = load i64, i64*  %1007, align 8, !tbaa !5848, !dbg !5629
	%1009 = getelementptr i8, i8*  %1003, i64  %1008, !dbg !5629
	%1010 = bitcast %struct._ZSt9basic_iosIcSt11char_traitsIcEE** %..inline.addr.2320 to i8**, !dbg !5629
	store i8*  %1009, i8**  %1010, align 8, !tbaa !5847, !dbg !5629
	%1011 = bitcast %struct._ZSt9basic_iosIcSt11char_traitsIcEE** %..inline.addr.2330 to i8**, !dbg !5629
	store i8*  %1009, i8**  %1011, align 8, !tbaa !5847, !dbg !5629
	%1012 = load %struct._ZSt9basic_iosIcSt11char_traitsIcEE*, %struct._ZSt9basic_iosIcSt11char_traitsIcEE** %..inline.addr.2330, align 8, !tbaa !5847, !dbg !5629
	%1013 = bitcast %struct._ZSt9basic_iosIcSt11char_traitsIcEE*  %1012 to i8*, !dbg !5629
	%1014 = getelementptr i8, i8*  %1013, i64 32, !dbg !5629
	%1015 = bitcast i8*  %1014 to i32*, !dbg !5629
	%1016 = load i32, i32*  %1015, align 4, !tbaa !5848, !dbg !5629
	%1017 = or i32  %1016, 1, !dbg !5629
	%1018 = load %struct._ZSt9basic_iosIcSt11char_traitsIcEE*, %struct._ZSt9basic_iosIcSt11char_traitsIcEE** %..inline.addr.2320, align 8, !tbaa !5847, !dbg !5629
	call void  @_ZNSt9basic_iosIcSt11char_traitsIcEE5clearESt12_Ios_Iostate (%struct._ZSt9basic_iosIcSt11char_traitsIcEE*  %1018, i32  %1017), !dbg !5629
	br label %L..inline.27612, !dbg !5629
L..inline.27591:
	%1019 = bitcast [65 x i8]* @.S10027 to i8*, !dbg !5630
	%1020 = call i64  @strlen (i8*  %1019) nounwind, !dbg !5630
	%1021 = call %struct._ZSo*  @_ZSt16__ostream_insertIcSt11char_traitsIcEERSt13basic_ostreamIT_T0_ES6_PKS3_l (%struct._ZSo* @_ZSt4cout, i8*  %1019, i64  %1020), !dbg !5630
	%1022 = bitcast %struct._ZSo*  %1021 to i8*, !dbg !5630
	%1023 = bitcast %struct._ZSo** %.Q0077.addr to i8**, !dbg !5630
	store i8*  %1022, i8**  %1023, align 8, !tbaa !5847, !dbg !5630
	br label %L..inline.27612
L..inline.27612:
	%1024 = call %struct._ZSo*  @_ZSt4endlIcSt11char_traitsIcEERSt13basic_ostreamIT_T0_ES6_ (%struct._ZSo* @_ZSt4cout), !dbg !5625
	%1025 = bitcast %struct._ZSo*  %1024 to i8*, !dbg !5625
	%1026 = bitcast %struct._ZSo** %.Q0078.addr to i8**, !dbg !5625
	store i8*  %1025, i8**  %1026, align 8, !tbaa !5847, !dbg !5625
	%1027 = bitcast [11 x i8]* @.S10029 to i8*, !dbg !5668
	%1028 = icmp ne i8*  %1027,  null, !dbg !5668
	br i1  %1028, label %L..inline.27632, label %L.B1765, !dbg !5668
L.B1765:
	%1029 = bitcast %struct._ZSo* @_ZSt4cout to i8*, !dbg !5629
	%1030 = bitcast %struct._ZSo* @_ZSt4cout to i8**, !dbg !5629
	%1031 = load i8*, i8**  %1030, align 8, !tbaa !5847, !dbg !5629
	%1032 = getelementptr i8, i8*  %1031, i64 18446744073709551592, !dbg !5629
	%1033 = bitcast i8*  %1032 to i64*, !dbg !5629
	%1034 = load i64, i64*  %1033, align 8, !tbaa !5848, !dbg !5629
	%1035 = getelementptr i8, i8*  %1029, i64  %1034, !dbg !5629
	%1036 = bitcast %struct._ZSt9basic_iosIcSt11char_traitsIcEE** %..inline.addr.2380 to i8**, !dbg !5629
	store i8*  %1035, i8**  %1036, align 8, !tbaa !5847, !dbg !5629
	%1037 = bitcast %struct._ZSt9basic_iosIcSt11char_traitsIcEE** %..inline.addr.2390 to i8**, !dbg !5629
	store i8*  %1035, i8**  %1037, align 8, !tbaa !5847, !dbg !5629
	%1038 = load %struct._ZSt9basic_iosIcSt11char_traitsIcEE*, %struct._ZSt9basic_iosIcSt11char_traitsIcEE** %..inline.addr.2390, align 8, !tbaa !5847, !dbg !5629
	%1039 = bitcast %struct._ZSt9basic_iosIcSt11char_traitsIcEE*  %1038 to i8*, !dbg !5629
	%1040 = getelementptr i8, i8*  %1039, i64 32, !dbg !5629
	%1041 = bitcast i8*  %1040 to i32*, !dbg !5629
	%1042 = load i32, i32*  %1041, align 4, !tbaa !5848, !dbg !5629
	%1043 = or i32  %1042, 1, !dbg !5629
	%1044 = load %struct._ZSt9basic_iosIcSt11char_traitsIcEE*, %struct._ZSt9basic_iosIcSt11char_traitsIcEE** %..inline.addr.2380, align 8, !tbaa !5847, !dbg !5629
	call void  @_ZNSt9basic_iosIcSt11char_traitsIcEE5clearESt12_Ios_Iostate (%struct._ZSt9basic_iosIcSt11char_traitsIcEE*  %1044, i32  %1043), !dbg !5629
	br label %L..inline.27653, !dbg !5629
L..inline.27632:
	%1045 = bitcast [11 x i8]* @.S10029 to i8*, !dbg !5630
	%1046 = call i64  @strlen (i8*  %1045) nounwind, !dbg !5630
	%1047 = call %struct._ZSo*  @_ZSt16__ostream_insertIcSt11char_traitsIcEERSt13basic_ostreamIT_T0_ES6_PKS3_l (%struct._ZSo* @_ZSt4cout, i8*  %1045, i64  %1046), !dbg !5630
	%1048 = bitcast %struct._ZSo*  %1047 to i8*, !dbg !5630
	%1049 = bitcast %struct._ZSo** %.Q0079.addr to i8**, !dbg !5630
	store i8*  %1048, i8**  %1049, align 8, !tbaa !5847, !dbg !5630
	br label %L..inline.27653
L..inline.27653:
	%1050 = call %struct._ZSo*  @_ZSt4endlIcSt11char_traitsIcEERSt13basic_ostreamIT_T0_ES6_ (%struct._ZSo* @_ZSt4cout), !dbg !5625
	%1051 = bitcast %struct._ZSo*  %1050 to i8*, !dbg !5625
	%1052 = bitcast %struct._ZSo** %.Q0080.addr to i8**, !dbg !5625
	store i8*  %1051, i8**  %1052, align 8, !tbaa !5847, !dbg !5625
	%1053 = bitcast [10 x i8]* @.S10031 to i8*, !dbg !5669
	%1054 = icmp ne i8*  %1053,  null, !dbg !5669
	br i1  %1054, label %L..inline.27673, label %L.B1766, !dbg !5669
L.B1766:
	%1055 = bitcast %struct._ZSo* @_ZSt4cout to i8*, !dbg !5629
	%1056 = bitcast %struct._ZSo* @_ZSt4cout to i8**, !dbg !5629
	%1057 = load i8*, i8**  %1056, align 8, !tbaa !5847, !dbg !5629
	%1058 = getelementptr i8, i8*  %1057, i64 18446744073709551592, !dbg !5629
	%1059 = bitcast i8*  %1058 to i64*, !dbg !5629
	%1060 = load i64, i64*  %1059, align 8, !tbaa !5848, !dbg !5629
	%1061 = getelementptr i8, i8*  %1055, i64  %1060, !dbg !5629
	%1062 = bitcast %struct._ZSt9basic_iosIcSt11char_traitsIcEE** %..inline.addr.2440 to i8**, !dbg !5629
	store i8*  %1061, i8**  %1062, align 8, !tbaa !5847, !dbg !5629
	%1063 = bitcast %struct._ZSt9basic_iosIcSt11char_traitsIcEE** %..inline.addr.2450 to i8**, !dbg !5629
	store i8*  %1061, i8**  %1063, align 8, !tbaa !5847, !dbg !5629
	%1064 = load %struct._ZSt9basic_iosIcSt11char_traitsIcEE*, %struct._ZSt9basic_iosIcSt11char_traitsIcEE** %..inline.addr.2450, align 8, !tbaa !5847, !dbg !5629
	%1065 = bitcast %struct._ZSt9basic_iosIcSt11char_traitsIcEE*  %1064 to i8*, !dbg !5629
	%1066 = getelementptr i8, i8*  %1065, i64 32, !dbg !5629
	%1067 = bitcast i8*  %1066 to i32*, !dbg !5629
	%1068 = load i32, i32*  %1067, align 4, !tbaa !5848, !dbg !5629
	%1069 = or i32  %1068, 1, !dbg !5629
	%1070 = load %struct._ZSt9basic_iosIcSt11char_traitsIcEE*, %struct._ZSt9basic_iosIcSt11char_traitsIcEE** %..inline.addr.2440, align 8, !tbaa !5847, !dbg !5629
	call void  @_ZNSt9basic_iosIcSt11char_traitsIcEE5clearESt12_Ios_Iostate (%struct._ZSt9basic_iosIcSt11char_traitsIcEE*  %1070, i32  %1069), !dbg !5629
	br label %L..inline.27694, !dbg !5629
L..inline.27673:
	%1071 = bitcast [10 x i8]* @.S10031 to i8*, !dbg !5630
	%1072 = call i64  @strlen (i8*  %1071) nounwind, !dbg !5630
	%1073 = call %struct._ZSo*  @_ZSt16__ostream_insertIcSt11char_traitsIcEERSt13basic_ostreamIT_T0_ES6_PKS3_l (%struct._ZSo* @_ZSt4cout, i8*  %1071, i64  %1072), !dbg !5630
	%1074 = bitcast %struct._ZSo*  %1073 to i8*, !dbg !5630
	%1075 = bitcast %struct._ZSo** %.Q0081.addr to i8**, !dbg !5630
	store i8*  %1074, i8**  %1075, align 8, !tbaa !5847, !dbg !5630
	br label %L..inline.27694
L..inline.27694:
	%1076 = call %struct._ZSo*  @_ZSt4endlIcSt11char_traitsIcEERSt13basic_ostreamIT_T0_ES6_ (%struct._ZSo* @_ZSt4cout), !dbg !5625
	%1077 = bitcast %struct._ZSo*  %1076 to i8*, !dbg !5625
	%1078 = bitcast %struct._ZSo** %.Q0082.addr to i8**, !dbg !5625
	store i8*  %1077, i8**  %1078, align 8, !tbaa !5847, !dbg !5625
	%1079 = bitcast [14 x i8]* @.S10033 to i8*, !dbg !5670
	%1080 = icmp ne i8*  %1079,  null, !dbg !5670
	br i1  %1080, label %L..inline.27714, label %L.B1767, !dbg !5670
L.B1767:
	%1081 = bitcast %struct._ZSo* @_ZSt4cout to i8*, !dbg !5629
	%1082 = bitcast %struct._ZSo* @_ZSt4cout to i8**, !dbg !5629
	%1083 = load i8*, i8**  %1082, align 8, !tbaa !5847, !dbg !5629
	%1084 = getelementptr i8, i8*  %1083, i64 18446744073709551592, !dbg !5629
	%1085 = bitcast i8*  %1084 to i64*, !dbg !5629
	%1086 = load i64, i64*  %1085, align 8, !tbaa !5848, !dbg !5629
	%1087 = getelementptr i8, i8*  %1081, i64  %1086, !dbg !5629
	%1088 = bitcast %struct._ZSt9basic_iosIcSt11char_traitsIcEE** %..inline.addr.2500 to i8**, !dbg !5629
	store i8*  %1087, i8**  %1088, align 8, !tbaa !5847, !dbg !5629
	%1089 = bitcast %struct._ZSt9basic_iosIcSt11char_traitsIcEE** %..inline.addr.2510 to i8**, !dbg !5629
	store i8*  %1087, i8**  %1089, align 8, !tbaa !5847, !dbg !5629
	%1090 = load %struct._ZSt9basic_iosIcSt11char_traitsIcEE*, %struct._ZSt9basic_iosIcSt11char_traitsIcEE** %..inline.addr.2510, align 8, !tbaa !5847, !dbg !5629
	%1091 = bitcast %struct._ZSt9basic_iosIcSt11char_traitsIcEE*  %1090 to i8*, !dbg !5629
	%1092 = getelementptr i8, i8*  %1091, i64 32, !dbg !5629
	%1093 = bitcast i8*  %1092 to i32*, !dbg !5629
	%1094 = load i32, i32*  %1093, align 4, !tbaa !5848, !dbg !5629
	%1095 = or i32  %1094, 1, !dbg !5629
	%1096 = load %struct._ZSt9basic_iosIcSt11char_traitsIcEE*, %struct._ZSt9basic_iosIcSt11char_traitsIcEE** %..inline.addr.2500, align 8, !tbaa !5847, !dbg !5629
	call void  @_ZNSt9basic_iosIcSt11char_traitsIcEE5clearESt12_Ios_Iostate (%struct._ZSt9basic_iosIcSt11char_traitsIcEE*  %1096, i32  %1095), !dbg !5629
	br label %L..inline.27735, !dbg !5629
L..inline.27714:
	%1097 = bitcast [14 x i8]* @.S10033 to i8*, !dbg !5630
	%1098 = call i64  @strlen (i8*  %1097) nounwind, !dbg !5630
	%1099 = call %struct._ZSo*  @_ZSt16__ostream_insertIcSt11char_traitsIcEERSt13basic_ostreamIT_T0_ES6_PKS3_l (%struct._ZSo* @_ZSt4cout, i8*  %1097, i64  %1098), !dbg !5630
	%1100 = bitcast %struct._ZSo*  %1099 to i8*, !dbg !5630
	%1101 = bitcast %struct._ZSo** %.Q0083.addr to i8**, !dbg !5630
	store i8*  %1100, i8**  %1101, align 8, !tbaa !5847, !dbg !5630
	br label %L..inline.27735
L..inline.27735:
	%1102 = call %struct._ZSo*  @_ZSt4endlIcSt11char_traitsIcEERSt13basic_ostreamIT_T0_ES6_ (%struct._ZSo* @_ZSt4cout), !dbg !5625
	%1103 = bitcast %struct._ZSo*  %1102 to i8*, !dbg !5625
	%1104 = bitcast %struct._ZSo** %.Q0084.addr to i8**, !dbg !5625
	store i8*  %1103, i8**  %1104, align 8, !tbaa !5847, !dbg !5625
	%1105 = bitcast [13 x i8]* @.S10035 to i8*, !dbg !5671
	%1106 = icmp ne i8*  %1105,  null, !dbg !5671
	br i1  %1106, label %L..inline.27755, label %L.B1768, !dbg !5671
L.B1768:
	%1107 = bitcast %struct._ZSo* @_ZSt4cout to i8*, !dbg !5629
	%1108 = bitcast %struct._ZSo* @_ZSt4cout to i8**, !dbg !5629
	%1109 = load i8*, i8**  %1108, align 8, !tbaa !5847, !dbg !5629
	%1110 = getelementptr i8, i8*  %1109, i64 18446744073709551592, !dbg !5629
	%1111 = bitcast i8*  %1110 to i64*, !dbg !5629
	%1112 = load i64, i64*  %1111, align 8, !tbaa !5848, !dbg !5629
	%1113 = getelementptr i8, i8*  %1107, i64  %1112, !dbg !5629
	%1114 = bitcast %struct._ZSt9basic_iosIcSt11char_traitsIcEE** %..inline.addr.2560 to i8**, !dbg !5629
	store i8*  %1113, i8**  %1114, align 8, !tbaa !5847, !dbg !5629
	%1115 = bitcast %struct._ZSt9basic_iosIcSt11char_traitsIcEE** %..inline.addr.2570 to i8**, !dbg !5629
	store i8*  %1113, i8**  %1115, align 8, !tbaa !5847, !dbg !5629
	%1116 = load %struct._ZSt9basic_iosIcSt11char_traitsIcEE*, %struct._ZSt9basic_iosIcSt11char_traitsIcEE** %..inline.addr.2570, align 8, !tbaa !5847, !dbg !5629
	%1117 = bitcast %struct._ZSt9basic_iosIcSt11char_traitsIcEE*  %1116 to i8*, !dbg !5629
	%1118 = getelementptr i8, i8*  %1117, i64 32, !dbg !5629
	%1119 = bitcast i8*  %1118 to i32*, !dbg !5629
	%1120 = load i32, i32*  %1119, align 4, !tbaa !5848, !dbg !5629
	%1121 = or i32  %1120, 1, !dbg !5629
	%1122 = load %struct._ZSt9basic_iosIcSt11char_traitsIcEE*, %struct._ZSt9basic_iosIcSt11char_traitsIcEE** %..inline.addr.2560, align 8, !tbaa !5847, !dbg !5629
	call void  @_ZNSt9basic_iosIcSt11char_traitsIcEE5clearESt12_Ios_Iostate (%struct._ZSt9basic_iosIcSt11char_traitsIcEE*  %1122, i32  %1121), !dbg !5629
	br label %L..inline.27776, !dbg !5629
L..inline.27755:
	%1123 = bitcast [13 x i8]* @.S10035 to i8*, !dbg !5630
	%1124 = call i64  @strlen (i8*  %1123) nounwind, !dbg !5630
	%1125 = call %struct._ZSo*  @_ZSt16__ostream_insertIcSt11char_traitsIcEERSt13basic_ostreamIT_T0_ES6_PKS3_l (%struct._ZSo* @_ZSt4cout, i8*  %1123, i64  %1124), !dbg !5630
	%1126 = bitcast %struct._ZSo*  %1125 to i8*, !dbg !5630
	%1127 = bitcast %struct._ZSo** %.Q0085.addr to i8**, !dbg !5630
	store i8*  %1126, i8**  %1127, align 8, !tbaa !5847, !dbg !5630
	br label %L..inline.27776
L..inline.27776:
	%1128 = call %struct._ZSo*  @_ZSt4endlIcSt11char_traitsIcEERSt13basic_ostreamIT_T0_ES6_ (%struct._ZSo* @_ZSt4cout), !dbg !5625
	%1129 = bitcast %struct._ZSo*  %1128 to i8*, !dbg !5625
	%1130 = bitcast %struct._ZSo** %.Q0086.addr to i8**, !dbg !5625
	store i8*  %1129, i8**  %1130, align 8, !tbaa !5847, !dbg !5625
	%1131 = bitcast [15 x i8]* @.S10037 to i8*, !dbg !5672
	%1132 = icmp ne i8*  %1131,  null, !dbg !5672
	br i1  %1132, label %L..inline.27796, label %L.B1769, !dbg !5672
L.B1769:
	%1133 = bitcast %struct._ZSo* @_ZSt4cout to i8*, !dbg !5629
	%1134 = bitcast %struct._ZSo* @_ZSt4cout to i8**, !dbg !5629
	%1135 = load i8*, i8**  %1134, align 8, !tbaa !5847, !dbg !5629
	%1136 = getelementptr i8, i8*  %1135, i64 18446744073709551592, !dbg !5629
	%1137 = bitcast i8*  %1136 to i64*, !dbg !5629
	%1138 = load i64, i64*  %1137, align 8, !tbaa !5848, !dbg !5629
	%1139 = getelementptr i8, i8*  %1133, i64  %1138, !dbg !5629
	%1140 = bitcast %struct._ZSt9basic_iosIcSt11char_traitsIcEE** %..inline.addr.2620 to i8**, !dbg !5629
	store i8*  %1139, i8**  %1140, align 8, !tbaa !5847, !dbg !5629
	%1141 = bitcast %struct._ZSt9basic_iosIcSt11char_traitsIcEE** %..inline.addr.2630 to i8**, !dbg !5629
	store i8*  %1139, i8**  %1141, align 8, !tbaa !5847, !dbg !5629
	%1142 = load %struct._ZSt9basic_iosIcSt11char_traitsIcEE*, %struct._ZSt9basic_iosIcSt11char_traitsIcEE** %..inline.addr.2630, align 8, !tbaa !5847, !dbg !5629
	%1143 = bitcast %struct._ZSt9basic_iosIcSt11char_traitsIcEE*  %1142 to i8*, !dbg !5629
	%1144 = getelementptr i8, i8*  %1143, i64 32, !dbg !5629
	%1145 = bitcast i8*  %1144 to i32*, !dbg !5629
	%1146 = load i32, i32*  %1145, align 4, !tbaa !5848, !dbg !5629
	%1147 = or i32  %1146, 1, !dbg !5629
	%1148 = load %struct._ZSt9basic_iosIcSt11char_traitsIcEE*, %struct._ZSt9basic_iosIcSt11char_traitsIcEE** %..inline.addr.2620, align 8, !tbaa !5847, !dbg !5629
	call void  @_ZNSt9basic_iosIcSt11char_traitsIcEE5clearESt12_Ios_Iostate (%struct._ZSt9basic_iosIcSt11char_traitsIcEE*  %1148, i32  %1147), !dbg !5629
	br label %L..inline.27817, !dbg !5629
L..inline.27796:
	%1149 = bitcast [15 x i8]* @.S10037 to i8*, !dbg !5630
	%1150 = call i64  @strlen (i8*  %1149) nounwind, !dbg !5630
	%1151 = call %struct._ZSo*  @_ZSt16__ostream_insertIcSt11char_traitsIcEERSt13basic_ostreamIT_T0_ES6_PKS3_l (%struct._ZSo* @_ZSt4cout, i8*  %1149, i64  %1150), !dbg !5630
	%1152 = bitcast %struct._ZSo*  %1151 to i8*, !dbg !5630
	%1153 = bitcast %struct._ZSo** %.Q0087.addr to i8**, !dbg !5630
	store i8*  %1152, i8**  %1153, align 8, !tbaa !5847, !dbg !5630
	br label %L..inline.27817
L..inline.27817:
	%1154 = call %struct._ZSo*  @_ZSt4endlIcSt11char_traitsIcEERSt13basic_ostreamIT_T0_ES6_ (%struct._ZSo* @_ZSt4cout), !dbg !5625
	%1155 = bitcast %struct._ZSo*  %1154 to i8*, !dbg !5625
	%1156 = bitcast %struct._ZSo** %.Q0088.addr to i8**, !dbg !5625
	store i8*  %1155, i8**  %1156, align 8, !tbaa !5847, !dbg !5625
	%1157 = bitcast [14 x i8]* @.S10039 to i8*, !dbg !5673
	%1158 = icmp ne i8*  %1157,  null, !dbg !5673
	br i1  %1158, label %L..inline.27837, label %L.B1770, !dbg !5673
L.B1770:
	%1159 = bitcast %struct._ZSo* @_ZSt4cout to i8*, !dbg !5629
	%1160 = bitcast %struct._ZSo* @_ZSt4cout to i8**, !dbg !5629
	%1161 = load i8*, i8**  %1160, align 8, !tbaa !5847, !dbg !5629
	%1162 = getelementptr i8, i8*  %1161, i64 18446744073709551592, !dbg !5629
	%1163 = bitcast i8*  %1162 to i64*, !dbg !5629
	%1164 = load i64, i64*  %1163, align 8, !tbaa !5848, !dbg !5629
	%1165 = getelementptr i8, i8*  %1159, i64  %1164, !dbg !5629
	%1166 = bitcast %struct._ZSt9basic_iosIcSt11char_traitsIcEE** %..inline.addr.2680 to i8**, !dbg !5629
	store i8*  %1165, i8**  %1166, align 8, !tbaa !5847, !dbg !5629
	%1167 = bitcast %struct._ZSt9basic_iosIcSt11char_traitsIcEE** %..inline.addr.2690 to i8**, !dbg !5629
	store i8*  %1165, i8**  %1167, align 8, !tbaa !5847, !dbg !5629
	%1168 = load %struct._ZSt9basic_iosIcSt11char_traitsIcEE*, %struct._ZSt9basic_iosIcSt11char_traitsIcEE** %..inline.addr.2690, align 8, !tbaa !5847, !dbg !5629
	%1169 = bitcast %struct._ZSt9basic_iosIcSt11char_traitsIcEE*  %1168 to i8*, !dbg !5629
	%1170 = getelementptr i8, i8*  %1169, i64 32, !dbg !5629
	%1171 = bitcast i8*  %1170 to i32*, !dbg !5629
	%1172 = load i32, i32*  %1171, align 4, !tbaa !5848, !dbg !5629
	%1173 = or i32  %1172, 1, !dbg !5629
	%1174 = load %struct._ZSt9basic_iosIcSt11char_traitsIcEE*, %struct._ZSt9basic_iosIcSt11char_traitsIcEE** %..inline.addr.2680, align 8, !tbaa !5847, !dbg !5629
	call void  @_ZNSt9basic_iosIcSt11char_traitsIcEE5clearESt12_Ios_Iostate (%struct._ZSt9basic_iosIcSt11char_traitsIcEE*  %1174, i32  %1173), !dbg !5629
	br label %L..inline.27858, !dbg !5629
L..inline.27837:
	%1175 = bitcast [14 x i8]* @.S10039 to i8*, !dbg !5630
	%1176 = call i64  @strlen (i8*  %1175) nounwind, !dbg !5630
	%1177 = call %struct._ZSo*  @_ZSt16__ostream_insertIcSt11char_traitsIcEERSt13basic_ostreamIT_T0_ES6_PKS3_l (%struct._ZSo* @_ZSt4cout, i8*  %1175, i64  %1176), !dbg !5630
	%1178 = bitcast %struct._ZSo*  %1177 to i8*, !dbg !5630
	%1179 = bitcast %struct._ZSo** %.Q0089.addr to i8**, !dbg !5630
	store i8*  %1178, i8**  %1179, align 8, !tbaa !5847, !dbg !5630
	br label %L..inline.27858
L..inline.27858:
	%1180 = call %struct._ZSo*  @_ZSt4endlIcSt11char_traitsIcEERSt13basic_ostreamIT_T0_ES6_ (%struct._ZSo* @_ZSt4cout), !dbg !5625
	%1181 = bitcast %struct._ZSo*  %1180 to i8*, !dbg !5625
	%1182 = bitcast %struct._ZSo** %.Q0090.addr to i8**, !dbg !5625
	store i8*  %1181, i8**  %1182, align 8, !tbaa !5847, !dbg !5625
	%1183 = bitcast [18 x i8]* @.S10042 to i8*, !dbg !5674
	%1184 = icmp ne i8*  %1183,  null, !dbg !5674
	br i1  %1184, label %L..inline.27878, label %L.B1771, !dbg !5674
L.B1771:
	%1185 = bitcast %struct._ZSo* @_ZSt4cout to i8*, !dbg !5629
	%1186 = bitcast %struct._ZSo* @_ZSt4cout to i8**, !dbg !5629
	%1187 = load i8*, i8**  %1186, align 8, !tbaa !5847, !dbg !5629
	%1188 = getelementptr i8, i8*  %1187, i64 18446744073709551592, !dbg !5629
	%1189 = bitcast i8*  %1188 to i64*, !dbg !5629
	%1190 = load i64, i64*  %1189, align 8, !tbaa !5848, !dbg !5629
	%1191 = getelementptr i8, i8*  %1185, i64  %1190, !dbg !5629
	%1192 = bitcast %struct._ZSt9basic_iosIcSt11char_traitsIcEE** %..inline.addr.2740 to i8**, !dbg !5629
	store i8*  %1191, i8**  %1192, align 8, !tbaa !5847, !dbg !5629
	%1193 = bitcast %struct._ZSt9basic_iosIcSt11char_traitsIcEE** %..inline.addr.2750 to i8**, !dbg !5629
	store i8*  %1191, i8**  %1193, align 8, !tbaa !5847, !dbg !5629
	%1194 = load %struct._ZSt9basic_iosIcSt11char_traitsIcEE*, %struct._ZSt9basic_iosIcSt11char_traitsIcEE** %..inline.addr.2750, align 8, !tbaa !5847, !dbg !5629
	%1195 = bitcast %struct._ZSt9basic_iosIcSt11char_traitsIcEE*  %1194 to i8*, !dbg !5629
	%1196 = getelementptr i8, i8*  %1195, i64 32, !dbg !5629
	%1197 = bitcast i8*  %1196 to i32*, !dbg !5629
	%1198 = load i32, i32*  %1197, align 4, !tbaa !5848, !dbg !5629
	%1199 = or i32  %1198, 1, !dbg !5629
	%1200 = load %struct._ZSt9basic_iosIcSt11char_traitsIcEE*, %struct._ZSt9basic_iosIcSt11char_traitsIcEE** %..inline.addr.2740, align 8, !tbaa !5847, !dbg !5629
	call void  @_ZNSt9basic_iosIcSt11char_traitsIcEE5clearESt12_Ios_Iostate (%struct._ZSt9basic_iosIcSt11char_traitsIcEE*  %1200, i32  %1199), !dbg !5629
	br label %L..inline.27899, !dbg !5629
L..inline.27878:
	%1201 = bitcast [18 x i8]* @.S10042 to i8*, !dbg !5630
	%1202 = call i64  @strlen (i8*  %1201) nounwind, !dbg !5630
	%1203 = call %struct._ZSo*  @_ZSt16__ostream_insertIcSt11char_traitsIcEERSt13basic_ostreamIT_T0_ES6_PKS3_l (%struct._ZSo* @_ZSt4cout, i8*  %1201, i64  %1202), !dbg !5630
	%1204 = bitcast %struct._ZSo*  %1203 to i8*, !dbg !5630
	%1205 = bitcast %struct._ZSo** %.Q0091.addr to i8**, !dbg !5630
	store i8*  %1204, i8**  %1205, align 8, !tbaa !5847, !dbg !5630
	br label %L..inline.27899
L..inline.27899:
	%1206 = call %struct._ZSo*  @_ZSt4endlIcSt11char_traitsIcEERSt13basic_ostreamIT_T0_ES6_ (%struct._ZSo* @_ZSt4cout), !dbg !5625
	%1207 = bitcast %struct._ZSo*  %1206 to i8*, !dbg !5625
	%1208 = bitcast %struct._ZSo** %.Q0092.addr to i8**, !dbg !5625
	store i8*  %1207, i8**  %1208, align 8, !tbaa !5847, !dbg !5625
	%1209 = bitcast [17 x i8]* @.S10044 to i8*, !dbg !5675
	%1210 = icmp ne i8*  %1209,  null, !dbg !5675
	br i1  %1210, label %L..inline.27919, label %L.B1772, !dbg !5675
L.B1772:
	%1211 = bitcast %struct._ZSo* @_ZSt4cout to i8*, !dbg !5629
	%1212 = bitcast %struct._ZSo* @_ZSt4cout to i8**, !dbg !5629
	%1213 = load i8*, i8**  %1212, align 8, !tbaa !5847, !dbg !5629
	%1214 = getelementptr i8, i8*  %1213, i64 18446744073709551592, !dbg !5629
	%1215 = bitcast i8*  %1214 to i64*, !dbg !5629
	%1216 = load i64, i64*  %1215, align 8, !tbaa !5848, !dbg !5629
	%1217 = getelementptr i8, i8*  %1211, i64  %1216, !dbg !5629
	%1218 = bitcast %struct._ZSt9basic_iosIcSt11char_traitsIcEE** %..inline.addr.2800 to i8**, !dbg !5629
	store i8*  %1217, i8**  %1218, align 8, !tbaa !5847, !dbg !5629
	%1219 = bitcast %struct._ZSt9basic_iosIcSt11char_traitsIcEE** %..inline.addr.2810 to i8**, !dbg !5629
	store i8*  %1217, i8**  %1219, align 8, !tbaa !5847, !dbg !5629
	%1220 = load %struct._ZSt9basic_iosIcSt11char_traitsIcEE*, %struct._ZSt9basic_iosIcSt11char_traitsIcEE** %..inline.addr.2810, align 8, !tbaa !5847, !dbg !5629
	%1221 = bitcast %struct._ZSt9basic_iosIcSt11char_traitsIcEE*  %1220 to i8*, !dbg !5629
	%1222 = getelementptr i8, i8*  %1221, i64 32, !dbg !5629
	%1223 = bitcast i8*  %1222 to i32*, !dbg !5629
	%1224 = load i32, i32*  %1223, align 4, !tbaa !5848, !dbg !5629
	%1225 = or i32  %1224, 1, !dbg !5629
	%1226 = load %struct._ZSt9basic_iosIcSt11char_traitsIcEE*, %struct._ZSt9basic_iosIcSt11char_traitsIcEE** %..inline.addr.2800, align 8, !tbaa !5847, !dbg !5629
	call void  @_ZNSt9basic_iosIcSt11char_traitsIcEE5clearESt12_Ios_Iostate (%struct._ZSt9basic_iosIcSt11char_traitsIcEE*  %1226, i32  %1225), !dbg !5629
	br label %L..inline.27940, !dbg !5629
L..inline.27919:
	%1227 = bitcast [17 x i8]* @.S10044 to i8*, !dbg !5630
	%1228 = call i64  @strlen (i8*  %1227) nounwind, !dbg !5630
	%1229 = call %struct._ZSo*  @_ZSt16__ostream_insertIcSt11char_traitsIcEERSt13basic_ostreamIT_T0_ES6_PKS3_l (%struct._ZSo* @_ZSt4cout, i8*  %1227, i64  %1228), !dbg !5630
	%1230 = bitcast %struct._ZSo*  %1229 to i8*, !dbg !5630
	%1231 = bitcast %struct._ZSo** %.Q0093.addr to i8**, !dbg !5630
	store i8*  %1230, i8**  %1231, align 8, !tbaa !5847, !dbg !5630
	br label %L..inline.27940
L..inline.27940:
	%1232 = call %struct._ZSo*  @_ZSt4endlIcSt11char_traitsIcEERSt13basic_ostreamIT_T0_ES6_ (%struct._ZSo* @_ZSt4cout), !dbg !5625
	%1233 = bitcast %struct._ZSo*  %1232 to i8*, !dbg !5625
	%1234 = bitcast %struct._ZSo** %.Q0094.addr to i8**, !dbg !5625
	store i8*  %1233, i8**  %1234, align 8, !tbaa !5847, !dbg !5625
	%1235 = bitcast [13 x i8]* @.S10046 to i8*, !dbg !5676
	%1236 = icmp ne i8*  %1235,  null, !dbg !5676
	br i1  %1236, label %L..inline.27960, label %L.B1773, !dbg !5676
L.B1773:
	%1237 = bitcast %struct._ZSo* @_ZSt4cout to i8*, !dbg !5629
	%1238 = bitcast %struct._ZSo* @_ZSt4cout to i8**, !dbg !5629
	%1239 = load i8*, i8**  %1238, align 8, !tbaa !5847, !dbg !5629
	%1240 = getelementptr i8, i8*  %1239, i64 18446744073709551592, !dbg !5629
	%1241 = bitcast i8*  %1240 to i64*, !dbg !5629
	%1242 = load i64, i64*  %1241, align 8, !tbaa !5848, !dbg !5629
	%1243 = getelementptr i8, i8*  %1237, i64  %1242, !dbg !5629
	%1244 = bitcast %struct._ZSt9basic_iosIcSt11char_traitsIcEE** %..inline.addr.2860 to i8**, !dbg !5629
	store i8*  %1243, i8**  %1244, align 8, !tbaa !5847, !dbg !5629
	%1245 = bitcast %struct._ZSt9basic_iosIcSt11char_traitsIcEE** %..inline.addr.2870 to i8**, !dbg !5629
	store i8*  %1243, i8**  %1245, align 8, !tbaa !5847, !dbg !5629
	%1246 = load %struct._ZSt9basic_iosIcSt11char_traitsIcEE*, %struct._ZSt9basic_iosIcSt11char_traitsIcEE** %..inline.addr.2870, align 8, !tbaa !5847, !dbg !5629
	%1247 = bitcast %struct._ZSt9basic_iosIcSt11char_traitsIcEE*  %1246 to i8*, !dbg !5629
	%1248 = getelementptr i8, i8*  %1247, i64 32, !dbg !5629
	%1249 = bitcast i8*  %1248 to i32*, !dbg !5629
	%1250 = load i32, i32*  %1249, align 4, !tbaa !5848, !dbg !5629
	%1251 = or i32  %1250, 1, !dbg !5629
	%1252 = load %struct._ZSt9basic_iosIcSt11char_traitsIcEE*, %struct._ZSt9basic_iosIcSt11char_traitsIcEE** %..inline.addr.2860, align 8, !tbaa !5847, !dbg !5629
	call void  @_ZNSt9basic_iosIcSt11char_traitsIcEE5clearESt12_Ios_Iostate (%struct._ZSt9basic_iosIcSt11char_traitsIcEE*  %1252, i32  %1251), !dbg !5629
	br label %L..inline.27981, !dbg !5629
L..inline.27960:
	%1253 = bitcast [13 x i8]* @.S10046 to i8*, !dbg !5630
	%1254 = call i64  @strlen (i8*  %1253) nounwind, !dbg !5630
	%1255 = call %struct._ZSo*  @_ZSt16__ostream_insertIcSt11char_traitsIcEERSt13basic_ostreamIT_T0_ES6_PKS3_l (%struct._ZSo* @_ZSt4cout, i8*  %1253, i64  %1254), !dbg !5630
	%1256 = bitcast %struct._ZSo*  %1255 to i8*, !dbg !5630
	%1257 = bitcast %struct._ZSo** %.Q0095.addr to i8**, !dbg !5630
	store i8*  %1256, i8**  %1257, align 8, !tbaa !5847, !dbg !5630
	br label %L..inline.27981
L..inline.27981:
	%1258 = call %struct._ZSo*  @_ZSt4endlIcSt11char_traitsIcEERSt13basic_ostreamIT_T0_ES6_ (%struct._ZSo* @_ZSt4cout), !dbg !5625
	%1259 = bitcast %struct._ZSo*  %1258 to i8*, !dbg !5625
	%1260 = bitcast %struct._ZSo** %.Q0096.addr to i8**, !dbg !5625
	store i8*  %1259, i8**  %1260, align 8, !tbaa !5847, !dbg !5625
	%1261 = bitcast [12 x i8]* @.S10048 to i8*, !dbg !5677
	%1262 = icmp ne i8*  %1261,  null, !dbg !5677
	br i1  %1262, label %L..inline.28001, label %L.B1774, !dbg !5677
L.B1774:
	%1263 = bitcast %struct._ZSo* @_ZSt4cout to i8*, !dbg !5629
	%1264 = bitcast %struct._ZSo* @_ZSt4cout to i8**, !dbg !5629
	%1265 = load i8*, i8**  %1264, align 8, !tbaa !5847, !dbg !5629
	%1266 = getelementptr i8, i8*  %1265, i64 18446744073709551592, !dbg !5629
	%1267 = bitcast i8*  %1266 to i64*, !dbg !5629
	%1268 = load i64, i64*  %1267, align 8, !tbaa !5848, !dbg !5629
	%1269 = getelementptr i8, i8*  %1263, i64  %1268, !dbg !5629
	%1270 = bitcast %struct._ZSt9basic_iosIcSt11char_traitsIcEE** %..inline.addr.2920 to i8**, !dbg !5629
	store i8*  %1269, i8**  %1270, align 8, !tbaa !5847, !dbg !5629
	%1271 = bitcast %struct._ZSt9basic_iosIcSt11char_traitsIcEE** %..inline.addr.2930 to i8**, !dbg !5629
	store i8*  %1269, i8**  %1271, align 8, !tbaa !5847, !dbg !5629
	%1272 = load %struct._ZSt9basic_iosIcSt11char_traitsIcEE*, %struct._ZSt9basic_iosIcSt11char_traitsIcEE** %..inline.addr.2930, align 8, !tbaa !5847, !dbg !5629
	%1273 = bitcast %struct._ZSt9basic_iosIcSt11char_traitsIcEE*  %1272 to i8*, !dbg !5629
	%1274 = getelementptr i8, i8*  %1273, i64 32, !dbg !5629
	%1275 = bitcast i8*  %1274 to i32*, !dbg !5629
	%1276 = load i32, i32*  %1275, align 4, !tbaa !5848, !dbg !5629
	%1277 = or i32  %1276, 1, !dbg !5629
	%1278 = load %struct._ZSt9basic_iosIcSt11char_traitsIcEE*, %struct._ZSt9basic_iosIcSt11char_traitsIcEE** %..inline.addr.2920, align 8, !tbaa !5847, !dbg !5629
	call void  @_ZNSt9basic_iosIcSt11char_traitsIcEE5clearESt12_Ios_Iostate (%struct._ZSt9basic_iosIcSt11char_traitsIcEE*  %1278, i32  %1277), !dbg !5629
	br label %L..inline.28022, !dbg !5629
L..inline.28001:
	%1279 = bitcast [12 x i8]* @.S10048 to i8*, !dbg !5630
	%1280 = call i64  @strlen (i8*  %1279) nounwind, !dbg !5630
	%1281 = call %struct._ZSo*  @_ZSt16__ostream_insertIcSt11char_traitsIcEERSt13basic_ostreamIT_T0_ES6_PKS3_l (%struct._ZSo* @_ZSt4cout, i8*  %1279, i64  %1280), !dbg !5630
	%1282 = bitcast %struct._ZSo*  %1281 to i8*, !dbg !5630
	%1283 = bitcast %struct._ZSo** %.Q0097.addr to i8**, !dbg !5630
	store i8*  %1282, i8**  %1283, align 8, !tbaa !5847, !dbg !5630
	br label %L..inline.28022
L..inline.28022:
	%1284 = call %struct._ZSo*  @_ZSt4endlIcSt11char_traitsIcEERSt13basic_ostreamIT_T0_ES6_ (%struct._ZSo* @_ZSt4cout), !dbg !5625
	%1285 = bitcast %struct._ZSo*  %1284 to i8*, !dbg !5625
	%1286 = bitcast %struct._ZSo** %.Q0098.addr to i8**, !dbg !5625
	store i8*  %1285, i8**  %1286, align 8, !tbaa !5847, !dbg !5625
	%1287 = bitcast [16 x i8]* @.S10050 to i8*, !dbg !5678
	%1288 = icmp ne i8*  %1287,  null, !dbg !5678
	br i1  %1288, label %L..inline.28042, label %L.B1775, !dbg !5678
L.B1775:
	%1289 = bitcast %struct._ZSo* @_ZSt4cout to i8*, !dbg !5629
	%1290 = bitcast %struct._ZSo* @_ZSt4cout to i8**, !dbg !5629
	%1291 = load i8*, i8**  %1290, align 8, !tbaa !5847, !dbg !5629
	%1292 = getelementptr i8, i8*  %1291, i64 18446744073709551592, !dbg !5629
	%1293 = bitcast i8*  %1292 to i64*, !dbg !5629
	%1294 = load i64, i64*  %1293, align 8, !tbaa !5848, !dbg !5629
	%1295 = getelementptr i8, i8*  %1289, i64  %1294, !dbg !5629
	%1296 = bitcast %struct._ZSt9basic_iosIcSt11char_traitsIcEE** %..inline.addr.2980 to i8**, !dbg !5629
	store i8*  %1295, i8**  %1296, align 8, !tbaa !5847, !dbg !5629
	%1297 = bitcast %struct._ZSt9basic_iosIcSt11char_traitsIcEE** %..inline.addr.2990 to i8**, !dbg !5629
	store i8*  %1295, i8**  %1297, align 8, !tbaa !5847, !dbg !5629
	%1298 = load %struct._ZSt9basic_iosIcSt11char_traitsIcEE*, %struct._ZSt9basic_iosIcSt11char_traitsIcEE** %..inline.addr.2990, align 8, !tbaa !5847, !dbg !5629
	%1299 = bitcast %struct._ZSt9basic_iosIcSt11char_traitsIcEE*  %1298 to i8*, !dbg !5629
	%1300 = getelementptr i8, i8*  %1299, i64 32, !dbg !5629
	%1301 = bitcast i8*  %1300 to i32*, !dbg !5629
	%1302 = load i32, i32*  %1301, align 4, !tbaa !5848, !dbg !5629
	%1303 = or i32  %1302, 1, !dbg !5629
	%1304 = load %struct._ZSt9basic_iosIcSt11char_traitsIcEE*, %struct._ZSt9basic_iosIcSt11char_traitsIcEE** %..inline.addr.2980, align 8, !tbaa !5847, !dbg !5629
	call void  @_ZNSt9basic_iosIcSt11char_traitsIcEE5clearESt12_Ios_Iostate (%struct._ZSt9basic_iosIcSt11char_traitsIcEE*  %1304, i32  %1303), !dbg !5629
	br label %L..inline.28063, !dbg !5629
L..inline.28042:
	%1305 = bitcast [16 x i8]* @.S10050 to i8*, !dbg !5630
	%1306 = call i64  @strlen (i8*  %1305) nounwind, !dbg !5630
	%1307 = call %struct._ZSo*  @_ZSt16__ostream_insertIcSt11char_traitsIcEERSt13basic_ostreamIT_T0_ES6_PKS3_l (%struct._ZSo* @_ZSt4cout, i8*  %1305, i64  %1306), !dbg !5630
	%1308 = bitcast %struct._ZSo*  %1307 to i8*, !dbg !5630
	%1309 = bitcast %struct._ZSo** %.Q0099.addr to i8**, !dbg !5630
	store i8*  %1308, i8**  %1309, align 8, !tbaa !5847, !dbg !5630
	br label %L..inline.28063
L..inline.28063:
	%1310 = call %struct._ZSo*  @_ZSt4endlIcSt11char_traitsIcEERSt13basic_ostreamIT_T0_ES6_ (%struct._ZSo* @_ZSt4cout), !dbg !5625
	%1311 = bitcast %struct._ZSo*  %1310 to i8*, !dbg !5625
	%1312 = bitcast %struct._ZSo** %.Q0100.addr to i8**, !dbg !5625
	store i8*  %1311, i8**  %1312, align 8, !tbaa !5847, !dbg !5625
	%1313 = bitcast [15 x i8]* @.S10052 to i8*, !dbg !5679
	%1314 = icmp ne i8*  %1313,  null, !dbg !5679
	br i1  %1314, label %L..inline.28083, label %L.B1776, !dbg !5679
L.B1776:
	%1315 = bitcast %struct._ZSo* @_ZSt4cout to i8*, !dbg !5629
	%1316 = bitcast %struct._ZSo* @_ZSt4cout to i8**, !dbg !5629
	%1317 = load i8*, i8**  %1316, align 8, !tbaa !5847, !dbg !5629
	%1318 = getelementptr i8, i8*  %1317, i64 18446744073709551592, !dbg !5629
	%1319 = bitcast i8*  %1318 to i64*, !dbg !5629
	%1320 = load i64, i64*  %1319, align 8, !tbaa !5848, !dbg !5629
	%1321 = getelementptr i8, i8*  %1315, i64  %1320, !dbg !5629
	%1322 = bitcast %struct._ZSt9basic_iosIcSt11char_traitsIcEE** %..inline.addr.3040 to i8**, !dbg !5629
	store i8*  %1321, i8**  %1322, align 8, !tbaa !5847, !dbg !5629
	%1323 = bitcast %struct._ZSt9basic_iosIcSt11char_traitsIcEE** %..inline.addr.3050 to i8**, !dbg !5629
	store i8*  %1321, i8**  %1323, align 8, !tbaa !5847, !dbg !5629
	%1324 = load %struct._ZSt9basic_iosIcSt11char_traitsIcEE*, %struct._ZSt9basic_iosIcSt11char_traitsIcEE** %..inline.addr.3050, align 8, !tbaa !5847, !dbg !5629
	%1325 = bitcast %struct._ZSt9basic_iosIcSt11char_traitsIcEE*  %1324 to i8*, !dbg !5629
	%1326 = getelementptr i8, i8*  %1325, i64 32, !dbg !5629
	%1327 = bitcast i8*  %1326 to i32*, !dbg !5629
	%1328 = load i32, i32*  %1327, align 4, !tbaa !5848, !dbg !5629
	%1329 = or i32  %1328, 1, !dbg !5629
	%1330 = load %struct._ZSt9basic_iosIcSt11char_traitsIcEE*, %struct._ZSt9basic_iosIcSt11char_traitsIcEE** %..inline.addr.3040, align 8, !tbaa !5847, !dbg !5629
	call void  @_ZNSt9basic_iosIcSt11char_traitsIcEE5clearESt12_Ios_Iostate (%struct._ZSt9basic_iosIcSt11char_traitsIcEE*  %1330, i32  %1329), !dbg !5629
	br label %L..inline.28104, !dbg !5629
L..inline.28083:
	%1331 = bitcast [15 x i8]* @.S10052 to i8*, !dbg !5630
	%1332 = call i64  @strlen (i8*  %1331) nounwind, !dbg !5630
	%1333 = call %struct._ZSo*  @_ZSt16__ostream_insertIcSt11char_traitsIcEERSt13basic_ostreamIT_T0_ES6_PKS3_l (%struct._ZSo* @_ZSt4cout, i8*  %1331, i64  %1332), !dbg !5630
	%1334 = bitcast %struct._ZSo*  %1333 to i8*, !dbg !5630
	%1335 = bitcast %struct._ZSo** %.Q0101.addr to i8**, !dbg !5630
	store i8*  %1334, i8**  %1335, align 8, !tbaa !5847, !dbg !5630
	br label %L..inline.28104
L..inline.28104:
	%1336 = call %struct._ZSo*  @_ZSt4endlIcSt11char_traitsIcEERSt13basic_ostreamIT_T0_ES6_ (%struct._ZSo* @_ZSt4cout), !dbg !5625
	%1337 = bitcast %struct._ZSo*  %1336 to i8*, !dbg !5625
	%1338 = bitcast %struct._ZSo** %.Q0102.addr to i8**, !dbg !5625
	store i8*  %1337, i8**  %1338, align 8, !tbaa !5847, !dbg !5625
	%1339 = bitcast [17 x i8]* @.S10054 to i8*, !dbg !5680
	%1340 = icmp ne i8*  %1339,  null, !dbg !5680
	br i1  %1340, label %L..inline.28124, label %L.B1777, !dbg !5680
L.B1777:
	%1341 = bitcast %struct._ZSo* @_ZSt4cout to i8*, !dbg !5629
	%1342 = bitcast %struct._ZSo* @_ZSt4cout to i8**, !dbg !5629
	%1343 = load i8*, i8**  %1342, align 8, !tbaa !5847, !dbg !5629
	%1344 = getelementptr i8, i8*  %1343, i64 18446744073709551592, !dbg !5629
	%1345 = bitcast i8*  %1344 to i64*, !dbg !5629
	%1346 = load i64, i64*  %1345, align 8, !tbaa !5848, !dbg !5629
	%1347 = getelementptr i8, i8*  %1341, i64  %1346, !dbg !5629
	%1348 = bitcast %struct._ZSt9basic_iosIcSt11char_traitsIcEE** %..inline.addr.3100 to i8**, !dbg !5629
	store i8*  %1347, i8**  %1348, align 8, !tbaa !5847, !dbg !5629
	%1349 = bitcast %struct._ZSt9basic_iosIcSt11char_traitsIcEE** %..inline.addr.3110 to i8**, !dbg !5629
	store i8*  %1347, i8**  %1349, align 8, !tbaa !5847, !dbg !5629
	%1350 = load %struct._ZSt9basic_iosIcSt11char_traitsIcEE*, %struct._ZSt9basic_iosIcSt11char_traitsIcEE** %..inline.addr.3110, align 8, !tbaa !5847, !dbg !5629
	%1351 = bitcast %struct._ZSt9basic_iosIcSt11char_traitsIcEE*  %1350 to i8*, !dbg !5629
	%1352 = getelementptr i8, i8*  %1351, i64 32, !dbg !5629
	%1353 = bitcast i8*  %1352 to i32*, !dbg !5629
	%1354 = load i32, i32*  %1353, align 4, !tbaa !5848, !dbg !5629
	%1355 = or i32  %1354, 1, !dbg !5629
	%1356 = load %struct._ZSt9basic_iosIcSt11char_traitsIcEE*, %struct._ZSt9basic_iosIcSt11char_traitsIcEE** %..inline.addr.3100, align 8, !tbaa !5847, !dbg !5629
	call void  @_ZNSt9basic_iosIcSt11char_traitsIcEE5clearESt12_Ios_Iostate (%struct._ZSt9basic_iosIcSt11char_traitsIcEE*  %1356, i32  %1355), !dbg !5629
	br label %L..inline.28145, !dbg !5629
L..inline.28124:
	%1357 = bitcast [17 x i8]* @.S10054 to i8*, !dbg !5630
	%1358 = call i64  @strlen (i8*  %1357) nounwind, !dbg !5630
	%1359 = call %struct._ZSo*  @_ZSt16__ostream_insertIcSt11char_traitsIcEERSt13basic_ostreamIT_T0_ES6_PKS3_l (%struct._ZSo* @_ZSt4cout, i8*  %1357, i64  %1358), !dbg !5630
	%1360 = bitcast %struct._ZSo*  %1359 to i8*, !dbg !5630
	%1361 = bitcast %struct._ZSo** %.Q0103.addr to i8**, !dbg !5630
	store i8*  %1360, i8**  %1361, align 8, !tbaa !5847, !dbg !5630
	br label %L..inline.28145
L..inline.28145:
	%1362 = call %struct._ZSo*  @_ZSt4endlIcSt11char_traitsIcEERSt13basic_ostreamIT_T0_ES6_ (%struct._ZSo* @_ZSt4cout), !dbg !5625
	%1363 = bitcast %struct._ZSo*  %1362 to i8*, !dbg !5625
	%1364 = bitcast %struct._ZSo** %.Q0104.addr to i8**, !dbg !5625
	store i8*  %1363, i8**  %1364, align 8, !tbaa !5847, !dbg !5625
	%1365 = bitcast [16 x i8]* @.S10056 to i8*, !dbg !5681
	%1366 = icmp ne i8*  %1365,  null, !dbg !5681
	br i1  %1366, label %L..inline.28165, label %L.B1778, !dbg !5681
L.B1778:
	%1367 = bitcast %struct._ZSo* @_ZSt4cout to i8*, !dbg !5629
	%1368 = bitcast %struct._ZSo* @_ZSt4cout to i8**, !dbg !5629
	%1369 = load i8*, i8**  %1368, align 8, !tbaa !5847, !dbg !5629
	%1370 = getelementptr i8, i8*  %1369, i64 18446744073709551592, !dbg !5629
	%1371 = bitcast i8*  %1370 to i64*, !dbg !5629
	%1372 = load i64, i64*  %1371, align 8, !tbaa !5848, !dbg !5629
	%1373 = getelementptr i8, i8*  %1367, i64  %1372, !dbg !5629
	%1374 = bitcast %struct._ZSt9basic_iosIcSt11char_traitsIcEE** %..inline.addr.3160 to i8**, !dbg !5629
	store i8*  %1373, i8**  %1374, align 8, !tbaa !5847, !dbg !5629
	%1375 = bitcast %struct._ZSt9basic_iosIcSt11char_traitsIcEE** %..inline.addr.3170 to i8**, !dbg !5629
	store i8*  %1373, i8**  %1375, align 8, !tbaa !5847, !dbg !5629
	%1376 = load %struct._ZSt9basic_iosIcSt11char_traitsIcEE*, %struct._ZSt9basic_iosIcSt11char_traitsIcEE** %..inline.addr.3170, align 8, !tbaa !5847, !dbg !5629
	%1377 = bitcast %struct._ZSt9basic_iosIcSt11char_traitsIcEE*  %1376 to i8*, !dbg !5629
	%1378 = getelementptr i8, i8*  %1377, i64 32, !dbg !5629
	%1379 = bitcast i8*  %1378 to i32*, !dbg !5629
	%1380 = load i32, i32*  %1379, align 4, !tbaa !5848, !dbg !5629
	%1381 = or i32  %1380, 1, !dbg !5629
	%1382 = load %struct._ZSt9basic_iosIcSt11char_traitsIcEE*, %struct._ZSt9basic_iosIcSt11char_traitsIcEE** %..inline.addr.3160, align 8, !tbaa !5847, !dbg !5629
	call void  @_ZNSt9basic_iosIcSt11char_traitsIcEE5clearESt12_Ios_Iostate (%struct._ZSt9basic_iosIcSt11char_traitsIcEE*  %1382, i32  %1381), !dbg !5629
	br label %L..inline.28186, !dbg !5629
L..inline.28165:
	%1383 = bitcast [16 x i8]* @.S10056 to i8*, !dbg !5630
	%1384 = call i64  @strlen (i8*  %1383) nounwind, !dbg !5630
	%1385 = call %struct._ZSo*  @_ZSt16__ostream_insertIcSt11char_traitsIcEERSt13basic_ostreamIT_T0_ES6_PKS3_l (%struct._ZSo* @_ZSt4cout, i8*  %1383, i64  %1384), !dbg !5630
	%1386 = bitcast %struct._ZSo*  %1385 to i8*, !dbg !5630
	%1387 = bitcast %struct._ZSo** %.Q0105.addr to i8**, !dbg !5630
	store i8*  %1386, i8**  %1387, align 8, !tbaa !5847, !dbg !5630
	br label %L..inline.28186
L..inline.28186:
	%1388 = call %struct._ZSo*  @_ZSt4endlIcSt11char_traitsIcEERSt13basic_ostreamIT_T0_ES6_ (%struct._ZSo* @_ZSt4cout), !dbg !5625
	%1389 = bitcast %struct._ZSo*  %1388 to i8*, !dbg !5625
	%1390 = bitcast %struct._ZSo** %.Q0106.addr to i8**, !dbg !5625
	store i8*  %1389, i8**  %1390, align 8, !tbaa !5847, !dbg !5625
	%1391 = bitcast [11 x i8]* @.S10058 to i8*, !dbg !5682
	%1392 = icmp ne i8*  %1391,  null, !dbg !5682
	br i1  %1392, label %L..inline.28206, label %L.B1779, !dbg !5682
L.B1779:
	%1393 = bitcast %struct._ZSo* @_ZSt4cout to i8*, !dbg !5629
	%1394 = bitcast %struct._ZSo* @_ZSt4cout to i8**, !dbg !5629
	%1395 = load i8*, i8**  %1394, align 8, !tbaa !5847, !dbg !5629
	%1396 = getelementptr i8, i8*  %1395, i64 18446744073709551592, !dbg !5629
	%1397 = bitcast i8*  %1396 to i64*, !dbg !5629
	%1398 = load i64, i64*  %1397, align 8, !tbaa !5848, !dbg !5629
	%1399 = getelementptr i8, i8*  %1393, i64  %1398, !dbg !5629
	%1400 = bitcast %struct._ZSt9basic_iosIcSt11char_traitsIcEE** %..inline.addr.3220 to i8**, !dbg !5629
	store i8*  %1399, i8**  %1400, align 8, !tbaa !5847, !dbg !5629
	%1401 = bitcast %struct._ZSt9basic_iosIcSt11char_traitsIcEE** %..inline.addr.3230 to i8**, !dbg !5629
	store i8*  %1399, i8**  %1401, align 8, !tbaa !5847, !dbg !5629
	%1402 = load %struct._ZSt9basic_iosIcSt11char_traitsIcEE*, %struct._ZSt9basic_iosIcSt11char_traitsIcEE** %..inline.addr.3230, align 8, !tbaa !5847, !dbg !5629
	%1403 = bitcast %struct._ZSt9basic_iosIcSt11char_traitsIcEE*  %1402 to i8*, !dbg !5629
	%1404 = getelementptr i8, i8*  %1403, i64 32, !dbg !5629
	%1405 = bitcast i8*  %1404 to i32*, !dbg !5629
	%1406 = load i32, i32*  %1405, align 4, !tbaa !5848, !dbg !5629
	%1407 = or i32  %1406, 1, !dbg !5629
	%1408 = load %struct._ZSt9basic_iosIcSt11char_traitsIcEE*, %struct._ZSt9basic_iosIcSt11char_traitsIcEE** %..inline.addr.3220, align 8, !tbaa !5847, !dbg !5629
	call void  @_ZNSt9basic_iosIcSt11char_traitsIcEE5clearESt12_Ios_Iostate (%struct._ZSt9basic_iosIcSt11char_traitsIcEE*  %1408, i32  %1407), !dbg !5629
	br label %L..inline.28227, !dbg !5629
L..inline.28206:
	%1409 = bitcast [11 x i8]* @.S10058 to i8*, !dbg !5630
	%1410 = call i64  @strlen (i8*  %1409) nounwind, !dbg !5630
	%1411 = call %struct._ZSo*  @_ZSt16__ostream_insertIcSt11char_traitsIcEERSt13basic_ostreamIT_T0_ES6_PKS3_l (%struct._ZSo* @_ZSt4cout, i8*  %1409, i64  %1410), !dbg !5630
	%1412 = bitcast %struct._ZSo*  %1411 to i8*, !dbg !5630
	%1413 = bitcast %struct._ZSo** %.Q0107.addr to i8**, !dbg !5630
	store i8*  %1412, i8**  %1413, align 8, !tbaa !5847, !dbg !5630
	br label %L..inline.28227
L..inline.28227:
	%1414 = call %struct._ZSo*  @_ZSt4endlIcSt11char_traitsIcEERSt13basic_ostreamIT_T0_ES6_ (%struct._ZSo* @_ZSt4cout), !dbg !5625
	%1415 = bitcast %struct._ZSo*  %1414 to i8*, !dbg !5625
	%1416 = bitcast %struct._ZSo** %.Q0108.addr to i8**, !dbg !5625
	store i8*  %1415, i8**  %1416, align 8, !tbaa !5847, !dbg !5625
	%1417 = bitcast [10 x i8]* @.S10060 to i8*, !dbg !5683
	%1418 = icmp ne i8*  %1417,  null, !dbg !5683
	br i1  %1418, label %L..inline.28247, label %L.B1780, !dbg !5683
L.B1780:
	%1419 = bitcast %struct._ZSo* @_ZSt4cout to i8*, !dbg !5629
	%1420 = bitcast %struct._ZSo* @_ZSt4cout to i8**, !dbg !5629
	%1421 = load i8*, i8**  %1420, align 8, !tbaa !5847, !dbg !5629
	%1422 = getelementptr i8, i8*  %1421, i64 18446744073709551592, !dbg !5629
	%1423 = bitcast i8*  %1422 to i64*, !dbg !5629
	%1424 = load i64, i64*  %1423, align 8, !tbaa !5848, !dbg !5629
	%1425 = getelementptr i8, i8*  %1419, i64  %1424, !dbg !5629
	%1426 = bitcast %struct._ZSt9basic_iosIcSt11char_traitsIcEE** %..inline.addr.3280 to i8**, !dbg !5629
	store i8*  %1425, i8**  %1426, align 8, !tbaa !5847, !dbg !5629
	%1427 = bitcast %struct._ZSt9basic_iosIcSt11char_traitsIcEE** %..inline.addr.3290 to i8**, !dbg !5629
	store i8*  %1425, i8**  %1427, align 8, !tbaa !5847, !dbg !5629
	%1428 = load %struct._ZSt9basic_iosIcSt11char_traitsIcEE*, %struct._ZSt9basic_iosIcSt11char_traitsIcEE** %..inline.addr.3290, align 8, !tbaa !5847, !dbg !5629
	%1429 = bitcast %struct._ZSt9basic_iosIcSt11char_traitsIcEE*  %1428 to i8*, !dbg !5629
	%1430 = getelementptr i8, i8*  %1429, i64 32, !dbg !5629
	%1431 = bitcast i8*  %1430 to i32*, !dbg !5629
	%1432 = load i32, i32*  %1431, align 4, !tbaa !5848, !dbg !5629
	%1433 = or i32  %1432, 1, !dbg !5629
	%1434 = load %struct._ZSt9basic_iosIcSt11char_traitsIcEE*, %struct._ZSt9basic_iosIcSt11char_traitsIcEE** %..inline.addr.3280, align 8, !tbaa !5847, !dbg !5629
	call void  @_ZNSt9basic_iosIcSt11char_traitsIcEE5clearESt12_Ios_Iostate (%struct._ZSt9basic_iosIcSt11char_traitsIcEE*  %1434, i32  %1433), !dbg !5629
	br label %L..inline.28268, !dbg !5629
L..inline.28247:
	%1435 = bitcast [10 x i8]* @.S10060 to i8*, !dbg !5630
	%1436 = call i64  @strlen (i8*  %1435) nounwind, !dbg !5630
	%1437 = call %struct._ZSo*  @_ZSt16__ostream_insertIcSt11char_traitsIcEERSt13basic_ostreamIT_T0_ES6_PKS3_l (%struct._ZSo* @_ZSt4cout, i8*  %1435, i64  %1436), !dbg !5630
	%1438 = bitcast %struct._ZSo*  %1437 to i8*, !dbg !5630
	%1439 = bitcast %struct._ZSo** %.Q0109.addr to i8**, !dbg !5630
	store i8*  %1438, i8**  %1439, align 8, !tbaa !5847, !dbg !5630
	br label %L..inline.28268
L..inline.28268:
	%1440 = call %struct._ZSo*  @_ZSt4endlIcSt11char_traitsIcEERSt13basic_ostreamIT_T0_ES6_ (%struct._ZSo* @_ZSt4cout), !dbg !5625
	%1441 = bitcast %struct._ZSo*  %1440 to i8*, !dbg !5625
	%1442 = bitcast %struct._ZSo** %.Q0110.addr to i8**, !dbg !5625
	store i8*  %1441, i8**  %1442, align 8, !tbaa !5847, !dbg !5625
	%1443 = bitcast [12 x i8]* @.S10062 to i8*, !dbg !5684
	%1444 = icmp ne i8*  %1443,  null, !dbg !5684
	br i1  %1444, label %L..inline.28288, label %L.B1781, !dbg !5684
L.B1781:
	%1445 = bitcast %struct._ZSo* @_ZSt4cout to i8*, !dbg !5629
	%1446 = bitcast %struct._ZSo* @_ZSt4cout to i8**, !dbg !5629
	%1447 = load i8*, i8**  %1446, align 8, !tbaa !5847, !dbg !5629
	%1448 = getelementptr i8, i8*  %1447, i64 18446744073709551592, !dbg !5629
	%1449 = bitcast i8*  %1448 to i64*, !dbg !5629
	%1450 = load i64, i64*  %1449, align 8, !tbaa !5848, !dbg !5629
	%1451 = getelementptr i8, i8*  %1445, i64  %1450, !dbg !5629
	%1452 = bitcast %struct._ZSt9basic_iosIcSt11char_traitsIcEE** %..inline.addr.3340 to i8**, !dbg !5629
	store i8*  %1451, i8**  %1452, align 8, !tbaa !5847, !dbg !5629
	%1453 = bitcast %struct._ZSt9basic_iosIcSt11char_traitsIcEE** %..inline.addr.3350 to i8**, !dbg !5629
	store i8*  %1451, i8**  %1453, align 8, !tbaa !5847, !dbg !5629
	%1454 = load %struct._ZSt9basic_iosIcSt11char_traitsIcEE*, %struct._ZSt9basic_iosIcSt11char_traitsIcEE** %..inline.addr.3350, align 8, !tbaa !5847, !dbg !5629
	%1455 = bitcast %struct._ZSt9basic_iosIcSt11char_traitsIcEE*  %1454 to i8*, !dbg !5629
	%1456 = getelementptr i8, i8*  %1455, i64 32, !dbg !5629
	%1457 = bitcast i8*  %1456 to i32*, !dbg !5629
	%1458 = load i32, i32*  %1457, align 4, !tbaa !5848, !dbg !5629
	%1459 = or i32  %1458, 1, !dbg !5629
	%1460 = load %struct._ZSt9basic_iosIcSt11char_traitsIcEE*, %struct._ZSt9basic_iosIcSt11char_traitsIcEE** %..inline.addr.3340, align 8, !tbaa !5847, !dbg !5629
	call void  @_ZNSt9basic_iosIcSt11char_traitsIcEE5clearESt12_Ios_Iostate (%struct._ZSt9basic_iosIcSt11char_traitsIcEE*  %1460, i32  %1459), !dbg !5629
	br label %L..inline.28309, !dbg !5629
L..inline.28288:
	%1461 = bitcast [12 x i8]* @.S10062 to i8*, !dbg !5630
	%1462 = call i64  @strlen (i8*  %1461) nounwind, !dbg !5630
	%1463 = call %struct._ZSo*  @_ZSt16__ostream_insertIcSt11char_traitsIcEERSt13basic_ostreamIT_T0_ES6_PKS3_l (%struct._ZSo* @_ZSt4cout, i8*  %1461, i64  %1462), !dbg !5630
	%1464 = bitcast %struct._ZSo*  %1463 to i8*, !dbg !5630
	%1465 = bitcast %struct._ZSo** %.Q0111.addr to i8**, !dbg !5630
	store i8*  %1464, i8**  %1465, align 8, !tbaa !5847, !dbg !5630
	br label %L..inline.28309
L..inline.28309:
	%1466 = call %struct._ZSo*  @_ZSt4endlIcSt11char_traitsIcEERSt13basic_ostreamIT_T0_ES6_ (%struct._ZSo* @_ZSt4cout), !dbg !5625
	%1467 = bitcast %struct._ZSo*  %1466 to i8*, !dbg !5625
	%1468 = bitcast %struct._ZSo** %.Q0112.addr to i8**, !dbg !5625
	store i8*  %1467, i8**  %1468, align 8, !tbaa !5847, !dbg !5625
	%1469 = bitcast [11 x i8]* @.S10064 to i8*, !dbg !5685
	%1470 = icmp ne i8*  %1469,  null, !dbg !5685
	br i1  %1470, label %L..inline.28329, label %L.B1782, !dbg !5685
L.B1782:
	%1471 = bitcast %struct._ZSo* @_ZSt4cout to i8*, !dbg !5629
	%1472 = bitcast %struct._ZSo* @_ZSt4cout to i8**, !dbg !5629
	%1473 = load i8*, i8**  %1472, align 8, !tbaa !5847, !dbg !5629
	%1474 = getelementptr i8, i8*  %1473, i64 18446744073709551592, !dbg !5629
	%1475 = bitcast i8*  %1474 to i64*, !dbg !5629
	%1476 = load i64, i64*  %1475, align 8, !tbaa !5848, !dbg !5629
	%1477 = getelementptr i8, i8*  %1471, i64  %1476, !dbg !5629
	%1478 = bitcast %struct._ZSt9basic_iosIcSt11char_traitsIcEE** %..inline.addr.3400 to i8**, !dbg !5629
	store i8*  %1477, i8**  %1478, align 8, !tbaa !5847, !dbg !5629
	%1479 = bitcast %struct._ZSt9basic_iosIcSt11char_traitsIcEE** %..inline.addr.3410 to i8**, !dbg !5629
	store i8*  %1477, i8**  %1479, align 8, !tbaa !5847, !dbg !5629
	%1480 = load %struct._ZSt9basic_iosIcSt11char_traitsIcEE*, %struct._ZSt9basic_iosIcSt11char_traitsIcEE** %..inline.addr.3410, align 8, !tbaa !5847, !dbg !5629
	%1481 = bitcast %struct._ZSt9basic_iosIcSt11char_traitsIcEE*  %1480 to i8*, !dbg !5629
	%1482 = getelementptr i8, i8*  %1481, i64 32, !dbg !5629
	%1483 = bitcast i8*  %1482 to i32*, !dbg !5629
	%1484 = load i32, i32*  %1483, align 4, !tbaa !5848, !dbg !5629
	%1485 = or i32  %1484, 1, !dbg !5629
	%1486 = load %struct._ZSt9basic_iosIcSt11char_traitsIcEE*, %struct._ZSt9basic_iosIcSt11char_traitsIcEE** %..inline.addr.3400, align 8, !tbaa !5847, !dbg !5629
	call void  @_ZNSt9basic_iosIcSt11char_traitsIcEE5clearESt12_Ios_Iostate (%struct._ZSt9basic_iosIcSt11char_traitsIcEE*  %1486, i32  %1485), !dbg !5629
	br label %L..inline.28350, !dbg !5629
L..inline.28329:
	%1487 = bitcast [11 x i8]* @.S10064 to i8*, !dbg !5630
	%1488 = call i64  @strlen (i8*  %1487) nounwind, !dbg !5630
	%1489 = call %struct._ZSo*  @_ZSt16__ostream_insertIcSt11char_traitsIcEERSt13basic_ostreamIT_T0_ES6_PKS3_l (%struct._ZSo* @_ZSt4cout, i8*  %1487, i64  %1488), !dbg !5630
	%1490 = bitcast %struct._ZSo*  %1489 to i8*, !dbg !5630
	%1491 = bitcast %struct._ZSo** %.Q0113.addr to i8**, !dbg !5630
	store i8*  %1490, i8**  %1491, align 8, !tbaa !5847, !dbg !5630
	br label %L..inline.28350
L..inline.28350:
	%1492 = call %struct._ZSo*  @_ZSt4endlIcSt11char_traitsIcEERSt13basic_ostreamIT_T0_ES6_ (%struct._ZSo* @_ZSt4cout), !dbg !5625
	%1493 = bitcast %struct._ZSo*  %1492 to i8*, !dbg !5625
	%1494 = bitcast %struct._ZSo** %.Q0114.addr to i8**, !dbg !5625
	store i8*  %1493, i8**  %1494, align 8, !tbaa !5847, !dbg !5625
	%1495 = bitcast [8 x i8]* @.S10066 to i8*, !dbg !5686
	%1496 = icmp ne i8*  %1495,  null, !dbg !5686
	br i1  %1496, label %L..inline.28370, label %L.B1783, !dbg !5686
L.B1783:
	%1497 = bitcast %struct._ZSo* @_ZSt4cout to i8*, !dbg !5629
	%1498 = bitcast %struct._ZSo* @_ZSt4cout to i8**, !dbg !5629
	%1499 = load i8*, i8**  %1498, align 8, !tbaa !5847, !dbg !5629
	%1500 = getelementptr i8, i8*  %1499, i64 18446744073709551592, !dbg !5629
	%1501 = bitcast i8*  %1500 to i64*, !dbg !5629
	%1502 = load i64, i64*  %1501, align 8, !tbaa !5848, !dbg !5629
	%1503 = getelementptr i8, i8*  %1497, i64  %1502, !dbg !5629
	%1504 = bitcast %struct._ZSt9basic_iosIcSt11char_traitsIcEE** %..inline.addr.3460 to i8**, !dbg !5629
	store i8*  %1503, i8**  %1504, align 8, !tbaa !5847, !dbg !5629
	%1505 = bitcast %struct._ZSt9basic_iosIcSt11char_traitsIcEE** %..inline.addr.3470 to i8**, !dbg !5629
	store i8*  %1503, i8**  %1505, align 8, !tbaa !5847, !dbg !5629
	%1506 = load %struct._ZSt9basic_iosIcSt11char_traitsIcEE*, %struct._ZSt9basic_iosIcSt11char_traitsIcEE** %..inline.addr.3470, align 8, !tbaa !5847, !dbg !5629
	%1507 = bitcast %struct._ZSt9basic_iosIcSt11char_traitsIcEE*  %1506 to i8*, !dbg !5629
	%1508 = getelementptr i8, i8*  %1507, i64 32, !dbg !5629
	%1509 = bitcast i8*  %1508 to i32*, !dbg !5629
	%1510 = load i32, i32*  %1509, align 4, !tbaa !5848, !dbg !5629
	%1511 = or i32  %1510, 1, !dbg !5629
	%1512 = load %struct._ZSt9basic_iosIcSt11char_traitsIcEE*, %struct._ZSt9basic_iosIcSt11char_traitsIcEE** %..inline.addr.3460, align 8, !tbaa !5847, !dbg !5629
	call void  @_ZNSt9basic_iosIcSt11char_traitsIcEE5clearESt12_Ios_Iostate (%struct._ZSt9basic_iosIcSt11char_traitsIcEE*  %1512, i32  %1511), !dbg !5629
	br label %L..inline.28391, !dbg !5629
L..inline.28370:
	%1513 = bitcast [8 x i8]* @.S10066 to i8*, !dbg !5630
	%1514 = call i64  @strlen (i8*  %1513) nounwind, !dbg !5630
	%1515 = call %struct._ZSo*  @_ZSt16__ostream_insertIcSt11char_traitsIcEERSt13basic_ostreamIT_T0_ES6_PKS3_l (%struct._ZSo* @_ZSt4cout, i8*  %1513, i64  %1514), !dbg !5630
	%1516 = bitcast %struct._ZSo*  %1515 to i8*, !dbg !5630
	%1517 = bitcast %struct._ZSo** %.Q0115.addr to i8**, !dbg !5630
	store i8*  %1516, i8**  %1517, align 8, !tbaa !5847, !dbg !5630
	br label %L..inline.28391
L..inline.28391:
	%1518 = call %struct._ZSo*  @_ZSt4endlIcSt11char_traitsIcEERSt13basic_ostreamIT_T0_ES6_ (%struct._ZSo* @_ZSt4cout), !dbg !5625
	%1519 = bitcast %struct._ZSo*  %1518 to i8*, !dbg !5625
	%1520 = bitcast %struct._ZSo** %.Q0116.addr to i8**, !dbg !5625
	store i8*  %1519, i8**  %1520, align 8, !tbaa !5847, !dbg !5625
	%1521 = bitcast [7 x i8]* @.S10068 to i8*, !dbg !5687
	%1522 = icmp ne i8*  %1521,  null, !dbg !5687
	br i1  %1522, label %L..inline.28411, label %L.B1784, !dbg !5687
L.B1784:
	%1523 = bitcast %struct._ZSo* @_ZSt4cout to i8*, !dbg !5629
	%1524 = bitcast %struct._ZSo* @_ZSt4cout to i8**, !dbg !5629
	%1525 = load i8*, i8**  %1524, align 8, !tbaa !5847, !dbg !5629
	%1526 = getelementptr i8, i8*  %1525, i64 18446744073709551592, !dbg !5629
	%1527 = bitcast i8*  %1526 to i64*, !dbg !5629
	%1528 = load i64, i64*  %1527, align 8, !tbaa !5848, !dbg !5629
	%1529 = getelementptr i8, i8*  %1523, i64  %1528, !dbg !5629
	%1530 = bitcast %struct._ZSt9basic_iosIcSt11char_traitsIcEE** %..inline.addr.3520 to i8**, !dbg !5629
	store i8*  %1529, i8**  %1530, align 8, !tbaa !5847, !dbg !5629
	%1531 = bitcast %struct._ZSt9basic_iosIcSt11char_traitsIcEE** %..inline.addr.3530 to i8**, !dbg !5629
	store i8*  %1529, i8**  %1531, align 8, !tbaa !5847, !dbg !5629
	%1532 = load %struct._ZSt9basic_iosIcSt11char_traitsIcEE*, %struct._ZSt9basic_iosIcSt11char_traitsIcEE** %..inline.addr.3530, align 8, !tbaa !5847, !dbg !5629
	%1533 = bitcast %struct._ZSt9basic_iosIcSt11char_traitsIcEE*  %1532 to i8*, !dbg !5629
	%1534 = getelementptr i8, i8*  %1533, i64 32, !dbg !5629
	%1535 = bitcast i8*  %1534 to i32*, !dbg !5629
	%1536 = load i32, i32*  %1535, align 4, !tbaa !5848, !dbg !5629
	%1537 = or i32  %1536, 1, !dbg !5629
	%1538 = load %struct._ZSt9basic_iosIcSt11char_traitsIcEE*, %struct._ZSt9basic_iosIcSt11char_traitsIcEE** %..inline.addr.3520, align 8, !tbaa !5847, !dbg !5629
	call void  @_ZNSt9basic_iosIcSt11char_traitsIcEE5clearESt12_Ios_Iostate (%struct._ZSt9basic_iosIcSt11char_traitsIcEE*  %1538, i32  %1537), !dbg !5629
	br label %L..inline.28432, !dbg !5629
L..inline.28411:
	%1539 = bitcast [7 x i8]* @.S10068 to i8*, !dbg !5630
	%1540 = call i64  @strlen (i8*  %1539) nounwind, !dbg !5630
	%1541 = call %struct._ZSo*  @_ZSt16__ostream_insertIcSt11char_traitsIcEERSt13basic_ostreamIT_T0_ES6_PKS3_l (%struct._ZSo* @_ZSt4cout, i8*  %1539, i64  %1540), !dbg !5630
	%1542 = bitcast %struct._ZSo*  %1541 to i8*, !dbg !5630
	%1543 = bitcast %struct._ZSo** %.Q0117.addr to i8**, !dbg !5630
	store i8*  %1542, i8**  %1543, align 8, !tbaa !5847, !dbg !5630
	br label %L..inline.28432
L..inline.28432:
	%1544 = call %struct._ZSo*  @_ZSt4endlIcSt11char_traitsIcEERSt13basic_ostreamIT_T0_ES6_ (%struct._ZSo* @_ZSt4cout), !dbg !5625
	%1545 = bitcast %struct._ZSo*  %1544 to i8*, !dbg !5625
	%1546 = bitcast %struct._ZSo** %.Q0118.addr to i8**, !dbg !5625
	store i8*  %1545, i8**  %1546, align 8, !tbaa !5847, !dbg !5625
	%1547 = bitcast [11 x i8]* @.S10070 to i8*, !dbg !5688
	%1548 = icmp ne i8*  %1547,  null, !dbg !5688
	br i1  %1548, label %L..inline.28452, label %L.B1785, !dbg !5688
L.B1785:
	%1549 = bitcast %struct._ZSo* @_ZSt4cout to i8*, !dbg !5629
	%1550 = bitcast %struct._ZSo* @_ZSt4cout to i8**, !dbg !5629
	%1551 = load i8*, i8**  %1550, align 8, !tbaa !5847, !dbg !5629
	%1552 = getelementptr i8, i8*  %1551, i64 18446744073709551592, !dbg !5629
	%1553 = bitcast i8*  %1552 to i64*, !dbg !5629
	%1554 = load i64, i64*  %1553, align 8, !tbaa !5848, !dbg !5629
	%1555 = getelementptr i8, i8*  %1549, i64  %1554, !dbg !5629
	%1556 = bitcast %struct._ZSt9basic_iosIcSt11char_traitsIcEE** %..inline.addr.3580 to i8**, !dbg !5629
	store i8*  %1555, i8**  %1556, align 8, !tbaa !5847, !dbg !5629
	%1557 = bitcast %struct._ZSt9basic_iosIcSt11char_traitsIcEE** %..inline.addr.3590 to i8**, !dbg !5629
	store i8*  %1555, i8**  %1557, align 8, !tbaa !5847, !dbg !5629
	%1558 = load %struct._ZSt9basic_iosIcSt11char_traitsIcEE*, %struct._ZSt9basic_iosIcSt11char_traitsIcEE** %..inline.addr.3590, align 8, !tbaa !5847, !dbg !5629
	%1559 = bitcast %struct._ZSt9basic_iosIcSt11char_traitsIcEE*  %1558 to i8*, !dbg !5629
	%1560 = getelementptr i8, i8*  %1559, i64 32, !dbg !5629
	%1561 = bitcast i8*  %1560 to i32*, !dbg !5629
	%1562 = load i32, i32*  %1561, align 4, !tbaa !5848, !dbg !5629
	%1563 = or i32  %1562, 1, !dbg !5629
	%1564 = load %struct._ZSt9basic_iosIcSt11char_traitsIcEE*, %struct._ZSt9basic_iosIcSt11char_traitsIcEE** %..inline.addr.3580, align 8, !tbaa !5847, !dbg !5629
	call void  @_ZNSt9basic_iosIcSt11char_traitsIcEE5clearESt12_Ios_Iostate (%struct._ZSt9basic_iosIcSt11char_traitsIcEE*  %1564, i32  %1563), !dbg !5629
	br label %L..inline.28473, !dbg !5629
L..inline.28452:
	%1565 = bitcast [11 x i8]* @.S10070 to i8*, !dbg !5630
	%1566 = call i64  @strlen (i8*  %1565) nounwind, !dbg !5630
	%1567 = call %struct._ZSo*  @_ZSt16__ostream_insertIcSt11char_traitsIcEERSt13basic_ostreamIT_T0_ES6_PKS3_l (%struct._ZSo* @_ZSt4cout, i8*  %1565, i64  %1566), !dbg !5630
	%1568 = bitcast %struct._ZSo*  %1567 to i8*, !dbg !5630
	%1569 = bitcast %struct._ZSo** %.Q0119.addr to i8**, !dbg !5630
	store i8*  %1568, i8**  %1569, align 8, !tbaa !5847, !dbg !5630
	br label %L..inline.28473
L..inline.28473:
	%1570 = call %struct._ZSo*  @_ZSt4endlIcSt11char_traitsIcEERSt13basic_ostreamIT_T0_ES6_ (%struct._ZSo* @_ZSt4cout), !dbg !5625
	%1571 = bitcast %struct._ZSo*  %1570 to i8*, !dbg !5625
	%1572 = bitcast %struct._ZSo** %.Q0120.addr to i8**, !dbg !5625
	store i8*  %1571, i8**  %1572, align 8, !tbaa !5847, !dbg !5625
	%1573 = bitcast [10 x i8]* @.S10072 to i8*, !dbg !5689
	%1574 = icmp ne i8*  %1573,  null, !dbg !5689
	br i1  %1574, label %L..inline.28493, label %L.B1786, !dbg !5689
L.B1786:
	%1575 = bitcast %struct._ZSo* @_ZSt4cout to i8*, !dbg !5629
	%1576 = bitcast %struct._ZSo* @_ZSt4cout to i8**, !dbg !5629
	%1577 = load i8*, i8**  %1576, align 8, !tbaa !5847, !dbg !5629
	%1578 = getelementptr i8, i8*  %1577, i64 18446744073709551592, !dbg !5629
	%1579 = bitcast i8*  %1578 to i64*, !dbg !5629
	%1580 = load i64, i64*  %1579, align 8, !tbaa !5848, !dbg !5629
	%1581 = getelementptr i8, i8*  %1575, i64  %1580, !dbg !5629
	%1582 = bitcast %struct._ZSt9basic_iosIcSt11char_traitsIcEE** %..inline.addr.3640 to i8**, !dbg !5629
	store i8*  %1581, i8**  %1582, align 8, !tbaa !5847, !dbg !5629
	%1583 = bitcast %struct._ZSt9basic_iosIcSt11char_traitsIcEE** %..inline.addr.3650 to i8**, !dbg !5629
	store i8*  %1581, i8**  %1583, align 8, !tbaa !5847, !dbg !5629
	%1584 = load %struct._ZSt9basic_iosIcSt11char_traitsIcEE*, %struct._ZSt9basic_iosIcSt11char_traitsIcEE** %..inline.addr.3650, align 8, !tbaa !5847, !dbg !5629
	%1585 = bitcast %struct._ZSt9basic_iosIcSt11char_traitsIcEE*  %1584 to i8*, !dbg !5629
	%1586 = getelementptr i8, i8*  %1585, i64 32, !dbg !5629
	%1587 = bitcast i8*  %1586 to i32*, !dbg !5629
	%1588 = load i32, i32*  %1587, align 4, !tbaa !5848, !dbg !5629
	%1589 = or i32  %1588, 1, !dbg !5629
	%1590 = load %struct._ZSt9basic_iosIcSt11char_traitsIcEE*, %struct._ZSt9basic_iosIcSt11char_traitsIcEE** %..inline.addr.3640, align 8, !tbaa !5847, !dbg !5629
	call void  @_ZNSt9basic_iosIcSt11char_traitsIcEE5clearESt12_Ios_Iostate (%struct._ZSt9basic_iosIcSt11char_traitsIcEE*  %1590, i32  %1589), !dbg !5629
	br label %L..inline.28514, !dbg !5629
L..inline.28493:
	%1591 = bitcast [10 x i8]* @.S10072 to i8*, !dbg !5630
	%1592 = call i64  @strlen (i8*  %1591) nounwind, !dbg !5630
	%1593 = call %struct._ZSo*  @_ZSt16__ostream_insertIcSt11char_traitsIcEERSt13basic_ostreamIT_T0_ES6_PKS3_l (%struct._ZSo* @_ZSt4cout, i8*  %1591, i64  %1592), !dbg !5630
	%1594 = bitcast %struct._ZSo*  %1593 to i8*, !dbg !5630
	%1595 = bitcast %struct._ZSo** %.Q0121.addr to i8**, !dbg !5630
	store i8*  %1594, i8**  %1595, align 8, !tbaa !5847, !dbg !5630
	br label %L..inline.28514
L..inline.28514:
	%1596 = call %struct._ZSo*  @_ZSt4endlIcSt11char_traitsIcEERSt13basic_ostreamIT_T0_ES6_ (%struct._ZSo* @_ZSt4cout), !dbg !5625
	%1597 = bitcast %struct._ZSo*  %1596 to i8*, !dbg !5625
	%1598 = bitcast %struct._ZSo** %.Q0122.addr to i8**, !dbg !5625
	store i8*  %1597, i8**  %1598, align 8, !tbaa !5847, !dbg !5625
	%1599 = bitcast [26 x i8]* @.S10075 to i8*, !dbg !5690
	%1600 = icmp ne i8*  %1599,  null, !dbg !5690
	br i1  %1600, label %L..inline.28534, label %L.B1787, !dbg !5690
L.B1787:
	%1601 = bitcast %struct._ZSo* @_ZSt4cout to i8*, !dbg !5629
	%1602 = bitcast %struct._ZSo* @_ZSt4cout to i8**, !dbg !5629
	%1603 = load i8*, i8**  %1602, align 8, !tbaa !5847, !dbg !5629
	%1604 = getelementptr i8, i8*  %1603, i64 18446744073709551592, !dbg !5629
	%1605 = bitcast i8*  %1604 to i64*, !dbg !5629
	%1606 = load i64, i64*  %1605, align 8, !tbaa !5848, !dbg !5629
	%1607 = getelementptr i8, i8*  %1601, i64  %1606, !dbg !5629
	%1608 = bitcast %struct._ZSt9basic_iosIcSt11char_traitsIcEE** %..inline.addr.3700 to i8**, !dbg !5629
	store i8*  %1607, i8**  %1608, align 8, !tbaa !5847, !dbg !5629
	%1609 = bitcast %struct._ZSt9basic_iosIcSt11char_traitsIcEE** %..inline.addr.3710 to i8**, !dbg !5629
	store i8*  %1607, i8**  %1609, align 8, !tbaa !5847, !dbg !5629
	%1610 = load %struct._ZSt9basic_iosIcSt11char_traitsIcEE*, %struct._ZSt9basic_iosIcSt11char_traitsIcEE** %..inline.addr.3710, align 8, !tbaa !5847, !dbg !5629
	%1611 = bitcast %struct._ZSt9basic_iosIcSt11char_traitsIcEE*  %1610 to i8*, !dbg !5629
	%1612 = getelementptr i8, i8*  %1611, i64 32, !dbg !5629
	%1613 = bitcast i8*  %1612 to i32*, !dbg !5629
	%1614 = load i32, i32*  %1613, align 4, !tbaa !5848, !dbg !5629
	%1615 = or i32  %1614, 1, !dbg !5629
	%1616 = load %struct._ZSt9basic_iosIcSt11char_traitsIcEE*, %struct._ZSt9basic_iosIcSt11char_traitsIcEE** %..inline.addr.3700, align 8, !tbaa !5847, !dbg !5629
	call void  @_ZNSt9basic_iosIcSt11char_traitsIcEE5clearESt12_Ios_Iostate (%struct._ZSt9basic_iosIcSt11char_traitsIcEE*  %1616, i32  %1615), !dbg !5629
	br label %L..inline.28555, !dbg !5629
L..inline.28534:
	%1617 = bitcast [26 x i8]* @.S10075 to i8*, !dbg !5630
	%1618 = call i64  @strlen (i8*  %1617) nounwind, !dbg !5630
	%1619 = call %struct._ZSo*  @_ZSt16__ostream_insertIcSt11char_traitsIcEERSt13basic_ostreamIT_T0_ES6_PKS3_l (%struct._ZSo* @_ZSt4cout, i8*  %1617, i64  %1618), !dbg !5630
	%1620 = bitcast %struct._ZSo*  %1619 to i8*, !dbg !5630
	%1621 = bitcast %struct._ZSo** %.Q0123.addr to i8**, !dbg !5630
	store i8*  %1620, i8**  %1621, align 8, !tbaa !5847, !dbg !5630
	br label %L..inline.28555
L..inline.28555:
	%1622 = call %struct._ZSo*  @_ZSt4endlIcSt11char_traitsIcEERSt13basic_ostreamIT_T0_ES6_ (%struct._ZSo* @_ZSt4cout), !dbg !5625
	%1623 = bitcast %struct._ZSo*  %1622 to i8*, !dbg !5625
	%1624 = bitcast %struct._ZSo** %.Q0124.addr to i8**, !dbg !5625
	store i8*  %1623, i8**  %1624, align 8, !tbaa !5847, !dbg !5625
	%1625 = bitcast [18 x i8]* @.S10077 to i8*, !dbg !5691
	%1626 = icmp ne i8*  %1625,  null, !dbg !5691
	br i1  %1626, label %L..inline.28575, label %L.B1788, !dbg !5691
L.B1788:
	%1627 = bitcast %struct._ZSo* @_ZSt4cout to i8*, !dbg !5629
	%1628 = bitcast %struct._ZSo* @_ZSt4cout to i8**, !dbg !5629
	%1629 = load i8*, i8**  %1628, align 8, !tbaa !5847, !dbg !5629
	%1630 = getelementptr i8, i8*  %1629, i64 18446744073709551592, !dbg !5629
	%1631 = bitcast i8*  %1630 to i64*, !dbg !5629
	%1632 = load i64, i64*  %1631, align 8, !tbaa !5848, !dbg !5629
	%1633 = getelementptr i8, i8*  %1627, i64  %1632, !dbg !5629
	%1634 = bitcast %struct._ZSt9basic_iosIcSt11char_traitsIcEE** %..inline.addr.3760 to i8**, !dbg !5629
	store i8*  %1633, i8**  %1634, align 8, !tbaa !5847, !dbg !5629
	%1635 = bitcast %struct._ZSt9basic_iosIcSt11char_traitsIcEE** %..inline.addr.3770 to i8**, !dbg !5629
	store i8*  %1633, i8**  %1635, align 8, !tbaa !5847, !dbg !5629
	%1636 = load %struct._ZSt9basic_iosIcSt11char_traitsIcEE*, %struct._ZSt9basic_iosIcSt11char_traitsIcEE** %..inline.addr.3770, align 8, !tbaa !5847, !dbg !5629
	%1637 = bitcast %struct._ZSt9basic_iosIcSt11char_traitsIcEE*  %1636 to i8*, !dbg !5629
	%1638 = getelementptr i8, i8*  %1637, i64 32, !dbg !5629
	%1639 = bitcast i8*  %1638 to i32*, !dbg !5629
	%1640 = load i32, i32*  %1639, align 4, !tbaa !5848, !dbg !5629
	%1641 = or i32  %1640, 1, !dbg !5629
	%1642 = load %struct._ZSt9basic_iosIcSt11char_traitsIcEE*, %struct._ZSt9basic_iosIcSt11char_traitsIcEE** %..inline.addr.3760, align 8, !tbaa !5847, !dbg !5629
	call void  @_ZNSt9basic_iosIcSt11char_traitsIcEE5clearESt12_Ios_Iostate (%struct._ZSt9basic_iosIcSt11char_traitsIcEE*  %1642, i32  %1641), !dbg !5629
	br label %L..inline.28596, !dbg !5629
L..inline.28575:
	%1643 = bitcast [18 x i8]* @.S10077 to i8*, !dbg !5630
	%1644 = call i64  @strlen (i8*  %1643) nounwind, !dbg !5630
	%1645 = call %struct._ZSo*  @_ZSt16__ostream_insertIcSt11char_traitsIcEERSt13basic_ostreamIT_T0_ES6_PKS3_l (%struct._ZSo* @_ZSt4cout, i8*  %1643, i64  %1644), !dbg !5630
	%1646 = bitcast %struct._ZSo*  %1645 to i8*, !dbg !5630
	%1647 = bitcast %struct._ZSo** %.Q0125.addr to i8**, !dbg !5630
	store i8*  %1646, i8**  %1647, align 8, !tbaa !5847, !dbg !5630
	br label %L..inline.28596
L..inline.28596:
	%1648 = call %struct._ZSo*  @_ZSt4endlIcSt11char_traitsIcEERSt13basic_ostreamIT_T0_ES6_ (%struct._ZSo* @_ZSt4cout), !dbg !5625
	%1649 = bitcast %struct._ZSo*  %1648 to i8*, !dbg !5625
	%1650 = bitcast %struct._ZSo** %.Q0126.addr to i8**, !dbg !5625
	store i8*  %1649, i8**  %1650, align 8, !tbaa !5847, !dbg !5625
	%1651 = bitcast [17 x i8]* @.S10079 to i8*, !dbg !5692
	%1652 = icmp ne i8*  %1651,  null, !dbg !5692
	br i1  %1652, label %L..inline.28616, label %L.B1789, !dbg !5692
L.B1789:
	%1653 = bitcast %struct._ZSo* @_ZSt4cout to i8*, !dbg !5629
	%1654 = bitcast %struct._ZSo* @_ZSt4cout to i8**, !dbg !5629
	%1655 = load i8*, i8**  %1654, align 8, !tbaa !5847, !dbg !5629
	%1656 = getelementptr i8, i8*  %1655, i64 18446744073709551592, !dbg !5629
	%1657 = bitcast i8*  %1656 to i64*, !dbg !5629
	%1658 = load i64, i64*  %1657, align 8, !tbaa !5848, !dbg !5629
	%1659 = getelementptr i8, i8*  %1653, i64  %1658, !dbg !5629
	%1660 = bitcast %struct._ZSt9basic_iosIcSt11char_traitsIcEE** %..inline.addr.3820 to i8**, !dbg !5629
	store i8*  %1659, i8**  %1660, align 8, !tbaa !5847, !dbg !5629
	%1661 = bitcast %struct._ZSt9basic_iosIcSt11char_traitsIcEE** %..inline.addr.3830 to i8**, !dbg !5629
	store i8*  %1659, i8**  %1661, align 8, !tbaa !5847, !dbg !5629
	%1662 = load %struct._ZSt9basic_iosIcSt11char_traitsIcEE*, %struct._ZSt9basic_iosIcSt11char_traitsIcEE** %..inline.addr.3830, align 8, !tbaa !5847, !dbg !5629
	%1663 = bitcast %struct._ZSt9basic_iosIcSt11char_traitsIcEE*  %1662 to i8*, !dbg !5629
	%1664 = getelementptr i8, i8*  %1663, i64 32, !dbg !5629
	%1665 = bitcast i8*  %1664 to i32*, !dbg !5629
	%1666 = load i32, i32*  %1665, align 4, !tbaa !5848, !dbg !5629
	%1667 = or i32  %1666, 1, !dbg !5629
	%1668 = load %struct._ZSt9basic_iosIcSt11char_traitsIcEE*, %struct._ZSt9basic_iosIcSt11char_traitsIcEE** %..inline.addr.3820, align 8, !tbaa !5847, !dbg !5629
	call void  @_ZNSt9basic_iosIcSt11char_traitsIcEE5clearESt12_Ios_Iostate (%struct._ZSt9basic_iosIcSt11char_traitsIcEE*  %1668, i32  %1667), !dbg !5629
	br label %L..inline.28637, !dbg !5629
L..inline.28616:
	%1669 = bitcast [17 x i8]* @.S10079 to i8*, !dbg !5630
	%1670 = call i64  @strlen (i8*  %1669) nounwind, !dbg !5630
	%1671 = call %struct._ZSo*  @_ZSt16__ostream_insertIcSt11char_traitsIcEERSt13basic_ostreamIT_T0_ES6_PKS3_l (%struct._ZSo* @_ZSt4cout, i8*  %1669, i64  %1670), !dbg !5630
	%1672 = bitcast %struct._ZSo*  %1671 to i8*, !dbg !5630
	%1673 = bitcast %struct._ZSo** %.Q0127.addr to i8**, !dbg !5630
	store i8*  %1672, i8**  %1673, align 8, !tbaa !5847, !dbg !5630
	br label %L..inline.28637
L..inline.28637:
	%1674 = call %struct._ZSo*  @_ZSt4endlIcSt11char_traitsIcEERSt13basic_ostreamIT_T0_ES6_ (%struct._ZSo* @_ZSt4cout), !dbg !5625
	%1675 = bitcast %struct._ZSo*  %1674 to i8*, !dbg !5625
	%1676 = bitcast %struct._ZSo** %.Q0128.addr to i8**, !dbg !5625
	store i8*  %1675, i8**  %1676, align 8, !tbaa !5847, !dbg !5625
	%1677 = bitcast [14 x i8]* @.S10081 to i8*, !dbg !5693
	%1678 = icmp ne i8*  %1677,  null, !dbg !5693
	br i1  %1678, label %L..inline.28657, label %L.B1790, !dbg !5693
L.B1790:
	%1679 = bitcast %struct._ZSo* @_ZSt4cout to i8*, !dbg !5629
	%1680 = bitcast %struct._ZSo* @_ZSt4cout to i8**, !dbg !5629
	%1681 = load i8*, i8**  %1680, align 8, !tbaa !5847, !dbg !5629
	%1682 = getelementptr i8, i8*  %1681, i64 18446744073709551592, !dbg !5629
	%1683 = bitcast i8*  %1682 to i64*, !dbg !5629
	%1684 = load i64, i64*  %1683, align 8, !tbaa !5848, !dbg !5629
	%1685 = getelementptr i8, i8*  %1679, i64  %1684, !dbg !5629
	%1686 = bitcast %struct._ZSt9basic_iosIcSt11char_traitsIcEE** %..inline.addr.3880 to i8**, !dbg !5629
	store i8*  %1685, i8**  %1686, align 8, !tbaa !5847, !dbg !5629
	%1687 = bitcast %struct._ZSt9basic_iosIcSt11char_traitsIcEE** %..inline.addr.3890 to i8**, !dbg !5629
	store i8*  %1685, i8**  %1687, align 8, !tbaa !5847, !dbg !5629
	%1688 = load %struct._ZSt9basic_iosIcSt11char_traitsIcEE*, %struct._ZSt9basic_iosIcSt11char_traitsIcEE** %..inline.addr.3890, align 8, !tbaa !5847, !dbg !5629
	%1689 = bitcast %struct._ZSt9basic_iosIcSt11char_traitsIcEE*  %1688 to i8*, !dbg !5629
	%1690 = getelementptr i8, i8*  %1689, i64 32, !dbg !5629
	%1691 = bitcast i8*  %1690 to i32*, !dbg !5629
	%1692 = load i32, i32*  %1691, align 4, !tbaa !5848, !dbg !5629
	%1693 = or i32  %1692, 1, !dbg !5629
	%1694 = load %struct._ZSt9basic_iosIcSt11char_traitsIcEE*, %struct._ZSt9basic_iosIcSt11char_traitsIcEE** %..inline.addr.3880, align 8, !tbaa !5847, !dbg !5629
	call void  @_ZNSt9basic_iosIcSt11char_traitsIcEE5clearESt12_Ios_Iostate (%struct._ZSt9basic_iosIcSt11char_traitsIcEE*  %1694, i32  %1693), !dbg !5629
	br label %L..inline.28678, !dbg !5629
L..inline.28657:
	%1695 = bitcast [14 x i8]* @.S10081 to i8*, !dbg !5630
	%1696 = call i64  @strlen (i8*  %1695) nounwind, !dbg !5630
	%1697 = call %struct._ZSo*  @_ZSt16__ostream_insertIcSt11char_traitsIcEERSt13basic_ostreamIT_T0_ES6_PKS3_l (%struct._ZSo* @_ZSt4cout, i8*  %1695, i64  %1696), !dbg !5630
	%1698 = bitcast %struct._ZSo*  %1697 to i8*, !dbg !5630
	%1699 = bitcast %struct._ZSo** %.Q0129.addr to i8**, !dbg !5630
	store i8*  %1698, i8**  %1699, align 8, !tbaa !5847, !dbg !5630
	br label %L..inline.28678
L..inline.28678:
	%1700 = call %struct._ZSo*  @_ZSt4endlIcSt11char_traitsIcEERSt13basic_ostreamIT_T0_ES6_ (%struct._ZSo* @_ZSt4cout), !dbg !5625
	%1701 = bitcast %struct._ZSo*  %1700 to i8*, !dbg !5625
	%1702 = bitcast %struct._ZSo** %.Q0130.addr to i8**, !dbg !5625
	store i8*  %1701, i8**  %1702, align 8, !tbaa !5847, !dbg !5625
	%1703 = bitcast [13 x i8]* @.S10083 to i8*, !dbg !5694
	%1704 = icmp ne i8*  %1703,  null, !dbg !5694
	br i1  %1704, label %L..inline.28698, label %L.B1791, !dbg !5694
L.B1791:
	%1705 = bitcast %struct._ZSo* @_ZSt4cout to i8*, !dbg !5629
	%1706 = bitcast %struct._ZSo* @_ZSt4cout to i8**, !dbg !5629
	%1707 = load i8*, i8**  %1706, align 8, !tbaa !5847, !dbg !5629
	%1708 = getelementptr i8, i8*  %1707, i64 18446744073709551592, !dbg !5629
	%1709 = bitcast i8*  %1708 to i64*, !dbg !5629
	%1710 = load i64, i64*  %1709, align 8, !tbaa !5848, !dbg !5629
	%1711 = getelementptr i8, i8*  %1705, i64  %1710, !dbg !5629
	%1712 = bitcast %struct._ZSt9basic_iosIcSt11char_traitsIcEE** %..inline.addr.3940 to i8**, !dbg !5629
	store i8*  %1711, i8**  %1712, align 8, !tbaa !5847, !dbg !5629
	%1713 = bitcast %struct._ZSt9basic_iosIcSt11char_traitsIcEE** %..inline.addr.3950 to i8**, !dbg !5629
	store i8*  %1711, i8**  %1713, align 8, !tbaa !5847, !dbg !5629
	%1714 = load %struct._ZSt9basic_iosIcSt11char_traitsIcEE*, %struct._ZSt9basic_iosIcSt11char_traitsIcEE** %..inline.addr.3950, align 8, !tbaa !5847, !dbg !5629
	%1715 = bitcast %struct._ZSt9basic_iosIcSt11char_traitsIcEE*  %1714 to i8*, !dbg !5629
	%1716 = getelementptr i8, i8*  %1715, i64 32, !dbg !5629
	%1717 = bitcast i8*  %1716 to i32*, !dbg !5629
	%1718 = load i32, i32*  %1717, align 4, !tbaa !5848, !dbg !5629
	%1719 = or i32  %1718, 1, !dbg !5629
	%1720 = load %struct._ZSt9basic_iosIcSt11char_traitsIcEE*, %struct._ZSt9basic_iosIcSt11char_traitsIcEE** %..inline.addr.3940, align 8, !tbaa !5847, !dbg !5629
	call void  @_ZNSt9basic_iosIcSt11char_traitsIcEE5clearESt12_Ios_Iostate (%struct._ZSt9basic_iosIcSt11char_traitsIcEE*  %1720, i32  %1719), !dbg !5629
	br label %L..inline.28719, !dbg !5629
L..inline.28698:
	%1721 = bitcast [13 x i8]* @.S10083 to i8*, !dbg !5630
	%1722 = call i64  @strlen (i8*  %1721) nounwind, !dbg !5630
	%1723 = call %struct._ZSo*  @_ZSt16__ostream_insertIcSt11char_traitsIcEERSt13basic_ostreamIT_T0_ES6_PKS3_l (%struct._ZSo* @_ZSt4cout, i8*  %1721, i64  %1722), !dbg !5630
	%1724 = bitcast %struct._ZSo*  %1723 to i8*, !dbg !5630
	%1725 = bitcast %struct._ZSo** %.Q0131.addr to i8**, !dbg !5630
	store i8*  %1724, i8**  %1725, align 8, !tbaa !5847, !dbg !5630
	br label %L..inline.28719
L..inline.28719:
	%1726 = call %struct._ZSo*  @_ZSt4endlIcSt11char_traitsIcEERSt13basic_ostreamIT_T0_ES6_ (%struct._ZSo* @_ZSt4cout), !dbg !5625
	%1727 = bitcast %struct._ZSo*  %1726 to i8*, !dbg !5625
	%1728 = bitcast %struct._ZSo** %.Q0132.addr to i8**, !dbg !5625
	store i8*  %1727, i8**  %1728, align 8, !tbaa !5847, !dbg !5625
	%1729 = bitcast [13 x i8]* @.S10085 to i8*, !dbg !5695
	%1730 = icmp ne i8*  %1729,  null, !dbg !5695
	br i1  %1730, label %L..inline.28739, label %L.B1792, !dbg !5695
L.B1792:
	%1731 = bitcast %struct._ZSo* @_ZSt4cout to i8*, !dbg !5629
	%1732 = bitcast %struct._ZSo* @_ZSt4cout to i8**, !dbg !5629
	%1733 = load i8*, i8**  %1732, align 8, !tbaa !5847, !dbg !5629
	%1734 = getelementptr i8, i8*  %1733, i64 18446744073709551592, !dbg !5629
	%1735 = bitcast i8*  %1734 to i64*, !dbg !5629
	%1736 = load i64, i64*  %1735, align 8, !tbaa !5848, !dbg !5629
	%1737 = getelementptr i8, i8*  %1731, i64  %1736, !dbg !5629
	%1738 = bitcast %struct._ZSt9basic_iosIcSt11char_traitsIcEE** %..inline.addr.4000 to i8**, !dbg !5629
	store i8*  %1737, i8**  %1738, align 8, !tbaa !5847, !dbg !5629
	%1739 = bitcast %struct._ZSt9basic_iosIcSt11char_traitsIcEE** %..inline.addr.4010 to i8**, !dbg !5629
	store i8*  %1737, i8**  %1739, align 8, !tbaa !5847, !dbg !5629
	%1740 = load %struct._ZSt9basic_iosIcSt11char_traitsIcEE*, %struct._ZSt9basic_iosIcSt11char_traitsIcEE** %..inline.addr.4010, align 8, !tbaa !5847, !dbg !5629
	%1741 = bitcast %struct._ZSt9basic_iosIcSt11char_traitsIcEE*  %1740 to i8*, !dbg !5629
	%1742 = getelementptr i8, i8*  %1741, i64 32, !dbg !5629
	%1743 = bitcast i8*  %1742 to i32*, !dbg !5629
	%1744 = load i32, i32*  %1743, align 4, !tbaa !5848, !dbg !5629
	%1745 = or i32  %1744, 1, !dbg !5629
	%1746 = load %struct._ZSt9basic_iosIcSt11char_traitsIcEE*, %struct._ZSt9basic_iosIcSt11char_traitsIcEE** %..inline.addr.4000, align 8, !tbaa !5847, !dbg !5629
	call void  @_ZNSt9basic_iosIcSt11char_traitsIcEE5clearESt12_Ios_Iostate (%struct._ZSt9basic_iosIcSt11char_traitsIcEE*  %1746, i32  %1745), !dbg !5629
	br label %L..inline.28760, !dbg !5629
L..inline.28739:
	%1747 = bitcast [13 x i8]* @.S10085 to i8*, !dbg !5630
	%1748 = call i64  @strlen (i8*  %1747) nounwind, !dbg !5630
	%1749 = call %struct._ZSo*  @_ZSt16__ostream_insertIcSt11char_traitsIcEERSt13basic_ostreamIT_T0_ES6_PKS3_l (%struct._ZSo* @_ZSt4cout, i8*  %1747, i64  %1748), !dbg !5630
	%1750 = bitcast %struct._ZSo*  %1749 to i8*, !dbg !5630
	%1751 = bitcast %struct._ZSo** %.Q0133.addr to i8**, !dbg !5630
	store i8*  %1750, i8**  %1751, align 8, !tbaa !5847, !dbg !5630
	br label %L..inline.28760
L..inline.28760:
	%1752 = call %struct._ZSo*  @_ZSt4endlIcSt11char_traitsIcEERSt13basic_ostreamIT_T0_ES6_ (%struct._ZSo* @_ZSt4cout), !dbg !5625
	%1753 = bitcast %struct._ZSo*  %1752 to i8*, !dbg !5625
	%1754 = bitcast %struct._ZSo** %.Q0134.addr to i8**, !dbg !5625
	store i8*  %1753, i8**  %1754, align 8, !tbaa !5847, !dbg !5625
	%1755 = bitcast [12 x i8]* @.S10087 to i8*, !dbg !5696
	%1756 = icmp ne i8*  %1755,  null, !dbg !5696
	br i1  %1756, label %L..inline.28780, label %L.B1793, !dbg !5696
L.B1793:
	%1757 = bitcast %struct._ZSo* @_ZSt4cout to i8*, !dbg !5629
	%1758 = bitcast %struct._ZSo* @_ZSt4cout to i8**, !dbg !5629
	%1759 = load i8*, i8**  %1758, align 8, !tbaa !5847, !dbg !5629
	%1760 = getelementptr i8, i8*  %1759, i64 18446744073709551592, !dbg !5629
	%1761 = bitcast i8*  %1760 to i64*, !dbg !5629
	%1762 = load i64, i64*  %1761, align 8, !tbaa !5848, !dbg !5629
	%1763 = getelementptr i8, i8*  %1757, i64  %1762, !dbg !5629
	%1764 = bitcast %struct._ZSt9basic_iosIcSt11char_traitsIcEE** %..inline.addr.4060 to i8**, !dbg !5629
	store i8*  %1763, i8**  %1764, align 8, !tbaa !5847, !dbg !5629
	%1765 = bitcast %struct._ZSt9basic_iosIcSt11char_traitsIcEE** %..inline.addr.4070 to i8**, !dbg !5629
	store i8*  %1763, i8**  %1765, align 8, !tbaa !5847, !dbg !5629
	%1766 = load %struct._ZSt9basic_iosIcSt11char_traitsIcEE*, %struct._ZSt9basic_iosIcSt11char_traitsIcEE** %..inline.addr.4070, align 8, !tbaa !5847, !dbg !5629
	%1767 = bitcast %struct._ZSt9basic_iosIcSt11char_traitsIcEE*  %1766 to i8*, !dbg !5629
	%1768 = getelementptr i8, i8*  %1767, i64 32, !dbg !5629
	%1769 = bitcast i8*  %1768 to i32*, !dbg !5629
	%1770 = load i32, i32*  %1769, align 4, !tbaa !5848, !dbg !5629
	%1771 = or i32  %1770, 1, !dbg !5629
	%1772 = load %struct._ZSt9basic_iosIcSt11char_traitsIcEE*, %struct._ZSt9basic_iosIcSt11char_traitsIcEE** %..inline.addr.4060, align 8, !tbaa !5847, !dbg !5629
	call void  @_ZNSt9basic_iosIcSt11char_traitsIcEE5clearESt12_Ios_Iostate (%struct._ZSt9basic_iosIcSt11char_traitsIcEE*  %1772, i32  %1771), !dbg !5629
	br label %L..inline.28801, !dbg !5629
L..inline.28780:
	%1773 = bitcast [12 x i8]* @.S10087 to i8*, !dbg !5630
	%1774 = call i64  @strlen (i8*  %1773) nounwind, !dbg !5630
	%1775 = call %struct._ZSo*  @_ZSt16__ostream_insertIcSt11char_traitsIcEERSt13basic_ostreamIT_T0_ES6_PKS3_l (%struct._ZSo* @_ZSt4cout, i8*  %1773, i64  %1774), !dbg !5630
	%1776 = bitcast %struct._ZSo*  %1775 to i8*, !dbg !5630
	%1777 = bitcast %struct._ZSo** %.Q0135.addr to i8**, !dbg !5630
	store i8*  %1776, i8**  %1777, align 8, !tbaa !5847, !dbg !5630
	br label %L..inline.28801
L..inline.28801:
	%1778 = call %struct._ZSo*  @_ZSt4endlIcSt11char_traitsIcEERSt13basic_ostreamIT_T0_ES6_ (%struct._ZSo* @_ZSt4cout), !dbg !5625
	%1779 = bitcast %struct._ZSo*  %1778 to i8*, !dbg !5625
	%1780 = bitcast %struct._ZSo** %.Q0136.addr to i8**, !dbg !5625
	store i8*  %1779, i8**  %1780, align 8, !tbaa !5847, !dbg !5625
	%1781 = bitcast [10 x i8]* @.S10089 to i8*, !dbg !5697
	%1782 = icmp ne i8*  %1781,  null, !dbg !5697
	br i1  %1782, label %L..inline.28821, label %L.B1794, !dbg !5697
L.B1794:
	%1783 = bitcast %struct._ZSo* @_ZSt4cout to i8*, !dbg !5629
	%1784 = bitcast %struct._ZSo* @_ZSt4cout to i8**, !dbg !5629
	%1785 = load i8*, i8**  %1784, align 8, !tbaa !5847, !dbg !5629
	%1786 = getelementptr i8, i8*  %1785, i64 18446744073709551592, !dbg !5629
	%1787 = bitcast i8*  %1786 to i64*, !dbg !5629
	%1788 = load i64, i64*  %1787, align 8, !tbaa !5848, !dbg !5629
	%1789 = getelementptr i8, i8*  %1783, i64  %1788, !dbg !5629
	%1790 = bitcast %struct._ZSt9basic_iosIcSt11char_traitsIcEE** %..inline.addr.4120 to i8**, !dbg !5629
	store i8*  %1789, i8**  %1790, align 8, !tbaa !5847, !dbg !5629
	%1791 = bitcast %struct._ZSt9basic_iosIcSt11char_traitsIcEE** %..inline.addr.4130 to i8**, !dbg !5629
	store i8*  %1789, i8**  %1791, align 8, !tbaa !5847, !dbg !5629
	%1792 = load %struct._ZSt9basic_iosIcSt11char_traitsIcEE*, %struct._ZSt9basic_iosIcSt11char_traitsIcEE** %..inline.addr.4130, align 8, !tbaa !5847, !dbg !5629
	%1793 = bitcast %struct._ZSt9basic_iosIcSt11char_traitsIcEE*  %1792 to i8*, !dbg !5629
	%1794 = getelementptr i8, i8*  %1793, i64 32, !dbg !5629
	%1795 = bitcast i8*  %1794 to i32*, !dbg !5629
	%1796 = load i32, i32*  %1795, align 4, !tbaa !5848, !dbg !5629
	%1797 = or i32  %1796, 1, !dbg !5629
	%1798 = load %struct._ZSt9basic_iosIcSt11char_traitsIcEE*, %struct._ZSt9basic_iosIcSt11char_traitsIcEE** %..inline.addr.4120, align 8, !tbaa !5847, !dbg !5629
	call void  @_ZNSt9basic_iosIcSt11char_traitsIcEE5clearESt12_Ios_Iostate (%struct._ZSt9basic_iosIcSt11char_traitsIcEE*  %1798, i32  %1797), !dbg !5629
	br label %L..inline.28842, !dbg !5629
L..inline.28821:
	%1799 = bitcast [10 x i8]* @.S10089 to i8*, !dbg !5630
	%1800 = call i64  @strlen (i8*  %1799) nounwind, !dbg !5630
	%1801 = call %struct._ZSo*  @_ZSt16__ostream_insertIcSt11char_traitsIcEERSt13basic_ostreamIT_T0_ES6_PKS3_l (%struct._ZSo* @_ZSt4cout, i8*  %1799, i64  %1800), !dbg !5630
	%1802 = bitcast %struct._ZSo*  %1801 to i8*, !dbg !5630
	%1803 = bitcast %struct._ZSo** %.Q0137.addr to i8**, !dbg !5630
	store i8*  %1802, i8**  %1803, align 8, !tbaa !5847, !dbg !5630
	br label %L..inline.28842
L..inline.28842:
	%1804 = call %struct._ZSo*  @_ZSt4endlIcSt11char_traitsIcEERSt13basic_ostreamIT_T0_ES6_ (%struct._ZSo* @_ZSt4cout), !dbg !5625
	%1805 = bitcast %struct._ZSo*  %1804 to i8*, !dbg !5625
	%1806 = bitcast %struct._ZSo** %.Q0138.addr to i8**, !dbg !5625
	store i8*  %1805, i8**  %1806, align 8, !tbaa !5847, !dbg !5625
	%1807 = bitcast [9 x i8]* @.S10092 to i8*, !dbg !5698
	%1808 = icmp ne i8*  %1807,  null, !dbg !5698
	br i1  %1808, label %L..inline.28862, label %L.B1795, !dbg !5698
L.B1795:
	%1809 = bitcast %struct._ZSo* @_ZSt4cout to i8*, !dbg !5629
	%1810 = bitcast %struct._ZSo* @_ZSt4cout to i8**, !dbg !5629
	%1811 = load i8*, i8**  %1810, align 8, !tbaa !5847, !dbg !5629
	%1812 = getelementptr i8, i8*  %1811, i64 18446744073709551592, !dbg !5629
	%1813 = bitcast i8*  %1812 to i64*, !dbg !5629
	%1814 = load i64, i64*  %1813, align 8, !tbaa !5848, !dbg !5629
	%1815 = getelementptr i8, i8*  %1809, i64  %1814, !dbg !5629
	%1816 = bitcast %struct._ZSt9basic_iosIcSt11char_traitsIcEE** %..inline.addr.4180 to i8**, !dbg !5629
	store i8*  %1815, i8**  %1816, align 8, !tbaa !5847, !dbg !5629
	%1817 = bitcast %struct._ZSt9basic_iosIcSt11char_traitsIcEE** %..inline.addr.4190 to i8**, !dbg !5629
	store i8*  %1815, i8**  %1817, align 8, !tbaa !5847, !dbg !5629
	%1818 = load %struct._ZSt9basic_iosIcSt11char_traitsIcEE*, %struct._ZSt9basic_iosIcSt11char_traitsIcEE** %..inline.addr.4190, align 8, !tbaa !5847, !dbg !5629
	%1819 = bitcast %struct._ZSt9basic_iosIcSt11char_traitsIcEE*  %1818 to i8*, !dbg !5629
	%1820 = getelementptr i8, i8*  %1819, i64 32, !dbg !5629
	%1821 = bitcast i8*  %1820 to i32*, !dbg !5629
	%1822 = load i32, i32*  %1821, align 4, !tbaa !5848, !dbg !5629
	%1823 = or i32  %1822, 1, !dbg !5629
	%1824 = load %struct._ZSt9basic_iosIcSt11char_traitsIcEE*, %struct._ZSt9basic_iosIcSt11char_traitsIcEE** %..inline.addr.4180, align 8, !tbaa !5847, !dbg !5629
	call void  @_ZNSt9basic_iosIcSt11char_traitsIcEE5clearESt12_Ios_Iostate (%struct._ZSt9basic_iosIcSt11char_traitsIcEE*  %1824, i32  %1823), !dbg !5629
	br label %L..inline.28883, !dbg !5629
L..inline.28862:
	%1825 = bitcast [9 x i8]* @.S10092 to i8*, !dbg !5630
	%1826 = call i64  @strlen (i8*  %1825) nounwind, !dbg !5630
	%1827 = call %struct._ZSo*  @_ZSt16__ostream_insertIcSt11char_traitsIcEERSt13basic_ostreamIT_T0_ES6_PKS3_l (%struct._ZSo* @_ZSt4cout, i8*  %1825, i64  %1826), !dbg !5630
	%1828 = bitcast %struct._ZSo*  %1827 to i8*, !dbg !5630
	%1829 = bitcast %struct._ZSo** %.Q0139.addr to i8**, !dbg !5630
	store i8*  %1828, i8**  %1829, align 8, !tbaa !5847, !dbg !5630
	br label %L..inline.28883
L..inline.28883:
	%1830 = call %struct._ZSo*  @_ZSt4endlIcSt11char_traitsIcEERSt13basic_ostreamIT_T0_ES6_ (%struct._ZSo* @_ZSt4cout), !dbg !5625
	%1831 = bitcast %struct._ZSo*  %1830 to i8*, !dbg !5625
	%1832 = bitcast %struct._ZSo** %.Q0140.addr to i8**, !dbg !5625
	store i8*  %1831, i8**  %1832, align 8, !tbaa !5847, !dbg !5625
	%1833 = bitcast [14 x i8]* @.S10094 to i8*, !dbg !5699
	%1834 = icmp ne i8*  %1833,  null, !dbg !5699
	br i1  %1834, label %L..inline.28903, label %L.B1796, !dbg !5699
L.B1796:
	%1835 = bitcast %struct._ZSo* @_ZSt4cout to i8*, !dbg !5629
	%1836 = bitcast %struct._ZSo* @_ZSt4cout to i8**, !dbg !5629
	%1837 = load i8*, i8**  %1836, align 8, !tbaa !5847, !dbg !5629
	%1838 = getelementptr i8, i8*  %1837, i64 18446744073709551592, !dbg !5629
	%1839 = bitcast i8*  %1838 to i64*, !dbg !5629
	%1840 = load i64, i64*  %1839, align 8, !tbaa !5848, !dbg !5629
	%1841 = getelementptr i8, i8*  %1835, i64  %1840, !dbg !5629
	%1842 = bitcast %struct._ZSt9basic_iosIcSt11char_traitsIcEE** %..inline.addr.4240 to i8**, !dbg !5629
	store i8*  %1841, i8**  %1842, align 8, !tbaa !5847, !dbg !5629
	%1843 = bitcast %struct._ZSt9basic_iosIcSt11char_traitsIcEE** %..inline.addr.4250 to i8**, !dbg !5629
	store i8*  %1841, i8**  %1843, align 8, !tbaa !5847, !dbg !5629
	%1844 = load %struct._ZSt9basic_iosIcSt11char_traitsIcEE*, %struct._ZSt9basic_iosIcSt11char_traitsIcEE** %..inline.addr.4250, align 8, !tbaa !5847, !dbg !5629
	%1845 = bitcast %struct._ZSt9basic_iosIcSt11char_traitsIcEE*  %1844 to i8*, !dbg !5629
	%1846 = getelementptr i8, i8*  %1845, i64 32, !dbg !5629
	%1847 = bitcast i8*  %1846 to i32*, !dbg !5629
	%1848 = load i32, i32*  %1847, align 4, !tbaa !5848, !dbg !5629
	%1849 = or i32  %1848, 1, !dbg !5629
	%1850 = load %struct._ZSt9basic_iosIcSt11char_traitsIcEE*, %struct._ZSt9basic_iosIcSt11char_traitsIcEE** %..inline.addr.4240, align 8, !tbaa !5847, !dbg !5629
	call void  @_ZNSt9basic_iosIcSt11char_traitsIcEE5clearESt12_Ios_Iostate (%struct._ZSt9basic_iosIcSt11char_traitsIcEE*  %1850, i32  %1849), !dbg !5629
	br label %L..inline.28924, !dbg !5629
L..inline.28903:
	%1851 = bitcast [14 x i8]* @.S10094 to i8*, !dbg !5630
	%1852 = call i64  @strlen (i8*  %1851) nounwind, !dbg !5630
	%1853 = call %struct._ZSo*  @_ZSt16__ostream_insertIcSt11char_traitsIcEERSt13basic_ostreamIT_T0_ES6_PKS3_l (%struct._ZSo* @_ZSt4cout, i8*  %1851, i64  %1852), !dbg !5630
	%1854 = bitcast %struct._ZSo*  %1853 to i8*, !dbg !5630
	%1855 = bitcast %struct._ZSo** %.Q0141.addr to i8**, !dbg !5630
	store i8*  %1854, i8**  %1855, align 8, !tbaa !5847, !dbg !5630
	br label %L..inline.28924
L..inline.28924:
	%1856 = call %struct._ZSo*  @_ZSt4endlIcSt11char_traitsIcEERSt13basic_ostreamIT_T0_ES6_ (%struct._ZSo* @_ZSt4cout), !dbg !5625
	%1857 = bitcast %struct._ZSo*  %1856 to i8*, !dbg !5625
	%1858 = bitcast %struct._ZSo** %.Q0142.addr to i8**, !dbg !5625
	store i8*  %1857, i8**  %1858, align 8, !tbaa !5847, !dbg !5625
	%1859 = bitcast [13 x i8]* @.S10096 to i8*, !dbg !5700
	%1860 = icmp ne i8*  %1859,  null, !dbg !5700
	br i1  %1860, label %L..inline.28944, label %L.B1797, !dbg !5700
L.B1797:
	%1861 = bitcast %struct._ZSo* @_ZSt4cout to i8*, !dbg !5629
	%1862 = bitcast %struct._ZSo* @_ZSt4cout to i8**, !dbg !5629
	%1863 = load i8*, i8**  %1862, align 8, !tbaa !5847, !dbg !5629
	%1864 = getelementptr i8, i8*  %1863, i64 18446744073709551592, !dbg !5629
	%1865 = bitcast i8*  %1864 to i64*, !dbg !5629
	%1866 = load i64, i64*  %1865, align 8, !tbaa !5848, !dbg !5629
	%1867 = getelementptr i8, i8*  %1861, i64  %1866, !dbg !5629
	%1868 = bitcast %struct._ZSt9basic_iosIcSt11char_traitsIcEE** %..inline.addr.4300 to i8**, !dbg !5629
	store i8*  %1867, i8**  %1868, align 8, !tbaa !5847, !dbg !5629
	%1869 = bitcast %struct._ZSt9basic_iosIcSt11char_traitsIcEE** %..inline.addr.4310 to i8**, !dbg !5629
	store i8*  %1867, i8**  %1869, align 8, !tbaa !5847, !dbg !5629
	%1870 = load %struct._ZSt9basic_iosIcSt11char_traitsIcEE*, %struct._ZSt9basic_iosIcSt11char_traitsIcEE** %..inline.addr.4310, align 8, !tbaa !5847, !dbg !5629
	%1871 = bitcast %struct._ZSt9basic_iosIcSt11char_traitsIcEE*  %1870 to i8*, !dbg !5629
	%1872 = getelementptr i8, i8*  %1871, i64 32, !dbg !5629
	%1873 = bitcast i8*  %1872 to i32*, !dbg !5629
	%1874 = load i32, i32*  %1873, align 4, !tbaa !5848, !dbg !5629
	%1875 = or i32  %1874, 1, !dbg !5629
	%1876 = load %struct._ZSt9basic_iosIcSt11char_traitsIcEE*, %struct._ZSt9basic_iosIcSt11char_traitsIcEE** %..inline.addr.4300, align 8, !tbaa !5847, !dbg !5629
	call void  @_ZNSt9basic_iosIcSt11char_traitsIcEE5clearESt12_Ios_Iostate (%struct._ZSt9basic_iosIcSt11char_traitsIcEE*  %1876, i32  %1875), !dbg !5629
	br label %L..inline.28965, !dbg !5629
L..inline.28944:
	%1877 = bitcast [13 x i8]* @.S10096 to i8*, !dbg !5630
	%1878 = call i64  @strlen (i8*  %1877) nounwind, !dbg !5630
	%1879 = call %struct._ZSo*  @_ZSt16__ostream_insertIcSt11char_traitsIcEERSt13basic_ostreamIT_T0_ES6_PKS3_l (%struct._ZSo* @_ZSt4cout, i8*  %1877, i64  %1878), !dbg !5630
	%1880 = bitcast %struct._ZSo*  %1879 to i8*, !dbg !5630
	%1881 = bitcast %struct._ZSo** %.Q0143.addr to i8**, !dbg !5630
	store i8*  %1880, i8**  %1881, align 8, !tbaa !5847, !dbg !5630
	br label %L..inline.28965
L..inline.28965:
	%1882 = call %struct._ZSo*  @_ZSt4endlIcSt11char_traitsIcEERSt13basic_ostreamIT_T0_ES6_ (%struct._ZSo* @_ZSt4cout), !dbg !5625
	%1883 = bitcast %struct._ZSo*  %1882 to i8*, !dbg !5625
	%1884 = bitcast %struct._ZSo** %.Q0144.addr to i8**, !dbg !5625
	store i8*  %1883, i8**  %1884, align 8, !tbaa !5847, !dbg !5625
	%1885 = bitcast [13 x i8]* @.S10098 to i8*, !dbg !5701
	%1886 = icmp ne i8*  %1885,  null, !dbg !5701
	br i1  %1886, label %L..inline.28985, label %L.B1798, !dbg !5701
L.B1798:
	%1887 = bitcast %struct._ZSo* @_ZSt4cout to i8*, !dbg !5629
	%1888 = bitcast %struct._ZSo* @_ZSt4cout to i8**, !dbg !5629
	%1889 = load i8*, i8**  %1888, align 8, !tbaa !5847, !dbg !5629
	%1890 = getelementptr i8, i8*  %1889, i64 18446744073709551592, !dbg !5629
	%1891 = bitcast i8*  %1890 to i64*, !dbg !5629
	%1892 = load i64, i64*  %1891, align 8, !tbaa !5848, !dbg !5629
	%1893 = getelementptr i8, i8*  %1887, i64  %1892, !dbg !5629
	%1894 = bitcast %struct._ZSt9basic_iosIcSt11char_traitsIcEE** %..inline.addr.4360 to i8**, !dbg !5629
	store i8*  %1893, i8**  %1894, align 8, !tbaa !5847, !dbg !5629
	%1895 = bitcast %struct._ZSt9basic_iosIcSt11char_traitsIcEE** %..inline.addr.4370 to i8**, !dbg !5629
	store i8*  %1893, i8**  %1895, align 8, !tbaa !5847, !dbg !5629
	%1896 = load %struct._ZSt9basic_iosIcSt11char_traitsIcEE*, %struct._ZSt9basic_iosIcSt11char_traitsIcEE** %..inline.addr.4370, align 8, !tbaa !5847, !dbg !5629
	%1897 = bitcast %struct._ZSt9basic_iosIcSt11char_traitsIcEE*  %1896 to i8*, !dbg !5629
	%1898 = getelementptr i8, i8*  %1897, i64 32, !dbg !5629
	%1899 = bitcast i8*  %1898 to i32*, !dbg !5629
	%1900 = load i32, i32*  %1899, align 4, !tbaa !5848, !dbg !5629
	%1901 = or i32  %1900, 1, !dbg !5629
